
P2arlooo.elf:     file format elf32-littlearm

Sections:
Idx Name          Size      VMA       LMA       File off  Algn
  0 .text         0000ac40  00080000  00080000  00008000  2**3
                  CONTENTS, ALLOC, LOAD, READONLY, CODE
  1 .ARM.exidx    00000008  0008ac40  0008ac40  00012c40  2**2
                  CONTENTS, ALLOC, LOAD, READONLY, DATA
  2 .relocate     000009ec  20070000  0008ac48  00018000  2**3
                  CONTENTS, ALLOC, LOAD, CODE
  3 .bss          00008288  200709f0  0008b638  000189ec  2**3
                  ALLOC
  4 .stack        00002000  20078c78  000938c0  000189ec  2**0
                  ALLOC
  5 .ARM.attributes 00000029  00000000  00000000  000189ec  2**0
                  CONTENTS, READONLY
  6 .comment      0000005b  00000000  00000000  00018a15  2**0
                  CONTENTS, READONLY
  7 .debug_info   0001090a  00000000  00000000  00018a70  2**0
                  CONTENTS, READONLY, DEBUGGING
  8 .debug_abbrev 00003087  00000000  00000000  0002937a  2**0
                  CONTENTS, READONLY, DEBUGGING
  9 .debug_loc    0000790f  00000000  00000000  0002c401  2**0
                  CONTENTS, READONLY, DEBUGGING
 10 .debug_aranges 00000d98  00000000  00000000  00033d10  2**0
                  CONTENTS, READONLY, DEBUGGING
 11 .debug_ranges 00000ce8  00000000  00000000  00034aa8  2**0
                  CONTENTS, READONLY, DEBUGGING
 12 .debug_macro  00019e54  00000000  00000000  00035790  2**0
                  CONTENTS, READONLY, DEBUGGING
 13 .debug_line   0001179a  00000000  00000000  0004f5e4  2**0
                  CONTENTS, READONLY, DEBUGGING
 14 .debug_str    0006a685  00000000  00000000  00060d7e  2**0
                  CONTENTS, READONLY, DEBUGGING
 15 .debug_frame  00002fe4  00000000  00000000  000cb404  2**2
                  CONTENTS, READONLY, DEBUGGING

Disassembly of section .text:

00080000 <_sfixed>:
   80000:	2007ac78 	.word	0x2007ac78
   80004:	00080e59 	.word	0x00080e59
   80008:	00080e55 	.word	0x00080e55
   8000c:	00080e55 	.word	0x00080e55
   80010:	00080e55 	.word	0x00080e55
   80014:	00080e55 	.word	0x00080e55
   80018:	00080e55 	.word	0x00080e55
	...
   8002c:	0008114d 	.word	0x0008114d
   80030:	00080e55 	.word	0x00080e55
   80034:	00000000 	.word	0x00000000
   80038:	000811c9 	.word	0x000811c9
   8003c:	00081205 	.word	0x00081205
   80040:	00080e55 	.word	0x00080e55
   80044:	00080e55 	.word	0x00080e55
   80048:	00080e55 	.word	0x00080e55
   8004c:	00080e55 	.word	0x00080e55
   80050:	00080e55 	.word	0x00080e55
   80054:	00080e55 	.word	0x00080e55
   80058:	00080e55 	.word	0x00080e55
   8005c:	00080e55 	.word	0x00080e55
   80060:	00080e55 	.word	0x00080e55
   80064:	00080e55 	.word	0x00080e55
   80068:	00000000 	.word	0x00000000
   8006c:	00080c01 	.word	0x00080c01
   80070:	00080c15 	.word	0x00080c15
   80074:	00080c29 	.word	0x00080c29
   80078:	00080c3d 	.word	0x00080c3d
	...
   80084:	00080e55 	.word	0x00080e55
   80088:	00080e55 	.word	0x00080e55
   8008c:	00080e55 	.word	0x00080e55
   80090:	00080e55 	.word	0x00080e55
   80094:	00080e55 	.word	0x00080e55
   80098:	00080e55 	.word	0x00080e55
   8009c:	00080e55 	.word	0x00080e55
   800a0:	00080e55 	.word	0x00080e55
   800a4:	00000000 	.word	0x00000000
   800a8:	00080e55 	.word	0x00080e55
   800ac:	00080e55 	.word	0x00080e55
   800b0:	00080e55 	.word	0x00080e55
   800b4:	00080e55 	.word	0x00080e55
   800b8:	00080e55 	.word	0x00080e55
   800bc:	00080e55 	.word	0x00080e55
   800c0:	00080e55 	.word	0x00080e55
   800c4:	00080e55 	.word	0x00080e55
   800c8:	00080e55 	.word	0x00080e55
   800cc:	00080e55 	.word	0x00080e55
   800d0:	00080e55 	.word	0x00080e55
   800d4:	00080e55 	.word	0x00080e55
   800d8:	00080e55 	.word	0x00080e55
   800dc:	00080e55 	.word	0x00080e55
   800e0:	00080e55 	.word	0x00080e55
   800e4:	00080e55 	.word	0x00080e55
   800e8:	00080e55 	.word	0x00080e55
   800ec:	00080e55 	.word	0x00080e55
   800f0:	00080e55 	.word	0x00080e55

000800f4 <__do_global_dtors_aux>:
   800f4:	b510      	push	{r4, lr}
   800f6:	4c05      	ldr	r4, [pc, #20]	; (8010c <__do_global_dtors_aux+0x18>)
   800f8:	7823      	ldrb	r3, [r4, #0]
   800fa:	b933      	cbnz	r3, 8010a <__do_global_dtors_aux+0x16>
   800fc:	4b04      	ldr	r3, [pc, #16]	; (80110 <__do_global_dtors_aux+0x1c>)
   800fe:	b113      	cbz	r3, 80106 <__do_global_dtors_aux+0x12>
   80100:	4804      	ldr	r0, [pc, #16]	; (80114 <__do_global_dtors_aux+0x20>)
   80102:	f3af 8000 	nop.w
   80106:	2301      	movs	r3, #1
   80108:	7023      	strb	r3, [r4, #0]
   8010a:	bd10      	pop	{r4, pc}
   8010c:	200709f0 	.word	0x200709f0
   80110:	00000000 	.word	0x00000000
   80114:	0008ac48 	.word	0x0008ac48

00080118 <frame_dummy>:
   80118:	b508      	push	{r3, lr}
   8011a:	4b06      	ldr	r3, [pc, #24]	; (80134 <frame_dummy+0x1c>)
   8011c:	b11b      	cbz	r3, 80126 <frame_dummy+0xe>
   8011e:	4806      	ldr	r0, [pc, #24]	; (80138 <frame_dummy+0x20>)
   80120:	4906      	ldr	r1, [pc, #24]	; (8013c <frame_dummy+0x24>)
   80122:	f3af 8000 	nop.w
   80126:	4806      	ldr	r0, [pc, #24]	; (80140 <frame_dummy+0x28>)
   80128:	6803      	ldr	r3, [r0, #0]
   8012a:	b113      	cbz	r3, 80132 <frame_dummy+0x1a>
   8012c:	4b05      	ldr	r3, [pc, #20]	; (80144 <frame_dummy+0x2c>)
   8012e:	b103      	cbz	r3, 80132 <frame_dummy+0x1a>
   80130:	4798      	blx	r3
   80132:	bd08      	pop	{r3, pc}
   80134:	00000000 	.word	0x00000000
   80138:	0008ac48 	.word	0x0008ac48
   8013c:	200709f4 	.word	0x200709f4
   80140:	0008ac48 	.word	0x0008ac48
   80144:	00000000 	.word	0x00000000

00080148 <delayInit>:
 */ 
#include "asf.h"
#include "delay.h"

void delayInit(void)		/* Initializes the timer used for delays */
{
   80148:	b510      	push	{r4, lr}
	pmc_enable_periph_clk(ID_TC0);
   8014a:	201b      	movs	r0, #27
   8014c:	4b08      	ldr	r3, [pc, #32]	; (80170 <delayInit+0x28>)
   8014e:	4798      	blx	r3
	tc_init(TC0,0,0);		 /* TC0, channel 0, TCLK1 och capturemode */
   80150:	4c08      	ldr	r4, [pc, #32]	; (80174 <delayInit+0x2c>)
   80152:	4620      	mov	r0, r4
   80154:	2100      	movs	r1, #0
   80156:	460a      	mov	r2, r1
   80158:	4b07      	ldr	r3, [pc, #28]	; (80178 <delayInit+0x30>)
   8015a:	4798      	blx	r3
	tc_set_block_mode(TC0,0);
   8015c:	4620      	mov	r0, r4
   8015e:	2100      	movs	r1, #0
   80160:	4b06      	ldr	r3, [pc, #24]	; (8017c <delayInit+0x34>)
   80162:	4798      	blx	r3
	tc_stop(TC0,0);			/* making sure the timer does not run  */
   80164:	4620      	mov	r0, r4
   80166:	2100      	movs	r1, #0
   80168:	4b05      	ldr	r3, [pc, #20]	; (80180 <delayInit+0x38>)
   8016a:	4798      	blx	r3
   8016c:	bd10      	pop	{r4, pc}
   8016e:	bf00      	nop
   80170:	00080d39 	.word	0x00080d39
   80174:	40080000 	.word	0x40080000
   80178:	00080d91 	.word	0x00080d91
   8017c:	00080dad 	.word	0x00080dad
   80180:	00080dbd 	.word	0x00080dbd

00080184 <delayMicroseconds>:
}


void delayMicroseconds(uint32_t us)		/* A simple implementation for a delay in us (not calibrated) */
{
   80184:	b5f8      	push	{r3, r4, r5, r6, r7, lr}
   80186:	4604      	mov	r4, r0
	tc_start(TC0,0);
   80188:	4809      	ldr	r0, [pc, #36]	; (801b0 <delayMicroseconds+0x2c>)
   8018a:	2100      	movs	r1, #0
   8018c:	4b09      	ldr	r3, [pc, #36]	; (801b4 <delayMicroseconds+0x30>)
   8018e:	4798      	blx	r3
	while (tc_read_cv(TC0,0) < us*42); /* Only works in newere version of ASF */
   80190:	272a      	movs	r7, #42	; 0x2a
   80192:	fb07 f704 	mul.w	r7, r7, r4
   80196:	4e06      	ldr	r6, [pc, #24]	; (801b0 <delayMicroseconds+0x2c>)
   80198:	2500      	movs	r5, #0
   8019a:	4c07      	ldr	r4, [pc, #28]	; (801b8 <delayMicroseconds+0x34>)
   8019c:	4630      	mov	r0, r6
   8019e:	4629      	mov	r1, r5
   801a0:	47a0      	blx	r4
   801a2:	42b8      	cmp	r0, r7
   801a4:	d3fa      	bcc.n	8019c <delayMicroseconds+0x18>
	tc_stop(TC0,0);
   801a6:	4802      	ldr	r0, [pc, #8]	; (801b0 <delayMicroseconds+0x2c>)
   801a8:	2100      	movs	r1, #0
   801aa:	4b04      	ldr	r3, [pc, #16]	; (801bc <delayMicroseconds+0x38>)
   801ac:	4798      	blx	r3
   801ae:	bdf8      	pop	{r3, r4, r5, r6, r7, pc}
   801b0:	40080000 	.word	0x40080000
   801b4:	00080db5 	.word	0x00080db5
   801b8:	00080dc5 	.word	0x00080dc5
   801bc:	00080dbd 	.word	0x00080dbd

000801c0 <usart_serial_getchar>:
 * \param p_usart   Base address of the USART instance.
 * \param data   Data to read
 *
 */
static inline void usart_serial_getchar(usart_if p_usart, uint8_t *data)
{
   801c0:	b5f0      	push	{r4, r5, r6, r7, lr}
   801c2:	b083      	sub	sp, #12
   801c4:	4604      	mov	r4, r0
   801c6:	460d      	mov	r5, r1
	uint32_t val = 0;
   801c8:	2300      	movs	r3, #0
   801ca:	9301      	str	r3, [sp, #4]

	/* Avoid Cppcheck Warning */
	UNUSED(val);

#ifdef UART
	if (UART == (Uart*)p_usart) {
   801cc:	4b1f      	ldr	r3, [pc, #124]	; (8024c <usart_serial_getchar+0x8c>)
   801ce:	4298      	cmp	r0, r3
   801d0:	d107      	bne.n	801e2 <usart_serial_getchar+0x22>
		while (uart_read((Uart*)p_usart, data));
   801d2:	461f      	mov	r7, r3
   801d4:	4e1e      	ldr	r6, [pc, #120]	; (80250 <usart_serial_getchar+0x90>)
   801d6:	4638      	mov	r0, r7
   801d8:	4629      	mov	r1, r5
   801da:	47b0      	blx	r6
   801dc:	2800      	cmp	r0, #0
   801de:	d1fa      	bne.n	801d6 <usart_serial_getchar+0x16>
   801e0:	e019      	b.n	80216 <usart_serial_getchar+0x56>
		while (usart_read(p_usart, &val));
		*data = (uint8_t)(val & 0xFF);
	}
#else
# ifdef USART0
	if (USART0 == p_usart) {
   801e2:	4b1c      	ldr	r3, [pc, #112]	; (80254 <usart_serial_getchar+0x94>)
   801e4:	4298      	cmp	r0, r3
   801e6:	d109      	bne.n	801fc <usart_serial_getchar+0x3c>
		while (usart_read(p_usart, &val));
   801e8:	461f      	mov	r7, r3
   801ea:	4e1b      	ldr	r6, [pc, #108]	; (80258 <usart_serial_getchar+0x98>)
   801ec:	4638      	mov	r0, r7
   801ee:	a901      	add	r1, sp, #4
   801f0:	47b0      	blx	r6
   801f2:	2800      	cmp	r0, #0
   801f4:	d1fa      	bne.n	801ec <usart_serial_getchar+0x2c>
		*data = (uint8_t)(val & 0xFF);
   801f6:	9b01      	ldr	r3, [sp, #4]
   801f8:	702b      	strb	r3, [r5, #0]
   801fa:	e019      	b.n	80230 <usart_serial_getchar+0x70>
	}
# endif
# ifdef USART1
	if (USART1 == p_usart) {
   801fc:	4b17      	ldr	r3, [pc, #92]	; (8025c <usart_serial_getchar+0x9c>)
   801fe:	4298      	cmp	r0, r3
   80200:	d109      	bne.n	80216 <usart_serial_getchar+0x56>
		while (usart_read(p_usart, &val));
   80202:	461e      	mov	r6, r3
   80204:	4c14      	ldr	r4, [pc, #80]	; (80258 <usart_serial_getchar+0x98>)
   80206:	4630      	mov	r0, r6
   80208:	a901      	add	r1, sp, #4
   8020a:	47a0      	blx	r4
   8020c:	2800      	cmp	r0, #0
   8020e:	d1fa      	bne.n	80206 <usart_serial_getchar+0x46>
		*data = (uint8_t)(val & 0xFF);
   80210:	9b01      	ldr	r3, [sp, #4]
   80212:	702b      	strb	r3, [r5, #0]
   80214:	e018      	b.n	80248 <usart_serial_getchar+0x88>
	}
# endif
# ifdef USART2
	if (USART2 == p_usart) {
   80216:	4b12      	ldr	r3, [pc, #72]	; (80260 <usart_serial_getchar+0xa0>)
   80218:	429c      	cmp	r4, r3
   8021a:	d109      	bne.n	80230 <usart_serial_getchar+0x70>
		while (usart_read(p_usart, &val));
   8021c:	461e      	mov	r6, r3
   8021e:	4c0e      	ldr	r4, [pc, #56]	; (80258 <usart_serial_getchar+0x98>)
   80220:	4630      	mov	r0, r6
   80222:	a901      	add	r1, sp, #4
   80224:	47a0      	blx	r4
   80226:	2800      	cmp	r0, #0
   80228:	d1fa      	bne.n	80220 <usart_serial_getchar+0x60>
		*data = (uint8_t)(val & 0xFF);
   8022a:	9b01      	ldr	r3, [sp, #4]
   8022c:	702b      	strb	r3, [r5, #0]
   8022e:	e00b      	b.n	80248 <usart_serial_getchar+0x88>
	}
# endif
# ifdef USART3
	if (USART3 == p_usart) {
   80230:	4b0c      	ldr	r3, [pc, #48]	; (80264 <usart_serial_getchar+0xa4>)
   80232:	429c      	cmp	r4, r3
   80234:	d108      	bne.n	80248 <usart_serial_getchar+0x88>
		while (usart_read(p_usart, &val));
   80236:	461e      	mov	r6, r3
   80238:	4c07      	ldr	r4, [pc, #28]	; (80258 <usart_serial_getchar+0x98>)
   8023a:	4630      	mov	r0, r6
   8023c:	a901      	add	r1, sp, #4
   8023e:	47a0      	blx	r4
   80240:	2800      	cmp	r0, #0
   80242:	d1fa      	bne.n	8023a <usart_serial_getchar+0x7a>
		*data = (uint8_t)(val & 0xFF);
   80244:	9b01      	ldr	r3, [sp, #4]
   80246:	702b      	strb	r3, [r5, #0]
		*data = (uint8_t)(val & 0xFF);
	}
# endif
#endif /* ifdef USART */

}
   80248:	b003      	add	sp, #12
   8024a:	bdf0      	pop	{r4, r5, r6, r7, pc}
   8024c:	400e0800 	.word	0x400e0800
   80250:	00080e15 	.word	0x00080e15
   80254:	40098000 	.word	0x40098000
   80258:	00080e3d 	.word	0x00080e3d
   8025c:	4009c000 	.word	0x4009c000
   80260:	400a0000 	.word	0x400a0000
   80264:	400a4000 	.word	0x400a4000

00080268 <usart_serial_putchar>:
 *   \retval 1  The character was written.
 *   \retval 0  The function timed out before the USART transmitter became
 * ready to send.
 */
static inline int usart_serial_putchar(usart_if p_usart, const uint8_t c)
{
   80268:	b570      	push	{r4, r5, r6, lr}
   8026a:	460c      	mov	r4, r1
#ifdef UART
	if (UART == (Uart*)p_usart) {
   8026c:	4b21      	ldr	r3, [pc, #132]	; (802f4 <usart_serial_putchar+0x8c>)
   8026e:	4298      	cmp	r0, r3
   80270:	d107      	bne.n	80282 <usart_serial_putchar+0x1a>
		while (uart_write((Uart*)p_usart, c)!=0);
   80272:	461e      	mov	r6, r3
   80274:	4d20      	ldr	r5, [pc, #128]	; (802f8 <usart_serial_putchar+0x90>)
   80276:	4630      	mov	r0, r6
   80278:	4621      	mov	r1, r4
   8027a:	47a8      	blx	r5
   8027c:	2800      	cmp	r0, #0
   8027e:	d1fa      	bne.n	80276 <usart_serial_putchar+0xe>
   80280:	e02b      	b.n	802da <usart_serial_putchar+0x72>
		while (usart_write(p_usart, c)!=0);
		return 1;
	}
#else
# ifdef USART0
	if (USART0 == p_usart) {
   80282:	4b1e      	ldr	r3, [pc, #120]	; (802fc <usart_serial_putchar+0x94>)
   80284:	4298      	cmp	r0, r3
   80286:	d107      	bne.n	80298 <usart_serial_putchar+0x30>
		while (usart_write(p_usart, c)!=0);
   80288:	461e      	mov	r6, r3
   8028a:	4d1d      	ldr	r5, [pc, #116]	; (80300 <usart_serial_putchar+0x98>)
   8028c:	4630      	mov	r0, r6
   8028e:	4621      	mov	r1, r4
   80290:	47a8      	blx	r5
   80292:	2800      	cmp	r0, #0
   80294:	d1fa      	bne.n	8028c <usart_serial_putchar+0x24>
   80296:	e022      	b.n	802de <usart_serial_putchar+0x76>
		return 1;
	}
# endif
# ifdef USART1
	if (USART1 == p_usart) {
   80298:	4b1a      	ldr	r3, [pc, #104]	; (80304 <usart_serial_putchar+0x9c>)
   8029a:	4298      	cmp	r0, r3
   8029c:	d107      	bne.n	802ae <usart_serial_putchar+0x46>
		while (usart_write(p_usart, c)!=0);
   8029e:	461e      	mov	r6, r3
   802a0:	4d17      	ldr	r5, [pc, #92]	; (80300 <usart_serial_putchar+0x98>)
   802a2:	4630      	mov	r0, r6
   802a4:	4621      	mov	r1, r4
   802a6:	47a8      	blx	r5
   802a8:	2800      	cmp	r0, #0
   802aa:	d1fa      	bne.n	802a2 <usart_serial_putchar+0x3a>
   802ac:	e019      	b.n	802e2 <usart_serial_putchar+0x7a>
		return 1;
	}
# endif
# ifdef USART2
	if (USART2 == p_usart) {
   802ae:	4b16      	ldr	r3, [pc, #88]	; (80308 <usart_serial_putchar+0xa0>)
   802b0:	4298      	cmp	r0, r3
   802b2:	d107      	bne.n	802c4 <usart_serial_putchar+0x5c>
		while (usart_write(p_usart, c)!=0);
   802b4:	461e      	mov	r6, r3
   802b6:	4d12      	ldr	r5, [pc, #72]	; (80300 <usart_serial_putchar+0x98>)
   802b8:	4630      	mov	r0, r6
   802ba:	4621      	mov	r1, r4
   802bc:	47a8      	blx	r5
   802be:	2800      	cmp	r0, #0
   802c0:	d1fa      	bne.n	802b8 <usart_serial_putchar+0x50>
   802c2:	e010      	b.n	802e6 <usart_serial_putchar+0x7e>
		return 1;
	}
# endif
# ifdef USART3
	if (USART3 == p_usart) {
   802c4:	4b11      	ldr	r3, [pc, #68]	; (8030c <usart_serial_putchar+0xa4>)
   802c6:	4298      	cmp	r0, r3
   802c8:	d10f      	bne.n	802ea <usart_serial_putchar+0x82>
		while (usart_write(p_usart, c)!=0);
   802ca:	461e      	mov	r6, r3
   802cc:	4d0c      	ldr	r5, [pc, #48]	; (80300 <usart_serial_putchar+0x98>)
   802ce:	4630      	mov	r0, r6
   802d0:	4621      	mov	r1, r4
   802d2:	47a8      	blx	r5
   802d4:	2800      	cmp	r0, #0
   802d6:	d1fa      	bne.n	802ce <usart_serial_putchar+0x66>
   802d8:	e009      	b.n	802ee <usart_serial_putchar+0x86>
static inline int usart_serial_putchar(usart_if p_usart, const uint8_t c)
{
#ifdef UART
	if (UART == (Uart*)p_usart) {
		while (uart_write((Uart*)p_usart, c)!=0);
		return 1;
   802da:	2001      	movs	r0, #1
   802dc:	bd70      	pop	{r4, r5, r6, pc}
	}
#else
# ifdef USART0
	if (USART0 == p_usart) {
		while (usart_write(p_usart, c)!=0);
		return 1;
   802de:	2001      	movs	r0, #1
   802e0:	bd70      	pop	{r4, r5, r6, pc}
	}
# endif
# ifdef USART1
	if (USART1 == p_usart) {
		while (usart_write(p_usart, c)!=0);
		return 1;
   802e2:	2001      	movs	r0, #1
   802e4:	bd70      	pop	{r4, r5, r6, pc}
	}
# endif
# ifdef USART2
	if (USART2 == p_usart) {
		while (usart_write(p_usart, c)!=0);
		return 1;
   802e6:	2001      	movs	r0, #1
   802e8:	bd70      	pop	{r4, r5, r6, pc}
		return 1;
	}
# endif
#endif /* ifdef USART */

	return 0;
   802ea:	2000      	movs	r0, #0
   802ec:	bd70      	pop	{r4, r5, r6, pc}
	}
# endif
# ifdef USART3
	if (USART3 == p_usart) {
		while (usart_write(p_usart, c)!=0);
		return 1;
   802ee:	2001      	movs	r0, #1
	}
# endif
#endif /* ifdef USART */

	return 0;
}
   802f0:	bd70      	pop	{r4, r5, r6, pc}
   802f2:	bf00      	nop
   802f4:	400e0800 	.word	0x400e0800
   802f8:	00080e05 	.word	0x00080e05
   802fc:	40098000 	.word	0x40098000
   80300:	00080e29 	.word	0x00080e29
   80304:	4009c000 	.word	0x4009c000
   80308:	400a0000 	.word	0x400a0000
   8030c:	400a4000 	.word	0x400a4000

00080310 <getDistance>:
	
}

	}

float getDistance(float x1,float x2,float y1,float y2){
   80310:	e92d 41f0 	stmdb	sp!, {r4, r5, r6, r7, r8, lr}
   80314:	460f      	mov	r7, r1
   80316:	461d      	mov	r5, r3
	
	distance =  sqrt((x1-y1)*(x1-y1)+(x2-y2)*(x2-y2));
   80318:	4c0f      	ldr	r4, [pc, #60]	; (80358 <getDistance+0x48>)
   8031a:	4611      	mov	r1, r2
   8031c:	47a0      	blx	r4
   8031e:	4606      	mov	r6, r0
   80320:	4638      	mov	r0, r7
   80322:	4629      	mov	r1, r5
   80324:	47a0      	blx	r4
   80326:	4605      	mov	r5, r0
   80328:	4c0c      	ldr	r4, [pc, #48]	; (8035c <getDistance+0x4c>)
   8032a:	f8df 8044 	ldr.w	r8, [pc, #68]	; 80370 <getDistance+0x60>
   8032e:	4f0c      	ldr	r7, [pc, #48]	; (80360 <getDistance+0x50>)
   80330:	4630      	mov	r0, r6
   80332:	4631      	mov	r1, r6
   80334:	47a0      	blx	r4
   80336:	4606      	mov	r6, r0
   80338:	4628      	mov	r0, r5
   8033a:	4629      	mov	r1, r5
   8033c:	47a0      	blx	r4
   8033e:	4601      	mov	r1, r0
   80340:	4630      	mov	r0, r6
   80342:	47c0      	blx	r8
   80344:	47b8      	blx	r7
   80346:	4b07      	ldr	r3, [pc, #28]	; (80364 <getDistance+0x54>)
   80348:	4798      	blx	r3
   8034a:	4b07      	ldr	r3, [pc, #28]	; (80368 <getDistance+0x58>)
   8034c:	4798      	blx	r3
   8034e:	4b07      	ldr	r3, [pc, #28]	; (8036c <getDistance+0x5c>)
   80350:	6018      	str	r0, [r3, #0]
	return distance;
}
   80352:	e8bd 81f0 	ldmia.w	sp!, {r4, r5, r6, r7, r8, pc}
   80356:	bf00      	nop
   80358:	00084681 	.word	0x00084681
   8035c:	00084895 	.word	0x00084895
   80360:	00083fad 	.word	0x00083fad
   80364:	00082869 	.word	0x00082869
   80368:	000845d9 	.word	0x000845d9
   8036c:	20078c64 	.word	0x20078c64
   80370:	00084685 	.word	0x00084685

00080374 <updateOdometry>:

float updateOdometry(float x1, float y1){
   80374:	e92d 4ff0 	stmdb	sp!, {r4, r5, r6, r7, r8, r9, sl, fp, lr}
   80378:	b085      	sub	sp, #20
   8037a:	4603      	mov	r3, r0
   8037c:	4688      	mov	r8, r1
	float anglepos = 2.75; //vinkel
	float sr = distance * (a-x1); // för x
   8037e:	4a2a      	ldr	r2, [pc, #168]	; (80428 <updateOdometry+0xb4>)
   80380:	f8d2 a000 	ldr.w	sl, [r2]
   80384:	4a29      	ldr	r2, [pc, #164]	; (8042c <updateOdometry+0xb8>)
   80386:	6816      	ldr	r6, [r2, #0]
   80388:	4d29      	ldr	r5, [pc, #164]	; (80430 <updateOdometry+0xbc>)
   8038a:	4650      	mov	r0, sl
   8038c:	4619      	mov	r1, r3
   8038e:	47a8      	blx	r5
   80390:	4c28      	ldr	r4, [pc, #160]	; (80434 <updateOdometry+0xc0>)
   80392:	4631      	mov	r1, r6
   80394:	47a0      	blx	r4
   80396:	4607      	mov	r7, r0
	float sl = distance * (b-y1); // för y
   80398:	f8df b0b4 	ldr.w	fp, [pc, #180]	; 80450 <updateOdometry+0xdc>
   8039c:	f8db 9000 	ldr.w	r9, [fp]
   803a0:	4648      	mov	r0, r9
   803a2:	4641      	mov	r1, r8
   803a4:	47a8      	blx	r5
   803a6:	4601      	mov	r1, r0
   803a8:	4630      	mov	r0, r6
   803aa:	47a0      	blx	r4
   803ac:	9000      	str	r0, [sp, #0]
	x1 = a;
	y1 = b;
	float distansdtraveled = (sl+sr)/2; 
   803ae:	f8df 80a4 	ldr.w	r8, [pc, #164]	; 80454 <updateOdometry+0xe0>
   803b2:	4639      	mov	r1, r7
   803b4:	47c0      	blx	r8
   803b6:	f04f 517c 	mov.w	r1, #1056964608	; 0x3f000000
   803ba:	47a0      	blx	r4
	float anglechange = 2*(sr-sl)/2;		//vinkeländring
	anglepos += anglechange; //vinkelfrån början plus ändring av vinkeln
	float xChange = distansdtraveled*cos(anglepos); //ändring av xposition 
   803bc:	4e1e      	ldr	r6, [pc, #120]	; (80438 <updateOdometry+0xc4>)
   803be:	47b0      	blx	r6
   803c0:	e9cd 0102 	strd	r0, r1, [sp, #8]
	float sr = distance * (a-x1); // för x
	float sl = distance * (b-y1); // för y
	x1 = a;
	y1 = b;
	float distansdtraveled = (sl+sr)/2; 
	float anglechange = 2*(sr-sl)/2;		//vinkeländring
   803c4:	4638      	mov	r0, r7
   803c6:	9900      	ldr	r1, [sp, #0]
   803c8:	47a8      	blx	r5
   803ca:	4601      	mov	r1, r0
   803cc:	47c0      	blx	r8
   803ce:	f04f 517c 	mov.w	r1, #1056964608	; 0x3f000000
   803d2:	47a0      	blx	r4
	anglepos += anglechange; //vinkelfrån början plus ändring av vinkeln
   803d4:	4919      	ldr	r1, [pc, #100]	; (8043c <updateOdometry+0xc8>)
   803d6:	47c0      	blx	r8
	float xChange = distansdtraveled*cos(anglepos); //ändring av xposition 
   803d8:	47b0      	blx	r6
   803da:	4606      	mov	r6, r0
   803dc:	460f      	mov	r7, r1
   803de:	4b18      	ldr	r3, [pc, #96]	; (80440 <updateOdometry+0xcc>)
   803e0:	4798      	blx	r3
   803e2:	4604      	mov	r4, r0
   803e4:	460d      	mov	r5, r1
	float yChange = distansdtraveled*sin(anglepos); //ändring av yposition
   803e6:	4630      	mov	r0, r6
   803e8:	4639      	mov	r1, r7
   803ea:	4b16      	ldr	r3, [pc, #88]	; (80444 <updateOdometry+0xd0>)
   803ec:	4798      	blx	r3
   803ee:	e9cd 0100 	strd	r0, r1, [sp]
	x1 = a;
	y1 = b;
	float distansdtraveled = (sl+sr)/2; 
	float anglechange = 2*(sr-sl)/2;		//vinkeländring
	anglepos += anglechange; //vinkelfrån början plus ändring av vinkeln
	float xChange = distansdtraveled*cos(anglepos); //ändring av xposition 
   803f2:	4e15      	ldr	r6, [pc, #84]	; (80448 <updateOdometry+0xd4>)
   803f4:	e9dd 0102 	ldrd	r0, r1, [sp, #8]
   803f8:	4622      	mov	r2, r4
   803fa:	462b      	mov	r3, r5
   803fc:	47b0      	blx	r6
   803fe:	4c13      	ldr	r4, [pc, #76]	; (8044c <updateOdometry+0xd8>)
   80400:	47a0      	blx	r4
   80402:	4601      	mov	r1, r0
	float yChange = distansdtraveled*sin(anglepos); //ändring av yposition
	a +=xChange; // ändring av xpos tillförhållande till invärde
   80404:	4650      	mov	r0, sl
   80406:	47c0      	blx	r8
   80408:	4b07      	ldr	r3, [pc, #28]	; (80428 <updateOdometry+0xb4>)
   8040a:	6018      	str	r0, [r3, #0]
	y1 = b;
	float distansdtraveled = (sl+sr)/2; 
	float anglechange = 2*(sr-sl)/2;		//vinkeländring
	anglepos += anglechange; //vinkelfrån början plus ändring av vinkeln
	float xChange = distansdtraveled*cos(anglepos); //ändring av xposition 
	float yChange = distansdtraveled*sin(anglepos); //ändring av yposition
   8040c:	e9dd 0102 	ldrd	r0, r1, [sp, #8]
   80410:	e9dd 2300 	ldrd	r2, r3, [sp]
   80414:	47b0      	blx	r6
   80416:	47a0      	blx	r4
   80418:	4601      	mov	r1, r0
	a +=xChange; // ändring av xpos tillförhållande till invärde
	b +=yChange; //ändring av ypos tillförhållande till invärde 
   8041a:	4648      	mov	r0, r9
   8041c:	47c0      	blx	r8
   8041e:	f8cb 0000 	str.w	r0, [fp]
	return a,b;
	
   80422:	b005      	add	sp, #20
   80424:	e8bd 8ff0 	ldmia.w	sp!, {r4, r5, r6, r7, r8, r9, sl, fp, pc}
   80428:	2007012c 	.word	0x2007012c
   8042c:	20078c64 	.word	0x20078c64
   80430:	00084681 	.word	0x00084681
   80434:	00084895 	.word	0x00084895
   80438:	00083fad 	.word	0x00083fad
   8043c:	40300000 	.word	0x40300000
   80440:	00082749 	.word	0x00082749
   80444:	000827d5 	.word	0x000827d5
   80448:	00084055 	.word	0x00084055
   8044c:	000845d9 	.word	0x000845d9
   80450:	20070130 	.word	0x20070130
   80454:	00084685 	.word	0x00084685

00080458 <main>:
	printf("-- Compiled: %s %s --\n\r", __DATE__, __TIME__);
}

knapp_handler();
int main (void)
{
   80458:	e92d 4ff0 	stmdb	sp!, {r4, r5, r6, r7, r8, r9, sl, fp, lr}
   8045c:	b08b      	sub	sp, #44	; 0x2c
	// Initialisera Due kortet */
	sysclk_init();
   8045e:	4b43      	ldr	r3, [pc, #268]	; (8056c <main+0x114>)
   80460:	4798      	blx	r3
	board_init();
   80462:	4b43      	ldr	r3, [pc, #268]	; (80570 <main+0x118>)
   80464:	4798      	blx	r3
 *
 * \param ul_id Id (number) of the peripheral clock.
 */
static inline void sysclk_enable_peripheral_clock(uint32_t ul_id)
{
	pmc_enable_periph_clk(ul_id);
   80466:	200b      	movs	r0, #11
   80468:	4c42      	ldr	r4, [pc, #264]	; (80574 <main+0x11c>)
   8046a:	47a0      	blx	r4
   8046c:	200c      	movs	r0, #12
   8046e:	47a0      	blx	r4
   80470:	200d      	movs	r0, #13
   80472:	47a0      	blx	r4
   80474:	200e      	movs	r0, #14
   80476:	47a0      	blx	r4
	ioport_init();
	delayInit();
   80478:	4b3f      	ldr	r3, [pc, #252]	; (80578 <main+0x120>)
   8047a:	4798      	blx	r3
   8047c:	2008      	movs	r0, #8
   8047e:	47a0      	blx	r4
 * \param opt         Options needed to set up RS232 communication (see \ref usart_options_t).
 *
 */
static inline void stdio_serial_init(volatile void *usart, const usart_serial_options_t *opt)
{
	stdio_base = (void *)usart;
   80480:	4d3e      	ldr	r5, [pc, #248]	; (8057c <main+0x124>)
   80482:	4b3f      	ldr	r3, [pc, #252]	; (80580 <main+0x128>)
   80484:	601d      	str	r5, [r3, #0]
	ptr_put = (int (*)(void volatile*,char))&usart_serial_putchar;
   80486:	4a3f      	ldr	r2, [pc, #252]	; (80584 <main+0x12c>)
   80488:	4b3f      	ldr	r3, [pc, #252]	; (80588 <main+0x130>)
   8048a:	601a      	str	r2, [r3, #0]
	ptr_get = (void (*)(void volatile*,char*))&usart_serial_getchar;
   8048c:	4a3f      	ldr	r2, [pc, #252]	; (8058c <main+0x134>)
   8048e:	4b40      	ldr	r3, [pc, #256]	; (80590 <main+0x138>)
   80490:	601a      	str	r2, [r3, #0]
static inline void usart_serial_init(usart_if p_usart,
		usart_serial_options_t *opt)
{
#if ((!SAM4L) && (!SAMG55))
	sam_uart_opt_t uart_settings;
	uart_settings.ul_mck = sysclk_get_peripheral_hz();
   80492:	4b40      	ldr	r3, [pc, #256]	; (80594 <main+0x13c>)
   80494:	9305      	str	r3, [sp, #20]
	uart_settings.ul_baudrate = opt->baudrate;
   80496:	f44f 33e1 	mov.w	r3, #115200	; 0x1c200
   8049a:	9306      	str	r3, [sp, #24]
	uart_settings.ul_mode = opt->paritytype;
   8049c:	f44f 6300 	mov.w	r3, #2048	; 0x800
   804a0:	9307      	str	r3, [sp, #28]
   804a2:	2008      	movs	r0, #8
   804a4:	47a0      	blx	r4
	
#ifdef UART
	if (UART == (Uart*)p_usart) {
		sysclk_enable_peripheral_clock(ID_UART);
		/* Configure UART */
		uart_init((Uart*)p_usart, &uart_settings);
   804a6:	4628      	mov	r0, r5
   804a8:	a905      	add	r1, sp, #20
   804aa:	4b3b      	ldr	r3, [pc, #236]	; (80598 <main+0x140>)
   804ac:	4798      	blx	r3
	fdevopen((int (*)(char, FILE*))(_write),(int (*)(FILE*))(_read));
#  endif
#  if UC3 || SAM
	// For AVR32 and SAM GCC
	// Specify that stdout and stdin should not be buffered.
	setbuf(stdout, NULL);
   804ae:	4d3b      	ldr	r5, [pc, #236]	; (8059c <main+0x144>)
   804b0:	682b      	ldr	r3, [r5, #0]
   804b2:	6898      	ldr	r0, [r3, #8]
   804b4:	2100      	movs	r1, #0
   804b6:	4c3a      	ldr	r4, [pc, #232]	; (805a0 <main+0x148>)
   804b8:	47a0      	blx	r4
	setbuf(stdin, NULL);
   804ba:	682b      	ldr	r3, [r5, #0]
   804bc:	6858      	ldr	r0, [r3, #4]
   804be:	2100      	movs	r1, #0
   804c0:	47a0      	blx	r4
		.paritytype = CONF_UART_PARITY
	};
	/* Configure console UART. */
	sysclk_enable_peripheral_clock(CONSOLE_UART_ID);
	stdio_serial_init(CONF_UART, &uart_serial_options);
	printf("Konsolen reado\n");
   804c2:	4838      	ldr	r0, [pc, #224]	; (805a4 <main+0x14c>)
   804c4:	4c38      	ldr	r4, [pc, #224]	; (805a8 <main+0x150>)
   804c6:	47a0      	blx	r4
	printf("===============\n");
   804c8:	4838      	ldr	r0, [pc, #224]	; (805ac <main+0x154>)
   804ca:	47a0      	blx	r4
	printf("-- %s\n\r", BOARD_NAME);
   804cc:	4838      	ldr	r0, [pc, #224]	; (805b0 <main+0x158>)
   804ce:	4939      	ldr	r1, [pc, #228]	; (805b4 <main+0x15c>)
   804d0:	47a0      	blx	r4
	printf("-- Compiled: %s %s --\n\r", __DATE__, __TIME__);
   804d2:	4839      	ldr	r0, [pc, #228]	; (805b8 <main+0x160>)
   804d4:	4939      	ldr	r1, [pc, #228]	; (805bc <main+0x164>)
   804d6:	4a3a      	ldr	r2, [pc, #232]	; (805c0 <main+0x168>)
   804d8:	47a0      	blx	r4
	sysclk_init();
	board_init();
	ioport_init();
	delayInit();
	configure_console();
	moveForward(1650,1650);
   804da:	f240 6072 	movw	r0, #1650	; 0x672
   804de:	4601      	mov	r1, r0
   804e0:	4b38      	ldr	r3, [pc, #224]	; (805c4 <main+0x16c>)
   804e2:	4798      	blx	r3
// 	ioport_set_pin_level(LED1,LOW);


	//Skapar tasken nedan.
	//Task med högst prioritet
	float di = getDistance(a,b,c,d);
   804e4:	f8df 8114 	ldr.w	r8, [pc, #276]	; 805fc <main+0x1a4>
   804e8:	4f37      	ldr	r7, [pc, #220]	; (805c8 <main+0x170>)
   804ea:	f8df 9114 	ldr.w	r9, [pc, #276]	; 80600 <main+0x1a8>
   804ee:	f8d8 0000 	ldr.w	r0, [r8]
   804f2:	6839      	ldr	r1, [r7, #0]
   804f4:	f8d9 2000 	ldr.w	r2, [r9]
   804f8:	4b34      	ldr	r3, [pc, #208]	; (805cc <main+0x174>)
   804fa:	681b      	ldr	r3, [r3, #0]
   804fc:	4c34      	ldr	r4, [pc, #208]	; (805d0 <main+0x178>)
   804fe:	47a0      	blx	r4
	char str[20];
	sprintf(str,"distans: %f\n",di);
   80500:	4e34      	ldr	r6, [pc, #208]	; (805d4 <main+0x17c>)
   80502:	47b0      	blx	r6
   80504:	4602      	mov	r2, r0
   80506:	460b      	mov	r3, r1
   80508:	a805      	add	r0, sp, #20
   8050a:	4933      	ldr	r1, [pc, #204]	; (805d8 <main+0x180>)
   8050c:	f8df b0f4 	ldr.w	fp, [pc, #244]	; 80604 <main+0x1ac>
   80510:	47d8      	blx	fp
	printf("hej");
   80512:	4832      	ldr	r0, [pc, #200]	; (805dc <main+0x184>)
   80514:	f8df a090 	ldr.w	sl, [pc, #144]	; 805a8 <main+0x150>
   80518:	47d0      	blx	sl
	printf (str);
   8051a:	a805      	add	r0, sp, #20
   8051c:	47d0      	blx	sl
	updateOdometry(a,b);
   8051e:	f8d8 0000 	ldr.w	r0, [r8]
   80522:	6839      	ldr	r1, [r7, #0]
   80524:	4b2e      	ldr	r3, [pc, #184]	; (805e0 <main+0x188>)
   80526:	4798      	blx	r3
	sprintf(str,"odometry: %f\n",a,b);
   80528:	f8d8 0000 	ldr.w	r0, [r8]
   8052c:	47b0      	blx	r6
   8052e:	4604      	mov	r4, r0
   80530:	460d      	mov	r5, r1
   80532:	6838      	ldr	r0, [r7, #0]
   80534:	47b0      	blx	r6
   80536:	e9cd 0100 	strd	r0, r1, [sp]
   8053a:	a805      	add	r0, sp, #20
   8053c:	4929      	ldr	r1, [pc, #164]	; (805e4 <main+0x18c>)
   8053e:	4622      	mov	r2, r4
   80540:	462b      	mov	r3, r5
   80542:	47d8      	blx	fp
	printf(str);
   80544:	a805      	add	r0, sp, #20
   80546:	47d0      	blx	sl
	
	printf ("hello its me");
   80548:	4827      	ldr	r0, [pc, #156]	; (805e8 <main+0x190>)
   8054a:	47d0      	blx	sl
		printf (str);
		case 1:
		//P_regulator(2,2);
		break;
	}*/
	xTaskCreate(task_KNAPP, (const signed char * const) "KNAPP", TASK_KNAPP_STACK_SIZE, NULL, TASK_KNAPP_STACK_PRIORITY, NULL);
   8054c:	2305      	movs	r3, #5
   8054e:	9300      	str	r3, [sp, #0]
   80550:	2300      	movs	r3, #0
   80552:	9301      	str	r3, [sp, #4]
   80554:	9302      	str	r3, [sp, #8]
   80556:	9303      	str	r3, [sp, #12]
   80558:	4824      	ldr	r0, [pc, #144]	; (805ec <main+0x194>)
   8055a:	4925      	ldr	r1, [pc, #148]	; (805f0 <main+0x198>)
   8055c:	f44f 7200 	mov.w	r2, #512	; 0x200
   80560:	4c24      	ldr	r4, [pc, #144]	; (805f4 <main+0x19c>)
   80562:	47a0      	blx	r4
	//Task med lägst prioritet
// 	if (xTaskCreate(task_BLINKA, (const signed char * const) "BLINKA", TASK_BLINKA_STACK_SIZE, NULL, TASK_BLINKA_STACK_PRIORITY, NULL) != pdPASS) {
// 		printf("Failed the BLINKA Task\r\n");
// 	}
	//Ser till att köra tasken.
	vTaskStartScheduler();
   80564:	4b24      	ldr	r3, [pc, #144]	; (805f8 <main+0x1a0>)
   80566:	4798      	blx	r3
   80568:	e7c1      	b.n	804ee <main+0x96>
   8056a:	bf00      	nop
   8056c:	0008079d 	.word	0x0008079d
   80570:	00080895 	.word	0x00080895
   80574:	00080d39 	.word	0x00080d39
   80578:	00080149 	.word	0x00080149
   8057c:	400e0800 	.word	0x400e0800
   80580:	20078c70 	.word	0x20078c70
   80584:	00080269 	.word	0x00080269
   80588:	20078c6c 	.word	0x20078c6c
   8058c:	000801c1 	.word	0x000801c1
   80590:	20078c68 	.word	0x20078c68
   80594:	0501bd00 	.word	0x0501bd00
   80598:	00080dcd 	.word	0x00080dcd
   8059c:	20070578 	.word	0x20070578
   805a0:	00084da9 	.word	0x00084da9
   805a4:	0008a7bc 	.word	0x0008a7bc
   805a8:	00084b91 	.word	0x00084b91
   805ac:	0008a7cc 	.word	0x0008a7cc
   805b0:	0008a7e0 	.word	0x0008a7e0
   805b4:	0008a7e8 	.word	0x0008a7e8
   805b8:	0008a7f8 	.word	0x0008a7f8
   805bc:	0008a810 	.word	0x0008a810
   805c0:	0008a81c 	.word	0x0008a81c
   805c4:	00080639 	.word	0x00080639
   805c8:	20070130 	.word	0x20070130
   805cc:	20070138 	.word	0x20070138
   805d0:	00080311 	.word	0x00080311
   805d4:	00083fad 	.word	0x00083fad
   805d8:	0008a828 	.word	0x0008a828
   805dc:	0008a838 	.word	0x0008a838
   805e0:	00080375 	.word	0x00080375
   805e4:	0008a83c 	.word	0x0008a83c
   805e8:	0008a84c 	.word	0x0008a84c
   805ec:	000806e1 	.word	0x000806e1
   805f0:	0008a85c 	.word	0x0008a85c
   805f4:	00081a05 	.word	0x00081a05
   805f8:	00081c0d 	.word	0x00081c0d
   805fc:	2007012c 	.word	0x2007012c
   80600:	20070134 	.word	0x20070134
   80604:	00084eb9 	.word	0x00084eb9

00080608 <pulseLeft>:
}




void pulseLeft(int p1){
   80608:	b538      	push	{r3, r4, r5, lr}
		bool level)
{
	Pio *base = arch_ioport_pin_to_base(pin);

	if (level) {
		base->PIO_SODR = arch_ioport_pin_to_mask(pin);
   8060a:	4c03      	ldr	r4, [pc, #12]	; (80618 <pulseLeft+0x10>)
   8060c:	2510      	movs	r5, #16
   8060e:	6325      	str	r5, [r4, #48]	; 0x30
	ioport_set_pin_level(LEFT,HIGH);
	delayMicroseconds(p1);
   80610:	4b02      	ldr	r3, [pc, #8]	; (8061c <pulseLeft+0x14>)
   80612:	4798      	blx	r3
	} else {
		base->PIO_CODR = arch_ioport_pin_to_mask(pin);
   80614:	6365      	str	r5, [r4, #52]	; 0x34
   80616:	bd38      	pop	{r3, r4, r5, pc}
   80618:	400e1200 	.word	0x400e1200
   8061c:	00080185 	.word	0x00080185

00080620 <pulseRight>:
	ioport_set_pin_level(LEFT,LOW);
}
void pulseRight(int p2){
   80620:	b538      	push	{r3, r4, r5, lr}
		bool level)
{
	Pio *base = arch_ioport_pin_to_base(pin);

	if (level) {
		base->PIO_SODR = arch_ioport_pin_to_mask(pin);
   80622:	4c03      	ldr	r4, [pc, #12]	; (80630 <pulseRight+0x10>)
   80624:	2520      	movs	r5, #32
   80626:	6325      	str	r5, [r4, #48]	; 0x30
	ioport_set_pin_level(RIGHT,HIGH);
	delayMicroseconds(p2);
   80628:	4b02      	ldr	r3, [pc, #8]	; (80634 <pulseRight+0x14>)
   8062a:	4798      	blx	r3
	} else {
		base->PIO_CODR = arch_ioport_pin_to_mask(pin);
   8062c:	6365      	str	r5, [r4, #52]	; 0x34
   8062e:	bd38      	pop	{r3, r4, r5, pc}
   80630:	400e1200 	.word	0x400e1200
   80634:	00080185 	.word	0x00080185

00080638 <moveForward>:
	ioport_set_pin_level(RIGHT,LOW);
}

void moveForward(int l,int r){
   80638:	b510      	push	{r4, lr}
   8063a:	460c      	mov	r4, r1
	pulseLeft(l);
   8063c:	4b04      	ldr	r3, [pc, #16]	; (80650 <moveForward+0x18>)
   8063e:	4798      	blx	r3
	pulseRight(r);
   80640:	4620      	mov	r0, r4
   80642:	4b04      	ldr	r3, [pc, #16]	; (80654 <moveForward+0x1c>)
   80644:	4798      	blx	r3
	delayMicroseconds(5250);
   80646:	f241 4082 	movw	r0, #5250	; 0x1482
   8064a:	4b03      	ldr	r3, [pc, #12]	; (80658 <moveForward+0x20>)
   8064c:	4798      	blx	r3
   8064e:	bd10      	pop	{r4, pc}
   80650:	00080609 	.word	0x00080609
   80654:	00080621 	.word	0x00080621
   80658:	00080185 	.word	0x00080185

0008065c <pin_edge_handler>:
}



void pin_edge_handler(const uint32_t id, const uint32_t index)
{
   8065c:	b508      	push	{r3, lr}
	if ((id == ID_PIOA) && (index == Knapp)){
   8065e:	280b      	cmp	r0, #11
   80660:	d107      	bne.n	80672 <pin_edge_handler+0x16>
   80662:	290f      	cmp	r1, #15
   80664:	d105      	bne.n	80672 <pin_edge_handler+0x16>
		 if (pio_get(PIOA, PIO_TYPE_PIO_INPUT, Knapp)){
   80666:	4803      	ldr	r0, [pc, #12]	; (80674 <pin_edge_handler+0x18>)
   80668:	f04f 5120 	mov.w	r1, #671088640	; 0x28000000
   8066c:	220f      	movs	r2, #15
   8066e:	4b02      	ldr	r3, [pc, #8]	; (80678 <pin_edge_handler+0x1c>)
   80670:	4798      	blx	r3
   80672:	bd08      	pop	{r3, pc}
   80674:	400e0e00 	.word	0x400e0e00
   80678:	00080905 	.word	0x00080905

0008067c <knapp_handler>:
	vTaskDelete( NULL );  // För en clean exit av tasken ( Kanske ej behövs)
}



void knapp_handler(){
   8067c:	b530      	push	{r4, r5, lr}
   8067e:	b083      	sub	sp, #12
	puts("123123213");
   80680:	480e      	ldr	r0, [pc, #56]	; (806bc <knapp_handler+0x40>)
   80682:	4b0f      	ldr	r3, [pc, #60]	; (806c0 <knapp_handler+0x44>)
   80684:	4798      	blx	r3
	pmc_enable_periph_clk(ID_PIOA);
   80686:	200b      	movs	r0, #11
   80688:	4b0e      	ldr	r3, [pc, #56]	; (806c4 <knapp_handler+0x48>)
   8068a:	4798      	blx	r3
	pio_set_input(PIOA, Knapp, PIO_PULLUP);
   8068c:	4c0e      	ldr	r4, [pc, #56]	; (806c8 <knapp_handler+0x4c>)
   8068e:	4620      	mov	r0, r4
   80690:	210f      	movs	r1, #15
   80692:	2201      	movs	r2, #1
   80694:	4b0d      	ldr	r3, [pc, #52]	; (806cc <knapp_handler+0x50>)
   80696:	4798      	blx	r3
	pio_handler_set(PIOA, ID_PIOA, Knapp, PIO_IT_RISE_EDGE, pin_edge_handler);
   80698:	4b0d      	ldr	r3, [pc, #52]	; (806d0 <knapp_handler+0x54>)
   8069a:	9300      	str	r3, [sp, #0]
   8069c:	4620      	mov	r0, r4
   8069e:	210b      	movs	r1, #11
   806a0:	220f      	movs	r2, #15
   806a2:	2370      	movs	r3, #112	; 0x70
   806a4:	4d0b      	ldr	r5, [pc, #44]	; (806d4 <knapp_handler+0x58>)
   806a6:	47a8      	blx	r5
	pio_enable_interrupt(PIOA, Knapp);
   806a8:	4620      	mov	r0, r4
   806aa:	210f      	movs	r1, #15
   806ac:	4b0a      	ldr	r3, [pc, #40]	; (806d8 <knapp_handler+0x5c>)
   806ae:	4798      	blx	r3

    \param [in]      IRQn  External interrupt number. Value cannot be negative.
 */
__STATIC_INLINE void NVIC_EnableIRQ(IRQn_Type IRQn)
{
  NVIC->ISER[((uint32_t)(IRQn) >> 5)] = (1 << ((uint32_t)(IRQn) & 0x1F)); /* enable interrupt */
   806b0:	f44f 6200 	mov.w	r2, #2048	; 0x800
   806b4:	4b09      	ldr	r3, [pc, #36]	; (806dc <knapp_handler+0x60>)
   806b6:	601a      	str	r2, [r3, #0]
	NVIC_EnableIRQ(PIOA_IRQn);
//	puts("FÅR JAG ETT INTERRUPT DÅadasdasdasdasdasd?!!!!");
}
   806b8:	b003      	add	sp, #12
   806ba:	bd30      	pop	{r4, r5, pc}
   806bc:	0008a864 	.word	0x0008a864
   806c0:	00084d99 	.word	0x00084d99
   806c4:	00080d39 	.word	0x00080d39
   806c8:	400e0e00 	.word	0x400e0e00
   806cc:	0008095d 	.word	0x0008095d
   806d0:	0008065d 	.word	0x0008065d
   806d4:	00080bc5 	.word	0x00080bc5
   806d8:	000809e9 	.word	0x000809e9
   806dc:	e000e100 	.word	0xe000e100

000806e0 <task_KNAPP>:
#include "task_KNAPP.h"

xSemaphoreHandle signal_semafor = 0;

void task_KNAPP(void *pvParameters)
{
   806e0:	b5f0      	push	{r4, r5, r6, r7, lr}
   806e2:	b083      	sub	sp, #12
	vSemaphoreCreateBinary(signal_semafor);
   806e4:	2001      	movs	r0, #1
   806e6:	2100      	movs	r1, #0
   806e8:	2203      	movs	r2, #3
   806ea:	4b21      	ldr	r3, [pc, #132]	; (80770 <task_KNAPP+0x90>)
   806ec:	4798      	blx	r3
   806ee:	4b21      	ldr	r3, [pc, #132]	; (80774 <task_KNAPP+0x94>)
   806f0:	6018      	str	r0, [r3, #0]
   806f2:	b120      	cbz	r0, 806fe <task_KNAPP+0x1e>
   806f4:	2100      	movs	r1, #0
   806f6:	460a      	mov	r2, r1
   806f8:	460b      	mov	r3, r1
   806fa:	4c1f      	ldr	r4, [pc, #124]	; (80778 <task_KNAPP+0x98>)
   806fc:	47a0      	blx	r4
	portTickType xLastWakeTime;
	const portTickType xTimeIncrement = 100;
	xLastWakeTime = xTaskGetTickCount(); /* Initialise the xLastWakeTime variable with the current time. */
   806fe:	4b1f      	ldr	r3, [pc, #124]	; (8077c <task_KNAPP+0x9c>)
   80700:	4798      	blx	r3
   80702:	f8ad 0006 	strh.w	r0, [sp, #6]
	while(1){
		short xHigherPriorityTaskWoken = pdFALSE;
		vTaskDelayUntil(&xLastWakeTime, xTimeIncrement); /*Wait for the next cycle. */
   80706:	4e1e      	ldr	r6, [pc, #120]	; (80780 <task_KNAPP+0xa0>)
   80708:	4d1e      	ldr	r5, [pc, #120]	; (80784 <task_KNAPP+0xa4>)
	base->PIO_CODR = mask & ~level;
}

__always_inline static bool arch_ioport_get_pin_level(ioport_pin_t pin)
{
	return arch_ioport_pin_to_base(pin)->PIO_PDSR & arch_ioport_pin_to_mask(pin);
   8070a:	4f1f      	ldr	r7, [pc, #124]	; (80788 <task_KNAPP+0xa8>)
	vSemaphoreCreateBinary(signal_semafor);
	portTickType xLastWakeTime;
	const portTickType xTimeIncrement = 100;
	xLastWakeTime = xTaskGetTickCount(); /* Initialise the xLastWakeTime variable with the current time. */
	while(1){
		short xHigherPriorityTaskWoken = pdFALSE;
   8070c:	2400      	movs	r4, #0
   8070e:	f8ad 4004 	strh.w	r4, [sp, #4]
		vTaskDelayUntil(&xLastWakeTime, xTimeIncrement); /*Wait for the next cycle. */
   80712:	f10d 0006 	add.w	r0, sp, #6
   80716:	2164      	movs	r1, #100	; 0x64
   80718:	47b0      	blx	r6
		if(xSemaphoreTakeFromISR(signal_semafor,100)&&(ioport_get_pin_level(Knapp)==1)){
   8071a:	4b16      	ldr	r3, [pc, #88]	; (80774 <task_KNAPP+0x94>)
   8071c:	6818      	ldr	r0, [r3, #0]
   8071e:	4621      	mov	r1, r4
   80720:	2264      	movs	r2, #100	; 0x64
   80722:	4b1a      	ldr	r3, [pc, #104]	; (8078c <task_KNAPP+0xac>)
   80724:	4798      	blx	r3
   80726:	b190      	cbz	r0, 8074e <task_KNAPP+0x6e>
   80728:	6bfb      	ldr	r3, [r7, #60]	; 0x3c
   8072a:	f413 4f00 	tst.w	r3, #32768	; 0x8000
   8072e:	d00e      	beq.n	8074e <task_KNAPP+0x6e>
		bool level)
{
	Pio *base = arch_ioport_pin_to_base(pin);

	if (level) {
		base->PIO_SODR = arch_ioport_pin_to_mask(pin);
   80730:	f44f 7300 	mov.w	r3, #512	; 0x200
   80734:	632b      	str	r3, [r5, #48]	; 0x30
	} else {
		base->PIO_CODR = arch_ioport_pin_to_mask(pin);
   80736:	2308      	movs	r3, #8
   80738:	636b      	str	r3, [r5, #52]	; 0x34
		//	puts("Knappen-------------INTRYCKT");
			ioport_set_pin_level(BlinkaGreen,HIGH);
			ioport_set_pin_level(BlinkaRed,LOW);
			xSemaphoreGiveFromISR(signal_semafor, &xHigherPriorityTaskWoken);
   8073a:	4b0e      	ldr	r3, [pc, #56]	; (80774 <task_KNAPP+0x94>)
   8073c:	6818      	ldr	r0, [r3, #0]
   8073e:	4621      	mov	r1, r4
   80740:	aa01      	add	r2, sp, #4
   80742:	4623      	mov	r3, r4
   80744:	4c12      	ldr	r4, [pc, #72]	; (80790 <task_KNAPP+0xb0>)
   80746:	47a0      	blx	r4
			knapp_handler(); // FUNGERAR INTERRUPT NU F?!?!?!? NEJ VAD ÄR DETTA FÖR SKIT JAG KALLAR JU PÅ METODEN?
   80748:	4b12      	ldr	r3, [pc, #72]	; (80794 <task_KNAPP+0xb4>)
   8074a:	4798      	blx	r3
   8074c:	e00b      	b.n	80766 <task_KNAPP+0x86>
   8074e:	f44f 7300 	mov.w	r3, #512	; 0x200
   80752:	636b      	str	r3, [r5, #52]	; 0x34
		bool level)
{
	Pio *base = arch_ioport_pin_to_base(pin);

	if (level) {
		base->PIO_SODR = arch_ioport_pin_to_mask(pin);
   80754:	2308      	movs	r3, #8
   80756:	632b      	str	r3, [r5, #48]	; 0x30
		}
		else{
			ioport_set_pin_level(BlinkaGreen,LOW);
			ioport_set_pin_level(BlinkaRed,HIGH);
		//	puts("Knappen ------------ ej intryckt!");
			xSemaphoreGiveFromISR(signal_semafor, &xHigherPriorityTaskWoken);
   80758:	4b06      	ldr	r3, [pc, #24]	; (80774 <task_KNAPP+0x94>)
   8075a:	6818      	ldr	r0, [r3, #0]
   8075c:	2100      	movs	r1, #0
   8075e:	aa01      	add	r2, sp, #4
   80760:	460b      	mov	r3, r1
   80762:	4c0b      	ldr	r4, [pc, #44]	; (80790 <task_KNAPP+0xb0>)
   80764:	47a0      	blx	r4
		}
		vTaskDelay(100); //vTaskDelay(xTimeIncrement);
   80766:	2064      	movs	r0, #100	; 0x64
   80768:	4b0b      	ldr	r3, [pc, #44]	; (80798 <task_KNAPP+0xb8>)
   8076a:	4798      	blx	r3
	}
   8076c:	e7ce      	b.n	8070c <task_KNAPP+0x2c>
   8076e:	bf00      	nop
   80770:	00081565 	.word	0x00081565
   80774:	20070a0c 	.word	0x20070a0c
   80778:	000815bd 	.word	0x000815bd
   8077c:	00081c89 	.word	0x00081c89
   80780:	00081edd 	.word	0x00081edd
   80784:	400e1400 	.word	0x400e1400
   80788:	400e0e00 	.word	0x400e0e00
   8078c:	000818d5 	.word	0x000818d5
   80790:	000816e1 	.word	0x000816e1
   80794:	0008067d 	.word	0x0008067d
   80798:	00081f75 	.word	0x00081f75

0008079c <sysclk_init>:
   8079c:	b510      	push	{r4, lr}
   8079e:	480e      	ldr	r0, [pc, #56]	; (807d8 <sysclk_init+0x3c>)
   807a0:	4b0e      	ldr	r3, [pc, #56]	; (807dc <sysclk_init+0x40>)
   807a2:	4798      	blx	r3
   807a4:	2000      	movs	r0, #0
   807a6:	213e      	movs	r1, #62	; 0x3e
   807a8:	4b0d      	ldr	r3, [pc, #52]	; (807e0 <sysclk_init+0x44>)
   807aa:	4798      	blx	r3
   807ac:	4c0d      	ldr	r4, [pc, #52]	; (807e4 <sysclk_init+0x48>)
   807ae:	47a0      	blx	r4
   807b0:	2800      	cmp	r0, #0
   807b2:	d0fc      	beq.n	807ae <sysclk_init+0x12>
   807b4:	4b0c      	ldr	r3, [pc, #48]	; (807e8 <sysclk_init+0x4c>)
   807b6:	4798      	blx	r3
   807b8:	4a0c      	ldr	r2, [pc, #48]	; (807ec <sysclk_init+0x50>)
   807ba:	4b0d      	ldr	r3, [pc, #52]	; (807f0 <sysclk_init+0x54>)
   807bc:	629a      	str	r2, [r3, #40]	; 0x28
   807be:	4c0d      	ldr	r4, [pc, #52]	; (807f4 <sysclk_init+0x58>)
   807c0:	47a0      	blx	r4
   807c2:	2800      	cmp	r0, #0
   807c4:	d0fc      	beq.n	807c0 <sysclk_init+0x24>
   807c6:	2010      	movs	r0, #16
   807c8:	4b0b      	ldr	r3, [pc, #44]	; (807f8 <sysclk_init+0x5c>)
   807ca:	4798      	blx	r3
   807cc:	4b0b      	ldr	r3, [pc, #44]	; (807fc <sysclk_init+0x60>)
   807ce:	4798      	blx	r3
   807d0:	4801      	ldr	r0, [pc, #4]	; (807d8 <sysclk_init+0x3c>)
   807d2:	4b02      	ldr	r3, [pc, #8]	; (807dc <sysclk_init+0x40>)
   807d4:	4798      	blx	r3
   807d6:	bd10      	pop	{r4, pc}
   807d8:	0501bd00 	.word	0x0501bd00
   807dc:	200700a5 	.word	0x200700a5
   807e0:	00080cb5 	.word	0x00080cb5
   807e4:	00080d09 	.word	0x00080d09
   807e8:	00080d19 	.word	0x00080d19
   807ec:	200d3f01 	.word	0x200d3f01
   807f0:	400e0600 	.word	0x400e0600
   807f4:	00080d29 	.word	0x00080d29
   807f8:	00080c51 	.word	0x00080c51
   807fc:	00080f09 	.word	0x00080f09

00080800 <_read>:
   80800:	e92d 41f0 	stmdb	sp!, {r4, r5, r6, r7, r8, lr}
   80804:	460c      	mov	r4, r1
   80806:	4690      	mov	r8, r2
   80808:	b960      	cbnz	r0, 80824 <_read+0x24>
   8080a:	2a00      	cmp	r2, #0
   8080c:	dd0e      	ble.n	8082c <_read+0x2c>
   8080e:	188f      	adds	r7, r1, r2
   80810:	4e09      	ldr	r6, [pc, #36]	; (80838 <_read+0x38>)
   80812:	4d0a      	ldr	r5, [pc, #40]	; (8083c <_read+0x3c>)
   80814:	6830      	ldr	r0, [r6, #0]
   80816:	4621      	mov	r1, r4
   80818:	682b      	ldr	r3, [r5, #0]
   8081a:	4798      	blx	r3
   8081c:	3401      	adds	r4, #1
   8081e:	42bc      	cmp	r4, r7
   80820:	d1f8      	bne.n	80814 <_read+0x14>
   80822:	e006      	b.n	80832 <_read+0x32>
   80824:	f04f 30ff 	mov.w	r0, #4294967295
   80828:	e8bd 81f0 	ldmia.w	sp!, {r4, r5, r6, r7, r8, pc}
   8082c:	2000      	movs	r0, #0
   8082e:	e8bd 81f0 	ldmia.w	sp!, {r4, r5, r6, r7, r8, pc}
   80832:	4640      	mov	r0, r8
   80834:	e8bd 81f0 	ldmia.w	sp!, {r4, r5, r6, r7, r8, pc}
   80838:	20078c70 	.word	0x20078c70
   8083c:	20078c68 	.word	0x20078c68

00080840 <_write>:
   80840:	e92d 41f0 	stmdb	sp!, {r4, r5, r6, r7, r8, lr}
   80844:	460e      	mov	r6, r1
   80846:	4615      	mov	r5, r2
   80848:	3801      	subs	r0, #1
   8084a:	2802      	cmp	r0, #2
   8084c:	d80f      	bhi.n	8086e <_write+0x2e>
   8084e:	b192      	cbz	r2, 80876 <_write+0x36>
   80850:	2400      	movs	r4, #0
   80852:	f8df 803c 	ldr.w	r8, [pc, #60]	; 80890 <_write+0x50>
   80856:	4f0d      	ldr	r7, [pc, #52]	; (8088c <_write+0x4c>)
   80858:	f8d8 0000 	ldr.w	r0, [r8]
   8085c:	5d31      	ldrb	r1, [r6, r4]
   8085e:	683b      	ldr	r3, [r7, #0]
   80860:	4798      	blx	r3
   80862:	2800      	cmp	r0, #0
   80864:	db0a      	blt.n	8087c <_write+0x3c>
   80866:	3401      	adds	r4, #1
   80868:	42a5      	cmp	r5, r4
   8086a:	d1f5      	bne.n	80858 <_write+0x18>
   8086c:	e00a      	b.n	80884 <_write+0x44>
   8086e:	f04f 30ff 	mov.w	r0, #4294967295
   80872:	e8bd 81f0 	ldmia.w	sp!, {r4, r5, r6, r7, r8, pc}
   80876:	2000      	movs	r0, #0
   80878:	e8bd 81f0 	ldmia.w	sp!, {r4, r5, r6, r7, r8, pc}
   8087c:	f04f 30ff 	mov.w	r0, #4294967295
   80880:	e8bd 81f0 	ldmia.w	sp!, {r4, r5, r6, r7, r8, pc}
   80884:	4620      	mov	r0, r4
   80886:	e8bd 81f0 	ldmia.w	sp!, {r4, r5, r6, r7, r8, pc}
   8088a:	bf00      	nop
   8088c:	20078c6c 	.word	0x20078c6c
   80890:	20078c70 	.word	0x20078c70

00080894 <board_init>:
   80894:	b510      	push	{r4, lr}
   80896:	f44f 4200 	mov.w	r2, #32768	; 0x8000
   8089a:	4b12      	ldr	r3, [pc, #72]	; (808e4 <board_init+0x50>)
   8089c:	605a      	str	r2, [r3, #4]
   8089e:	200b      	movs	r0, #11
   808a0:	4c11      	ldr	r4, [pc, #68]	; (808e8 <board_init+0x54>)
   808a2:	47a0      	blx	r4
   808a4:	200c      	movs	r0, #12
   808a6:	47a0      	blx	r4
   808a8:	200d      	movs	r0, #13
   808aa:	47a0      	blx	r4
   808ac:	200e      	movs	r0, #14
   808ae:	47a0      	blx	r4
   808b0:	203b      	movs	r0, #59	; 0x3b
   808b2:	f04f 5160 	mov.w	r1, #939524096	; 0x38000000
   808b6:	4c0d      	ldr	r4, [pc, #52]	; (808ec <board_init+0x58>)
   808b8:	47a0      	blx	r4
   808ba:	2055      	movs	r0, #85	; 0x55
   808bc:	f04f 5160 	mov.w	r1, #939524096	; 0x38000000
   808c0:	47a0      	blx	r4
   808c2:	2056      	movs	r0, #86	; 0x56
   808c4:	f04f 5160 	mov.w	r1, #939524096	; 0x38000000
   808c8:	47a0      	blx	r4
   808ca:	2068      	movs	r0, #104	; 0x68
   808cc:	4908      	ldr	r1, [pc, #32]	; (808f0 <board_init+0x5c>)
   808ce:	47a0      	blx	r4
   808d0:	205c      	movs	r0, #92	; 0x5c
   808d2:	4908      	ldr	r1, [pc, #32]	; (808f4 <board_init+0x60>)
   808d4:	47a0      	blx	r4
   808d6:	4808      	ldr	r0, [pc, #32]	; (808f8 <board_init+0x64>)
   808d8:	f44f 7140 	mov.w	r1, #768	; 0x300
   808dc:	4a07      	ldr	r2, [pc, #28]	; (808fc <board_init+0x68>)
   808de:	4b08      	ldr	r3, [pc, #32]	; (80900 <board_init+0x6c>)
   808e0:	4798      	blx	r3
   808e2:	bd10      	pop	{r4, pc}
   808e4:	400e1a50 	.word	0x400e1a50
   808e8:	00080d39 	.word	0x00080d39
   808ec:	000809f9 	.word	0x000809f9
   808f0:	28000079 	.word	0x28000079
   808f4:	28000001 	.word	0x28000001
   808f8:	400e0e00 	.word	0x400e0e00
   808fc:	08000001 	.word	0x08000001
   80900:	00080acd 	.word	0x00080acd

00080904 <pio_get>:
   80904:	f021 6100 	bic.w	r1, r1, #134217728	; 0x8000000
   80908:	f1b1 5f40 	cmp.w	r1, #805306368	; 0x30000000
   8090c:	bf0c      	ite	eq
   8090e:	6b83      	ldreq	r3, [r0, #56]	; 0x38
   80910:	6bc3      	ldrne	r3, [r0, #60]	; 0x3c
   80912:	4213      	tst	r3, r2
   80914:	bf0c      	ite	eq
   80916:	2000      	moveq	r0, #0
   80918:	2001      	movne	r0, #1
   8091a:	4770      	bx	lr

0008091c <pio_set_peripheral>:
   8091c:	6442      	str	r2, [r0, #68]	; 0x44
   8091e:	f1b1 5f80 	cmp.w	r1, #268435456	; 0x10000000
   80922:	d016      	beq.n	80952 <pio_set_peripheral+0x36>
   80924:	d804      	bhi.n	80930 <pio_set_peripheral+0x14>
   80926:	b1c1      	cbz	r1, 8095a <pio_set_peripheral+0x3e>
   80928:	f1b1 6f00 	cmp.w	r1, #134217728	; 0x8000000
   8092c:	d00a      	beq.n	80944 <pio_set_peripheral+0x28>
   8092e:	e013      	b.n	80958 <pio_set_peripheral+0x3c>
   80930:	f1b1 5f40 	cmp.w	r1, #805306368	; 0x30000000
   80934:	d011      	beq.n	8095a <pio_set_peripheral+0x3e>
   80936:	f1b1 5f60 	cmp.w	r1, #939524096	; 0x38000000
   8093a:	d00e      	beq.n	8095a <pio_set_peripheral+0x3e>
   8093c:	f1b1 5f20 	cmp.w	r1, #671088640	; 0x28000000
   80940:	d10a      	bne.n	80958 <pio_set_peripheral+0x3c>
   80942:	4770      	bx	lr
   80944:	6f03      	ldr	r3, [r0, #112]	; 0x70
   80946:	6f01      	ldr	r1, [r0, #112]	; 0x70
   80948:	400b      	ands	r3, r1
   8094a:	ea23 0302 	bic.w	r3, r3, r2
   8094e:	6703      	str	r3, [r0, #112]	; 0x70
   80950:	e002      	b.n	80958 <pio_set_peripheral+0x3c>
   80952:	6f03      	ldr	r3, [r0, #112]	; 0x70
   80954:	4313      	orrs	r3, r2
   80956:	6703      	str	r3, [r0, #112]	; 0x70
   80958:	6042      	str	r2, [r0, #4]
   8095a:	4770      	bx	lr

0008095c <pio_set_input>:
   8095c:	6441      	str	r1, [r0, #68]	; 0x44
   8095e:	f012 0f01 	tst.w	r2, #1
   80962:	bf14      	ite	ne
   80964:	6641      	strne	r1, [r0, #100]	; 0x64
   80966:	6601      	streq	r1, [r0, #96]	; 0x60
   80968:	f012 0f0a 	tst.w	r2, #10
   8096c:	bf14      	ite	ne
   8096e:	6201      	strne	r1, [r0, #32]
   80970:	6241      	streq	r1, [r0, #36]	; 0x24
   80972:	f012 0f02 	tst.w	r2, #2
   80976:	d002      	beq.n	8097e <pio_set_input+0x22>
   80978:	f8c0 1080 	str.w	r1, [r0, #128]	; 0x80
   8097c:	e004      	b.n	80988 <pio_set_input+0x2c>
   8097e:	f012 0f08 	tst.w	r2, #8
   80982:	bf18      	it	ne
   80984:	f8c0 1084 	strne.w	r1, [r0, #132]	; 0x84
   80988:	6141      	str	r1, [r0, #20]
   8098a:	6001      	str	r1, [r0, #0]
   8098c:	4770      	bx	lr
   8098e:	bf00      	nop

00080990 <pio_set_output>:
   80990:	b410      	push	{r4}
   80992:	6441      	str	r1, [r0, #68]	; 0x44
   80994:	9c01      	ldr	r4, [sp, #4]
   80996:	b10c      	cbz	r4, 8099c <pio_set_output+0xc>
   80998:	6641      	str	r1, [r0, #100]	; 0x64
   8099a:	e000      	b.n	8099e <pio_set_output+0xe>
   8099c:	6601      	str	r1, [r0, #96]	; 0x60
   8099e:	b10b      	cbz	r3, 809a4 <pio_set_output+0x14>
   809a0:	6501      	str	r1, [r0, #80]	; 0x50
   809a2:	e000      	b.n	809a6 <pio_set_output+0x16>
   809a4:	6541      	str	r1, [r0, #84]	; 0x54
   809a6:	b10a      	cbz	r2, 809ac <pio_set_output+0x1c>
   809a8:	6301      	str	r1, [r0, #48]	; 0x30
   809aa:	e000      	b.n	809ae <pio_set_output+0x1e>
   809ac:	6341      	str	r1, [r0, #52]	; 0x34
   809ae:	6101      	str	r1, [r0, #16]
   809b0:	6001      	str	r1, [r0, #0]
   809b2:	f85d 4b04 	ldr.w	r4, [sp], #4
   809b6:	4770      	bx	lr

000809b8 <pio_configure_interrupt>:
   809b8:	f012 0f10 	tst.w	r2, #16
   809bc:	d010      	beq.n	809e0 <pio_configure_interrupt+0x28>
   809be:	f8c0 10b0 	str.w	r1, [r0, #176]	; 0xb0
   809c2:	f012 0f20 	tst.w	r2, #32
   809c6:	bf14      	ite	ne
   809c8:	f8c0 10d4 	strne.w	r1, [r0, #212]	; 0xd4
   809cc:	f8c0 10d0 	streq.w	r1, [r0, #208]	; 0xd0
   809d0:	f012 0f40 	tst.w	r2, #64	; 0x40
   809d4:	bf14      	ite	ne
   809d6:	f8c0 10c0 	strne.w	r1, [r0, #192]	; 0xc0
   809da:	f8c0 10c4 	streq.w	r1, [r0, #196]	; 0xc4
   809de:	4770      	bx	lr
   809e0:	f8c0 10b4 	str.w	r1, [r0, #180]	; 0xb4
   809e4:	4770      	bx	lr
   809e6:	bf00      	nop

000809e8 <pio_enable_interrupt>:
   809e8:	6cc3      	ldr	r3, [r0, #76]	; 0x4c
   809ea:	6401      	str	r1, [r0, #64]	; 0x40
   809ec:	4770      	bx	lr
   809ee:	bf00      	nop

000809f0 <pio_get_interrupt_status>:
   809f0:	6cc0      	ldr	r0, [r0, #76]	; 0x4c
   809f2:	4770      	bx	lr

000809f4 <pio_get_interrupt_mask>:
   809f4:	6c80      	ldr	r0, [r0, #72]	; 0x48
   809f6:	4770      	bx	lr

000809f8 <pio_configure_pin>:
   809f8:	b570      	push	{r4, r5, r6, lr}
   809fa:	b082      	sub	sp, #8
   809fc:	460d      	mov	r5, r1
   809fe:	0944      	lsrs	r4, r0, #5
   80a00:	f504 1400 	add.w	r4, r4, #2097152	; 0x200000
   80a04:	f204 7407 	addw	r4, r4, #1799	; 0x707
   80a08:	0266      	lsls	r6, r4, #9
   80a0a:	f001 44f0 	and.w	r4, r1, #2013265920	; 0x78000000
   80a0e:	f1b4 5f20 	cmp.w	r4, #671088640	; 0x28000000
   80a12:	d030      	beq.n	80a76 <pio_configure_pin+0x7e>
   80a14:	d806      	bhi.n	80a24 <pio_configure_pin+0x2c>
   80a16:	f1b4 6f00 	cmp.w	r4, #134217728	; 0x8000000
   80a1a:	d00a      	beq.n	80a32 <pio_configure_pin+0x3a>
   80a1c:	f1b4 5f80 	cmp.w	r4, #268435456	; 0x10000000
   80a20:	d018      	beq.n	80a54 <pio_configure_pin+0x5c>
   80a22:	e049      	b.n	80ab8 <pio_configure_pin+0xc0>
   80a24:	f1b4 5f40 	cmp.w	r4, #805306368	; 0x30000000
   80a28:	d030      	beq.n	80a8c <pio_configure_pin+0x94>
   80a2a:	f1b4 5f60 	cmp.w	r4, #939524096	; 0x38000000
   80a2e:	d02d      	beq.n	80a8c <pio_configure_pin+0x94>
   80a30:	e042      	b.n	80ab8 <pio_configure_pin+0xc0>
   80a32:	f000 001f 	and.w	r0, r0, #31
   80a36:	2401      	movs	r4, #1
   80a38:	4084      	lsls	r4, r0
   80a3a:	4630      	mov	r0, r6
   80a3c:	f04f 6100 	mov.w	r1, #134217728	; 0x8000000
   80a40:	4622      	mov	r2, r4
   80a42:	4b1f      	ldr	r3, [pc, #124]	; (80ac0 <pio_configure_pin+0xc8>)
   80a44:	4798      	blx	r3
   80a46:	f015 0f01 	tst.w	r5, #1
   80a4a:	bf14      	ite	ne
   80a4c:	6674      	strne	r4, [r6, #100]	; 0x64
   80a4e:	6634      	streq	r4, [r6, #96]	; 0x60
   80a50:	2001      	movs	r0, #1
   80a52:	e032      	b.n	80aba <pio_configure_pin+0xc2>
   80a54:	f000 001f 	and.w	r0, r0, #31
   80a58:	2401      	movs	r4, #1
   80a5a:	4084      	lsls	r4, r0
   80a5c:	4630      	mov	r0, r6
   80a5e:	f04f 5180 	mov.w	r1, #268435456	; 0x10000000
   80a62:	4622      	mov	r2, r4
   80a64:	4b16      	ldr	r3, [pc, #88]	; (80ac0 <pio_configure_pin+0xc8>)
   80a66:	4798      	blx	r3
   80a68:	f015 0f01 	tst.w	r5, #1
   80a6c:	bf14      	ite	ne
   80a6e:	6674      	strne	r4, [r6, #100]	; 0x64
   80a70:	6634      	streq	r4, [r6, #96]	; 0x60
   80a72:	2001      	movs	r0, #1
   80a74:	e021      	b.n	80aba <pio_configure_pin+0xc2>
   80a76:	f000 011f 	and.w	r1, r0, #31
   80a7a:	2401      	movs	r4, #1
   80a7c:	4630      	mov	r0, r6
   80a7e:	fa04 f101 	lsl.w	r1, r4, r1
   80a82:	462a      	mov	r2, r5
   80a84:	4b0f      	ldr	r3, [pc, #60]	; (80ac4 <pio_configure_pin+0xcc>)
   80a86:	4798      	blx	r3
   80a88:	4620      	mov	r0, r4
   80a8a:	e016      	b.n	80aba <pio_configure_pin+0xc2>
   80a8c:	f000 011f 	and.w	r1, r0, #31
   80a90:	2401      	movs	r4, #1
   80a92:	f005 5260 	and.w	r2, r5, #939524096	; 0x38000000
   80a96:	ea05 0304 	and.w	r3, r5, r4
   80a9a:	9300      	str	r3, [sp, #0]
   80a9c:	4630      	mov	r0, r6
   80a9e:	fa04 f101 	lsl.w	r1, r4, r1
   80aa2:	f1b2 5f60 	cmp.w	r2, #939524096	; 0x38000000
   80aa6:	bf14      	ite	ne
   80aa8:	2200      	movne	r2, #0
   80aaa:	2201      	moveq	r2, #1
   80aac:	f3c5 0380 	ubfx	r3, r5, #2, #1
   80ab0:	4d05      	ldr	r5, [pc, #20]	; (80ac8 <pio_configure_pin+0xd0>)
   80ab2:	47a8      	blx	r5
   80ab4:	4620      	mov	r0, r4
   80ab6:	e000      	b.n	80aba <pio_configure_pin+0xc2>
   80ab8:	2000      	movs	r0, #0
   80aba:	b002      	add	sp, #8
   80abc:	bd70      	pop	{r4, r5, r6, pc}
   80abe:	bf00      	nop
   80ac0:	0008091d 	.word	0x0008091d
   80ac4:	0008095d 	.word	0x0008095d
   80ac8:	00080991 	.word	0x00080991

00080acc <pio_configure_pin_group>:
   80acc:	b5f0      	push	{r4, r5, r6, r7, lr}
   80ace:	b083      	sub	sp, #12
   80ad0:	4607      	mov	r7, r0
   80ad2:	460e      	mov	r6, r1
   80ad4:	4615      	mov	r5, r2
   80ad6:	f002 44f0 	and.w	r4, r2, #2013265920	; 0x78000000
   80ada:	f1b4 5f20 	cmp.w	r4, #671088640	; 0x28000000
   80ade:	d026      	beq.n	80b2e <pio_configure_pin_group+0x62>
   80ae0:	d806      	bhi.n	80af0 <pio_configure_pin_group+0x24>
   80ae2:	f1b4 6f00 	cmp.w	r4, #134217728	; 0x8000000
   80ae6:	d00a      	beq.n	80afe <pio_configure_pin_group+0x32>
   80ae8:	f1b4 5f80 	cmp.w	r4, #268435456	; 0x10000000
   80aec:	d013      	beq.n	80b16 <pio_configure_pin_group+0x4a>
   80aee:	e034      	b.n	80b5a <pio_configure_pin_group+0x8e>
   80af0:	f1b4 5f40 	cmp.w	r4, #805306368	; 0x30000000
   80af4:	d01f      	beq.n	80b36 <pio_configure_pin_group+0x6a>
   80af6:	f1b4 5f60 	cmp.w	r4, #939524096	; 0x38000000
   80afa:	d01c      	beq.n	80b36 <pio_configure_pin_group+0x6a>
   80afc:	e02d      	b.n	80b5a <pio_configure_pin_group+0x8e>
   80afe:	f04f 6100 	mov.w	r1, #134217728	; 0x8000000
   80b02:	4632      	mov	r2, r6
   80b04:	4b16      	ldr	r3, [pc, #88]	; (80b60 <pio_configure_pin_group+0x94>)
   80b06:	4798      	blx	r3
   80b08:	f015 0f01 	tst.w	r5, #1
   80b0c:	bf14      	ite	ne
   80b0e:	667e      	strne	r6, [r7, #100]	; 0x64
   80b10:	663e      	streq	r6, [r7, #96]	; 0x60
   80b12:	2001      	movs	r0, #1
   80b14:	e022      	b.n	80b5c <pio_configure_pin_group+0x90>
   80b16:	f04f 5180 	mov.w	r1, #268435456	; 0x10000000
   80b1a:	4632      	mov	r2, r6
   80b1c:	4b10      	ldr	r3, [pc, #64]	; (80b60 <pio_configure_pin_group+0x94>)
   80b1e:	4798      	blx	r3
   80b20:	f015 0f01 	tst.w	r5, #1
   80b24:	bf14      	ite	ne
   80b26:	667e      	strne	r6, [r7, #100]	; 0x64
   80b28:	663e      	streq	r6, [r7, #96]	; 0x60
   80b2a:	2001      	movs	r0, #1
   80b2c:	e016      	b.n	80b5c <pio_configure_pin_group+0x90>
   80b2e:	4b0d      	ldr	r3, [pc, #52]	; (80b64 <pio_configure_pin_group+0x98>)
   80b30:	4798      	blx	r3
   80b32:	2001      	movs	r0, #1
   80b34:	e012      	b.n	80b5c <pio_configure_pin_group+0x90>
   80b36:	f005 5260 	and.w	r2, r5, #939524096	; 0x38000000
   80b3a:	f005 0301 	and.w	r3, r5, #1
   80b3e:	9300      	str	r3, [sp, #0]
   80b40:	4638      	mov	r0, r7
   80b42:	4631      	mov	r1, r6
   80b44:	f1b2 5f60 	cmp.w	r2, #939524096	; 0x38000000
   80b48:	bf14      	ite	ne
   80b4a:	2200      	movne	r2, #0
   80b4c:	2201      	moveq	r2, #1
   80b4e:	f3c5 0380 	ubfx	r3, r5, #2, #1
   80b52:	4c05      	ldr	r4, [pc, #20]	; (80b68 <pio_configure_pin_group+0x9c>)
   80b54:	47a0      	blx	r4
   80b56:	2001      	movs	r0, #1
   80b58:	e000      	b.n	80b5c <pio_configure_pin_group+0x90>
   80b5a:	2000      	movs	r0, #0
   80b5c:	b003      	add	sp, #12
   80b5e:	bdf0      	pop	{r4, r5, r6, r7, pc}
   80b60:	0008091d 	.word	0x0008091d
   80b64:	0008095d 	.word	0x0008095d
   80b68:	00080991 	.word	0x00080991

00080b6c <pio_handler_process>:
   80b6c:	e92d 41f0 	stmdb	sp!, {r4, r5, r6, r7, r8, lr}
   80b70:	4604      	mov	r4, r0
   80b72:	460e      	mov	r6, r1
   80b74:	4b10      	ldr	r3, [pc, #64]	; (80bb8 <pio_handler_process+0x4c>)
   80b76:	4798      	blx	r3
   80b78:	4605      	mov	r5, r0
   80b7a:	4620      	mov	r0, r4
   80b7c:	4b0f      	ldr	r3, [pc, #60]	; (80bbc <pio_handler_process+0x50>)
   80b7e:	4798      	blx	r3
   80b80:	4005      	ands	r5, r0
   80b82:	d017      	beq.n	80bb4 <pio_handler_process+0x48>
   80b84:	4f0e      	ldr	r7, [pc, #56]	; (80bc0 <pio_handler_process+0x54>)
   80b86:	f107 040c 	add.w	r4, r7, #12
   80b8a:	376c      	adds	r7, #108	; 0x6c
   80b8c:	f854 3c0c 	ldr.w	r3, [r4, #-12]
   80b90:	42b3      	cmp	r3, r6
   80b92:	d10a      	bne.n	80baa <pio_handler_process+0x3e>
   80b94:	f854 1c08 	ldr.w	r1, [r4, #-8]
   80b98:	4229      	tst	r1, r5
   80b9a:	d006      	beq.n	80baa <pio_handler_process+0x3e>
   80b9c:	6823      	ldr	r3, [r4, #0]
   80b9e:	4630      	mov	r0, r6
   80ba0:	4798      	blx	r3
   80ba2:	f854 3c08 	ldr.w	r3, [r4, #-8]
   80ba6:	ea25 0503 	bic.w	r5, r5, r3
   80baa:	42bc      	cmp	r4, r7
   80bac:	d002      	beq.n	80bb4 <pio_handler_process+0x48>
   80bae:	3410      	adds	r4, #16
   80bb0:	2d00      	cmp	r5, #0
   80bb2:	d1eb      	bne.n	80b8c <pio_handler_process+0x20>
   80bb4:	e8bd 81f0 	ldmia.w	sp!, {r4, r5, r6, r7, r8, pc}
   80bb8:	000809f1 	.word	0x000809f1
   80bbc:	000809f5 	.word	0x000809f5
   80bc0:	20070a14 	.word	0x20070a14

00080bc4 <pio_handler_set>:
   80bc4:	b5f8      	push	{r3, r4, r5, r6, r7, lr}
   80bc6:	4c0b      	ldr	r4, [pc, #44]	; (80bf4 <pio_handler_set+0x30>)
   80bc8:	6824      	ldr	r4, [r4, #0]
   80bca:	2c06      	cmp	r4, #6
   80bcc:	d810      	bhi.n	80bf0 <pio_handler_set+0x2c>
   80bce:	4f0a      	ldr	r7, [pc, #40]	; (80bf8 <pio_handler_set+0x34>)
   80bd0:	0126      	lsls	r6, r4, #4
   80bd2:	19bd      	adds	r5, r7, r6
   80bd4:	51b9      	str	r1, [r7, r6]
   80bd6:	606a      	str	r2, [r5, #4]
   80bd8:	60ab      	str	r3, [r5, #8]
   80bda:	9906      	ldr	r1, [sp, #24]
   80bdc:	60e9      	str	r1, [r5, #12]
   80bde:	3401      	adds	r4, #1
   80be0:	4904      	ldr	r1, [pc, #16]	; (80bf4 <pio_handler_set+0x30>)
   80be2:	600c      	str	r4, [r1, #0]
   80be4:	4611      	mov	r1, r2
   80be6:	461a      	mov	r2, r3
   80be8:	4b04      	ldr	r3, [pc, #16]	; (80bfc <pio_handler_set+0x38>)
   80bea:	4798      	blx	r3
   80bec:	2000      	movs	r0, #0
   80bee:	bdf8      	pop	{r3, r4, r5, r6, r7, pc}
   80bf0:	2001      	movs	r0, #1
   80bf2:	bdf8      	pop	{r3, r4, r5, r6, r7, pc}
   80bf4:	20070a10 	.word	0x20070a10
   80bf8:	20070a14 	.word	0x20070a14
   80bfc:	000809b9 	.word	0x000809b9

00080c00 <PIOA_Handler>:
   80c00:	b508      	push	{r3, lr}
   80c02:	4802      	ldr	r0, [pc, #8]	; (80c0c <PIOA_Handler+0xc>)
   80c04:	210b      	movs	r1, #11
   80c06:	4b02      	ldr	r3, [pc, #8]	; (80c10 <PIOA_Handler+0x10>)
   80c08:	4798      	blx	r3
   80c0a:	bd08      	pop	{r3, pc}
   80c0c:	400e0e00 	.word	0x400e0e00
   80c10:	00080b6d 	.word	0x00080b6d

00080c14 <PIOB_Handler>:
   80c14:	b508      	push	{r3, lr}
   80c16:	4802      	ldr	r0, [pc, #8]	; (80c20 <PIOB_Handler+0xc>)
   80c18:	210c      	movs	r1, #12
   80c1a:	4b02      	ldr	r3, [pc, #8]	; (80c24 <PIOB_Handler+0x10>)
   80c1c:	4798      	blx	r3
   80c1e:	bd08      	pop	{r3, pc}
   80c20:	400e1000 	.word	0x400e1000
   80c24:	00080b6d 	.word	0x00080b6d

00080c28 <PIOC_Handler>:
   80c28:	b508      	push	{r3, lr}
   80c2a:	4802      	ldr	r0, [pc, #8]	; (80c34 <PIOC_Handler+0xc>)
   80c2c:	210d      	movs	r1, #13
   80c2e:	4b02      	ldr	r3, [pc, #8]	; (80c38 <PIOC_Handler+0x10>)
   80c30:	4798      	blx	r3
   80c32:	bd08      	pop	{r3, pc}
   80c34:	400e1200 	.word	0x400e1200
   80c38:	00080b6d 	.word	0x00080b6d

00080c3c <PIOD_Handler>:
   80c3c:	b508      	push	{r3, lr}
   80c3e:	4802      	ldr	r0, [pc, #8]	; (80c48 <PIOD_Handler+0xc>)
   80c40:	210e      	movs	r1, #14
   80c42:	4b02      	ldr	r3, [pc, #8]	; (80c4c <PIOD_Handler+0x10>)
   80c44:	4798      	blx	r3
   80c46:	bd08      	pop	{r3, pc}
   80c48:	400e1400 	.word	0x400e1400
   80c4c:	00080b6d 	.word	0x00080b6d

00080c50 <pmc_switch_mck_to_pllack>:
   80c50:	4b17      	ldr	r3, [pc, #92]	; (80cb0 <pmc_switch_mck_to_pllack+0x60>)
   80c52:	6b1a      	ldr	r2, [r3, #48]	; 0x30
   80c54:	f022 0270 	bic.w	r2, r2, #112	; 0x70
   80c58:	4310      	orrs	r0, r2
   80c5a:	6318      	str	r0, [r3, #48]	; 0x30
   80c5c:	6e9b      	ldr	r3, [r3, #104]	; 0x68
   80c5e:	f013 0f08 	tst.w	r3, #8
   80c62:	d109      	bne.n	80c78 <pmc_switch_mck_to_pllack+0x28>
   80c64:	f44f 6300 	mov.w	r3, #2048	; 0x800
   80c68:	4911      	ldr	r1, [pc, #68]	; (80cb0 <pmc_switch_mck_to_pllack+0x60>)
   80c6a:	e001      	b.n	80c70 <pmc_switch_mck_to_pllack+0x20>
   80c6c:	3b01      	subs	r3, #1
   80c6e:	d019      	beq.n	80ca4 <pmc_switch_mck_to_pllack+0x54>
   80c70:	6e8a      	ldr	r2, [r1, #104]	; 0x68
   80c72:	f012 0f08 	tst.w	r2, #8
   80c76:	d0f9      	beq.n	80c6c <pmc_switch_mck_to_pllack+0x1c>
   80c78:	4b0d      	ldr	r3, [pc, #52]	; (80cb0 <pmc_switch_mck_to_pllack+0x60>)
   80c7a:	6b1a      	ldr	r2, [r3, #48]	; 0x30
   80c7c:	f022 0203 	bic.w	r2, r2, #3
   80c80:	f042 0202 	orr.w	r2, r2, #2
   80c84:	631a      	str	r2, [r3, #48]	; 0x30
   80c86:	6e98      	ldr	r0, [r3, #104]	; 0x68
   80c88:	f010 0008 	ands.w	r0, r0, #8
   80c8c:	d10c      	bne.n	80ca8 <pmc_switch_mck_to_pllack+0x58>
   80c8e:	f44f 6300 	mov.w	r3, #2048	; 0x800
   80c92:	4907      	ldr	r1, [pc, #28]	; (80cb0 <pmc_switch_mck_to_pllack+0x60>)
   80c94:	e001      	b.n	80c9a <pmc_switch_mck_to_pllack+0x4a>
   80c96:	3b01      	subs	r3, #1
   80c98:	d008      	beq.n	80cac <pmc_switch_mck_to_pllack+0x5c>
   80c9a:	6e8a      	ldr	r2, [r1, #104]	; 0x68
   80c9c:	f012 0f08 	tst.w	r2, #8
   80ca0:	d0f9      	beq.n	80c96 <pmc_switch_mck_to_pllack+0x46>
   80ca2:	4770      	bx	lr
   80ca4:	2001      	movs	r0, #1
   80ca6:	4770      	bx	lr
   80ca8:	2000      	movs	r0, #0
   80caa:	4770      	bx	lr
   80cac:	2001      	movs	r0, #1
   80cae:	4770      	bx	lr
   80cb0:	400e0600 	.word	0x400e0600

00080cb4 <pmc_switch_mainck_to_xtal>:
   80cb4:	b138      	cbz	r0, 80cc6 <pmc_switch_mainck_to_xtal+0x12>
   80cb6:	4911      	ldr	r1, [pc, #68]	; (80cfc <pmc_switch_mainck_to_xtal+0x48>)
   80cb8:	6a0b      	ldr	r3, [r1, #32]
   80cba:	4a11      	ldr	r2, [pc, #68]	; (80d00 <pmc_switch_mainck_to_xtal+0x4c>)
   80cbc:	401a      	ands	r2, r3
   80cbe:	4b11      	ldr	r3, [pc, #68]	; (80d04 <pmc_switch_mainck_to_xtal+0x50>)
   80cc0:	4313      	orrs	r3, r2
   80cc2:	620b      	str	r3, [r1, #32]
   80cc4:	4770      	bx	lr
   80cc6:	4a0d      	ldr	r2, [pc, #52]	; (80cfc <pmc_switch_mainck_to_xtal+0x48>)
   80cc8:	6a13      	ldr	r3, [r2, #32]
   80cca:	f423 135c 	bic.w	r3, r3, #3604480	; 0x370000
   80cce:	f023 0303 	bic.w	r3, r3, #3
   80cd2:	f443 135c 	orr.w	r3, r3, #3604480	; 0x370000
   80cd6:	f043 0301 	orr.w	r3, r3, #1
   80cda:	0209      	lsls	r1, r1, #8
   80cdc:	b289      	uxth	r1, r1
   80cde:	430b      	orrs	r3, r1
   80ce0:	6213      	str	r3, [r2, #32]
   80ce2:	6e93      	ldr	r3, [r2, #104]	; 0x68
   80ce4:	f013 0f01 	tst.w	r3, #1
   80ce8:	d0fb      	beq.n	80ce2 <pmc_switch_mainck_to_xtal+0x2e>
   80cea:	4a04      	ldr	r2, [pc, #16]	; (80cfc <pmc_switch_mainck_to_xtal+0x48>)
   80cec:	6a13      	ldr	r3, [r2, #32]
   80cee:	f043 739b 	orr.w	r3, r3, #20316160	; 0x1360000
   80cf2:	f443 3380 	orr.w	r3, r3, #65536	; 0x10000
   80cf6:	6213      	str	r3, [r2, #32]
   80cf8:	4770      	bx	lr
   80cfa:	bf00      	nop
   80cfc:	400e0600 	.word	0x400e0600
   80d00:	fec8fffc 	.word	0xfec8fffc
   80d04:	01370002 	.word	0x01370002

00080d08 <pmc_osc_is_ready_mainck>:
   80d08:	4b02      	ldr	r3, [pc, #8]	; (80d14 <pmc_osc_is_ready_mainck+0xc>)
   80d0a:	6e98      	ldr	r0, [r3, #104]	; 0x68
   80d0c:	f400 3080 	and.w	r0, r0, #65536	; 0x10000
   80d10:	4770      	bx	lr
   80d12:	bf00      	nop
   80d14:	400e0600 	.word	0x400e0600

00080d18 <pmc_disable_pllack>:
   80d18:	f04f 5200 	mov.w	r2, #536870912	; 0x20000000
   80d1c:	4b01      	ldr	r3, [pc, #4]	; (80d24 <pmc_disable_pllack+0xc>)
   80d1e:	629a      	str	r2, [r3, #40]	; 0x28
   80d20:	4770      	bx	lr
   80d22:	bf00      	nop
   80d24:	400e0600 	.word	0x400e0600

00080d28 <pmc_is_locked_pllack>:
   80d28:	4b02      	ldr	r3, [pc, #8]	; (80d34 <pmc_is_locked_pllack+0xc>)
   80d2a:	6e98      	ldr	r0, [r3, #104]	; 0x68
   80d2c:	f000 0002 	and.w	r0, r0, #2
   80d30:	4770      	bx	lr
   80d32:	bf00      	nop
   80d34:	400e0600 	.word	0x400e0600

00080d38 <pmc_enable_periph_clk>:
   80d38:	282c      	cmp	r0, #44	; 0x2c
   80d3a:	d820      	bhi.n	80d7e <pmc_enable_periph_clk+0x46>
   80d3c:	281f      	cmp	r0, #31
   80d3e:	d80d      	bhi.n	80d5c <pmc_enable_periph_clk+0x24>
   80d40:	4b12      	ldr	r3, [pc, #72]	; (80d8c <pmc_enable_periph_clk+0x54>)
   80d42:	699a      	ldr	r2, [r3, #24]
   80d44:	2301      	movs	r3, #1
   80d46:	4083      	lsls	r3, r0
   80d48:	401a      	ands	r2, r3
   80d4a:	4293      	cmp	r3, r2
   80d4c:	d019      	beq.n	80d82 <pmc_enable_periph_clk+0x4a>
   80d4e:	2301      	movs	r3, #1
   80d50:	fa03 f000 	lsl.w	r0, r3, r0
   80d54:	4b0d      	ldr	r3, [pc, #52]	; (80d8c <pmc_enable_periph_clk+0x54>)
   80d56:	6118      	str	r0, [r3, #16]
   80d58:	2000      	movs	r0, #0
   80d5a:	4770      	bx	lr
   80d5c:	4b0b      	ldr	r3, [pc, #44]	; (80d8c <pmc_enable_periph_clk+0x54>)
   80d5e:	f8d3 2108 	ldr.w	r2, [r3, #264]	; 0x108
   80d62:	3820      	subs	r0, #32
   80d64:	2301      	movs	r3, #1
   80d66:	4083      	lsls	r3, r0
   80d68:	401a      	ands	r2, r3
   80d6a:	4293      	cmp	r3, r2
   80d6c:	d00b      	beq.n	80d86 <pmc_enable_periph_clk+0x4e>
   80d6e:	2301      	movs	r3, #1
   80d70:	fa03 f000 	lsl.w	r0, r3, r0
   80d74:	4b05      	ldr	r3, [pc, #20]	; (80d8c <pmc_enable_periph_clk+0x54>)
   80d76:	f8c3 0100 	str.w	r0, [r3, #256]	; 0x100
   80d7a:	2000      	movs	r0, #0
   80d7c:	4770      	bx	lr
   80d7e:	2001      	movs	r0, #1
   80d80:	4770      	bx	lr
   80d82:	2000      	movs	r0, #0
   80d84:	4770      	bx	lr
   80d86:	2000      	movs	r0, #0
   80d88:	4770      	bx	lr
   80d8a:	bf00      	nop
   80d8c:	400e0600 	.word	0x400e0600

00080d90 <tc_init>:
   80d90:	b410      	push	{r4}
   80d92:	0189      	lsls	r1, r1, #6
   80d94:	1843      	adds	r3, r0, r1
   80d96:	2402      	movs	r4, #2
   80d98:	5044      	str	r4, [r0, r1]
   80d9a:	f04f 31ff 	mov.w	r1, #4294967295
   80d9e:	6299      	str	r1, [r3, #40]	; 0x28
   80da0:	6a19      	ldr	r1, [r3, #32]
   80da2:	605a      	str	r2, [r3, #4]
   80da4:	f85d 4b04 	ldr.w	r4, [sp], #4
   80da8:	4770      	bx	lr
   80daa:	bf00      	nop

00080dac <tc_set_block_mode>:
   80dac:	f8c0 10c4 	str.w	r1, [r0, #196]	; 0xc4
   80db0:	4770      	bx	lr
   80db2:	bf00      	nop

00080db4 <tc_start>:
   80db4:	0189      	lsls	r1, r1, #6
   80db6:	2305      	movs	r3, #5
   80db8:	5043      	str	r3, [r0, r1]
   80dba:	4770      	bx	lr

00080dbc <tc_stop>:
   80dbc:	0189      	lsls	r1, r1, #6
   80dbe:	2302      	movs	r3, #2
   80dc0:	5043      	str	r3, [r0, r1]
   80dc2:	4770      	bx	lr

00080dc4 <tc_read_cv>:
   80dc4:	eb00 1181 	add.w	r1, r0, r1, lsl #6
   80dc8:	6908      	ldr	r0, [r1, #16]
   80dca:	4770      	bx	lr

00080dcc <uart_init>:
   80dcc:	b410      	push	{r4}
   80dce:	23ac      	movs	r3, #172	; 0xac
   80dd0:	6003      	str	r3, [r0, #0]
   80dd2:	680a      	ldr	r2, [r1, #0]
   80dd4:	684b      	ldr	r3, [r1, #4]
   80dd6:	fbb2 f3f3 	udiv	r3, r2, r3
   80dda:	091b      	lsrs	r3, r3, #4
   80ddc:	1e5c      	subs	r4, r3, #1
   80dde:	f64f 72fe 	movw	r2, #65534	; 0xfffe
   80de2:	4294      	cmp	r4, r2
   80de4:	d80a      	bhi.n	80dfc <uart_init+0x30>
   80de6:	6203      	str	r3, [r0, #32]
   80de8:	688b      	ldr	r3, [r1, #8]
   80dea:	6043      	str	r3, [r0, #4]
   80dec:	f240 2302 	movw	r3, #514	; 0x202
   80df0:	f8c0 3120 	str.w	r3, [r0, #288]	; 0x120
   80df4:	2350      	movs	r3, #80	; 0x50
   80df6:	6003      	str	r3, [r0, #0]
   80df8:	2000      	movs	r0, #0
   80dfa:	e000      	b.n	80dfe <uart_init+0x32>
   80dfc:	2001      	movs	r0, #1
   80dfe:	f85d 4b04 	ldr.w	r4, [sp], #4
   80e02:	4770      	bx	lr

00080e04 <uart_write>:
   80e04:	6943      	ldr	r3, [r0, #20]
   80e06:	f013 0f02 	tst.w	r3, #2
   80e0a:	bf1a      	itte	ne
   80e0c:	61c1      	strne	r1, [r0, #28]
   80e0e:	2000      	movne	r0, #0
   80e10:	2001      	moveq	r0, #1
   80e12:	4770      	bx	lr

00080e14 <uart_read>:
   80e14:	6943      	ldr	r3, [r0, #20]
   80e16:	f013 0f01 	tst.w	r3, #1
   80e1a:	bf1d      	ittte	ne
   80e1c:	6983      	ldrne	r3, [r0, #24]
   80e1e:	700b      	strbne	r3, [r1, #0]
   80e20:	2000      	movne	r0, #0
   80e22:	2001      	moveq	r0, #1
   80e24:	4770      	bx	lr
   80e26:	bf00      	nop

00080e28 <usart_write>:
   80e28:	6943      	ldr	r3, [r0, #20]
   80e2a:	f013 0f02 	tst.w	r3, #2
   80e2e:	bf1d      	ittte	ne
   80e30:	f3c1 0108 	ubfxne	r1, r1, #0, #9
   80e34:	61c1      	strne	r1, [r0, #28]
   80e36:	2000      	movne	r0, #0
   80e38:	2001      	moveq	r0, #1
   80e3a:	4770      	bx	lr

00080e3c <usart_read>:
   80e3c:	6943      	ldr	r3, [r0, #20]
   80e3e:	f013 0f01 	tst.w	r3, #1
   80e42:	d005      	beq.n	80e50 <usart_read+0x14>
   80e44:	6983      	ldr	r3, [r0, #24]
   80e46:	f3c3 0308 	ubfx	r3, r3, #0, #9
   80e4a:	600b      	str	r3, [r1, #0]
   80e4c:	2000      	movs	r0, #0
   80e4e:	4770      	bx	lr
   80e50:	2001      	movs	r0, #1
   80e52:	4770      	bx	lr

00080e54 <Dummy_Handler>:
   80e54:	e7fe      	b.n	80e54 <Dummy_Handler>
   80e56:	bf00      	nop

00080e58 <Reset_Handler>:
   80e58:	b510      	push	{r4, lr}
   80e5a:	4b1e      	ldr	r3, [pc, #120]	; (80ed4 <Reset_Handler+0x7c>)
   80e5c:	4a1e      	ldr	r2, [pc, #120]	; (80ed8 <Reset_Handler+0x80>)
   80e5e:	429a      	cmp	r2, r3
   80e60:	d003      	beq.n	80e6a <Reset_Handler+0x12>
   80e62:	4b1e      	ldr	r3, [pc, #120]	; (80edc <Reset_Handler+0x84>)
   80e64:	4a1b      	ldr	r2, [pc, #108]	; (80ed4 <Reset_Handler+0x7c>)
   80e66:	429a      	cmp	r2, r3
   80e68:	d304      	bcc.n	80e74 <Reset_Handler+0x1c>
   80e6a:	4b1d      	ldr	r3, [pc, #116]	; (80ee0 <Reset_Handler+0x88>)
   80e6c:	4a1d      	ldr	r2, [pc, #116]	; (80ee4 <Reset_Handler+0x8c>)
   80e6e:	429a      	cmp	r2, r3
   80e70:	d30f      	bcc.n	80e92 <Reset_Handler+0x3a>
   80e72:	e01a      	b.n	80eaa <Reset_Handler+0x52>
   80e74:	4b1c      	ldr	r3, [pc, #112]	; (80ee8 <Reset_Handler+0x90>)
   80e76:	4c1d      	ldr	r4, [pc, #116]	; (80eec <Reset_Handler+0x94>)
   80e78:	1ae4      	subs	r4, r4, r3
   80e7a:	f024 0403 	bic.w	r4, r4, #3
   80e7e:	3404      	adds	r4, #4
   80e80:	2300      	movs	r3, #0
   80e82:	4814      	ldr	r0, [pc, #80]	; (80ed4 <Reset_Handler+0x7c>)
   80e84:	4914      	ldr	r1, [pc, #80]	; (80ed8 <Reset_Handler+0x80>)
   80e86:	585a      	ldr	r2, [r3, r1]
   80e88:	501a      	str	r2, [r3, r0]
   80e8a:	3304      	adds	r3, #4
   80e8c:	42a3      	cmp	r3, r4
   80e8e:	d1fa      	bne.n	80e86 <Reset_Handler+0x2e>
   80e90:	e7eb      	b.n	80e6a <Reset_Handler+0x12>
   80e92:	4b17      	ldr	r3, [pc, #92]	; (80ef0 <Reset_Handler+0x98>)
   80e94:	4917      	ldr	r1, [pc, #92]	; (80ef4 <Reset_Handler+0x9c>)
   80e96:	1ac9      	subs	r1, r1, r3
   80e98:	f021 0103 	bic.w	r1, r1, #3
   80e9c:	1d1a      	adds	r2, r3, #4
   80e9e:	4411      	add	r1, r2
   80ea0:	2200      	movs	r2, #0
   80ea2:	f843 2f04 	str.w	r2, [r3, #4]!
   80ea6:	428b      	cmp	r3, r1
   80ea8:	d1fb      	bne.n	80ea2 <Reset_Handler+0x4a>
   80eaa:	4a13      	ldr	r2, [pc, #76]	; (80ef8 <Reset_Handler+0xa0>)
   80eac:	f022 4360 	bic.w	r3, r2, #3758096384	; 0xe0000000
   80eb0:	f023 037f 	bic.w	r3, r3, #127	; 0x7f
   80eb4:	4911      	ldr	r1, [pc, #68]	; (80efc <Reset_Handler+0xa4>)
   80eb6:	608b      	str	r3, [r1, #8]
   80eb8:	f102 4260 	add.w	r2, r2, #3758096384	; 0xe0000000
   80ebc:	f5b2 1f80 	cmp.w	r2, #1048576	; 0x100000
   80ec0:	d203      	bcs.n	80eca <Reset_Handler+0x72>
   80ec2:	688a      	ldr	r2, [r1, #8]
   80ec4:	f042 5200 	orr.w	r2, r2, #536870912	; 0x20000000
   80ec8:	608a      	str	r2, [r1, #8]
   80eca:	4b0d      	ldr	r3, [pc, #52]	; (80f00 <Reset_Handler+0xa8>)
   80ecc:	4798      	blx	r3
   80ece:	4b0d      	ldr	r3, [pc, #52]	; (80f04 <Reset_Handler+0xac>)
   80ed0:	4798      	blx	r3
   80ed2:	e7fe      	b.n	80ed2 <Reset_Handler+0x7a>
   80ed4:	20070000 	.word	0x20070000
   80ed8:	0008ac48 	.word	0x0008ac48
   80edc:	200709ec 	.word	0x200709ec
   80ee0:	20078c78 	.word	0x20078c78
   80ee4:	200709f0 	.word	0x200709f0
   80ee8:	20070004 	.word	0x20070004
   80eec:	200709ef 	.word	0x200709ef
   80ef0:	200709ec 	.word	0x200709ec
   80ef4:	20078c73 	.word	0x20078c73
   80ef8:	00080000 	.word	0x00080000
   80efc:	e000ed00 	.word	0xe000ed00
   80f00:	00084b41 	.word	0x00084b41
   80f04:	00080459 	.word	0x00080459

00080f08 <SystemCoreClockUpdate>:
   80f08:	4b3e      	ldr	r3, [pc, #248]	; (81004 <SystemCoreClockUpdate+0xfc>)
   80f0a:	6b1b      	ldr	r3, [r3, #48]	; 0x30
   80f0c:	f003 0303 	and.w	r3, r3, #3
   80f10:	2b03      	cmp	r3, #3
   80f12:	d85f      	bhi.n	80fd4 <SystemCoreClockUpdate+0xcc>
   80f14:	e8df f003 	tbb	[pc, r3]
   80f18:	2b2b0e02 	.word	0x2b2b0e02
   80f1c:	4b3a      	ldr	r3, [pc, #232]	; (81008 <SystemCoreClockUpdate+0x100>)
   80f1e:	695b      	ldr	r3, [r3, #20]
   80f20:	f013 0f80 	tst.w	r3, #128	; 0x80
   80f24:	bf14      	ite	ne
   80f26:	f44f 4200 	movne.w	r2, #32768	; 0x8000
   80f2a:	f44f 42fa 	moveq.w	r2, #32000	; 0x7d00
   80f2e:	4b37      	ldr	r3, [pc, #220]	; (8100c <SystemCoreClockUpdate+0x104>)
   80f30:	601a      	str	r2, [r3, #0]
   80f32:	e04f      	b.n	80fd4 <SystemCoreClockUpdate+0xcc>
   80f34:	4b33      	ldr	r3, [pc, #204]	; (81004 <SystemCoreClockUpdate+0xfc>)
   80f36:	6a1b      	ldr	r3, [r3, #32]
   80f38:	f013 7f80 	tst.w	r3, #16777216	; 0x1000000
   80f3c:	d003      	beq.n	80f46 <SystemCoreClockUpdate+0x3e>
   80f3e:	4a34      	ldr	r2, [pc, #208]	; (81010 <SystemCoreClockUpdate+0x108>)
   80f40:	4b32      	ldr	r3, [pc, #200]	; (8100c <SystemCoreClockUpdate+0x104>)
   80f42:	601a      	str	r2, [r3, #0]
   80f44:	e046      	b.n	80fd4 <SystemCoreClockUpdate+0xcc>
   80f46:	4a33      	ldr	r2, [pc, #204]	; (81014 <SystemCoreClockUpdate+0x10c>)
   80f48:	4b30      	ldr	r3, [pc, #192]	; (8100c <SystemCoreClockUpdate+0x104>)
   80f4a:	601a      	str	r2, [r3, #0]
   80f4c:	4b2d      	ldr	r3, [pc, #180]	; (81004 <SystemCoreClockUpdate+0xfc>)
   80f4e:	6a1b      	ldr	r3, [r3, #32]
   80f50:	f003 0370 	and.w	r3, r3, #112	; 0x70
   80f54:	2b10      	cmp	r3, #16
   80f56:	d002      	beq.n	80f5e <SystemCoreClockUpdate+0x56>
   80f58:	2b20      	cmp	r3, #32
   80f5a:	d004      	beq.n	80f66 <SystemCoreClockUpdate+0x5e>
   80f5c:	e03a      	b.n	80fd4 <SystemCoreClockUpdate+0xcc>
   80f5e:	4a2e      	ldr	r2, [pc, #184]	; (81018 <SystemCoreClockUpdate+0x110>)
   80f60:	4b2a      	ldr	r3, [pc, #168]	; (8100c <SystemCoreClockUpdate+0x104>)
   80f62:	601a      	str	r2, [r3, #0]
   80f64:	e036      	b.n	80fd4 <SystemCoreClockUpdate+0xcc>
   80f66:	4a2a      	ldr	r2, [pc, #168]	; (81010 <SystemCoreClockUpdate+0x108>)
   80f68:	4b28      	ldr	r3, [pc, #160]	; (8100c <SystemCoreClockUpdate+0x104>)
   80f6a:	601a      	str	r2, [r3, #0]
   80f6c:	e032      	b.n	80fd4 <SystemCoreClockUpdate+0xcc>
   80f6e:	4b25      	ldr	r3, [pc, #148]	; (81004 <SystemCoreClockUpdate+0xfc>)
   80f70:	6a1b      	ldr	r3, [r3, #32]
   80f72:	f013 7f80 	tst.w	r3, #16777216	; 0x1000000
   80f76:	d003      	beq.n	80f80 <SystemCoreClockUpdate+0x78>
   80f78:	4a25      	ldr	r2, [pc, #148]	; (81010 <SystemCoreClockUpdate+0x108>)
   80f7a:	4b24      	ldr	r3, [pc, #144]	; (8100c <SystemCoreClockUpdate+0x104>)
   80f7c:	601a      	str	r2, [r3, #0]
   80f7e:	e012      	b.n	80fa6 <SystemCoreClockUpdate+0x9e>
   80f80:	4a24      	ldr	r2, [pc, #144]	; (81014 <SystemCoreClockUpdate+0x10c>)
   80f82:	4b22      	ldr	r3, [pc, #136]	; (8100c <SystemCoreClockUpdate+0x104>)
   80f84:	601a      	str	r2, [r3, #0]
   80f86:	4b1f      	ldr	r3, [pc, #124]	; (81004 <SystemCoreClockUpdate+0xfc>)
   80f88:	6a1b      	ldr	r3, [r3, #32]
   80f8a:	f003 0370 	and.w	r3, r3, #112	; 0x70
   80f8e:	2b10      	cmp	r3, #16
   80f90:	d002      	beq.n	80f98 <SystemCoreClockUpdate+0x90>
   80f92:	2b20      	cmp	r3, #32
   80f94:	d004      	beq.n	80fa0 <SystemCoreClockUpdate+0x98>
   80f96:	e006      	b.n	80fa6 <SystemCoreClockUpdate+0x9e>
   80f98:	4a1f      	ldr	r2, [pc, #124]	; (81018 <SystemCoreClockUpdate+0x110>)
   80f9a:	4b1c      	ldr	r3, [pc, #112]	; (8100c <SystemCoreClockUpdate+0x104>)
   80f9c:	601a      	str	r2, [r3, #0]
   80f9e:	e002      	b.n	80fa6 <SystemCoreClockUpdate+0x9e>
   80fa0:	4a1b      	ldr	r2, [pc, #108]	; (81010 <SystemCoreClockUpdate+0x108>)
   80fa2:	4b1a      	ldr	r3, [pc, #104]	; (8100c <SystemCoreClockUpdate+0x104>)
   80fa4:	601a      	str	r2, [r3, #0]
   80fa6:	4b17      	ldr	r3, [pc, #92]	; (81004 <SystemCoreClockUpdate+0xfc>)
   80fa8:	6b1b      	ldr	r3, [r3, #48]	; 0x30
   80faa:	f003 0303 	and.w	r3, r3, #3
   80fae:	2b02      	cmp	r3, #2
   80fb0:	d10d      	bne.n	80fce <SystemCoreClockUpdate+0xc6>
   80fb2:	4b14      	ldr	r3, [pc, #80]	; (81004 <SystemCoreClockUpdate+0xfc>)
   80fb4:	6a98      	ldr	r0, [r3, #40]	; 0x28
   80fb6:	6a99      	ldr	r1, [r3, #40]	; 0x28
   80fb8:	4b14      	ldr	r3, [pc, #80]	; (8100c <SystemCoreClockUpdate+0x104>)
   80fba:	f3c0 400a 	ubfx	r0, r0, #16, #11
   80fbe:	681a      	ldr	r2, [r3, #0]
   80fc0:	fb00 2202 	mla	r2, r0, r2, r2
   80fc4:	b2c9      	uxtb	r1, r1
   80fc6:	fbb2 f2f1 	udiv	r2, r2, r1
   80fca:	601a      	str	r2, [r3, #0]
   80fcc:	e002      	b.n	80fd4 <SystemCoreClockUpdate+0xcc>
   80fce:	4a13      	ldr	r2, [pc, #76]	; (8101c <SystemCoreClockUpdate+0x114>)
   80fd0:	4b0e      	ldr	r3, [pc, #56]	; (8100c <SystemCoreClockUpdate+0x104>)
   80fd2:	601a      	str	r2, [r3, #0]
   80fd4:	4b0b      	ldr	r3, [pc, #44]	; (81004 <SystemCoreClockUpdate+0xfc>)
   80fd6:	6b1b      	ldr	r3, [r3, #48]	; 0x30
   80fd8:	f003 0370 	and.w	r3, r3, #112	; 0x70
   80fdc:	2b70      	cmp	r3, #112	; 0x70
   80fde:	d107      	bne.n	80ff0 <SystemCoreClockUpdate+0xe8>
   80fe0:	4b0a      	ldr	r3, [pc, #40]	; (8100c <SystemCoreClockUpdate+0x104>)
   80fe2:	681a      	ldr	r2, [r3, #0]
   80fe4:	490e      	ldr	r1, [pc, #56]	; (81020 <SystemCoreClockUpdate+0x118>)
   80fe6:	fba1 0202 	umull	r0, r2, r1, r2
   80fea:	0852      	lsrs	r2, r2, #1
   80fec:	601a      	str	r2, [r3, #0]
   80fee:	4770      	bx	lr
   80ff0:	4b04      	ldr	r3, [pc, #16]	; (81004 <SystemCoreClockUpdate+0xfc>)
   80ff2:	6b19      	ldr	r1, [r3, #48]	; 0x30
   80ff4:	4b05      	ldr	r3, [pc, #20]	; (8100c <SystemCoreClockUpdate+0x104>)
   80ff6:	f3c1 1102 	ubfx	r1, r1, #4, #3
   80ffa:	681a      	ldr	r2, [r3, #0]
   80ffc:	40ca      	lsrs	r2, r1
   80ffe:	601a      	str	r2, [r3, #0]
   81000:	4770      	bx	lr
   81002:	bf00      	nop
   81004:	400e0600 	.word	0x400e0600
   81008:	400e1a10 	.word	0x400e1a10
   8100c:	2007013c 	.word	0x2007013c
   81010:	00b71b00 	.word	0x00b71b00
   81014:	003d0900 	.word	0x003d0900
   81018:	007a1200 	.word	0x007a1200
   8101c:	0e4e1c00 	.word	0x0e4e1c00
   81020:	aaaaaaab 	.word	0xaaaaaaab

00081024 <_sbrk>:
   81024:	4b09      	ldr	r3, [pc, #36]	; (8104c <_sbrk+0x28>)
   81026:	681b      	ldr	r3, [r3, #0]
   81028:	b913      	cbnz	r3, 81030 <_sbrk+0xc>
   8102a:	4a09      	ldr	r2, [pc, #36]	; (81050 <_sbrk+0x2c>)
   8102c:	4b07      	ldr	r3, [pc, #28]	; (8104c <_sbrk+0x28>)
   8102e:	601a      	str	r2, [r3, #0]
   81030:	4b06      	ldr	r3, [pc, #24]	; (8104c <_sbrk+0x28>)
   81032:	681b      	ldr	r3, [r3, #0]
   81034:	181a      	adds	r2, r3, r0
   81036:	4907      	ldr	r1, [pc, #28]	; (81054 <_sbrk+0x30>)
   81038:	4291      	cmp	r1, r2
   8103a:	db04      	blt.n	81046 <_sbrk+0x22>
   8103c:	4610      	mov	r0, r2
   8103e:	4a03      	ldr	r2, [pc, #12]	; (8104c <_sbrk+0x28>)
   81040:	6010      	str	r0, [r2, #0]
   81042:	4618      	mov	r0, r3
   81044:	4770      	bx	lr
   81046:	f04f 30ff 	mov.w	r0, #4294967295
   8104a:	4770      	bx	lr
   8104c:	20070a84 	.word	0x20070a84
   81050:	2007ac78 	.word	0x2007ac78
   81054:	20087ffc 	.word	0x20087ffc

00081058 <_close>:
   81058:	f04f 30ff 	mov.w	r0, #4294967295
   8105c:	4770      	bx	lr
   8105e:	bf00      	nop

00081060 <_fstat>:
   81060:	f44f 5300 	mov.w	r3, #8192	; 0x2000
   81064:	604b      	str	r3, [r1, #4]
   81066:	2000      	movs	r0, #0
   81068:	4770      	bx	lr
   8106a:	bf00      	nop

0008106c <_isatty>:
   8106c:	2001      	movs	r0, #1
   8106e:	4770      	bx	lr

00081070 <_lseek>:
   81070:	2000      	movs	r0, #0
   81072:	4770      	bx	lr

00081074 <vListInitialise>:
   81074:	f100 0308 	add.w	r3, r0, #8
   81078:	6043      	str	r3, [r0, #4]
   8107a:	f64f 72ff 	movw	r2, #65535	; 0xffff
   8107e:	8102      	strh	r2, [r0, #8]
   81080:	60c3      	str	r3, [r0, #12]
   81082:	6103      	str	r3, [r0, #16]
   81084:	2300      	movs	r3, #0
   81086:	6003      	str	r3, [r0, #0]
   81088:	4770      	bx	lr
   8108a:	bf00      	nop

0008108c <vListInitialiseItem>:
   8108c:	2300      	movs	r3, #0
   8108e:	6103      	str	r3, [r0, #16]
   81090:	4770      	bx	lr
   81092:	bf00      	nop

00081094 <vListInsertEnd>:
   81094:	6843      	ldr	r3, [r0, #4]
   81096:	685a      	ldr	r2, [r3, #4]
   81098:	604a      	str	r2, [r1, #4]
   8109a:	6842      	ldr	r2, [r0, #4]
   8109c:	608a      	str	r2, [r1, #8]
   8109e:	685a      	ldr	r2, [r3, #4]
   810a0:	6091      	str	r1, [r2, #8]
   810a2:	6059      	str	r1, [r3, #4]
   810a4:	6041      	str	r1, [r0, #4]
   810a6:	6108      	str	r0, [r1, #16]
   810a8:	6803      	ldr	r3, [r0, #0]
   810aa:	3301      	adds	r3, #1
   810ac:	6003      	str	r3, [r0, #0]
   810ae:	4770      	bx	lr

000810b0 <vListInsert>:
   810b0:	b410      	push	{r4}
   810b2:	880c      	ldrh	r4, [r1, #0]
   810b4:	f64f 73ff 	movw	r3, #65535	; 0xffff
   810b8:	429c      	cmp	r4, r3
   810ba:	d101      	bne.n	810c0 <vListInsert+0x10>
   810bc:	6903      	ldr	r3, [r0, #16]
   810be:	e00c      	b.n	810da <vListInsert+0x2a>
   810c0:	f100 0308 	add.w	r3, r0, #8
   810c4:	68c2      	ldr	r2, [r0, #12]
   810c6:	8812      	ldrh	r2, [r2, #0]
   810c8:	b292      	uxth	r2, r2
   810ca:	4294      	cmp	r4, r2
   810cc:	d305      	bcc.n	810da <vListInsert+0x2a>
   810ce:	685b      	ldr	r3, [r3, #4]
   810d0:	685a      	ldr	r2, [r3, #4]
   810d2:	8812      	ldrh	r2, [r2, #0]
   810d4:	b292      	uxth	r2, r2
   810d6:	4294      	cmp	r4, r2
   810d8:	d2f9      	bcs.n	810ce <vListInsert+0x1e>
   810da:	685a      	ldr	r2, [r3, #4]
   810dc:	604a      	str	r2, [r1, #4]
   810de:	6091      	str	r1, [r2, #8]
   810e0:	608b      	str	r3, [r1, #8]
   810e2:	6059      	str	r1, [r3, #4]
   810e4:	6108      	str	r0, [r1, #16]
   810e6:	6803      	ldr	r3, [r0, #0]
   810e8:	3301      	adds	r3, #1
   810ea:	6003      	str	r3, [r0, #0]
   810ec:	f85d 4b04 	ldr.w	r4, [sp], #4
   810f0:	4770      	bx	lr
   810f2:	bf00      	nop

000810f4 <uxListRemove>:
   810f4:	6843      	ldr	r3, [r0, #4]
   810f6:	6882      	ldr	r2, [r0, #8]
   810f8:	609a      	str	r2, [r3, #8]
   810fa:	6883      	ldr	r3, [r0, #8]
   810fc:	6842      	ldr	r2, [r0, #4]
   810fe:	605a      	str	r2, [r3, #4]
   81100:	6903      	ldr	r3, [r0, #16]
   81102:	685a      	ldr	r2, [r3, #4]
   81104:	4282      	cmp	r2, r0
   81106:	bf04      	itt	eq
   81108:	6882      	ldreq	r2, [r0, #8]
   8110a:	605a      	streq	r2, [r3, #4]
   8110c:	2200      	movs	r2, #0
   8110e:	6102      	str	r2, [r0, #16]
   81110:	681a      	ldr	r2, [r3, #0]
   81112:	3a01      	subs	r2, #1
   81114:	601a      	str	r2, [r3, #0]
   81116:	6818      	ldr	r0, [r3, #0]
   81118:	4770      	bx	lr
   8111a:	bf00      	nop

0008111c <prvPortStartFirstTask>:
   8111c:	4803      	ldr	r0, [pc, #12]	; (8112c <prvPortStartFirstTask+0x10>)
   8111e:	6800      	ldr	r0, [r0, #0]
   81120:	6800      	ldr	r0, [r0, #0]
   81122:	f380 8808 	msr	MSP, r0
   81126:	b662      	cpsie	i
   81128:	df00      	svc	0
   8112a:	bf00      	nop
   8112c:	e000ed08 	.word	0xe000ed08

00081130 <pxPortInitialiseStack>:
   81130:	f04f 7380 	mov.w	r3, #16777216	; 0x1000000
   81134:	f840 3c04 	str.w	r3, [r0, #-4]
   81138:	f840 1c08 	str.w	r1, [r0, #-8]
   8113c:	2300      	movs	r3, #0
   8113e:	f840 3c0c 	str.w	r3, [r0, #-12]
   81142:	f840 2c20 	str.w	r2, [r0, #-32]
   81146:	3840      	subs	r0, #64	; 0x40
   81148:	4770      	bx	lr
   8114a:	bf00      	nop

0008114c <SVC_Handler>:
   8114c:	4b06      	ldr	r3, [pc, #24]	; (81168 <pxCurrentTCBConst2>)
   8114e:	6819      	ldr	r1, [r3, #0]
   81150:	6808      	ldr	r0, [r1, #0]
   81152:	e8b0 0ff0 	ldmia.w	r0!, {r4, r5, r6, r7, r8, r9, sl, fp}
   81156:	f380 8809 	msr	PSP, r0
   8115a:	f04f 0000 	mov.w	r0, #0
   8115e:	f380 8811 	msr	BASEPRI, r0
   81162:	f04e 0e0d 	orr.w	lr, lr, #13
   81166:	4770      	bx	lr

00081168 <pxCurrentTCBConst2>:
   81168:	20078bb0 	.word	0x20078bb0

0008116c <vPortYieldFromISR>:
   8116c:	f04f 5280 	mov.w	r2, #268435456	; 0x10000000
   81170:	4b01      	ldr	r3, [pc, #4]	; (81178 <vPortYieldFromISR+0xc>)
   81172:	601a      	str	r2, [r3, #0]
   81174:	4770      	bx	lr
   81176:	bf00      	nop
   81178:	e000ed04 	.word	0xe000ed04

0008117c <ulPortSetInterruptMask>:
   8117c:	f3ef 8011 	mrs	r0, BASEPRI
   81180:	f04f 01a0 	mov.w	r1, #160	; 0xa0
   81184:	f381 8811 	msr	BASEPRI, r1
   81188:	4770      	bx	lr
   8118a:	2000      	movs	r0, #0

0008118c <vPortEnterCritical>:
   8118c:	b508      	push	{r3, lr}
   8118e:	4b03      	ldr	r3, [pc, #12]	; (8119c <vPortEnterCritical+0x10>)
   81190:	4798      	blx	r3
   81192:	4b03      	ldr	r3, [pc, #12]	; (811a0 <vPortEnterCritical+0x14>)
   81194:	681a      	ldr	r2, [r3, #0]
   81196:	3201      	adds	r2, #1
   81198:	601a      	str	r2, [r3, #0]
   8119a:	bd08      	pop	{r3, pc}
   8119c:	0008117d 	.word	0x0008117d
   811a0:	20070140 	.word	0x20070140

000811a4 <vPortClearInterruptMask>:
   811a4:	f380 8811 	msr	BASEPRI, r0
   811a8:	4770      	bx	lr
   811aa:	bf00      	nop

000811ac <vPortExitCritical>:
   811ac:	b508      	push	{r3, lr}
   811ae:	4a04      	ldr	r2, [pc, #16]	; (811c0 <vPortExitCritical+0x14>)
   811b0:	6813      	ldr	r3, [r2, #0]
   811b2:	3b01      	subs	r3, #1
   811b4:	6013      	str	r3, [r2, #0]
   811b6:	b913      	cbnz	r3, 811be <vPortExitCritical+0x12>
   811b8:	2000      	movs	r0, #0
   811ba:	4b02      	ldr	r3, [pc, #8]	; (811c4 <vPortExitCritical+0x18>)
   811bc:	4798      	blx	r3
   811be:	bd08      	pop	{r3, pc}
   811c0:	20070140 	.word	0x20070140
   811c4:	000811a5 	.word	0x000811a5

000811c8 <PendSV_Handler>:
   811c8:	f3ef 8009 	mrs	r0, PSP
   811cc:	4b0c      	ldr	r3, [pc, #48]	; (81200 <pxCurrentTCBConst>)
   811ce:	681a      	ldr	r2, [r3, #0]
   811d0:	e920 0ff0 	stmdb	r0!, {r4, r5, r6, r7, r8, r9, sl, fp}
   811d4:	6010      	str	r0, [r2, #0]
   811d6:	e92d 4008 	stmdb	sp!, {r3, lr}
   811da:	f04f 00a0 	mov.w	r0, #160	; 0xa0
   811de:	f380 8811 	msr	BASEPRI, r0
   811e2:	f000 ff2f 	bl	82044 <vTaskSwitchContext>
   811e6:	f04f 0000 	mov.w	r0, #0
   811ea:	f380 8811 	msr	BASEPRI, r0
   811ee:	e8bd 4008 	ldmia.w	sp!, {r3, lr}
   811f2:	6819      	ldr	r1, [r3, #0]
   811f4:	6808      	ldr	r0, [r1, #0]
   811f6:	e8b0 0ff0 	ldmia.w	r0!, {r4, r5, r6, r7, r8, r9, sl, fp}
   811fa:	f380 8809 	msr	PSP, r0
   811fe:	4770      	bx	lr

00081200 <pxCurrentTCBConst>:
   81200:	20078bb0 	.word	0x20078bb0

00081204 <SysTick_Handler>:
   81204:	b508      	push	{r3, lr}
   81206:	f04f 5280 	mov.w	r2, #268435456	; 0x10000000
   8120a:	4b05      	ldr	r3, [pc, #20]	; (81220 <SysTick_Handler+0x1c>)
   8120c:	601a      	str	r2, [r3, #0]
   8120e:	4b05      	ldr	r3, [pc, #20]	; (81224 <SysTick_Handler+0x20>)
   81210:	4798      	blx	r3
   81212:	4b05      	ldr	r3, [pc, #20]	; (81228 <SysTick_Handler+0x24>)
   81214:	4798      	blx	r3
   81216:	2000      	movs	r0, #0
   81218:	4b04      	ldr	r3, [pc, #16]	; (8122c <SysTick_Handler+0x28>)
   8121a:	4798      	blx	r3
   8121c:	bd08      	pop	{r3, pc}
   8121e:	bf00      	nop
   81220:	e000ed04 	.word	0xe000ed04
   81224:	0008117d 	.word	0x0008117d
   81228:	00081ca9 	.word	0x00081ca9
   8122c:	000811a5 	.word	0x000811a5

00081230 <vPortSetupTimerInterrupt>:
   81230:	4a03      	ldr	r2, [pc, #12]	; (81240 <vPortSetupTimerInterrupt+0x10>)
   81232:	4b04      	ldr	r3, [pc, #16]	; (81244 <vPortSetupTimerInterrupt+0x14>)
   81234:	601a      	str	r2, [r3, #0]
   81236:	2207      	movs	r2, #7
   81238:	3b04      	subs	r3, #4
   8123a:	601a      	str	r2, [r3, #0]
   8123c:	4770      	bx	lr
   8123e:	bf00      	nop
   81240:	0001481f 	.word	0x0001481f
   81244:	e000e014 	.word	0xe000e014

00081248 <xPortStartScheduler>:
   81248:	b510      	push	{r4, lr}
   8124a:	4b09      	ldr	r3, [pc, #36]	; (81270 <xPortStartScheduler+0x28>)
   8124c:	681a      	ldr	r2, [r3, #0]
   8124e:	f442 0270 	orr.w	r2, r2, #15728640	; 0xf00000
   81252:	601a      	str	r2, [r3, #0]
   81254:	681a      	ldr	r2, [r3, #0]
   81256:	f042 4270 	orr.w	r2, r2, #4026531840	; 0xf0000000
   8125a:	601a      	str	r2, [r3, #0]
   8125c:	4b05      	ldr	r3, [pc, #20]	; (81274 <xPortStartScheduler+0x2c>)
   8125e:	4798      	blx	r3
   81260:	2400      	movs	r4, #0
   81262:	4b05      	ldr	r3, [pc, #20]	; (81278 <xPortStartScheduler+0x30>)
   81264:	601c      	str	r4, [r3, #0]
   81266:	4b05      	ldr	r3, [pc, #20]	; (8127c <xPortStartScheduler+0x34>)
   81268:	4798      	blx	r3
   8126a:	4620      	mov	r0, r4
   8126c:	bd10      	pop	{r4, pc}
   8126e:	bf00      	nop
   81270:	e000ed20 	.word	0xe000ed20
   81274:	00081231 	.word	0x00081231
   81278:	20070140 	.word	0x20070140
   8127c:	0008111d 	.word	0x0008111d

00081280 <prvInsertBlockIntoFreeList>:
   81280:	b430      	push	{r4, r5}
   81282:	4a13      	ldr	r2, [pc, #76]	; (812d0 <prvInsertBlockIntoFreeList+0x50>)
   81284:	6813      	ldr	r3, [r2, #0]
   81286:	4283      	cmp	r3, r0
   81288:	d201      	bcs.n	8128e <prvInsertBlockIntoFreeList+0xe>
   8128a:	461a      	mov	r2, r3
   8128c:	e7fa      	b.n	81284 <prvInsertBlockIntoFreeList+0x4>
   8128e:	4611      	mov	r1, r2
   81290:	6854      	ldr	r4, [r2, #4]
   81292:	1915      	adds	r5, r2, r4
   81294:	4285      	cmp	r5, r0
   81296:	d103      	bne.n	812a0 <prvInsertBlockIntoFreeList+0x20>
   81298:	6868      	ldr	r0, [r5, #4]
   8129a:	4404      	add	r4, r0
   8129c:	6054      	str	r4, [r2, #4]
   8129e:	4610      	mov	r0, r2
   812a0:	6842      	ldr	r2, [r0, #4]
   812a2:	1884      	adds	r4, r0, r2
   812a4:	42a3      	cmp	r3, r4
   812a6:	d10c      	bne.n	812c2 <prvInsertBlockIntoFreeList+0x42>
   812a8:	4c0a      	ldr	r4, [pc, #40]	; (812d4 <prvInsertBlockIntoFreeList+0x54>)
   812aa:	6824      	ldr	r4, [r4, #0]
   812ac:	429c      	cmp	r4, r3
   812ae:	d006      	beq.n	812be <prvInsertBlockIntoFreeList+0x3e>
   812b0:	685b      	ldr	r3, [r3, #4]
   812b2:	441a      	add	r2, r3
   812b4:	6042      	str	r2, [r0, #4]
   812b6:	680b      	ldr	r3, [r1, #0]
   812b8:	681b      	ldr	r3, [r3, #0]
   812ba:	6003      	str	r3, [r0, #0]
   812bc:	e002      	b.n	812c4 <prvInsertBlockIntoFreeList+0x44>
   812be:	6003      	str	r3, [r0, #0]
   812c0:	e000      	b.n	812c4 <prvInsertBlockIntoFreeList+0x44>
   812c2:	6003      	str	r3, [r0, #0]
   812c4:	4281      	cmp	r1, r0
   812c6:	bf18      	it	ne
   812c8:	6008      	strne	r0, [r1, #0]
   812ca:	bc30      	pop	{r4, r5}
   812cc:	4770      	bx	lr
   812ce:	bf00      	nop
   812d0:	20078a8c 	.word	0x20078a8c
   812d4:	20078a88 	.word	0x20078a88

000812d8 <pvPortMalloc>:
   812d8:	b538      	push	{r3, r4, r5, lr}
   812da:	4604      	mov	r4, r0
   812dc:	4b28      	ldr	r3, [pc, #160]	; (81380 <pvPortMalloc+0xa8>)
   812de:	4798      	blx	r3
   812e0:	4b28      	ldr	r3, [pc, #160]	; (81384 <pvPortMalloc+0xac>)
   812e2:	681b      	ldr	r3, [r3, #0]
   812e4:	b99b      	cbnz	r3, 8130e <pvPortMalloc+0x36>
   812e6:	4a28      	ldr	r2, [pc, #160]	; (81388 <pvPortMalloc+0xb0>)
   812e8:	4b28      	ldr	r3, [pc, #160]	; (8138c <pvPortMalloc+0xb4>)
   812ea:	6013      	str	r3, [r2, #0]
   812ec:	2100      	movs	r1, #0
   812ee:	6051      	str	r1, [r2, #4]
   812f0:	f647 72f0 	movw	r2, #32752	; 0x7ff0
   812f4:	1898      	adds	r0, r3, r2
   812f6:	4d23      	ldr	r5, [pc, #140]	; (81384 <pvPortMalloc+0xac>)
   812f8:	6028      	str	r0, [r5, #0]
   812fa:	f647 75f4 	movw	r5, #32756	; 0x7ff4
   812fe:	5159      	str	r1, [r3, r5]
   81300:	5099      	str	r1, [r3, r2]
   81302:	605a      	str	r2, [r3, #4]
   81304:	6018      	str	r0, [r3, #0]
   81306:	4b22      	ldr	r3, [pc, #136]	; (81390 <pvPortMalloc+0xb8>)
   81308:	681a      	ldr	r2, [r3, #0]
   8130a:	3a10      	subs	r2, #16
   8130c:	601a      	str	r2, [r3, #0]
   8130e:	2c00      	cmp	r4, #0
   81310:	d02d      	beq.n	8136e <pvPortMalloc+0x96>
   81312:	f104 0210 	add.w	r2, r4, #16
   81316:	f012 0f07 	tst.w	r2, #7
   8131a:	bf1c      	itt	ne
   8131c:	f022 0207 	bicne.w	r2, r2, #7
   81320:	3208      	addne	r2, #8
   81322:	1e51      	subs	r1, r2, #1
   81324:	f647 73fe 	movw	r3, #32766	; 0x7ffe
   81328:	4299      	cmp	r1, r3
   8132a:	d822      	bhi.n	81372 <pvPortMalloc+0x9a>
   8132c:	4916      	ldr	r1, [pc, #88]	; (81388 <pvPortMalloc+0xb0>)
   8132e:	680c      	ldr	r4, [r1, #0]
   81330:	6863      	ldr	r3, [r4, #4]
   81332:	429a      	cmp	r2, r3
   81334:	d904      	bls.n	81340 <pvPortMalloc+0x68>
   81336:	6823      	ldr	r3, [r4, #0]
   81338:	b113      	cbz	r3, 81340 <pvPortMalloc+0x68>
   8133a:	4621      	mov	r1, r4
   8133c:	461c      	mov	r4, r3
   8133e:	e7f7      	b.n	81330 <pvPortMalloc+0x58>
   81340:	4b10      	ldr	r3, [pc, #64]	; (81384 <pvPortMalloc+0xac>)
   81342:	681b      	ldr	r3, [r3, #0]
   81344:	429c      	cmp	r4, r3
   81346:	d016      	beq.n	81376 <pvPortMalloc+0x9e>
   81348:	680d      	ldr	r5, [r1, #0]
   8134a:	3510      	adds	r5, #16
   8134c:	6823      	ldr	r3, [r4, #0]
   8134e:	600b      	str	r3, [r1, #0]
   81350:	6863      	ldr	r3, [r4, #4]
   81352:	1a9b      	subs	r3, r3, r2
   81354:	2b20      	cmp	r3, #32
   81356:	d904      	bls.n	81362 <pvPortMalloc+0x8a>
   81358:	18a0      	adds	r0, r4, r2
   8135a:	6043      	str	r3, [r0, #4]
   8135c:	6062      	str	r2, [r4, #4]
   8135e:	4b0d      	ldr	r3, [pc, #52]	; (81394 <pvPortMalloc+0xbc>)
   81360:	4798      	blx	r3
   81362:	4b0b      	ldr	r3, [pc, #44]	; (81390 <pvPortMalloc+0xb8>)
   81364:	681a      	ldr	r2, [r3, #0]
   81366:	6861      	ldr	r1, [r4, #4]
   81368:	1a52      	subs	r2, r2, r1
   8136a:	601a      	str	r2, [r3, #0]
   8136c:	e004      	b.n	81378 <pvPortMalloc+0xa0>
   8136e:	2500      	movs	r5, #0
   81370:	e002      	b.n	81378 <pvPortMalloc+0xa0>
   81372:	2500      	movs	r5, #0
   81374:	e000      	b.n	81378 <pvPortMalloc+0xa0>
   81376:	2500      	movs	r5, #0
   81378:	4b07      	ldr	r3, [pc, #28]	; (81398 <pvPortMalloc+0xc0>)
   8137a:	4798      	blx	r3
   8137c:	4628      	mov	r0, r5
   8137e:	bd38      	pop	{r3, r4, r5, pc}
   81380:	00081c79 	.word	0x00081c79
   81384:	20078a88 	.word	0x20078a88
   81388:	20078a8c 	.word	0x20078a8c
   8138c:	20070a88 	.word	0x20070a88
   81390:	20070144 	.word	0x20070144
   81394:	00081281 	.word	0x00081281
   81398:	00081dd5 	.word	0x00081dd5

0008139c <vPortFree>:
   8139c:	b510      	push	{r4, lr}
   8139e:	4604      	mov	r4, r0
   813a0:	b168      	cbz	r0, 813be <vPortFree+0x22>
   813a2:	4b07      	ldr	r3, [pc, #28]	; (813c0 <vPortFree+0x24>)
   813a4:	4798      	blx	r3
   813a6:	4b07      	ldr	r3, [pc, #28]	; (813c4 <vPortFree+0x28>)
   813a8:	6819      	ldr	r1, [r3, #0]
   813aa:	f854 2c0c 	ldr.w	r2, [r4, #-12]
   813ae:	440a      	add	r2, r1
   813b0:	601a      	str	r2, [r3, #0]
   813b2:	f1a4 0010 	sub.w	r0, r4, #16
   813b6:	4b04      	ldr	r3, [pc, #16]	; (813c8 <vPortFree+0x2c>)
   813b8:	4798      	blx	r3
   813ba:	4b04      	ldr	r3, [pc, #16]	; (813cc <vPortFree+0x30>)
   813bc:	4798      	blx	r3
   813be:	bd10      	pop	{r4, pc}
   813c0:	00081c79 	.word	0x00081c79
   813c4:	20070144 	.word	0x20070144
   813c8:	00081281 	.word	0x00081281
   813cc:	00081dd5 	.word	0x00081dd5

000813d0 <prvCopyDataToQueue>:
   813d0:	b510      	push	{r4, lr}
   813d2:	4604      	mov	r4, r0
   813d4:	6c03      	ldr	r3, [r0, #64]	; 0x40
   813d6:	b93b      	cbnz	r3, 813e8 <prvCopyDataToQueue+0x18>
   813d8:	6803      	ldr	r3, [r0, #0]
   813da:	bb1b      	cbnz	r3, 81424 <prvCopyDataToQueue+0x54>
   813dc:	6840      	ldr	r0, [r0, #4]
   813de:	4b13      	ldr	r3, [pc, #76]	; (8142c <prvCopyDataToQueue+0x5c>)
   813e0:	4798      	blx	r3
   813e2:	2300      	movs	r3, #0
   813e4:	6063      	str	r3, [r4, #4]
   813e6:	e01d      	b.n	81424 <prvCopyDataToQueue+0x54>
   813e8:	b96a      	cbnz	r2, 81406 <prvCopyDataToQueue+0x36>
   813ea:	6880      	ldr	r0, [r0, #8]
   813ec:	461a      	mov	r2, r3
   813ee:	4b10      	ldr	r3, [pc, #64]	; (81430 <prvCopyDataToQueue+0x60>)
   813f0:	4798      	blx	r3
   813f2:	68a2      	ldr	r2, [r4, #8]
   813f4:	6c23      	ldr	r3, [r4, #64]	; 0x40
   813f6:	4413      	add	r3, r2
   813f8:	60a3      	str	r3, [r4, #8]
   813fa:	6862      	ldr	r2, [r4, #4]
   813fc:	4293      	cmp	r3, r2
   813fe:	d311      	bcc.n	81424 <prvCopyDataToQueue+0x54>
   81400:	6823      	ldr	r3, [r4, #0]
   81402:	60a3      	str	r3, [r4, #8]
   81404:	e00e      	b.n	81424 <prvCopyDataToQueue+0x54>
   81406:	68c0      	ldr	r0, [r0, #12]
   81408:	461a      	mov	r2, r3
   8140a:	4b09      	ldr	r3, [pc, #36]	; (81430 <prvCopyDataToQueue+0x60>)
   8140c:	4798      	blx	r3
   8140e:	6c22      	ldr	r2, [r4, #64]	; 0x40
   81410:	4252      	negs	r2, r2
   81412:	68e3      	ldr	r3, [r4, #12]
   81414:	4413      	add	r3, r2
   81416:	60e3      	str	r3, [r4, #12]
   81418:	6821      	ldr	r1, [r4, #0]
   8141a:	428b      	cmp	r3, r1
   8141c:	d202      	bcs.n	81424 <prvCopyDataToQueue+0x54>
   8141e:	6863      	ldr	r3, [r4, #4]
   81420:	441a      	add	r2, r3
   81422:	60e2      	str	r2, [r4, #12]
   81424:	6ba3      	ldr	r3, [r4, #56]	; 0x38
   81426:	3301      	adds	r3, #1
   81428:	63a3      	str	r3, [r4, #56]	; 0x38
   8142a:	bd10      	pop	{r4, pc}
   8142c:	0008236d 	.word	0x0008236d
   81430:	00084bb9 	.word	0x00084bb9

00081434 <prvCopyDataFromQueue>:
   81434:	b538      	push	{r3, r4, r5, lr}
   81436:	4603      	mov	r3, r0
   81438:	6805      	ldr	r5, [r0, #0]
   8143a:	b15d      	cbz	r5, 81454 <prvCopyDataFromQueue+0x20>
   8143c:	6c02      	ldr	r2, [r0, #64]	; 0x40
   8143e:	68c4      	ldr	r4, [r0, #12]
   81440:	4414      	add	r4, r2
   81442:	60c4      	str	r4, [r0, #12]
   81444:	6840      	ldr	r0, [r0, #4]
   81446:	4284      	cmp	r4, r0
   81448:	bf28      	it	cs
   8144a:	60dd      	strcs	r5, [r3, #12]
   8144c:	4608      	mov	r0, r1
   8144e:	68d9      	ldr	r1, [r3, #12]
   81450:	4b01      	ldr	r3, [pc, #4]	; (81458 <prvCopyDataFromQueue+0x24>)
   81452:	4798      	blx	r3
   81454:	bd38      	pop	{r3, r4, r5, pc}
   81456:	bf00      	nop
   81458:	00084bb9 	.word	0x00084bb9

0008145c <prvUnlockQueue>:
   8145c:	b5f8      	push	{r3, r4, r5, r6, r7, lr}
   8145e:	4604      	mov	r4, r0
   81460:	4b1d      	ldr	r3, [pc, #116]	; (814d8 <prvUnlockQueue+0x7c>)
   81462:	4798      	blx	r3
   81464:	6ca3      	ldr	r3, [r4, #72]	; 0x48
   81466:	2b00      	cmp	r3, #0
   81468:	dd12      	ble.n	81490 <prvUnlockQueue+0x34>
   8146a:	6a63      	ldr	r3, [r4, #36]	; 0x24
   8146c:	b183      	cbz	r3, 81490 <prvUnlockQueue+0x34>
   8146e:	f104 0624 	add.w	r6, r4, #36	; 0x24
   81472:	4d1a      	ldr	r5, [pc, #104]	; (814dc <prvUnlockQueue+0x80>)
   81474:	4f1a      	ldr	r7, [pc, #104]	; (814e0 <prvUnlockQueue+0x84>)
   81476:	e001      	b.n	8147c <prvUnlockQueue+0x20>
   81478:	6a63      	ldr	r3, [r4, #36]	; 0x24
   8147a:	b14b      	cbz	r3, 81490 <prvUnlockQueue+0x34>
   8147c:	4630      	mov	r0, r6
   8147e:	47a8      	blx	r5
   81480:	b100      	cbz	r0, 81484 <prvUnlockQueue+0x28>
   81482:	47b8      	blx	r7
   81484:	6ca3      	ldr	r3, [r4, #72]	; 0x48
   81486:	3b01      	subs	r3, #1
   81488:	64a3      	str	r3, [r4, #72]	; 0x48
   8148a:	6ca3      	ldr	r3, [r4, #72]	; 0x48
   8148c:	2b00      	cmp	r3, #0
   8148e:	dcf3      	bgt.n	81478 <prvUnlockQueue+0x1c>
   81490:	f04f 33ff 	mov.w	r3, #4294967295
   81494:	64a3      	str	r3, [r4, #72]	; 0x48
   81496:	4b13      	ldr	r3, [pc, #76]	; (814e4 <prvUnlockQueue+0x88>)
   81498:	4798      	blx	r3
   8149a:	4b0f      	ldr	r3, [pc, #60]	; (814d8 <prvUnlockQueue+0x7c>)
   8149c:	4798      	blx	r3
   8149e:	6c63      	ldr	r3, [r4, #68]	; 0x44
   814a0:	2b00      	cmp	r3, #0
   814a2:	dd12      	ble.n	814ca <prvUnlockQueue+0x6e>
   814a4:	6923      	ldr	r3, [r4, #16]
   814a6:	b183      	cbz	r3, 814ca <prvUnlockQueue+0x6e>
   814a8:	f104 0610 	add.w	r6, r4, #16
   814ac:	4d0b      	ldr	r5, [pc, #44]	; (814dc <prvUnlockQueue+0x80>)
   814ae:	4f0c      	ldr	r7, [pc, #48]	; (814e0 <prvUnlockQueue+0x84>)
   814b0:	e001      	b.n	814b6 <prvUnlockQueue+0x5a>
   814b2:	6923      	ldr	r3, [r4, #16]
   814b4:	b14b      	cbz	r3, 814ca <prvUnlockQueue+0x6e>
   814b6:	4630      	mov	r0, r6
   814b8:	47a8      	blx	r5
   814ba:	b100      	cbz	r0, 814be <prvUnlockQueue+0x62>
   814bc:	47b8      	blx	r7
   814be:	6c63      	ldr	r3, [r4, #68]	; 0x44
   814c0:	3b01      	subs	r3, #1
   814c2:	6463      	str	r3, [r4, #68]	; 0x44
   814c4:	6c63      	ldr	r3, [r4, #68]	; 0x44
   814c6:	2b00      	cmp	r3, #0
   814c8:	dcf3      	bgt.n	814b2 <prvUnlockQueue+0x56>
   814ca:	f04f 33ff 	mov.w	r3, #4294967295
   814ce:	6463      	str	r3, [r4, #68]	; 0x44
   814d0:	4b04      	ldr	r3, [pc, #16]	; (814e4 <prvUnlockQueue+0x88>)
   814d2:	4798      	blx	r3
   814d4:	bdf8      	pop	{r3, r4, r5, r6, r7, pc}
   814d6:	bf00      	nop
   814d8:	0008118d 	.word	0x0008118d
   814dc:	00082181 	.word	0x00082181
   814e0:	000822b9 	.word	0x000822b9
   814e4:	000811ad 	.word	0x000811ad

000814e8 <xQueueGenericReset>:
   814e8:	b538      	push	{r3, r4, r5, lr}
   814ea:	460d      	mov	r5, r1
   814ec:	4604      	mov	r4, r0
   814ee:	b918      	cbnz	r0, 814f8 <xQueueGenericReset+0x10>
   814f0:	4b16      	ldr	r3, [pc, #88]	; (8154c <xQueueGenericReset+0x64>)
   814f2:	4798      	blx	r3
   814f4:	bf00      	nop
   814f6:	e7fd      	b.n	814f4 <xQueueGenericReset+0xc>
   814f8:	4b15      	ldr	r3, [pc, #84]	; (81550 <xQueueGenericReset+0x68>)
   814fa:	4798      	blx	r3
   814fc:	6823      	ldr	r3, [r4, #0]
   814fe:	6c22      	ldr	r2, [r4, #64]	; 0x40
   81500:	6be0      	ldr	r0, [r4, #60]	; 0x3c
   81502:	fb00 f002 	mul.w	r0, r0, r2
   81506:	1819      	adds	r1, r3, r0
   81508:	6061      	str	r1, [r4, #4]
   8150a:	2100      	movs	r1, #0
   8150c:	63a1      	str	r1, [r4, #56]	; 0x38
   8150e:	60a3      	str	r3, [r4, #8]
   81510:	1a82      	subs	r2, r0, r2
   81512:	4413      	add	r3, r2
   81514:	60e3      	str	r3, [r4, #12]
   81516:	f04f 33ff 	mov.w	r3, #4294967295
   8151a:	6463      	str	r3, [r4, #68]	; 0x44
   8151c:	64a3      	str	r3, [r4, #72]	; 0x48
   8151e:	b955      	cbnz	r5, 81536 <xQueueGenericReset+0x4e>
   81520:	6923      	ldr	r3, [r4, #16]
   81522:	b17b      	cbz	r3, 81544 <xQueueGenericReset+0x5c>
   81524:	f104 0010 	add.w	r0, r4, #16
   81528:	4b0a      	ldr	r3, [pc, #40]	; (81554 <xQueueGenericReset+0x6c>)
   8152a:	4798      	blx	r3
   8152c:	2801      	cmp	r0, #1
   8152e:	d109      	bne.n	81544 <xQueueGenericReset+0x5c>
   81530:	4b09      	ldr	r3, [pc, #36]	; (81558 <xQueueGenericReset+0x70>)
   81532:	4798      	blx	r3
   81534:	e006      	b.n	81544 <xQueueGenericReset+0x5c>
   81536:	f104 0010 	add.w	r0, r4, #16
   8153a:	4d08      	ldr	r5, [pc, #32]	; (8155c <xQueueGenericReset+0x74>)
   8153c:	47a8      	blx	r5
   8153e:	f104 0024 	add.w	r0, r4, #36	; 0x24
   81542:	47a8      	blx	r5
   81544:	4b06      	ldr	r3, [pc, #24]	; (81560 <xQueueGenericReset+0x78>)
   81546:	4798      	blx	r3
   81548:	2001      	movs	r0, #1
   8154a:	bd38      	pop	{r3, r4, r5, pc}
   8154c:	0008117d 	.word	0x0008117d
   81550:	0008118d 	.word	0x0008118d
   81554:	00082181 	.word	0x00082181
   81558:	0008116d 	.word	0x0008116d
   8155c:	00081075 	.word	0x00081075
   81560:	000811ad 	.word	0x000811ad

00081564 <xQueueGenericCreate>:
   81564:	b5f8      	push	{r3, r4, r5, r6, r7, lr}
   81566:	460d      	mov	r5, r1
   81568:	4617      	mov	r7, r2
   8156a:	4606      	mov	r6, r0
   8156c:	b188      	cbz	r0, 81592 <xQueueGenericCreate+0x2e>
   8156e:	2050      	movs	r0, #80	; 0x50
   81570:	4b0e      	ldr	r3, [pc, #56]	; (815ac <xQueueGenericCreate+0x48>)
   81572:	4798      	blx	r3
   81574:	4604      	mov	r4, r0
   81576:	b160      	cbz	r0, 81592 <xQueueGenericCreate+0x2e>
   81578:	fb05 f006 	mul.w	r0, r5, r6
   8157c:	3001      	adds	r0, #1
   8157e:	4b0b      	ldr	r3, [pc, #44]	; (815ac <xQueueGenericCreate+0x48>)
   81580:	4798      	blx	r3
   81582:	6020      	str	r0, [r4, #0]
   81584:	b940      	cbnz	r0, 81598 <xQueueGenericCreate+0x34>
   81586:	4620      	mov	r0, r4
   81588:	4b09      	ldr	r3, [pc, #36]	; (815b0 <xQueueGenericCreate+0x4c>)
   8158a:	4798      	blx	r3
   8158c:	e001      	b.n	81592 <xQueueGenericCreate+0x2e>
   8158e:	bf00      	nop
   81590:	e7fd      	b.n	8158e <xQueueGenericCreate+0x2a>
   81592:	4b08      	ldr	r3, [pc, #32]	; (815b4 <xQueueGenericCreate+0x50>)
   81594:	4798      	blx	r3
   81596:	e7fa      	b.n	8158e <xQueueGenericCreate+0x2a>
   81598:	63e6      	str	r6, [r4, #60]	; 0x3c
   8159a:	6425      	str	r5, [r4, #64]	; 0x40
   8159c:	4620      	mov	r0, r4
   8159e:	2101      	movs	r1, #1
   815a0:	4b05      	ldr	r3, [pc, #20]	; (815b8 <xQueueGenericCreate+0x54>)
   815a2:	4798      	blx	r3
   815a4:	f884 704d 	strb.w	r7, [r4, #77]	; 0x4d
   815a8:	4620      	mov	r0, r4
   815aa:	bdf8      	pop	{r3, r4, r5, r6, r7, pc}
   815ac:	000812d9 	.word	0x000812d9
   815b0:	0008139d 	.word	0x0008139d
   815b4:	0008117d 	.word	0x0008117d
   815b8:	000814e9 	.word	0x000814e9

000815bc <xQueueGenericSend>:
   815bc:	e92d 4ff0 	stmdb	sp!, {r4, r5, r6, r7, r8, r9, sl, fp, lr}
   815c0:	b085      	sub	sp, #20
   815c2:	468a      	mov	sl, r1
   815c4:	469b      	mov	fp, r3
   815c6:	f8ad 2006 	strh.w	r2, [sp, #6]
   815ca:	4604      	mov	r4, r0
   815cc:	b918      	cbnz	r0, 815d6 <xQueueGenericSend+0x1a>
   815ce:	4b38      	ldr	r3, [pc, #224]	; (816b0 <xQueueGenericSend+0xf4>)
   815d0:	4798      	blx	r3
   815d2:	bf00      	nop
   815d4:	e7fd      	b.n	815d2 <xQueueGenericSend+0x16>
   815d6:	b909      	cbnz	r1, 815dc <xQueueGenericSend+0x20>
   815d8:	6c03      	ldr	r3, [r0, #64]	; 0x40
   815da:	b91b      	cbnz	r3, 815e4 <xQueueGenericSend+0x28>
   815dc:	2700      	movs	r7, #0
   815de:	4e35      	ldr	r6, [pc, #212]	; (816b4 <xQueueGenericSend+0xf8>)
   815e0:	4d35      	ldr	r5, [pc, #212]	; (816b8 <xQueueGenericSend+0xfc>)
   815e2:	e003      	b.n	815ec <xQueueGenericSend+0x30>
   815e4:	4b32      	ldr	r3, [pc, #200]	; (816b0 <xQueueGenericSend+0xf4>)
   815e6:	4798      	blx	r3
   815e8:	bf00      	nop
   815ea:	e7fd      	b.n	815e8 <xQueueGenericSend+0x2c>
   815ec:	47b0      	blx	r6
   815ee:	6ba2      	ldr	r2, [r4, #56]	; 0x38
   815f0:	6be3      	ldr	r3, [r4, #60]	; 0x3c
   815f2:	429a      	cmp	r2, r3
   815f4:	d212      	bcs.n	8161c <xQueueGenericSend+0x60>
   815f6:	4620      	mov	r0, r4
   815f8:	4651      	mov	r1, sl
   815fa:	465a      	mov	r2, fp
   815fc:	4b2f      	ldr	r3, [pc, #188]	; (816bc <xQueueGenericSend+0x100>)
   815fe:	4798      	blx	r3
   81600:	6a63      	ldr	r3, [r4, #36]	; 0x24
   81602:	b13b      	cbz	r3, 81614 <xQueueGenericSend+0x58>
   81604:	f104 0024 	add.w	r0, r4, #36	; 0x24
   81608:	4b2d      	ldr	r3, [pc, #180]	; (816c0 <xQueueGenericSend+0x104>)
   8160a:	4798      	blx	r3
   8160c:	2801      	cmp	r0, #1
   8160e:	d101      	bne.n	81614 <xQueueGenericSend+0x58>
   81610:	4b2c      	ldr	r3, [pc, #176]	; (816c4 <xQueueGenericSend+0x108>)
   81612:	4798      	blx	r3
   81614:	4b28      	ldr	r3, [pc, #160]	; (816b8 <xQueueGenericSend+0xfc>)
   81616:	4798      	blx	r3
   81618:	2001      	movs	r0, #1
   8161a:	e046      	b.n	816aa <xQueueGenericSend+0xee>
   8161c:	f8bd 3006 	ldrh.w	r3, [sp, #6]
   81620:	b91b      	cbnz	r3, 8162a <xQueueGenericSend+0x6e>
   81622:	4b25      	ldr	r3, [pc, #148]	; (816b8 <xQueueGenericSend+0xfc>)
   81624:	4798      	blx	r3
   81626:	2000      	movs	r0, #0
   81628:	e03f      	b.n	816aa <xQueueGenericSend+0xee>
   8162a:	b91f      	cbnz	r7, 81634 <xQueueGenericSend+0x78>
   8162c:	a802      	add	r0, sp, #8
   8162e:	4b26      	ldr	r3, [pc, #152]	; (816c8 <xQueueGenericSend+0x10c>)
   81630:	4798      	blx	r3
   81632:	2701      	movs	r7, #1
   81634:	47a8      	blx	r5
   81636:	4b25      	ldr	r3, [pc, #148]	; (816cc <xQueueGenericSend+0x110>)
   81638:	4798      	blx	r3
   8163a:	47b0      	blx	r6
   8163c:	6c63      	ldr	r3, [r4, #68]	; 0x44
   8163e:	f1b3 3fff 	cmp.w	r3, #4294967295
   81642:	bf04      	itt	eq
   81644:	2300      	moveq	r3, #0
   81646:	6463      	streq	r3, [r4, #68]	; 0x44
   81648:	6ca3      	ldr	r3, [r4, #72]	; 0x48
   8164a:	f1b3 3fff 	cmp.w	r3, #4294967295
   8164e:	bf04      	itt	eq
   81650:	2300      	moveq	r3, #0
   81652:	64a3      	streq	r3, [r4, #72]	; 0x48
   81654:	47a8      	blx	r5
   81656:	a802      	add	r0, sp, #8
   81658:	f10d 0106 	add.w	r1, sp, #6
   8165c:	4b1c      	ldr	r3, [pc, #112]	; (816d0 <xQueueGenericSend+0x114>)
   8165e:	4798      	blx	r3
   81660:	b9e8      	cbnz	r0, 8169e <xQueueGenericSend+0xe2>
   81662:	47b0      	blx	r6
   81664:	f8d4 9038 	ldr.w	r9, [r4, #56]	; 0x38
   81668:	f8d4 803c 	ldr.w	r8, [r4, #60]	; 0x3c
   8166c:	47a8      	blx	r5
   8166e:	45c1      	cmp	r9, r8
   81670:	d10f      	bne.n	81692 <xQueueGenericSend+0xd6>
   81672:	f104 0010 	add.w	r0, r4, #16
   81676:	f8bd 1006 	ldrh.w	r1, [sp, #6]
   8167a:	4b16      	ldr	r3, [pc, #88]	; (816d4 <xQueueGenericSend+0x118>)
   8167c:	4798      	blx	r3
   8167e:	4620      	mov	r0, r4
   81680:	4b15      	ldr	r3, [pc, #84]	; (816d8 <xQueueGenericSend+0x11c>)
   81682:	4798      	blx	r3
   81684:	4b15      	ldr	r3, [pc, #84]	; (816dc <xQueueGenericSend+0x120>)
   81686:	4798      	blx	r3
   81688:	2800      	cmp	r0, #0
   8168a:	d1af      	bne.n	815ec <xQueueGenericSend+0x30>
   8168c:	4b0d      	ldr	r3, [pc, #52]	; (816c4 <xQueueGenericSend+0x108>)
   8168e:	4798      	blx	r3
   81690:	e7ac      	b.n	815ec <xQueueGenericSend+0x30>
   81692:	4620      	mov	r0, r4
   81694:	4b10      	ldr	r3, [pc, #64]	; (816d8 <xQueueGenericSend+0x11c>)
   81696:	4798      	blx	r3
   81698:	4b10      	ldr	r3, [pc, #64]	; (816dc <xQueueGenericSend+0x120>)
   8169a:	4798      	blx	r3
   8169c:	e7a6      	b.n	815ec <xQueueGenericSend+0x30>
   8169e:	4620      	mov	r0, r4
   816a0:	4b0d      	ldr	r3, [pc, #52]	; (816d8 <xQueueGenericSend+0x11c>)
   816a2:	4798      	blx	r3
   816a4:	4b0d      	ldr	r3, [pc, #52]	; (816dc <xQueueGenericSend+0x120>)
   816a6:	4798      	blx	r3
   816a8:	2000      	movs	r0, #0
   816aa:	b005      	add	sp, #20
   816ac:	e8bd 8ff0 	ldmia.w	sp!, {r4, r5, r6, r7, r8, r9, sl, fp, pc}
   816b0:	0008117d 	.word	0x0008117d
   816b4:	0008118d 	.word	0x0008118d
   816b8:	000811ad 	.word	0x000811ad
   816bc:	000813d1 	.word	0x000813d1
   816c0:	00082181 	.word	0x00082181
   816c4:	0008116d 	.word	0x0008116d
   816c8:	00082205 	.word	0x00082205
   816cc:	00081c79 	.word	0x00081c79
   816d0:	0008222d 	.word	0x0008222d
   816d4:	000820d5 	.word	0x000820d5
   816d8:	0008145d 	.word	0x0008145d
   816dc:	00081dd5 	.word	0x00081dd5

000816e0 <xQueueGenericSendFromISR>:
   816e0:	e92d 41f0 	stmdb	sp!, {r4, r5, r6, r7, r8, lr}
   816e4:	460e      	mov	r6, r1
   816e6:	4615      	mov	r5, r2
   816e8:	4698      	mov	r8, r3
   816ea:	4604      	mov	r4, r0
   816ec:	b918      	cbnz	r0, 816f6 <xQueueGenericSendFromISR+0x16>
   816ee:	4b1c      	ldr	r3, [pc, #112]	; (81760 <xQueueGenericSendFromISR+0x80>)
   816f0:	4798      	blx	r3
   816f2:	bf00      	nop
   816f4:	e7fd      	b.n	816f2 <xQueueGenericSendFromISR+0x12>
   816f6:	b929      	cbnz	r1, 81704 <xQueueGenericSendFromISR+0x24>
   816f8:	6c03      	ldr	r3, [r0, #64]	; 0x40
   816fa:	b11b      	cbz	r3, 81704 <xQueueGenericSendFromISR+0x24>
   816fc:	4b18      	ldr	r3, [pc, #96]	; (81760 <xQueueGenericSendFromISR+0x80>)
   816fe:	4798      	blx	r3
   81700:	bf00      	nop
   81702:	e7fd      	b.n	81700 <xQueueGenericSendFromISR+0x20>
   81704:	4b16      	ldr	r3, [pc, #88]	; (81760 <xQueueGenericSendFromISR+0x80>)
   81706:	4798      	blx	r3
   81708:	4607      	mov	r7, r0
   8170a:	6ba2      	ldr	r2, [r4, #56]	; 0x38
   8170c:	6be3      	ldr	r3, [r4, #60]	; 0x3c
   8170e:	429a      	cmp	r2, r3
   81710:	d218      	bcs.n	81744 <xQueueGenericSendFromISR+0x64>
   81712:	4620      	mov	r0, r4
   81714:	4631      	mov	r1, r6
   81716:	4642      	mov	r2, r8
   81718:	4b12      	ldr	r3, [pc, #72]	; (81764 <xQueueGenericSendFromISR+0x84>)
   8171a:	4798      	blx	r3
   8171c:	6ca3      	ldr	r3, [r4, #72]	; 0x48
   8171e:	f1b3 3fff 	cmp.w	r3, #4294967295
   81722:	d10a      	bne.n	8173a <xQueueGenericSendFromISR+0x5a>
   81724:	6a63      	ldr	r3, [r4, #36]	; 0x24
   81726:	b17b      	cbz	r3, 81748 <xQueueGenericSendFromISR+0x68>
   81728:	f104 0024 	add.w	r0, r4, #36	; 0x24
   8172c:	4b0e      	ldr	r3, [pc, #56]	; (81768 <xQueueGenericSendFromISR+0x88>)
   8172e:	4798      	blx	r3
   81730:	b160      	cbz	r0, 8174c <xQueueGenericSendFromISR+0x6c>
   81732:	b16d      	cbz	r5, 81750 <xQueueGenericSendFromISR+0x70>
   81734:	2401      	movs	r4, #1
   81736:	602c      	str	r4, [r5, #0]
   81738:	e00b      	b.n	81752 <xQueueGenericSendFromISR+0x72>
   8173a:	6ca3      	ldr	r3, [r4, #72]	; 0x48
   8173c:	3301      	adds	r3, #1
   8173e:	64a3      	str	r3, [r4, #72]	; 0x48
   81740:	2401      	movs	r4, #1
   81742:	e006      	b.n	81752 <xQueueGenericSendFromISR+0x72>
   81744:	2400      	movs	r4, #0
   81746:	e004      	b.n	81752 <xQueueGenericSendFromISR+0x72>
   81748:	2401      	movs	r4, #1
   8174a:	e002      	b.n	81752 <xQueueGenericSendFromISR+0x72>
   8174c:	2401      	movs	r4, #1
   8174e:	e000      	b.n	81752 <xQueueGenericSendFromISR+0x72>
   81750:	2401      	movs	r4, #1
   81752:	4638      	mov	r0, r7
   81754:	4b05      	ldr	r3, [pc, #20]	; (8176c <xQueueGenericSendFromISR+0x8c>)
   81756:	4798      	blx	r3
   81758:	4620      	mov	r0, r4
   8175a:	e8bd 81f0 	ldmia.w	sp!, {r4, r5, r6, r7, r8, pc}
   8175e:	bf00      	nop
   81760:	0008117d 	.word	0x0008117d
   81764:	000813d1 	.word	0x000813d1
   81768:	00082181 	.word	0x00082181
   8176c:	000811a5 	.word	0x000811a5

00081770 <xQueueGenericReceive>:
   81770:	e92d 4ff0 	stmdb	sp!, {r4, r5, r6, r7, r8, r9, sl, fp, lr}
   81774:	b085      	sub	sp, #20
   81776:	4689      	mov	r9, r1
   81778:	469a      	mov	sl, r3
   8177a:	f8ad 2006 	strh.w	r2, [sp, #6]
   8177e:	4604      	mov	r4, r0
   81780:	b918      	cbnz	r0, 8178a <xQueueGenericReceive+0x1a>
   81782:	4b46      	ldr	r3, [pc, #280]	; (8189c <xQueueGenericReceive+0x12c>)
   81784:	4798      	blx	r3
   81786:	bf00      	nop
   81788:	e7fd      	b.n	81786 <xQueueGenericReceive+0x16>
   8178a:	b909      	cbnz	r1, 81790 <xQueueGenericReceive+0x20>
   8178c:	6c03      	ldr	r3, [r0, #64]	; 0x40
   8178e:	b92b      	cbnz	r3, 8179c <xQueueGenericReceive+0x2c>
   81790:	2700      	movs	r7, #0
   81792:	4e43      	ldr	r6, [pc, #268]	; (818a0 <xQueueGenericReceive+0x130>)
   81794:	f8df b138 	ldr.w	fp, [pc, #312]	; 818d0 <xQueueGenericReceive+0x160>
   81798:	4d42      	ldr	r5, [pc, #264]	; (818a4 <xQueueGenericReceive+0x134>)
   8179a:	e003      	b.n	817a4 <xQueueGenericReceive+0x34>
   8179c:	4b3f      	ldr	r3, [pc, #252]	; (8189c <xQueueGenericReceive+0x12c>)
   8179e:	4798      	blx	r3
   817a0:	bf00      	nop
   817a2:	e7fd      	b.n	817a0 <xQueueGenericReceive+0x30>
   817a4:	47b0      	blx	r6
   817a6:	6ba3      	ldr	r3, [r4, #56]	; 0x38
   817a8:	2b00      	cmp	r3, #0
   817aa:	d028      	beq.n	817fe <xQueueGenericReceive+0x8e>
   817ac:	68e5      	ldr	r5, [r4, #12]
   817ae:	4620      	mov	r0, r4
   817b0:	4649      	mov	r1, r9
   817b2:	4b3d      	ldr	r3, [pc, #244]	; (818a8 <xQueueGenericReceive+0x138>)
   817b4:	4798      	blx	r3
   817b6:	f1ba 0f00 	cmp.w	sl, #0
   817ba:	d112      	bne.n	817e2 <xQueueGenericReceive+0x72>
   817bc:	6ba3      	ldr	r3, [r4, #56]	; 0x38
   817be:	3b01      	subs	r3, #1
   817c0:	63a3      	str	r3, [r4, #56]	; 0x38
   817c2:	6823      	ldr	r3, [r4, #0]
   817c4:	b913      	cbnz	r3, 817cc <xQueueGenericReceive+0x5c>
   817c6:	4b39      	ldr	r3, [pc, #228]	; (818ac <xQueueGenericReceive+0x13c>)
   817c8:	4798      	blx	r3
   817ca:	6060      	str	r0, [r4, #4]
   817cc:	6923      	ldr	r3, [r4, #16]
   817ce:	b193      	cbz	r3, 817f6 <xQueueGenericReceive+0x86>
   817d0:	f104 0010 	add.w	r0, r4, #16
   817d4:	4b36      	ldr	r3, [pc, #216]	; (818b0 <xQueueGenericReceive+0x140>)
   817d6:	4798      	blx	r3
   817d8:	2801      	cmp	r0, #1
   817da:	d10c      	bne.n	817f6 <xQueueGenericReceive+0x86>
   817dc:	4b35      	ldr	r3, [pc, #212]	; (818b4 <xQueueGenericReceive+0x144>)
   817de:	4798      	blx	r3
   817e0:	e009      	b.n	817f6 <xQueueGenericReceive+0x86>
   817e2:	60e5      	str	r5, [r4, #12]
   817e4:	6a63      	ldr	r3, [r4, #36]	; 0x24
   817e6:	b133      	cbz	r3, 817f6 <xQueueGenericReceive+0x86>
   817e8:	f104 0024 	add.w	r0, r4, #36	; 0x24
   817ec:	4b30      	ldr	r3, [pc, #192]	; (818b0 <xQueueGenericReceive+0x140>)
   817ee:	4798      	blx	r3
   817f0:	b108      	cbz	r0, 817f6 <xQueueGenericReceive+0x86>
   817f2:	4b30      	ldr	r3, [pc, #192]	; (818b4 <xQueueGenericReceive+0x144>)
   817f4:	4798      	blx	r3
   817f6:	4b2b      	ldr	r3, [pc, #172]	; (818a4 <xQueueGenericReceive+0x134>)
   817f8:	4798      	blx	r3
   817fa:	2001      	movs	r0, #1
   817fc:	e04b      	b.n	81896 <xQueueGenericReceive+0x126>
   817fe:	f8bd 3006 	ldrh.w	r3, [sp, #6]
   81802:	b91b      	cbnz	r3, 8180c <xQueueGenericReceive+0x9c>
   81804:	4b27      	ldr	r3, [pc, #156]	; (818a4 <xQueueGenericReceive+0x134>)
   81806:	4798      	blx	r3
   81808:	2000      	movs	r0, #0
   8180a:	e044      	b.n	81896 <xQueueGenericReceive+0x126>
   8180c:	b917      	cbnz	r7, 81814 <xQueueGenericReceive+0xa4>
   8180e:	a802      	add	r0, sp, #8
   81810:	47d8      	blx	fp
   81812:	2701      	movs	r7, #1
   81814:	47a8      	blx	r5
   81816:	4b28      	ldr	r3, [pc, #160]	; (818b8 <xQueueGenericReceive+0x148>)
   81818:	4798      	blx	r3
   8181a:	47b0      	blx	r6
   8181c:	6c63      	ldr	r3, [r4, #68]	; 0x44
   8181e:	f1b3 3fff 	cmp.w	r3, #4294967295
   81822:	bf04      	itt	eq
   81824:	2300      	moveq	r3, #0
   81826:	6463      	streq	r3, [r4, #68]	; 0x44
   81828:	6ca3      	ldr	r3, [r4, #72]	; 0x48
   8182a:	f1b3 3fff 	cmp.w	r3, #4294967295
   8182e:	bf04      	itt	eq
   81830:	2300      	moveq	r3, #0
   81832:	64a3      	streq	r3, [r4, #72]	; 0x48
   81834:	47a8      	blx	r5
   81836:	a802      	add	r0, sp, #8
   81838:	f10d 0106 	add.w	r1, sp, #6
   8183c:	4b1f      	ldr	r3, [pc, #124]	; (818bc <xQueueGenericReceive+0x14c>)
   8183e:	4798      	blx	r3
   81840:	bb18      	cbnz	r0, 8188a <xQueueGenericReceive+0x11a>
   81842:	47b0      	blx	r6
   81844:	f8d4 8038 	ldr.w	r8, [r4, #56]	; 0x38
   81848:	47a8      	blx	r5
   8184a:	f1b8 0f00 	cmp.w	r8, #0
   8184e:	d116      	bne.n	8187e <xQueueGenericReceive+0x10e>
   81850:	6823      	ldr	r3, [r4, #0]
   81852:	b923      	cbnz	r3, 8185e <xQueueGenericReceive+0xee>
   81854:	47b0      	blx	r6
   81856:	6860      	ldr	r0, [r4, #4]
   81858:	4b19      	ldr	r3, [pc, #100]	; (818c0 <xQueueGenericReceive+0x150>)
   8185a:	4798      	blx	r3
   8185c:	47a8      	blx	r5
   8185e:	f104 0024 	add.w	r0, r4, #36	; 0x24
   81862:	f8bd 1006 	ldrh.w	r1, [sp, #6]
   81866:	4b17      	ldr	r3, [pc, #92]	; (818c4 <xQueueGenericReceive+0x154>)
   81868:	4798      	blx	r3
   8186a:	4620      	mov	r0, r4
   8186c:	4b16      	ldr	r3, [pc, #88]	; (818c8 <xQueueGenericReceive+0x158>)
   8186e:	4798      	blx	r3
   81870:	4b16      	ldr	r3, [pc, #88]	; (818cc <xQueueGenericReceive+0x15c>)
   81872:	4798      	blx	r3
   81874:	2800      	cmp	r0, #0
   81876:	d195      	bne.n	817a4 <xQueueGenericReceive+0x34>
   81878:	4b0e      	ldr	r3, [pc, #56]	; (818b4 <xQueueGenericReceive+0x144>)
   8187a:	4798      	blx	r3
   8187c:	e792      	b.n	817a4 <xQueueGenericReceive+0x34>
   8187e:	4620      	mov	r0, r4
   81880:	4b11      	ldr	r3, [pc, #68]	; (818c8 <xQueueGenericReceive+0x158>)
   81882:	4798      	blx	r3
   81884:	4b11      	ldr	r3, [pc, #68]	; (818cc <xQueueGenericReceive+0x15c>)
   81886:	4798      	blx	r3
   81888:	e78c      	b.n	817a4 <xQueueGenericReceive+0x34>
   8188a:	4620      	mov	r0, r4
   8188c:	4b0e      	ldr	r3, [pc, #56]	; (818c8 <xQueueGenericReceive+0x158>)
   8188e:	4798      	blx	r3
   81890:	4b0e      	ldr	r3, [pc, #56]	; (818cc <xQueueGenericReceive+0x15c>)
   81892:	4798      	blx	r3
   81894:	2000      	movs	r0, #0
   81896:	b005      	add	sp, #20
   81898:	e8bd 8ff0 	ldmia.w	sp!, {r4, r5, r6, r7, r8, r9, sl, fp, pc}
   8189c:	0008117d 	.word	0x0008117d
   818a0:	0008118d 	.word	0x0008118d
   818a4:	000811ad 	.word	0x000811ad
   818a8:	00081435 	.word	0x00081435
   818ac:	000822c5 	.word	0x000822c5
   818b0:	00082181 	.word	0x00082181
   818b4:	0008116d 	.word	0x0008116d
   818b8:	00081c79 	.word	0x00081c79
   818bc:	0008222d 	.word	0x0008222d
   818c0:	000822f1 	.word	0x000822f1
   818c4:	000820d5 	.word	0x000820d5
   818c8:	0008145d 	.word	0x0008145d
   818cc:	00081dd5 	.word	0x00081dd5
   818d0:	00082205 	.word	0x00082205

000818d4 <xQueueReceiveFromISR>:
   818d4:	b5f8      	push	{r3, r4, r5, r6, r7, lr}
   818d6:	460e      	mov	r6, r1
   818d8:	4615      	mov	r5, r2
   818da:	4604      	mov	r4, r0
   818dc:	b918      	cbnz	r0, 818e6 <xQueueReceiveFromISR+0x12>
   818de:	4b1b      	ldr	r3, [pc, #108]	; (8194c <xQueueReceiveFromISR+0x78>)
   818e0:	4798      	blx	r3
   818e2:	bf00      	nop
   818e4:	e7fd      	b.n	818e2 <xQueueReceiveFromISR+0xe>
   818e6:	b929      	cbnz	r1, 818f4 <xQueueReceiveFromISR+0x20>
   818e8:	6c03      	ldr	r3, [r0, #64]	; 0x40
   818ea:	b11b      	cbz	r3, 818f4 <xQueueReceiveFromISR+0x20>
   818ec:	4b17      	ldr	r3, [pc, #92]	; (8194c <xQueueReceiveFromISR+0x78>)
   818ee:	4798      	blx	r3
   818f0:	bf00      	nop
   818f2:	e7fd      	b.n	818f0 <xQueueReceiveFromISR+0x1c>
   818f4:	4b15      	ldr	r3, [pc, #84]	; (8194c <xQueueReceiveFromISR+0x78>)
   818f6:	4798      	blx	r3
   818f8:	4607      	mov	r7, r0
   818fa:	6ba3      	ldr	r3, [r4, #56]	; 0x38
   818fc:	b1d3      	cbz	r3, 81934 <xQueueReceiveFromISR+0x60>
   818fe:	4620      	mov	r0, r4
   81900:	4631      	mov	r1, r6
   81902:	4b13      	ldr	r3, [pc, #76]	; (81950 <xQueueReceiveFromISR+0x7c>)
   81904:	4798      	blx	r3
   81906:	6ba3      	ldr	r3, [r4, #56]	; 0x38
   81908:	3b01      	subs	r3, #1
   8190a:	63a3      	str	r3, [r4, #56]	; 0x38
   8190c:	6c63      	ldr	r3, [r4, #68]	; 0x44
   8190e:	f1b3 3fff 	cmp.w	r3, #4294967295
   81912:	d10a      	bne.n	8192a <xQueueReceiveFromISR+0x56>
   81914:	6923      	ldr	r3, [r4, #16]
   81916:	b17b      	cbz	r3, 81938 <xQueueReceiveFromISR+0x64>
   81918:	f104 0010 	add.w	r0, r4, #16
   8191c:	4b0d      	ldr	r3, [pc, #52]	; (81954 <xQueueReceiveFromISR+0x80>)
   8191e:	4798      	blx	r3
   81920:	b160      	cbz	r0, 8193c <xQueueReceiveFromISR+0x68>
   81922:	b16d      	cbz	r5, 81940 <xQueueReceiveFromISR+0x6c>
   81924:	2401      	movs	r4, #1
   81926:	602c      	str	r4, [r5, #0]
   81928:	e00b      	b.n	81942 <xQueueReceiveFromISR+0x6e>
   8192a:	6c63      	ldr	r3, [r4, #68]	; 0x44
   8192c:	3301      	adds	r3, #1
   8192e:	6463      	str	r3, [r4, #68]	; 0x44
   81930:	2401      	movs	r4, #1
   81932:	e006      	b.n	81942 <xQueueReceiveFromISR+0x6e>
   81934:	2400      	movs	r4, #0
   81936:	e004      	b.n	81942 <xQueueReceiveFromISR+0x6e>
   81938:	2401      	movs	r4, #1
   8193a:	e002      	b.n	81942 <xQueueReceiveFromISR+0x6e>
   8193c:	2401      	movs	r4, #1
   8193e:	e000      	b.n	81942 <xQueueReceiveFromISR+0x6e>
   81940:	2401      	movs	r4, #1
   81942:	4638      	mov	r0, r7
   81944:	4b04      	ldr	r3, [pc, #16]	; (81958 <xQueueReceiveFromISR+0x84>)
   81946:	4798      	blx	r3
   81948:	4620      	mov	r0, r4
   8194a:	bdf8      	pop	{r3, r4, r5, r6, r7, pc}
   8194c:	0008117d 	.word	0x0008117d
   81950:	00081435 	.word	0x00081435
   81954:	00082181 	.word	0x00082181
   81958:	000811a5 	.word	0x000811a5

0008195c <vQueueWaitForMessageRestricted>:
   8195c:	b538      	push	{r3, r4, r5, lr}
   8195e:	4604      	mov	r4, r0
   81960:	460d      	mov	r5, r1
   81962:	4b0d      	ldr	r3, [pc, #52]	; (81998 <vQueueWaitForMessageRestricted+0x3c>)
   81964:	4798      	blx	r3
   81966:	6c63      	ldr	r3, [r4, #68]	; 0x44
   81968:	f1b3 3fff 	cmp.w	r3, #4294967295
   8196c:	bf04      	itt	eq
   8196e:	2300      	moveq	r3, #0
   81970:	6463      	streq	r3, [r4, #68]	; 0x44
   81972:	6ca3      	ldr	r3, [r4, #72]	; 0x48
   81974:	f1b3 3fff 	cmp.w	r3, #4294967295
   81978:	bf04      	itt	eq
   8197a:	2300      	moveq	r3, #0
   8197c:	64a3      	streq	r3, [r4, #72]	; 0x48
   8197e:	4b07      	ldr	r3, [pc, #28]	; (8199c <vQueueWaitForMessageRestricted+0x40>)
   81980:	4798      	blx	r3
   81982:	6ba3      	ldr	r3, [r4, #56]	; 0x38
   81984:	b923      	cbnz	r3, 81990 <vQueueWaitForMessageRestricted+0x34>
   81986:	f104 0024 	add.w	r0, r4, #36	; 0x24
   8198a:	4629      	mov	r1, r5
   8198c:	4b04      	ldr	r3, [pc, #16]	; (819a0 <vQueueWaitForMessageRestricted+0x44>)
   8198e:	4798      	blx	r3
   81990:	4620      	mov	r0, r4
   81992:	4b04      	ldr	r3, [pc, #16]	; (819a4 <vQueueWaitForMessageRestricted+0x48>)
   81994:	4798      	blx	r3
   81996:	bd38      	pop	{r3, r4, r5, pc}
   81998:	0008118d 	.word	0x0008118d
   8199c:	000811ad 	.word	0x000811ad
   819a0:	00082139 	.word	0x00082139
   819a4:	0008145d 	.word	0x0008145d

000819a8 <prvAddCurrentTaskToDelayedList>:
   819a8:	b510      	push	{r4, lr}
   819aa:	4604      	mov	r4, r0
   819ac:	4b0f      	ldr	r3, [pc, #60]	; (819ec <prvAddCurrentTaskToDelayedList+0x44>)
   819ae:	681b      	ldr	r3, [r3, #0]
   819b0:	8098      	strh	r0, [r3, #4]
   819b2:	4b0f      	ldr	r3, [pc, #60]	; (819f0 <prvAddCurrentTaskToDelayedList+0x48>)
   819b4:	881b      	ldrh	r3, [r3, #0]
   819b6:	b29b      	uxth	r3, r3
   819b8:	4298      	cmp	r0, r3
   819ba:	d207      	bcs.n	819cc <prvAddCurrentTaskToDelayedList+0x24>
   819bc:	4b0d      	ldr	r3, [pc, #52]	; (819f4 <prvAddCurrentTaskToDelayedList+0x4c>)
   819be:	6818      	ldr	r0, [r3, #0]
   819c0:	4b0a      	ldr	r3, [pc, #40]	; (819ec <prvAddCurrentTaskToDelayedList+0x44>)
   819c2:	6819      	ldr	r1, [r3, #0]
   819c4:	3104      	adds	r1, #4
   819c6:	4b0c      	ldr	r3, [pc, #48]	; (819f8 <prvAddCurrentTaskToDelayedList+0x50>)
   819c8:	4798      	blx	r3
   819ca:	bd10      	pop	{r4, pc}
   819cc:	4b0b      	ldr	r3, [pc, #44]	; (819fc <prvAddCurrentTaskToDelayedList+0x54>)
   819ce:	6818      	ldr	r0, [r3, #0]
   819d0:	4b06      	ldr	r3, [pc, #24]	; (819ec <prvAddCurrentTaskToDelayedList+0x44>)
   819d2:	6819      	ldr	r1, [r3, #0]
   819d4:	3104      	adds	r1, #4
   819d6:	4b08      	ldr	r3, [pc, #32]	; (819f8 <prvAddCurrentTaskToDelayedList+0x50>)
   819d8:	4798      	blx	r3
   819da:	4b09      	ldr	r3, [pc, #36]	; (81a00 <prvAddCurrentTaskToDelayedList+0x58>)
   819dc:	881b      	ldrh	r3, [r3, #0]
   819de:	b29b      	uxth	r3, r3
   819e0:	429c      	cmp	r4, r3
   819e2:	bf3c      	itt	cc
   819e4:	4b06      	ldrcc	r3, [pc, #24]	; (81a00 <prvAddCurrentTaskToDelayedList+0x58>)
   819e6:	801c      	strhcc	r4, [r3, #0]
   819e8:	bd10      	pop	{r4, pc}
   819ea:	bf00      	nop
   819ec:	20078bb0 	.word	0x20078bb0
   819f0:	20078bcc 	.word	0x20078bcc
   819f4:	20078bd0 	.word	0x20078bd0
   819f8:	000810b1 	.word	0x000810b1
   819fc:	20078aac 	.word	0x20078aac
   81a00:	20070148 	.word	0x20070148

00081a04 <xTaskGenericCreate>:
   81a04:	e92d 4ff8 	stmdb	sp!, {r3, r4, r5, r6, r7, r8, r9, sl, fp, lr}
   81a08:	460e      	mov	r6, r1
   81a0a:	4617      	mov	r7, r2
   81a0c:	469a      	mov	sl, r3
   81a0e:	9d0a      	ldr	r5, [sp, #40]	; 0x28
   81a10:	f8dd 8030 	ldr.w	r8, [sp, #48]	; 0x30
   81a14:	4681      	mov	r9, r0
   81a16:	b918      	cbnz	r0, 81a20 <xTaskGenericCreate+0x1c>
   81a18:	4b62      	ldr	r3, [pc, #392]	; (81ba4 <xTaskGenericCreate+0x1a0>)
   81a1a:	4798      	blx	r3
   81a1c:	bf00      	nop
   81a1e:	e7fd      	b.n	81a1c <xTaskGenericCreate+0x18>
   81a20:	2d09      	cmp	r5, #9
   81a22:	d903      	bls.n	81a2c <xTaskGenericCreate+0x28>
   81a24:	4b5f      	ldr	r3, [pc, #380]	; (81ba4 <xTaskGenericCreate+0x1a0>)
   81a26:	4798      	blx	r3
   81a28:	bf00      	nop
   81a2a:	e7fd      	b.n	81a28 <xTaskGenericCreate+0x24>
   81a2c:	2050      	movs	r0, #80	; 0x50
   81a2e:	4b5e      	ldr	r3, [pc, #376]	; (81ba8 <xTaskGenericCreate+0x1a4>)
   81a30:	4798      	blx	r3
   81a32:	4604      	mov	r4, r0
   81a34:	2800      	cmp	r0, #0
   81a36:	f000 80b1 	beq.w	81b9c <xTaskGenericCreate+0x198>
   81a3a:	f1b8 0f00 	cmp.w	r8, #0
   81a3e:	f040 80a9 	bne.w	81b94 <xTaskGenericCreate+0x190>
   81a42:	00b8      	lsls	r0, r7, #2
   81a44:	4b58      	ldr	r3, [pc, #352]	; (81ba8 <xTaskGenericCreate+0x1a4>)
   81a46:	4798      	blx	r3
   81a48:	6320      	str	r0, [r4, #48]	; 0x30
   81a4a:	b918      	cbnz	r0, 81a54 <xTaskGenericCreate+0x50>
   81a4c:	4620      	mov	r0, r4
   81a4e:	4b57      	ldr	r3, [pc, #348]	; (81bac <xTaskGenericCreate+0x1a8>)
   81a50:	4798      	blx	r3
   81a52:	e0a3      	b.n	81b9c <xTaskGenericCreate+0x198>
   81a54:	21a5      	movs	r1, #165	; 0xa5
   81a56:	00ba      	lsls	r2, r7, #2
   81a58:	4b55      	ldr	r3, [pc, #340]	; (81bb0 <xTaskGenericCreate+0x1ac>)
   81a5a:	4798      	blx	r3
   81a5c:	f107 4780 	add.w	r7, r7, #1073741824	; 0x40000000
   81a60:	3f01      	subs	r7, #1
   81a62:	6b23      	ldr	r3, [r4, #48]	; 0x30
   81a64:	eb03 0387 	add.w	r3, r3, r7, lsl #2
   81a68:	f023 0b07 	bic.w	fp, r3, #7
   81a6c:	f104 0034 	add.w	r0, r4, #52	; 0x34
   81a70:	4631      	mov	r1, r6
   81a72:	2210      	movs	r2, #16
   81a74:	4b4f      	ldr	r3, [pc, #316]	; (81bb4 <xTaskGenericCreate+0x1b0>)
   81a76:	4798      	blx	r3
   81a78:	2300      	movs	r3, #0
   81a7a:	f884 3043 	strb.w	r3, [r4, #67]	; 0x43
   81a7e:	2d09      	cmp	r5, #9
   81a80:	bf34      	ite	cc
   81a82:	462e      	movcc	r6, r5
   81a84:	2609      	movcs	r6, #9
   81a86:	62e6      	str	r6, [r4, #44]	; 0x2c
   81a88:	64e6      	str	r6, [r4, #76]	; 0x4c
   81a8a:	1d27      	adds	r7, r4, #4
   81a8c:	4638      	mov	r0, r7
   81a8e:	f8df 8170 	ldr.w	r8, [pc, #368]	; 81c00 <xTaskGenericCreate+0x1fc>
   81a92:	47c0      	blx	r8
   81a94:	f104 0018 	add.w	r0, r4, #24
   81a98:	47c0      	blx	r8
   81a9a:	6124      	str	r4, [r4, #16]
   81a9c:	f1c6 060a 	rsb	r6, r6, #10
   81aa0:	8326      	strh	r6, [r4, #24]
   81aa2:	6264      	str	r4, [r4, #36]	; 0x24
   81aa4:	4658      	mov	r0, fp
   81aa6:	4649      	mov	r1, r9
   81aa8:	4652      	mov	r2, sl
   81aaa:	4b43      	ldr	r3, [pc, #268]	; (81bb8 <xTaskGenericCreate+0x1b4>)
   81aac:	4798      	blx	r3
   81aae:	6020      	str	r0, [r4, #0]
   81ab0:	f010 0f07 	tst.w	r0, #7
   81ab4:	d003      	beq.n	81abe <xTaskGenericCreate+0xba>
   81ab6:	4b3b      	ldr	r3, [pc, #236]	; (81ba4 <xTaskGenericCreate+0x1a0>)
   81ab8:	4798      	blx	r3
   81aba:	bf00      	nop
   81abc:	e7fd      	b.n	81aba <xTaskGenericCreate+0xb6>
   81abe:	9b0b      	ldr	r3, [sp, #44]	; 0x2c
   81ac0:	b103      	cbz	r3, 81ac4 <xTaskGenericCreate+0xc0>
   81ac2:	601c      	str	r4, [r3, #0]
   81ac4:	4b3d      	ldr	r3, [pc, #244]	; (81bbc <xTaskGenericCreate+0x1b8>)
   81ac6:	4798      	blx	r3
   81ac8:	4b3d      	ldr	r3, [pc, #244]	; (81bc0 <xTaskGenericCreate+0x1bc>)
   81aca:	681a      	ldr	r2, [r3, #0]
   81acc:	3201      	adds	r2, #1
   81ace:	601a      	str	r2, [r3, #0]
   81ad0:	4b3c      	ldr	r3, [pc, #240]	; (81bc4 <xTaskGenericCreate+0x1c0>)
   81ad2:	681b      	ldr	r3, [r3, #0]
   81ad4:	bb2b      	cbnz	r3, 81b22 <xTaskGenericCreate+0x11e>
   81ad6:	4b3b      	ldr	r3, [pc, #236]	; (81bc4 <xTaskGenericCreate+0x1c0>)
   81ad8:	601c      	str	r4, [r3, #0]
   81ada:	4b39      	ldr	r3, [pc, #228]	; (81bc0 <xTaskGenericCreate+0x1bc>)
   81adc:	681b      	ldr	r3, [r3, #0]
   81ade:	2b01      	cmp	r3, #1
   81ae0:	d129      	bne.n	81b36 <xTaskGenericCreate+0x132>
   81ae2:	4e39      	ldr	r6, [pc, #228]	; (81bc8 <xTaskGenericCreate+0x1c4>)
   81ae4:	f106 09c8 	add.w	r9, r6, #200	; 0xc8
   81ae8:	f8df 80e0 	ldr.w	r8, [pc, #224]	; 81bcc <xTaskGenericCreate+0x1c8>
   81aec:	4630      	mov	r0, r6
   81aee:	47c0      	blx	r8
   81af0:	3614      	adds	r6, #20
   81af2:	454e      	cmp	r6, r9
   81af4:	d1fa      	bne.n	81aec <xTaskGenericCreate+0xe8>
   81af6:	f8df 910c 	ldr.w	r9, [pc, #268]	; 81c04 <xTaskGenericCreate+0x200>
   81afa:	4648      	mov	r0, r9
   81afc:	4e33      	ldr	r6, [pc, #204]	; (81bcc <xTaskGenericCreate+0x1c8>)
   81afe:	47b0      	blx	r6
   81b00:	f8df 8104 	ldr.w	r8, [pc, #260]	; 81c08 <xTaskGenericCreate+0x204>
   81b04:	4640      	mov	r0, r8
   81b06:	47b0      	blx	r6
   81b08:	4831      	ldr	r0, [pc, #196]	; (81bd0 <xTaskGenericCreate+0x1cc>)
   81b0a:	47b0      	blx	r6
   81b0c:	4831      	ldr	r0, [pc, #196]	; (81bd4 <xTaskGenericCreate+0x1d0>)
   81b0e:	47b0      	blx	r6
   81b10:	4831      	ldr	r0, [pc, #196]	; (81bd8 <xTaskGenericCreate+0x1d4>)
   81b12:	47b0      	blx	r6
   81b14:	4b31      	ldr	r3, [pc, #196]	; (81bdc <xTaskGenericCreate+0x1d8>)
   81b16:	f8c3 9000 	str.w	r9, [r3]
   81b1a:	4b31      	ldr	r3, [pc, #196]	; (81be0 <xTaskGenericCreate+0x1dc>)
   81b1c:	f8c3 8000 	str.w	r8, [r3]
   81b20:	e009      	b.n	81b36 <xTaskGenericCreate+0x132>
   81b22:	4b30      	ldr	r3, [pc, #192]	; (81be4 <xTaskGenericCreate+0x1e0>)
   81b24:	681b      	ldr	r3, [r3, #0]
   81b26:	b933      	cbnz	r3, 81b36 <xTaskGenericCreate+0x132>
   81b28:	4b26      	ldr	r3, [pc, #152]	; (81bc4 <xTaskGenericCreate+0x1c0>)
   81b2a:	681b      	ldr	r3, [r3, #0]
   81b2c:	6adb      	ldr	r3, [r3, #44]	; 0x2c
   81b2e:	429d      	cmp	r5, r3
   81b30:	bf24      	itt	cs
   81b32:	4b24      	ldrcs	r3, [pc, #144]	; (81bc4 <xTaskGenericCreate+0x1c0>)
   81b34:	601c      	strcs	r4, [r3, #0]
   81b36:	6ae3      	ldr	r3, [r4, #44]	; 0x2c
   81b38:	4a2b      	ldr	r2, [pc, #172]	; (81be8 <xTaskGenericCreate+0x1e4>)
   81b3a:	6812      	ldr	r2, [r2, #0]
   81b3c:	4293      	cmp	r3, r2
   81b3e:	bf84      	itt	hi
   81b40:	4a29      	ldrhi	r2, [pc, #164]	; (81be8 <xTaskGenericCreate+0x1e4>)
   81b42:	6013      	strhi	r3, [r2, #0]
   81b44:	4a29      	ldr	r2, [pc, #164]	; (81bec <xTaskGenericCreate+0x1e8>)
   81b46:	6811      	ldr	r1, [r2, #0]
   81b48:	6461      	str	r1, [r4, #68]	; 0x44
   81b4a:	3101      	adds	r1, #1
   81b4c:	6011      	str	r1, [r2, #0]
   81b4e:	4a28      	ldr	r2, [pc, #160]	; (81bf0 <xTaskGenericCreate+0x1ec>)
   81b50:	6812      	ldr	r2, [r2, #0]
   81b52:	4293      	cmp	r3, r2
   81b54:	bf84      	itt	hi
   81b56:	4a26      	ldrhi	r2, [pc, #152]	; (81bf0 <xTaskGenericCreate+0x1ec>)
   81b58:	6013      	strhi	r3, [r2, #0]
   81b5a:	eb03 0383 	add.w	r3, r3, r3, lsl #2
   81b5e:	481a      	ldr	r0, [pc, #104]	; (81bc8 <xTaskGenericCreate+0x1c4>)
   81b60:	eb00 0083 	add.w	r0, r0, r3, lsl #2
   81b64:	4639      	mov	r1, r7
   81b66:	4b23      	ldr	r3, [pc, #140]	; (81bf4 <xTaskGenericCreate+0x1f0>)
   81b68:	4798      	blx	r3
   81b6a:	4b23      	ldr	r3, [pc, #140]	; (81bf8 <xTaskGenericCreate+0x1f4>)
   81b6c:	4798      	blx	r3
   81b6e:	4b1d      	ldr	r3, [pc, #116]	; (81be4 <xTaskGenericCreate+0x1e0>)
   81b70:	681b      	ldr	r3, [r3, #0]
   81b72:	b14b      	cbz	r3, 81b88 <xTaskGenericCreate+0x184>
   81b74:	4b13      	ldr	r3, [pc, #76]	; (81bc4 <xTaskGenericCreate+0x1c0>)
   81b76:	681b      	ldr	r3, [r3, #0]
   81b78:	6adb      	ldr	r3, [r3, #44]	; 0x2c
   81b7a:	429d      	cmp	r5, r3
   81b7c:	d907      	bls.n	81b8e <xTaskGenericCreate+0x18a>
   81b7e:	4b1f      	ldr	r3, [pc, #124]	; (81bfc <xTaskGenericCreate+0x1f8>)
   81b80:	4798      	blx	r3
   81b82:	2001      	movs	r0, #1
   81b84:	e8bd 8ff8 	ldmia.w	sp!, {r3, r4, r5, r6, r7, r8, r9, sl, fp, pc}
   81b88:	2001      	movs	r0, #1
   81b8a:	e8bd 8ff8 	ldmia.w	sp!, {r3, r4, r5, r6, r7, r8, r9, sl, fp, pc}
   81b8e:	2001      	movs	r0, #1
   81b90:	e8bd 8ff8 	ldmia.w	sp!, {r3, r4, r5, r6, r7, r8, r9, sl, fp, pc}
   81b94:	f8c0 8030 	str.w	r8, [r0, #48]	; 0x30
   81b98:	4640      	mov	r0, r8
   81b9a:	e75b      	b.n	81a54 <xTaskGenericCreate+0x50>
   81b9c:	f04f 30ff 	mov.w	r0, #4294967295
   81ba0:	e8bd 8ff8 	ldmia.w	sp!, {r3, r4, r5, r6, r7, r8, r9, sl, fp, pc}
   81ba4:	0008117d 	.word	0x0008117d
   81ba8:	000812d9 	.word	0x000812d9
   81bac:	0008139d 	.word	0x0008139d
   81bb0:	00084ca5 	.word	0x00084ca5
   81bb4:	00084f65 	.word	0x00084f65
   81bb8:	00081131 	.word	0x00081131
   81bbc:	0008118d 	.word	0x0008118d
   81bc0:	20078bf0 	.word	0x20078bf0
   81bc4:	20078bb0 	.word	0x20078bb0
   81bc8:	20078ae4 	.word	0x20078ae4
   81bcc:	00081075 	.word	0x00081075
   81bd0:	20078bb4 	.word	0x20078bb4
   81bd4:	20078ab8 	.word	0x20078ab8
   81bd8:	20078a98 	.word	0x20078a98
   81bdc:	20078aac 	.word	0x20078aac
   81be0:	20078bd0 	.word	0x20078bd0
   81be4:	20078ab0 	.word	0x20078ab0
   81be8:	20078bf4 	.word	0x20078bf4
   81bec:	20078bd4 	.word	0x20078bd4
   81bf0:	20078ae0 	.word	0x20078ae0
   81bf4:	00081095 	.word	0x00081095
   81bf8:	000811ad 	.word	0x000811ad
   81bfc:	0008116d 	.word	0x0008116d
   81c00:	0008108d 	.word	0x0008108d
   81c04:	20078bd8 	.word	0x20078bd8
   81c08:	20078acc 	.word	0x20078acc

00081c0c <vTaskStartScheduler>:
   81c0c:	b510      	push	{r4, lr}
   81c0e:	b084      	sub	sp, #16
   81c10:	2300      	movs	r3, #0
   81c12:	9300      	str	r3, [sp, #0]
   81c14:	9301      	str	r3, [sp, #4]
   81c16:	9302      	str	r3, [sp, #8]
   81c18:	9303      	str	r3, [sp, #12]
   81c1a:	480f      	ldr	r0, [pc, #60]	; (81c58 <vTaskStartScheduler+0x4c>)
   81c1c:	490f      	ldr	r1, [pc, #60]	; (81c5c <vTaskStartScheduler+0x50>)
   81c1e:	f44f 7280 	mov.w	r2, #256	; 0x100
   81c22:	4c0f      	ldr	r4, [pc, #60]	; (81c60 <vTaskStartScheduler+0x54>)
   81c24:	47a0      	blx	r4
   81c26:	2801      	cmp	r0, #1
   81c28:	d10e      	bne.n	81c48 <vTaskStartScheduler+0x3c>
   81c2a:	4b0e      	ldr	r3, [pc, #56]	; (81c64 <vTaskStartScheduler+0x58>)
   81c2c:	4798      	blx	r3
   81c2e:	2801      	cmp	r0, #1
   81c30:	d10a      	bne.n	81c48 <vTaskStartScheduler+0x3c>
   81c32:	4b0d      	ldr	r3, [pc, #52]	; (81c68 <vTaskStartScheduler+0x5c>)
   81c34:	4798      	blx	r3
   81c36:	2201      	movs	r2, #1
   81c38:	4b0c      	ldr	r3, [pc, #48]	; (81c6c <vTaskStartScheduler+0x60>)
   81c3a:	601a      	str	r2, [r3, #0]
   81c3c:	2200      	movs	r2, #0
   81c3e:	4b0c      	ldr	r3, [pc, #48]	; (81c70 <vTaskStartScheduler+0x64>)
   81c40:	801a      	strh	r2, [r3, #0]
   81c42:	4b0c      	ldr	r3, [pc, #48]	; (81c74 <vTaskStartScheduler+0x68>)
   81c44:	4798      	blx	r3
   81c46:	e004      	b.n	81c52 <vTaskStartScheduler+0x46>
   81c48:	b918      	cbnz	r0, 81c52 <vTaskStartScheduler+0x46>
   81c4a:	4b07      	ldr	r3, [pc, #28]	; (81c68 <vTaskStartScheduler+0x5c>)
   81c4c:	4798      	blx	r3
   81c4e:	bf00      	nop
   81c50:	e7fd      	b.n	81c4e <vTaskStartScheduler+0x42>
   81c52:	b004      	add	sp, #16
   81c54:	bd10      	pop	{r4, pc}
   81c56:	bf00      	nop
   81c58:	00081fc1 	.word	0x00081fc1
   81c5c:	0008a884 	.word	0x0008a884
   81c60:	00081a05 	.word	0x00081a05
   81c64:	00082469 	.word	0x00082469
   81c68:	0008117d 	.word	0x0008117d
   81c6c:	20078ab0 	.word	0x20078ab0
   81c70:	20078bcc 	.word	0x20078bcc
   81c74:	00081249 	.word	0x00081249

00081c78 <vTaskSuspendAll>:
   81c78:	4b02      	ldr	r3, [pc, #8]	; (81c84 <vTaskSuspendAll+0xc>)
   81c7a:	681a      	ldr	r2, [r3, #0]
   81c7c:	3201      	adds	r2, #1
   81c7e:	601a      	str	r2, [r3, #0]
   81c80:	4770      	bx	lr
   81c82:	bf00      	nop
   81c84:	20078bac 	.word	0x20078bac

00081c88 <xTaskGetTickCount>:
   81c88:	b510      	push	{r4, lr}
   81c8a:	4b04      	ldr	r3, [pc, #16]	; (81c9c <xTaskGetTickCount+0x14>)
   81c8c:	4798      	blx	r3
   81c8e:	4b04      	ldr	r3, [pc, #16]	; (81ca0 <xTaskGetTickCount+0x18>)
   81c90:	881c      	ldrh	r4, [r3, #0]
   81c92:	b2a4      	uxth	r4, r4
   81c94:	4b03      	ldr	r3, [pc, #12]	; (81ca4 <xTaskGetTickCount+0x1c>)
   81c96:	4798      	blx	r3
   81c98:	4620      	mov	r0, r4
   81c9a:	bd10      	pop	{r4, pc}
   81c9c:	0008118d 	.word	0x0008118d
   81ca0:	20078bcc 	.word	0x20078bcc
   81ca4:	000811ad 	.word	0x000811ad

00081ca8 <vTaskIncrementTick>:
   81ca8:	e92d 41f0 	stmdb	sp!, {r4, r5, r6, r7, r8, lr}
   81cac:	4b3d      	ldr	r3, [pc, #244]	; (81da4 <vTaskIncrementTick+0xfc>)
   81cae:	681b      	ldr	r3, [r3, #0]
   81cb0:	2b00      	cmp	r3, #0
   81cb2:	d171      	bne.n	81d98 <vTaskIncrementTick+0xf0>
   81cb4:	4b3c      	ldr	r3, [pc, #240]	; (81da8 <vTaskIncrementTick+0x100>)
   81cb6:	881a      	ldrh	r2, [r3, #0]
   81cb8:	3201      	adds	r2, #1
   81cba:	b292      	uxth	r2, r2
   81cbc:	801a      	strh	r2, [r3, #0]
   81cbe:	881b      	ldrh	r3, [r3, #0]
   81cc0:	b29b      	uxth	r3, r3
   81cc2:	bb03      	cbnz	r3, 81d06 <vTaskIncrementTick+0x5e>
   81cc4:	4b39      	ldr	r3, [pc, #228]	; (81dac <vTaskIncrementTick+0x104>)
   81cc6:	681b      	ldr	r3, [r3, #0]
   81cc8:	681b      	ldr	r3, [r3, #0]
   81cca:	b11b      	cbz	r3, 81cd4 <vTaskIncrementTick+0x2c>
   81ccc:	4b38      	ldr	r3, [pc, #224]	; (81db0 <vTaskIncrementTick+0x108>)
   81cce:	4798      	blx	r3
   81cd0:	bf00      	nop
   81cd2:	e7fd      	b.n	81cd0 <vTaskIncrementTick+0x28>
   81cd4:	4b35      	ldr	r3, [pc, #212]	; (81dac <vTaskIncrementTick+0x104>)
   81cd6:	6819      	ldr	r1, [r3, #0]
   81cd8:	4a36      	ldr	r2, [pc, #216]	; (81db4 <vTaskIncrementTick+0x10c>)
   81cda:	6810      	ldr	r0, [r2, #0]
   81cdc:	6018      	str	r0, [r3, #0]
   81cde:	6011      	str	r1, [r2, #0]
   81ce0:	4a35      	ldr	r2, [pc, #212]	; (81db8 <vTaskIncrementTick+0x110>)
   81ce2:	6811      	ldr	r1, [r2, #0]
   81ce4:	3101      	adds	r1, #1
   81ce6:	6011      	str	r1, [r2, #0]
   81ce8:	681b      	ldr	r3, [r3, #0]
   81cea:	681b      	ldr	r3, [r3, #0]
   81cec:	b923      	cbnz	r3, 81cf8 <vTaskIncrementTick+0x50>
   81cee:	f64f 72ff 	movw	r2, #65535	; 0xffff
   81cf2:	4b32      	ldr	r3, [pc, #200]	; (81dbc <vTaskIncrementTick+0x114>)
   81cf4:	801a      	strh	r2, [r3, #0]
   81cf6:	e006      	b.n	81d06 <vTaskIncrementTick+0x5e>
   81cf8:	4b2c      	ldr	r3, [pc, #176]	; (81dac <vTaskIncrementTick+0x104>)
   81cfa:	681b      	ldr	r3, [r3, #0]
   81cfc:	68db      	ldr	r3, [r3, #12]
   81cfe:	68db      	ldr	r3, [r3, #12]
   81d00:	889a      	ldrh	r2, [r3, #4]
   81d02:	4b2e      	ldr	r3, [pc, #184]	; (81dbc <vTaskIncrementTick+0x114>)
   81d04:	801a      	strh	r2, [r3, #0]
   81d06:	4b28      	ldr	r3, [pc, #160]	; (81da8 <vTaskIncrementTick+0x100>)
   81d08:	881a      	ldrh	r2, [r3, #0]
   81d0a:	b292      	uxth	r2, r2
   81d0c:	4b2b      	ldr	r3, [pc, #172]	; (81dbc <vTaskIncrementTick+0x114>)
   81d0e:	881b      	ldrh	r3, [r3, #0]
   81d10:	b29b      	uxth	r3, r3
   81d12:	429a      	cmp	r2, r3
   81d14:	d344      	bcc.n	81da0 <vTaskIncrementTick+0xf8>
   81d16:	4b25      	ldr	r3, [pc, #148]	; (81dac <vTaskIncrementTick+0x104>)
   81d18:	681b      	ldr	r3, [r3, #0]
   81d1a:	681b      	ldr	r3, [r3, #0]
   81d1c:	b153      	cbz	r3, 81d34 <vTaskIncrementTick+0x8c>
   81d1e:	4b23      	ldr	r3, [pc, #140]	; (81dac <vTaskIncrementTick+0x104>)
   81d20:	681b      	ldr	r3, [r3, #0]
   81d22:	68db      	ldr	r3, [r3, #12]
   81d24:	68dc      	ldr	r4, [r3, #12]
   81d26:	88a3      	ldrh	r3, [r4, #4]
   81d28:	4a1f      	ldr	r2, [pc, #124]	; (81da8 <vTaskIncrementTick+0x100>)
   81d2a:	8812      	ldrh	r2, [r2, #0]
   81d2c:	b292      	uxth	r2, r2
   81d2e:	4293      	cmp	r3, r2
   81d30:	d914      	bls.n	81d5c <vTaskIncrementTick+0xb4>
   81d32:	e00f      	b.n	81d54 <vTaskIncrementTick+0xac>
   81d34:	f64f 72ff 	movw	r2, #65535	; 0xffff
   81d38:	4b20      	ldr	r3, [pc, #128]	; (81dbc <vTaskIncrementTick+0x114>)
   81d3a:	801a      	strh	r2, [r3, #0]
   81d3c:	e8bd 81f0 	ldmia.w	sp!, {r4, r5, r6, r7, r8, pc}
   81d40:	4b1a      	ldr	r3, [pc, #104]	; (81dac <vTaskIncrementTick+0x104>)
   81d42:	681b      	ldr	r3, [r3, #0]
   81d44:	68db      	ldr	r3, [r3, #12]
   81d46:	68dc      	ldr	r4, [r3, #12]
   81d48:	88a3      	ldrh	r3, [r4, #4]
   81d4a:	4a17      	ldr	r2, [pc, #92]	; (81da8 <vTaskIncrementTick+0x100>)
   81d4c:	8812      	ldrh	r2, [r2, #0]
   81d4e:	b292      	uxth	r2, r2
   81d50:	4293      	cmp	r3, r2
   81d52:	d907      	bls.n	81d64 <vTaskIncrementTick+0xbc>
   81d54:	4a19      	ldr	r2, [pc, #100]	; (81dbc <vTaskIncrementTick+0x114>)
   81d56:	8013      	strh	r3, [r2, #0]
   81d58:	e8bd 81f0 	ldmia.w	sp!, {r4, r5, r6, r7, r8, pc}
   81d5c:	4e18      	ldr	r6, [pc, #96]	; (81dc0 <vTaskIncrementTick+0x118>)
   81d5e:	4f19      	ldr	r7, [pc, #100]	; (81dc4 <vTaskIncrementTick+0x11c>)
   81d60:	f8df 806c 	ldr.w	r8, [pc, #108]	; 81dd0 <vTaskIncrementTick+0x128>
   81d64:	1d25      	adds	r5, r4, #4
   81d66:	4628      	mov	r0, r5
   81d68:	47b0      	blx	r6
   81d6a:	6aa3      	ldr	r3, [r4, #40]	; 0x28
   81d6c:	b113      	cbz	r3, 81d74 <vTaskIncrementTick+0xcc>
   81d6e:	f104 0018 	add.w	r0, r4, #24
   81d72:	47b0      	blx	r6
   81d74:	6ae3      	ldr	r3, [r4, #44]	; 0x2c
   81d76:	683a      	ldr	r2, [r7, #0]
   81d78:	4293      	cmp	r3, r2
   81d7a:	bf88      	it	hi
   81d7c:	603b      	strhi	r3, [r7, #0]
   81d7e:	eb03 0083 	add.w	r0, r3, r3, lsl #2
   81d82:	eb08 0080 	add.w	r0, r8, r0, lsl #2
   81d86:	4629      	mov	r1, r5
   81d88:	4b0f      	ldr	r3, [pc, #60]	; (81dc8 <vTaskIncrementTick+0x120>)
   81d8a:	4798      	blx	r3
   81d8c:	4b07      	ldr	r3, [pc, #28]	; (81dac <vTaskIncrementTick+0x104>)
   81d8e:	681b      	ldr	r3, [r3, #0]
   81d90:	681b      	ldr	r3, [r3, #0]
   81d92:	2b00      	cmp	r3, #0
   81d94:	d1d4      	bne.n	81d40 <vTaskIncrementTick+0x98>
   81d96:	e7cd      	b.n	81d34 <vTaskIncrementTick+0x8c>
   81d98:	4b0c      	ldr	r3, [pc, #48]	; (81dcc <vTaskIncrementTick+0x124>)
   81d9a:	681a      	ldr	r2, [r3, #0]
   81d9c:	3201      	adds	r2, #1
   81d9e:	601a      	str	r2, [r3, #0]
   81da0:	e8bd 81f0 	ldmia.w	sp!, {r4, r5, r6, r7, r8, pc}
   81da4:	20078bac 	.word	0x20078bac
   81da8:	20078bcc 	.word	0x20078bcc
   81dac:	20078aac 	.word	0x20078aac
   81db0:	0008117d 	.word	0x0008117d
   81db4:	20078bd0 	.word	0x20078bd0
   81db8:	20078bc8 	.word	0x20078bc8
   81dbc:	20070148 	.word	0x20070148
   81dc0:	000810f5 	.word	0x000810f5
   81dc4:	20078ae0 	.word	0x20078ae0
   81dc8:	00081095 	.word	0x00081095
   81dcc:	20078a94 	.word	0x20078a94
   81dd0:	20078ae4 	.word	0x20078ae4

00081dd4 <xTaskResumeAll>:
   81dd4:	e92d 43f8 	stmdb	sp!, {r3, r4, r5, r6, r7, r8, r9, lr}
   81dd8:	4b31      	ldr	r3, [pc, #196]	; (81ea0 <xTaskResumeAll+0xcc>)
   81dda:	681b      	ldr	r3, [r3, #0]
   81ddc:	b91b      	cbnz	r3, 81de6 <xTaskResumeAll+0x12>
   81dde:	4b31      	ldr	r3, [pc, #196]	; (81ea4 <xTaskResumeAll+0xd0>)
   81de0:	4798      	blx	r3
   81de2:	bf00      	nop
   81de4:	e7fd      	b.n	81de2 <xTaskResumeAll+0xe>
   81de6:	4b30      	ldr	r3, [pc, #192]	; (81ea8 <xTaskResumeAll+0xd4>)
   81de8:	4798      	blx	r3
   81dea:	4b2d      	ldr	r3, [pc, #180]	; (81ea0 <xTaskResumeAll+0xcc>)
   81dec:	681a      	ldr	r2, [r3, #0]
   81dee:	3a01      	subs	r2, #1
   81df0:	601a      	str	r2, [r3, #0]
   81df2:	681b      	ldr	r3, [r3, #0]
   81df4:	2b00      	cmp	r3, #0
   81df6:	d148      	bne.n	81e8a <xTaskResumeAll+0xb6>
   81df8:	4b2c      	ldr	r3, [pc, #176]	; (81eac <xTaskResumeAll+0xd8>)
   81dfa:	681b      	ldr	r3, [r3, #0]
   81dfc:	2b00      	cmp	r3, #0
   81dfe:	d046      	beq.n	81e8e <xTaskResumeAll+0xba>
   81e00:	2500      	movs	r5, #0
   81e02:	f8df 80d4 	ldr.w	r8, [pc, #212]	; 81ed8 <xTaskResumeAll+0x104>
   81e06:	4f2a      	ldr	r7, [pc, #168]	; (81eb0 <xTaskResumeAll+0xdc>)
   81e08:	4e2a      	ldr	r6, [pc, #168]	; (81eb4 <xTaskResumeAll+0xe0>)
   81e0a:	e01d      	b.n	81e48 <xTaskResumeAll+0x74>
   81e0c:	f8d8 300c 	ldr.w	r3, [r8, #12]
   81e10:	68dc      	ldr	r4, [r3, #12]
   81e12:	f104 0018 	add.w	r0, r4, #24
   81e16:	47b8      	blx	r7
   81e18:	f104 0904 	add.w	r9, r4, #4
   81e1c:	4648      	mov	r0, r9
   81e1e:	47b8      	blx	r7
   81e20:	6ae3      	ldr	r3, [r4, #44]	; 0x2c
   81e22:	6832      	ldr	r2, [r6, #0]
   81e24:	4293      	cmp	r3, r2
   81e26:	bf88      	it	hi
   81e28:	6033      	strhi	r3, [r6, #0]
   81e2a:	eb03 0383 	add.w	r3, r3, r3, lsl #2
   81e2e:	4822      	ldr	r0, [pc, #136]	; (81eb8 <xTaskResumeAll+0xe4>)
   81e30:	eb00 0083 	add.w	r0, r0, r3, lsl #2
   81e34:	4649      	mov	r1, r9
   81e36:	4b21      	ldr	r3, [pc, #132]	; (81ebc <xTaskResumeAll+0xe8>)
   81e38:	4798      	blx	r3
   81e3a:	4b21      	ldr	r3, [pc, #132]	; (81ec0 <xTaskResumeAll+0xec>)
   81e3c:	681b      	ldr	r3, [r3, #0]
   81e3e:	6ae2      	ldr	r2, [r4, #44]	; 0x2c
   81e40:	6adb      	ldr	r3, [r3, #44]	; 0x2c
   81e42:	429a      	cmp	r2, r3
   81e44:	bf28      	it	cs
   81e46:	2501      	movcs	r5, #1
   81e48:	f8d8 3000 	ldr.w	r3, [r8]
   81e4c:	2b00      	cmp	r3, #0
   81e4e:	d1dd      	bne.n	81e0c <xTaskResumeAll+0x38>
   81e50:	4b1c      	ldr	r3, [pc, #112]	; (81ec4 <xTaskResumeAll+0xf0>)
   81e52:	681b      	ldr	r3, [r3, #0]
   81e54:	b163      	cbz	r3, 81e70 <xTaskResumeAll+0x9c>
   81e56:	4b1b      	ldr	r3, [pc, #108]	; (81ec4 <xTaskResumeAll+0xf0>)
   81e58:	681b      	ldr	r3, [r3, #0]
   81e5a:	b17b      	cbz	r3, 81e7c <xTaskResumeAll+0xa8>
   81e5c:	4d1a      	ldr	r5, [pc, #104]	; (81ec8 <xTaskResumeAll+0xf4>)
   81e5e:	4c19      	ldr	r4, [pc, #100]	; (81ec4 <xTaskResumeAll+0xf0>)
   81e60:	47a8      	blx	r5
   81e62:	6823      	ldr	r3, [r4, #0]
   81e64:	3b01      	subs	r3, #1
   81e66:	6023      	str	r3, [r4, #0]
   81e68:	6823      	ldr	r3, [r4, #0]
   81e6a:	2b00      	cmp	r3, #0
   81e6c:	d1f8      	bne.n	81e60 <xTaskResumeAll+0x8c>
   81e6e:	e005      	b.n	81e7c <xTaskResumeAll+0xa8>
   81e70:	2d01      	cmp	r5, #1
   81e72:	d003      	beq.n	81e7c <xTaskResumeAll+0xa8>
   81e74:	4b15      	ldr	r3, [pc, #84]	; (81ecc <xTaskResumeAll+0xf8>)
   81e76:	681b      	ldr	r3, [r3, #0]
   81e78:	2b01      	cmp	r3, #1
   81e7a:	d10a      	bne.n	81e92 <xTaskResumeAll+0xbe>
   81e7c:	2200      	movs	r2, #0
   81e7e:	4b13      	ldr	r3, [pc, #76]	; (81ecc <xTaskResumeAll+0xf8>)
   81e80:	601a      	str	r2, [r3, #0]
   81e82:	4b13      	ldr	r3, [pc, #76]	; (81ed0 <xTaskResumeAll+0xfc>)
   81e84:	4798      	blx	r3
   81e86:	2401      	movs	r4, #1
   81e88:	e004      	b.n	81e94 <xTaskResumeAll+0xc0>
   81e8a:	2400      	movs	r4, #0
   81e8c:	e002      	b.n	81e94 <xTaskResumeAll+0xc0>
   81e8e:	2400      	movs	r4, #0
   81e90:	e000      	b.n	81e94 <xTaskResumeAll+0xc0>
   81e92:	2400      	movs	r4, #0
   81e94:	4b0f      	ldr	r3, [pc, #60]	; (81ed4 <xTaskResumeAll+0x100>)
   81e96:	4798      	blx	r3
   81e98:	4620      	mov	r0, r4
   81e9a:	e8bd 83f8 	ldmia.w	sp!, {r3, r4, r5, r6, r7, r8, r9, pc}
   81e9e:	bf00      	nop
   81ea0:	20078bac 	.word	0x20078bac
   81ea4:	0008117d 	.word	0x0008117d
   81ea8:	0008118d 	.word	0x0008118d
   81eac:	20078bf0 	.word	0x20078bf0
   81eb0:	000810f5 	.word	0x000810f5
   81eb4:	20078ae0 	.word	0x20078ae0
   81eb8:	20078ae4 	.word	0x20078ae4
   81ebc:	00081095 	.word	0x00081095
   81ec0:	20078bb0 	.word	0x20078bb0
   81ec4:	20078a94 	.word	0x20078a94
   81ec8:	00081ca9 	.word	0x00081ca9
   81ecc:	20078bec 	.word	0x20078bec
   81ed0:	0008116d 	.word	0x0008116d
   81ed4:	000811ad 	.word	0x000811ad
   81ed8:	20078bb4 	.word	0x20078bb4

00081edc <vTaskDelayUntil>:
   81edc:	b538      	push	{r3, r4, r5, lr}
   81ede:	460c      	mov	r4, r1
   81ee0:	4605      	mov	r5, r0
   81ee2:	b918      	cbnz	r0, 81eec <vTaskDelayUntil+0x10>
   81ee4:	4b1b      	ldr	r3, [pc, #108]	; (81f54 <vTaskDelayUntil+0x78>)
   81ee6:	4798      	blx	r3
   81ee8:	bf00      	nop
   81eea:	e7fd      	b.n	81ee8 <vTaskDelayUntil+0xc>
   81eec:	b919      	cbnz	r1, 81ef6 <vTaskDelayUntil+0x1a>
   81eee:	4b19      	ldr	r3, [pc, #100]	; (81f54 <vTaskDelayUntil+0x78>)
   81ef0:	4798      	blx	r3
   81ef2:	bf00      	nop
   81ef4:	e7fd      	b.n	81ef2 <vTaskDelayUntil+0x16>
   81ef6:	4b18      	ldr	r3, [pc, #96]	; (81f58 <vTaskDelayUntil+0x7c>)
   81ef8:	4798      	blx	r3
   81efa:	882b      	ldrh	r3, [r5, #0]
   81efc:	441c      	add	r4, r3
   81efe:	b2a4      	uxth	r4, r4
   81f00:	4a16      	ldr	r2, [pc, #88]	; (81f5c <vTaskDelayUntil+0x80>)
   81f02:	8812      	ldrh	r2, [r2, #0]
   81f04:	b292      	uxth	r2, r2
   81f06:	4293      	cmp	r3, r2
   81f08:	d908      	bls.n	81f1c <vTaskDelayUntil+0x40>
   81f0a:	42a3      	cmp	r3, r4
   81f0c:	d91e      	bls.n	81f4c <vTaskDelayUntil+0x70>
   81f0e:	4b13      	ldr	r3, [pc, #76]	; (81f5c <vTaskDelayUntil+0x80>)
   81f10:	881b      	ldrh	r3, [r3, #0]
   81f12:	b29b      	uxth	r3, r3
   81f14:	802c      	strh	r4, [r5, #0]
   81f16:	429c      	cmp	r4, r3
   81f18:	d910      	bls.n	81f3c <vTaskDelayUntil+0x60>
   81f1a:	e007      	b.n	81f2c <vTaskDelayUntil+0x50>
   81f1c:	42a3      	cmp	r3, r4
   81f1e:	d813      	bhi.n	81f48 <vTaskDelayUntil+0x6c>
   81f20:	4b0e      	ldr	r3, [pc, #56]	; (81f5c <vTaskDelayUntil+0x80>)
   81f22:	881b      	ldrh	r3, [r3, #0]
   81f24:	b29b      	uxth	r3, r3
   81f26:	429c      	cmp	r4, r3
   81f28:	d80e      	bhi.n	81f48 <vTaskDelayUntil+0x6c>
   81f2a:	e00f      	b.n	81f4c <vTaskDelayUntil+0x70>
   81f2c:	4b0c      	ldr	r3, [pc, #48]	; (81f60 <vTaskDelayUntil+0x84>)
   81f2e:	6818      	ldr	r0, [r3, #0]
   81f30:	3004      	adds	r0, #4
   81f32:	4b0c      	ldr	r3, [pc, #48]	; (81f64 <vTaskDelayUntil+0x88>)
   81f34:	4798      	blx	r3
   81f36:	4620      	mov	r0, r4
   81f38:	4b0b      	ldr	r3, [pc, #44]	; (81f68 <vTaskDelayUntil+0x8c>)
   81f3a:	4798      	blx	r3
   81f3c:	4b0b      	ldr	r3, [pc, #44]	; (81f6c <vTaskDelayUntil+0x90>)
   81f3e:	4798      	blx	r3
   81f40:	b930      	cbnz	r0, 81f50 <vTaskDelayUntil+0x74>
   81f42:	4b0b      	ldr	r3, [pc, #44]	; (81f70 <vTaskDelayUntil+0x94>)
   81f44:	4798      	blx	r3
   81f46:	bd38      	pop	{r3, r4, r5, pc}
   81f48:	802c      	strh	r4, [r5, #0]
   81f4a:	e7ef      	b.n	81f2c <vTaskDelayUntil+0x50>
   81f4c:	802c      	strh	r4, [r5, #0]
   81f4e:	e7f5      	b.n	81f3c <vTaskDelayUntil+0x60>
   81f50:	bd38      	pop	{r3, r4, r5, pc}
   81f52:	bf00      	nop
   81f54:	0008117d 	.word	0x0008117d
   81f58:	00081c79 	.word	0x00081c79
   81f5c:	20078bcc 	.word	0x20078bcc
   81f60:	20078bb0 	.word	0x20078bb0
   81f64:	000810f5 	.word	0x000810f5
   81f68:	000819a9 	.word	0x000819a9
   81f6c:	00081dd5 	.word	0x00081dd5
   81f70:	0008116d 	.word	0x0008116d

00081f74 <vTaskDelay>:
   81f74:	b510      	push	{r4, lr}
   81f76:	4604      	mov	r4, r0
   81f78:	b180      	cbz	r0, 81f9c <vTaskDelay+0x28>
   81f7a:	4b0a      	ldr	r3, [pc, #40]	; (81fa4 <vTaskDelay+0x30>)
   81f7c:	4798      	blx	r3
   81f7e:	4b0a      	ldr	r3, [pc, #40]	; (81fa8 <vTaskDelay+0x34>)
   81f80:	881b      	ldrh	r3, [r3, #0]
   81f82:	441c      	add	r4, r3
   81f84:	b2a4      	uxth	r4, r4
   81f86:	4b09      	ldr	r3, [pc, #36]	; (81fac <vTaskDelay+0x38>)
   81f88:	6818      	ldr	r0, [r3, #0]
   81f8a:	3004      	adds	r0, #4
   81f8c:	4b08      	ldr	r3, [pc, #32]	; (81fb0 <vTaskDelay+0x3c>)
   81f8e:	4798      	blx	r3
   81f90:	4620      	mov	r0, r4
   81f92:	4b08      	ldr	r3, [pc, #32]	; (81fb4 <vTaskDelay+0x40>)
   81f94:	4798      	blx	r3
   81f96:	4b08      	ldr	r3, [pc, #32]	; (81fb8 <vTaskDelay+0x44>)
   81f98:	4798      	blx	r3
   81f9a:	b908      	cbnz	r0, 81fa0 <vTaskDelay+0x2c>
   81f9c:	4b07      	ldr	r3, [pc, #28]	; (81fbc <vTaskDelay+0x48>)
   81f9e:	4798      	blx	r3
   81fa0:	bd10      	pop	{r4, pc}
   81fa2:	bf00      	nop
   81fa4:	00081c79 	.word	0x00081c79
   81fa8:	20078bcc 	.word	0x20078bcc
   81fac:	20078bb0 	.word	0x20078bb0
   81fb0:	000810f5 	.word	0x000810f5
   81fb4:	000819a9 	.word	0x000819a9
   81fb8:	00081dd5 	.word	0x00081dd5
   81fbc:	0008116d 	.word	0x0008116d

00081fc0 <prvIdleTask>:
   81fc0:	b580      	push	{r7, lr}
   81fc2:	4d15      	ldr	r5, [pc, #84]	; (82018 <prvIdleTask+0x58>)
   81fc4:	4e15      	ldr	r6, [pc, #84]	; (8201c <prvIdleTask+0x5c>)
   81fc6:	f8df 8078 	ldr.w	r8, [pc, #120]	; 82040 <prvIdleTask+0x80>
   81fca:	e01c      	b.n	82006 <prvIdleTask+0x46>
   81fcc:	4b14      	ldr	r3, [pc, #80]	; (82020 <prvIdleTask+0x60>)
   81fce:	4798      	blx	r3
   81fd0:	4b14      	ldr	r3, [pc, #80]	; (82024 <prvIdleTask+0x64>)
   81fd2:	681c      	ldr	r4, [r3, #0]
   81fd4:	4b14      	ldr	r3, [pc, #80]	; (82028 <prvIdleTask+0x68>)
   81fd6:	4798      	blx	r3
   81fd8:	b1ac      	cbz	r4, 82006 <prvIdleTask+0x46>
   81fda:	4b14      	ldr	r3, [pc, #80]	; (8202c <prvIdleTask+0x6c>)
   81fdc:	4798      	blx	r3
   81fde:	4b11      	ldr	r3, [pc, #68]	; (82024 <prvIdleTask+0x64>)
   81fe0:	68db      	ldr	r3, [r3, #12]
   81fe2:	68dc      	ldr	r4, [r3, #12]
   81fe4:	1d20      	adds	r0, r4, #4
   81fe6:	4b12      	ldr	r3, [pc, #72]	; (82030 <prvIdleTask+0x70>)
   81fe8:	4798      	blx	r3
   81fea:	4b12      	ldr	r3, [pc, #72]	; (82034 <prvIdleTask+0x74>)
   81fec:	681a      	ldr	r2, [r3, #0]
   81fee:	3a01      	subs	r2, #1
   81ff0:	601a      	str	r2, [r3, #0]
   81ff2:	682b      	ldr	r3, [r5, #0]
   81ff4:	3b01      	subs	r3, #1
   81ff6:	602b      	str	r3, [r5, #0]
   81ff8:	4b0f      	ldr	r3, [pc, #60]	; (82038 <prvIdleTask+0x78>)
   81ffa:	4798      	blx	r3
   81ffc:	6b20      	ldr	r0, [r4, #48]	; 0x30
   81ffe:	4f0f      	ldr	r7, [pc, #60]	; (8203c <prvIdleTask+0x7c>)
   82000:	47b8      	blx	r7
   82002:	4620      	mov	r0, r4
   82004:	47b8      	blx	r7
   82006:	682b      	ldr	r3, [r5, #0]
   82008:	2b00      	cmp	r3, #0
   8200a:	d1df      	bne.n	81fcc <prvIdleTask+0xc>
   8200c:	6833      	ldr	r3, [r6, #0]
   8200e:	2b01      	cmp	r3, #1
   82010:	d9f9      	bls.n	82006 <prvIdleTask+0x46>
   82012:	47c0      	blx	r8
   82014:	e7f7      	b.n	82006 <prvIdleTask+0x46>
   82016:	bf00      	nop
   82018:	20078ab4 	.word	0x20078ab4
   8201c:	20078ae4 	.word	0x20078ae4
   82020:	00081c79 	.word	0x00081c79
   82024:	20078ab8 	.word	0x20078ab8
   82028:	00081dd5 	.word	0x00081dd5
   8202c:	0008118d 	.word	0x0008118d
   82030:	000810f5 	.word	0x000810f5
   82034:	20078bf0 	.word	0x20078bf0
   82038:	000811ad 	.word	0x000811ad
   8203c:	0008139d 	.word	0x0008139d
   82040:	0008116d 	.word	0x0008116d

00082044 <vTaskSwitchContext>:
   82044:	b508      	push	{r3, lr}
   82046:	4b1d      	ldr	r3, [pc, #116]	; (820bc <vTaskSwitchContext+0x78>)
   82048:	681b      	ldr	r3, [r3, #0]
   8204a:	b95b      	cbnz	r3, 82064 <vTaskSwitchContext+0x20>
   8204c:	4b1c      	ldr	r3, [pc, #112]	; (820c0 <vTaskSwitchContext+0x7c>)
   8204e:	681b      	ldr	r3, [r3, #0]
   82050:	eb03 0383 	add.w	r3, r3, r3, lsl #2
   82054:	009b      	lsls	r3, r3, #2
   82056:	4a1b      	ldr	r2, [pc, #108]	; (820c4 <vTaskSwitchContext+0x80>)
   82058:	58d3      	ldr	r3, [r2, r3]
   8205a:	b9cb      	cbnz	r3, 82090 <vTaskSwitchContext+0x4c>
   8205c:	4b18      	ldr	r3, [pc, #96]	; (820c0 <vTaskSwitchContext+0x7c>)
   8205e:	681b      	ldr	r3, [r3, #0]
   82060:	b953      	cbnz	r3, 82078 <vTaskSwitchContext+0x34>
   82062:	e005      	b.n	82070 <vTaskSwitchContext+0x2c>
   82064:	2201      	movs	r2, #1
   82066:	4b18      	ldr	r3, [pc, #96]	; (820c8 <vTaskSwitchContext+0x84>)
   82068:	601a      	str	r2, [r3, #0]
   8206a:	bd08      	pop	{r3, pc}
   8206c:	681a      	ldr	r2, [r3, #0]
   8206e:	b92a      	cbnz	r2, 8207c <vTaskSwitchContext+0x38>
   82070:	4b16      	ldr	r3, [pc, #88]	; (820cc <vTaskSwitchContext+0x88>)
   82072:	4798      	blx	r3
   82074:	bf00      	nop
   82076:	e7fd      	b.n	82074 <vTaskSwitchContext+0x30>
   82078:	4b11      	ldr	r3, [pc, #68]	; (820c0 <vTaskSwitchContext+0x7c>)
   8207a:	4912      	ldr	r1, [pc, #72]	; (820c4 <vTaskSwitchContext+0x80>)
   8207c:	681a      	ldr	r2, [r3, #0]
   8207e:	3a01      	subs	r2, #1
   82080:	601a      	str	r2, [r3, #0]
   82082:	681a      	ldr	r2, [r3, #0]
   82084:	eb02 0282 	add.w	r2, r2, r2, lsl #2
   82088:	f851 2022 	ldr.w	r2, [r1, r2, lsl #2]
   8208c:	2a00      	cmp	r2, #0
   8208e:	d0ed      	beq.n	8206c <vTaskSwitchContext+0x28>
   82090:	4b0b      	ldr	r3, [pc, #44]	; (820c0 <vTaskSwitchContext+0x7c>)
   82092:	681b      	ldr	r3, [r3, #0]
   82094:	eb03 0383 	add.w	r3, r3, r3, lsl #2
   82098:	4a0a      	ldr	r2, [pc, #40]	; (820c4 <vTaskSwitchContext+0x80>)
   8209a:	eb02 0383 	add.w	r3, r2, r3, lsl #2
   8209e:	685a      	ldr	r2, [r3, #4]
   820a0:	6852      	ldr	r2, [r2, #4]
   820a2:	605a      	str	r2, [r3, #4]
   820a4:	f103 0108 	add.w	r1, r3, #8
   820a8:	428a      	cmp	r2, r1
   820aa:	bf04      	itt	eq
   820ac:	6852      	ldreq	r2, [r2, #4]
   820ae:	605a      	streq	r2, [r3, #4]
   820b0:	685b      	ldr	r3, [r3, #4]
   820b2:	68da      	ldr	r2, [r3, #12]
   820b4:	4b06      	ldr	r3, [pc, #24]	; (820d0 <vTaskSwitchContext+0x8c>)
   820b6:	601a      	str	r2, [r3, #0]
   820b8:	bd08      	pop	{r3, pc}
   820ba:	bf00      	nop
   820bc:	20078bac 	.word	0x20078bac
   820c0:	20078ae0 	.word	0x20078ae0
   820c4:	20078ae4 	.word	0x20078ae4
   820c8:	20078bec 	.word	0x20078bec
   820cc:	0008117d 	.word	0x0008117d
   820d0:	20078bb0 	.word	0x20078bb0

000820d4 <vTaskPlaceOnEventList>:
   820d4:	b538      	push	{r3, r4, r5, lr}
   820d6:	460c      	mov	r4, r1
   820d8:	b918      	cbnz	r0, 820e2 <vTaskPlaceOnEventList+0xe>
   820da:	4b0f      	ldr	r3, [pc, #60]	; (82118 <vTaskPlaceOnEventList+0x44>)
   820dc:	4798      	blx	r3
   820de:	bf00      	nop
   820e0:	e7fd      	b.n	820de <vTaskPlaceOnEventList+0xa>
   820e2:	4d0e      	ldr	r5, [pc, #56]	; (8211c <vTaskPlaceOnEventList+0x48>)
   820e4:	6829      	ldr	r1, [r5, #0]
   820e6:	3118      	adds	r1, #24
   820e8:	4b0d      	ldr	r3, [pc, #52]	; (82120 <vTaskPlaceOnEventList+0x4c>)
   820ea:	4798      	blx	r3
   820ec:	6828      	ldr	r0, [r5, #0]
   820ee:	3004      	adds	r0, #4
   820f0:	4b0c      	ldr	r3, [pc, #48]	; (82124 <vTaskPlaceOnEventList+0x50>)
   820f2:	4798      	blx	r3
   820f4:	f64f 73ff 	movw	r3, #65535	; 0xffff
   820f8:	429c      	cmp	r4, r3
   820fa:	d105      	bne.n	82108 <vTaskPlaceOnEventList+0x34>
   820fc:	6829      	ldr	r1, [r5, #0]
   820fe:	480a      	ldr	r0, [pc, #40]	; (82128 <vTaskPlaceOnEventList+0x54>)
   82100:	3104      	adds	r1, #4
   82102:	4b0a      	ldr	r3, [pc, #40]	; (8212c <vTaskPlaceOnEventList+0x58>)
   82104:	4798      	blx	r3
   82106:	bd38      	pop	{r3, r4, r5, pc}
   82108:	4b09      	ldr	r3, [pc, #36]	; (82130 <vTaskPlaceOnEventList+0x5c>)
   8210a:	8818      	ldrh	r0, [r3, #0]
   8210c:	4420      	add	r0, r4
   8210e:	b280      	uxth	r0, r0
   82110:	4b08      	ldr	r3, [pc, #32]	; (82134 <vTaskPlaceOnEventList+0x60>)
   82112:	4798      	blx	r3
   82114:	bd38      	pop	{r3, r4, r5, pc}
   82116:	bf00      	nop
   82118:	0008117d 	.word	0x0008117d
   8211c:	20078bb0 	.word	0x20078bb0
   82120:	000810b1 	.word	0x000810b1
   82124:	000810f5 	.word	0x000810f5
   82128:	20078a98 	.word	0x20078a98
   8212c:	00081095 	.word	0x00081095
   82130:	20078bcc 	.word	0x20078bcc
   82134:	000819a9 	.word	0x000819a9

00082138 <vTaskPlaceOnEventListRestricted>:
   82138:	b538      	push	{r3, r4, r5, lr}
   8213a:	460d      	mov	r5, r1
   8213c:	b918      	cbnz	r0, 82146 <vTaskPlaceOnEventListRestricted+0xe>
   8213e:	4b0a      	ldr	r3, [pc, #40]	; (82168 <vTaskPlaceOnEventListRestricted+0x30>)
   82140:	4798      	blx	r3
   82142:	bf00      	nop
   82144:	e7fd      	b.n	82142 <vTaskPlaceOnEventListRestricted+0xa>
   82146:	4c09      	ldr	r4, [pc, #36]	; (8216c <vTaskPlaceOnEventListRestricted+0x34>)
   82148:	6821      	ldr	r1, [r4, #0]
   8214a:	3118      	adds	r1, #24
   8214c:	4b08      	ldr	r3, [pc, #32]	; (82170 <vTaskPlaceOnEventListRestricted+0x38>)
   8214e:	4798      	blx	r3
   82150:	6820      	ldr	r0, [r4, #0]
   82152:	3004      	adds	r0, #4
   82154:	4b07      	ldr	r3, [pc, #28]	; (82174 <vTaskPlaceOnEventListRestricted+0x3c>)
   82156:	4798      	blx	r3
   82158:	4b07      	ldr	r3, [pc, #28]	; (82178 <vTaskPlaceOnEventListRestricted+0x40>)
   8215a:	8818      	ldrh	r0, [r3, #0]
   8215c:	4428      	add	r0, r5
   8215e:	b280      	uxth	r0, r0
   82160:	4b06      	ldr	r3, [pc, #24]	; (8217c <vTaskPlaceOnEventListRestricted+0x44>)
   82162:	4798      	blx	r3
   82164:	bd38      	pop	{r3, r4, r5, pc}
   82166:	bf00      	nop
   82168:	0008117d 	.word	0x0008117d
   8216c:	20078bb0 	.word	0x20078bb0
   82170:	00081095 	.word	0x00081095
   82174:	000810f5 	.word	0x000810f5
   82178:	20078bcc 	.word	0x20078bcc
   8217c:	000819a9 	.word	0x000819a9

00082180 <xTaskRemoveFromEventList>:
   82180:	b538      	push	{r3, r4, r5, lr}
   82182:	68c3      	ldr	r3, [r0, #12]
   82184:	68dc      	ldr	r4, [r3, #12]
   82186:	b91c      	cbnz	r4, 82190 <xTaskRemoveFromEventList+0x10>
   82188:	4b16      	ldr	r3, [pc, #88]	; (821e4 <xTaskRemoveFromEventList+0x64>)
   8218a:	4798      	blx	r3
   8218c:	bf00      	nop
   8218e:	e7fd      	b.n	8218c <xTaskRemoveFromEventList+0xc>
   82190:	f104 0518 	add.w	r5, r4, #24
   82194:	4628      	mov	r0, r5
   82196:	4b14      	ldr	r3, [pc, #80]	; (821e8 <xTaskRemoveFromEventList+0x68>)
   82198:	4798      	blx	r3
   8219a:	4b14      	ldr	r3, [pc, #80]	; (821ec <xTaskRemoveFromEventList+0x6c>)
   8219c:	681b      	ldr	r3, [r3, #0]
   8219e:	b99b      	cbnz	r3, 821c8 <xTaskRemoveFromEventList+0x48>
   821a0:	1d25      	adds	r5, r4, #4
   821a2:	4628      	mov	r0, r5
   821a4:	4b10      	ldr	r3, [pc, #64]	; (821e8 <xTaskRemoveFromEventList+0x68>)
   821a6:	4798      	blx	r3
   821a8:	6ae3      	ldr	r3, [r4, #44]	; 0x2c
   821aa:	4a11      	ldr	r2, [pc, #68]	; (821f0 <xTaskRemoveFromEventList+0x70>)
   821ac:	6812      	ldr	r2, [r2, #0]
   821ae:	4293      	cmp	r3, r2
   821b0:	bf84      	itt	hi
   821b2:	4a0f      	ldrhi	r2, [pc, #60]	; (821f0 <xTaskRemoveFromEventList+0x70>)
   821b4:	6013      	strhi	r3, [r2, #0]
   821b6:	eb03 0383 	add.w	r3, r3, r3, lsl #2
   821ba:	480e      	ldr	r0, [pc, #56]	; (821f4 <xTaskRemoveFromEventList+0x74>)
   821bc:	eb00 0083 	add.w	r0, r0, r3, lsl #2
   821c0:	4629      	mov	r1, r5
   821c2:	4b0d      	ldr	r3, [pc, #52]	; (821f8 <xTaskRemoveFromEventList+0x78>)
   821c4:	4798      	blx	r3
   821c6:	e003      	b.n	821d0 <xTaskRemoveFromEventList+0x50>
   821c8:	480c      	ldr	r0, [pc, #48]	; (821fc <xTaskRemoveFromEventList+0x7c>)
   821ca:	4629      	mov	r1, r5
   821cc:	4b0a      	ldr	r3, [pc, #40]	; (821f8 <xTaskRemoveFromEventList+0x78>)
   821ce:	4798      	blx	r3
   821d0:	4b0b      	ldr	r3, [pc, #44]	; (82200 <xTaskRemoveFromEventList+0x80>)
   821d2:	681b      	ldr	r3, [r3, #0]
   821d4:	6ae0      	ldr	r0, [r4, #44]	; 0x2c
   821d6:	6adb      	ldr	r3, [r3, #44]	; 0x2c
   821d8:	4298      	cmp	r0, r3
   821da:	bf34      	ite	cc
   821dc:	2000      	movcc	r0, #0
   821de:	2001      	movcs	r0, #1
   821e0:	bd38      	pop	{r3, r4, r5, pc}
   821e2:	bf00      	nop
   821e4:	0008117d 	.word	0x0008117d
   821e8:	000810f5 	.word	0x000810f5
   821ec:	20078bac 	.word	0x20078bac
   821f0:	20078ae0 	.word	0x20078ae0
   821f4:	20078ae4 	.word	0x20078ae4
   821f8:	00081095 	.word	0x00081095
   821fc:	20078bb4 	.word	0x20078bb4
   82200:	20078bb0 	.word	0x20078bb0

00082204 <vTaskSetTimeOutState>:
   82204:	b508      	push	{r3, lr}
   82206:	b918      	cbnz	r0, 82210 <vTaskSetTimeOutState+0xc>
   82208:	4b05      	ldr	r3, [pc, #20]	; (82220 <vTaskSetTimeOutState+0x1c>)
   8220a:	4798      	blx	r3
   8220c:	bf00      	nop
   8220e:	e7fd      	b.n	8220c <vTaskSetTimeOutState+0x8>
   82210:	4a04      	ldr	r2, [pc, #16]	; (82224 <vTaskSetTimeOutState+0x20>)
   82212:	6812      	ldr	r2, [r2, #0]
   82214:	6002      	str	r2, [r0, #0]
   82216:	4a04      	ldr	r2, [pc, #16]	; (82228 <vTaskSetTimeOutState+0x24>)
   82218:	8812      	ldrh	r2, [r2, #0]
   8221a:	8082      	strh	r2, [r0, #4]
   8221c:	bd08      	pop	{r3, pc}
   8221e:	bf00      	nop
   82220:	0008117d 	.word	0x0008117d
   82224:	20078bc8 	.word	0x20078bc8
   82228:	20078bcc 	.word	0x20078bcc

0008222c <xTaskCheckForTimeOut>:
   8222c:	b538      	push	{r3, r4, r5, lr}
   8222e:	460d      	mov	r5, r1
   82230:	4604      	mov	r4, r0
   82232:	b918      	cbnz	r0, 8223c <xTaskCheckForTimeOut+0x10>
   82234:	4b1a      	ldr	r3, [pc, #104]	; (822a0 <xTaskCheckForTimeOut+0x74>)
   82236:	4798      	blx	r3
   82238:	bf00      	nop
   8223a:	e7fd      	b.n	82238 <xTaskCheckForTimeOut+0xc>
   8223c:	b919      	cbnz	r1, 82246 <xTaskCheckForTimeOut+0x1a>
   8223e:	4b18      	ldr	r3, [pc, #96]	; (822a0 <xTaskCheckForTimeOut+0x74>)
   82240:	4798      	blx	r3
   82242:	bf00      	nop
   82244:	e7fd      	b.n	82242 <xTaskCheckForTimeOut+0x16>
   82246:	4b17      	ldr	r3, [pc, #92]	; (822a4 <xTaskCheckForTimeOut+0x78>)
   82248:	4798      	blx	r3
   8224a:	882b      	ldrh	r3, [r5, #0]
   8224c:	f64f 72ff 	movw	r2, #65535	; 0xffff
   82250:	4293      	cmp	r3, r2
   82252:	d01c      	beq.n	8228e <xTaskCheckForTimeOut+0x62>
   82254:	4a14      	ldr	r2, [pc, #80]	; (822a8 <xTaskCheckForTimeOut+0x7c>)
   82256:	6811      	ldr	r1, [r2, #0]
   82258:	6822      	ldr	r2, [r4, #0]
   8225a:	428a      	cmp	r2, r1
   8225c:	d005      	beq.n	8226a <xTaskCheckForTimeOut+0x3e>
   8225e:	4a13      	ldr	r2, [pc, #76]	; (822ac <xTaskCheckForTimeOut+0x80>)
   82260:	8812      	ldrh	r2, [r2, #0]
   82262:	b292      	uxth	r2, r2
   82264:	88a1      	ldrh	r1, [r4, #4]
   82266:	4291      	cmp	r1, r2
   82268:	d913      	bls.n	82292 <xTaskCheckForTimeOut+0x66>
   8226a:	4a10      	ldr	r2, [pc, #64]	; (822ac <xTaskCheckForTimeOut+0x80>)
   8226c:	8811      	ldrh	r1, [r2, #0]
   8226e:	88a2      	ldrh	r2, [r4, #4]
   82270:	1a89      	subs	r1, r1, r2
   82272:	b289      	uxth	r1, r1
   82274:	428b      	cmp	r3, r1
   82276:	d90e      	bls.n	82296 <xTaskCheckForTimeOut+0x6a>
   82278:	490c      	ldr	r1, [pc, #48]	; (822ac <xTaskCheckForTimeOut+0x80>)
   8227a:	8809      	ldrh	r1, [r1, #0]
   8227c:	b289      	uxth	r1, r1
   8227e:	1a52      	subs	r2, r2, r1
   82280:	4413      	add	r3, r2
   82282:	802b      	strh	r3, [r5, #0]
   82284:	4620      	mov	r0, r4
   82286:	4b0a      	ldr	r3, [pc, #40]	; (822b0 <xTaskCheckForTimeOut+0x84>)
   82288:	4798      	blx	r3
   8228a:	2400      	movs	r4, #0
   8228c:	e004      	b.n	82298 <xTaskCheckForTimeOut+0x6c>
   8228e:	2400      	movs	r4, #0
   82290:	e002      	b.n	82298 <xTaskCheckForTimeOut+0x6c>
   82292:	2401      	movs	r4, #1
   82294:	e000      	b.n	82298 <xTaskCheckForTimeOut+0x6c>
   82296:	2401      	movs	r4, #1
   82298:	4b06      	ldr	r3, [pc, #24]	; (822b4 <xTaskCheckForTimeOut+0x88>)
   8229a:	4798      	blx	r3
   8229c:	4620      	mov	r0, r4
   8229e:	bd38      	pop	{r3, r4, r5, pc}
   822a0:	0008117d 	.word	0x0008117d
   822a4:	0008118d 	.word	0x0008118d
   822a8:	20078bc8 	.word	0x20078bc8
   822ac:	20078bcc 	.word	0x20078bcc
   822b0:	00082205 	.word	0x00082205
   822b4:	000811ad 	.word	0x000811ad

000822b8 <vTaskMissedYield>:
   822b8:	2201      	movs	r2, #1
   822ba:	4b01      	ldr	r3, [pc, #4]	; (822c0 <vTaskMissedYield+0x8>)
   822bc:	601a      	str	r2, [r3, #0]
   822be:	4770      	bx	lr
   822c0:	20078bec 	.word	0x20078bec

000822c4 <xTaskGetCurrentTaskHandle>:
   822c4:	4b01      	ldr	r3, [pc, #4]	; (822cc <xTaskGetCurrentTaskHandle+0x8>)
   822c6:	6818      	ldr	r0, [r3, #0]
   822c8:	4770      	bx	lr
   822ca:	bf00      	nop
   822cc:	20078bb0 	.word	0x20078bb0

000822d0 <xTaskGetSchedulerState>:
   822d0:	4b05      	ldr	r3, [pc, #20]	; (822e8 <xTaskGetSchedulerState+0x18>)
   822d2:	681b      	ldr	r3, [r3, #0]
   822d4:	b133      	cbz	r3, 822e4 <xTaskGetSchedulerState+0x14>
   822d6:	4b05      	ldr	r3, [pc, #20]	; (822ec <xTaskGetSchedulerState+0x1c>)
   822d8:	681b      	ldr	r3, [r3, #0]
   822da:	2b00      	cmp	r3, #0
   822dc:	bf14      	ite	ne
   822de:	2002      	movne	r0, #2
   822e0:	2001      	moveq	r0, #1
   822e2:	4770      	bx	lr
   822e4:	2000      	movs	r0, #0
   822e6:	4770      	bx	lr
   822e8:	20078ab0 	.word	0x20078ab0
   822ec:	20078bac 	.word	0x20078bac

000822f0 <vTaskPriorityInherit>:
   822f0:	b538      	push	{r3, r4, r5, lr}
   822f2:	4604      	mov	r4, r0
   822f4:	2800      	cmp	r0, #0
   822f6:	d02e      	beq.n	82356 <vTaskPriorityInherit+0x66>
   822f8:	6ac3      	ldr	r3, [r0, #44]	; 0x2c
   822fa:	4a17      	ldr	r2, [pc, #92]	; (82358 <vTaskPriorityInherit+0x68>)
   822fc:	6812      	ldr	r2, [r2, #0]
   822fe:	6ad2      	ldr	r2, [r2, #44]	; 0x2c
   82300:	4293      	cmp	r3, r2
   82302:	d228      	bcs.n	82356 <vTaskPriorityInherit+0x66>
   82304:	4a14      	ldr	r2, [pc, #80]	; (82358 <vTaskPriorityInherit+0x68>)
   82306:	6812      	ldr	r2, [r2, #0]
   82308:	6ad2      	ldr	r2, [r2, #44]	; 0x2c
   8230a:	f1c2 020a 	rsb	r2, r2, #10
   8230e:	8302      	strh	r2, [r0, #24]
   82310:	eb03 0383 	add.w	r3, r3, r3, lsl #2
   82314:	4a11      	ldr	r2, [pc, #68]	; (8235c <vTaskPriorityInherit+0x6c>)
   82316:	eb02 0383 	add.w	r3, r2, r3, lsl #2
   8231a:	6942      	ldr	r2, [r0, #20]
   8231c:	429a      	cmp	r2, r3
   8231e:	d116      	bne.n	8234e <vTaskPriorityInherit+0x5e>
   82320:	1d05      	adds	r5, r0, #4
   82322:	4628      	mov	r0, r5
   82324:	4b0e      	ldr	r3, [pc, #56]	; (82360 <vTaskPriorityInherit+0x70>)
   82326:	4798      	blx	r3
   82328:	4b0b      	ldr	r3, [pc, #44]	; (82358 <vTaskPriorityInherit+0x68>)
   8232a:	681b      	ldr	r3, [r3, #0]
   8232c:	6adb      	ldr	r3, [r3, #44]	; 0x2c
   8232e:	62e3      	str	r3, [r4, #44]	; 0x2c
   82330:	4a0c      	ldr	r2, [pc, #48]	; (82364 <vTaskPriorityInherit+0x74>)
   82332:	6812      	ldr	r2, [r2, #0]
   82334:	4293      	cmp	r3, r2
   82336:	bf84      	itt	hi
   82338:	4a0a      	ldrhi	r2, [pc, #40]	; (82364 <vTaskPriorityInherit+0x74>)
   8233a:	6013      	strhi	r3, [r2, #0]
   8233c:	eb03 0383 	add.w	r3, r3, r3, lsl #2
   82340:	4806      	ldr	r0, [pc, #24]	; (8235c <vTaskPriorityInherit+0x6c>)
   82342:	eb00 0083 	add.w	r0, r0, r3, lsl #2
   82346:	4629      	mov	r1, r5
   82348:	4b07      	ldr	r3, [pc, #28]	; (82368 <vTaskPriorityInherit+0x78>)
   8234a:	4798      	blx	r3
   8234c:	bd38      	pop	{r3, r4, r5, pc}
   8234e:	4b02      	ldr	r3, [pc, #8]	; (82358 <vTaskPriorityInherit+0x68>)
   82350:	681b      	ldr	r3, [r3, #0]
   82352:	6adb      	ldr	r3, [r3, #44]	; 0x2c
   82354:	62c3      	str	r3, [r0, #44]	; 0x2c
   82356:	bd38      	pop	{r3, r4, r5, pc}
   82358:	20078bb0 	.word	0x20078bb0
   8235c:	20078ae4 	.word	0x20078ae4
   82360:	000810f5 	.word	0x000810f5
   82364:	20078ae0 	.word	0x20078ae0
   82368:	00081095 	.word	0x00081095

0008236c <vTaskPriorityDisinherit>:
   8236c:	b538      	push	{r3, r4, r5, lr}
   8236e:	4604      	mov	r4, r0
   82370:	b1d0      	cbz	r0, 823a8 <vTaskPriorityDisinherit+0x3c>
   82372:	6ac2      	ldr	r2, [r0, #44]	; 0x2c
   82374:	6cc3      	ldr	r3, [r0, #76]	; 0x4c
   82376:	429a      	cmp	r2, r3
   82378:	d016      	beq.n	823a8 <vTaskPriorityDisinherit+0x3c>
   8237a:	1d05      	adds	r5, r0, #4
   8237c:	4628      	mov	r0, r5
   8237e:	4b0b      	ldr	r3, [pc, #44]	; (823ac <vTaskPriorityDisinherit+0x40>)
   82380:	4798      	blx	r3
   82382:	6ce3      	ldr	r3, [r4, #76]	; 0x4c
   82384:	62e3      	str	r3, [r4, #44]	; 0x2c
   82386:	f1c3 020a 	rsb	r2, r3, #10
   8238a:	8322      	strh	r2, [r4, #24]
   8238c:	4a08      	ldr	r2, [pc, #32]	; (823b0 <vTaskPriorityDisinherit+0x44>)
   8238e:	6812      	ldr	r2, [r2, #0]
   82390:	4293      	cmp	r3, r2
   82392:	bf84      	itt	hi
   82394:	4a06      	ldrhi	r2, [pc, #24]	; (823b0 <vTaskPriorityDisinherit+0x44>)
   82396:	6013      	strhi	r3, [r2, #0]
   82398:	eb03 0383 	add.w	r3, r3, r3, lsl #2
   8239c:	4805      	ldr	r0, [pc, #20]	; (823b4 <vTaskPriorityDisinherit+0x48>)
   8239e:	eb00 0083 	add.w	r0, r0, r3, lsl #2
   823a2:	4629      	mov	r1, r5
   823a4:	4b04      	ldr	r3, [pc, #16]	; (823b8 <vTaskPriorityDisinherit+0x4c>)
   823a6:	4798      	blx	r3
   823a8:	bd38      	pop	{r3, r4, r5, pc}
   823aa:	bf00      	nop
   823ac:	000810f5 	.word	0x000810f5
   823b0:	20078ae0 	.word	0x20078ae0
   823b4:	20078ae4 	.word	0x20078ae4
   823b8:	00081095 	.word	0x00081095

000823bc <prvInsertTimerInActiveList>:
   823bc:	b510      	push	{r4, lr}
   823be:	4604      	mov	r4, r0
   823c0:	8081      	strh	r1, [r0, #4]
   823c2:	6120      	str	r0, [r4, #16]
   823c4:	4291      	cmp	r1, r2
   823c6:	d80b      	bhi.n	823e0 <prvInsertTimerInActiveList+0x24>
   823c8:	1ad3      	subs	r3, r2, r3
   823ca:	8b01      	ldrh	r1, [r0, #24]
   823cc:	b29b      	uxth	r3, r3
   823ce:	4299      	cmp	r1, r3
   823d0:	d911      	bls.n	823f6 <prvInsertTimerInActiveList+0x3a>
   823d2:	4b0b      	ldr	r3, [pc, #44]	; (82400 <prvInsertTimerInActiveList+0x44>)
   823d4:	6818      	ldr	r0, [r3, #0]
   823d6:	1d21      	adds	r1, r4, #4
   823d8:	4b0a      	ldr	r3, [pc, #40]	; (82404 <prvInsertTimerInActiveList+0x48>)
   823da:	4798      	blx	r3
   823dc:	2000      	movs	r0, #0
   823de:	bd10      	pop	{r4, pc}
   823e0:	429a      	cmp	r2, r3
   823e2:	d201      	bcs.n	823e8 <prvInsertTimerInActiveList+0x2c>
   823e4:	4299      	cmp	r1, r3
   823e6:	d208      	bcs.n	823fa <prvInsertTimerInActiveList+0x3e>
   823e8:	4b07      	ldr	r3, [pc, #28]	; (82408 <prvInsertTimerInActiveList+0x4c>)
   823ea:	6818      	ldr	r0, [r3, #0]
   823ec:	1d21      	adds	r1, r4, #4
   823ee:	4b05      	ldr	r3, [pc, #20]	; (82404 <prvInsertTimerInActiveList+0x48>)
   823f0:	4798      	blx	r3
   823f2:	2000      	movs	r0, #0
   823f4:	bd10      	pop	{r4, pc}
   823f6:	2001      	movs	r0, #1
   823f8:	bd10      	pop	{r4, pc}
   823fa:	2001      	movs	r0, #1
   823fc:	bd10      	pop	{r4, pc}
   823fe:	bf00      	nop
   82400:	20078c2c 	.word	0x20078c2c
   82404:	000810b1 	.word	0x000810b1
   82408:	20078bf8 	.word	0x20078bf8

0008240c <prvCheckForValidListAndQueue>:
   8240c:	b570      	push	{r4, r5, r6, lr}
   8240e:	4b0d      	ldr	r3, [pc, #52]	; (82444 <prvCheckForValidListAndQueue+0x38>)
   82410:	4798      	blx	r3
   82412:	4b0d      	ldr	r3, [pc, #52]	; (82448 <prvCheckForValidListAndQueue+0x3c>)
   82414:	681b      	ldr	r3, [r3, #0]
   82416:	b98b      	cbnz	r3, 8243c <prvCheckForValidListAndQueue+0x30>
   82418:	4d0c      	ldr	r5, [pc, #48]	; (8244c <prvCheckForValidListAndQueue+0x40>)
   8241a:	4628      	mov	r0, r5
   8241c:	4e0c      	ldr	r6, [pc, #48]	; (82450 <prvCheckForValidListAndQueue+0x44>)
   8241e:	47b0      	blx	r6
   82420:	4c0c      	ldr	r4, [pc, #48]	; (82454 <prvCheckForValidListAndQueue+0x48>)
   82422:	4620      	mov	r0, r4
   82424:	47b0      	blx	r6
   82426:	4b0c      	ldr	r3, [pc, #48]	; (82458 <prvCheckForValidListAndQueue+0x4c>)
   82428:	601d      	str	r5, [r3, #0]
   8242a:	4b0c      	ldr	r3, [pc, #48]	; (8245c <prvCheckForValidListAndQueue+0x50>)
   8242c:	601c      	str	r4, [r3, #0]
   8242e:	2005      	movs	r0, #5
   82430:	210c      	movs	r1, #12
   82432:	2200      	movs	r2, #0
   82434:	4b0a      	ldr	r3, [pc, #40]	; (82460 <prvCheckForValidListAndQueue+0x54>)
   82436:	4798      	blx	r3
   82438:	4b03      	ldr	r3, [pc, #12]	; (82448 <prvCheckForValidListAndQueue+0x3c>)
   8243a:	6018      	str	r0, [r3, #0]
   8243c:	4b09      	ldr	r3, [pc, #36]	; (82464 <prvCheckForValidListAndQueue+0x58>)
   8243e:	4798      	blx	r3
   82440:	bd70      	pop	{r4, r5, r6, pc}
   82442:	bf00      	nop
   82444:	0008118d 	.word	0x0008118d
   82448:	20078c28 	.word	0x20078c28
   8244c:	20078bfc 	.word	0x20078bfc
   82450:	00081075 	.word	0x00081075
   82454:	20078c10 	.word	0x20078c10
   82458:	20078bf8 	.word	0x20078bf8
   8245c:	20078c2c 	.word	0x20078c2c
   82460:	00081565 	.word	0x00081565
   82464:	000811ad 	.word	0x000811ad

00082468 <xTimerCreateTimerTask>:
   82468:	b510      	push	{r4, lr}
   8246a:	b084      	sub	sp, #16
   8246c:	4b0b      	ldr	r3, [pc, #44]	; (8249c <xTimerCreateTimerTask+0x34>)
   8246e:	4798      	blx	r3
   82470:	4b0b      	ldr	r3, [pc, #44]	; (824a0 <xTimerCreateTimerTask+0x38>)
   82472:	681b      	ldr	r3, [r3, #0]
   82474:	b163      	cbz	r3, 82490 <xTimerCreateTimerTask+0x28>
   82476:	2309      	movs	r3, #9
   82478:	9300      	str	r3, [sp, #0]
   8247a:	2300      	movs	r3, #0
   8247c:	9301      	str	r3, [sp, #4]
   8247e:	9302      	str	r3, [sp, #8]
   82480:	9303      	str	r3, [sp, #12]
   82482:	4808      	ldr	r0, [pc, #32]	; (824a4 <xTimerCreateTimerTask+0x3c>)
   82484:	4908      	ldr	r1, [pc, #32]	; (824a8 <xTimerCreateTimerTask+0x40>)
   82486:	f44f 7200 	mov.w	r2, #512	; 0x200
   8248a:	4c08      	ldr	r4, [pc, #32]	; (824ac <xTimerCreateTimerTask+0x44>)
   8248c:	47a0      	blx	r4
   8248e:	b918      	cbnz	r0, 82498 <xTimerCreateTimerTask+0x30>
   82490:	4b07      	ldr	r3, [pc, #28]	; (824b0 <xTimerCreateTimerTask+0x48>)
   82492:	4798      	blx	r3
   82494:	bf00      	nop
   82496:	e7fd      	b.n	82494 <xTimerCreateTimerTask+0x2c>
   82498:	b004      	add	sp, #16
   8249a:	bd10      	pop	{r4, pc}
   8249c:	0008240d 	.word	0x0008240d
   824a0:	20078c28 	.word	0x20078c28
   824a4:	000825c9 	.word	0x000825c9
   824a8:	0008a890 	.word	0x0008a890
   824ac:	00081a05 	.word	0x00081a05
   824b0:	0008117d 	.word	0x0008117d

000824b4 <xTimerGenericCommand>:
   824b4:	b510      	push	{r4, lr}
   824b6:	b084      	sub	sp, #16
   824b8:	4c10      	ldr	r4, [pc, #64]	; (824fc <xTimerGenericCommand+0x48>)
   824ba:	6824      	ldr	r4, [r4, #0]
   824bc:	b1d4      	cbz	r4, 824f4 <xTimerGenericCommand+0x40>
   824be:	9101      	str	r1, [sp, #4]
   824c0:	f8ad 2008 	strh.w	r2, [sp, #8]
   824c4:	9003      	str	r0, [sp, #12]
   824c6:	b973      	cbnz	r3, 824e6 <xTimerGenericCommand+0x32>
   824c8:	4b0d      	ldr	r3, [pc, #52]	; (82500 <xTimerGenericCommand+0x4c>)
   824ca:	4798      	blx	r3
   824cc:	2801      	cmp	r0, #1
   824ce:	4b0b      	ldr	r3, [pc, #44]	; (824fc <xTimerGenericCommand+0x48>)
   824d0:	6818      	ldr	r0, [r3, #0]
   824d2:	a901      	add	r1, sp, #4
   824d4:	bf07      	ittee	eq
   824d6:	f8bd 2018 	ldrheq.w	r2, [sp, #24]
   824da:	2300      	moveq	r3, #0
   824dc:	2200      	movne	r2, #0
   824de:	4613      	movne	r3, r2
   824e0:	4c08      	ldr	r4, [pc, #32]	; (82504 <xTimerGenericCommand+0x50>)
   824e2:	47a0      	blx	r4
   824e4:	e007      	b.n	824f6 <xTimerGenericCommand+0x42>
   824e6:	4620      	mov	r0, r4
   824e8:	a901      	add	r1, sp, #4
   824ea:	461a      	mov	r2, r3
   824ec:	2300      	movs	r3, #0
   824ee:	4c06      	ldr	r4, [pc, #24]	; (82508 <xTimerGenericCommand+0x54>)
   824f0:	47a0      	blx	r4
   824f2:	e000      	b.n	824f6 <xTimerGenericCommand+0x42>
   824f4:	2000      	movs	r0, #0
   824f6:	b004      	add	sp, #16
   824f8:	bd10      	pop	{r4, pc}
   824fa:	bf00      	nop
   824fc:	20078c28 	.word	0x20078c28
   82500:	000822d1 	.word	0x000822d1
   82504:	000815bd 	.word	0x000815bd
   82508:	000816e1 	.word	0x000816e1

0008250c <prvSampleTimeNow>:
   8250c:	e92d 47f0 	stmdb	sp!, {r4, r5, r6, r7, r8, r9, sl, lr}
   82510:	b082      	sub	sp, #8
   82512:	4681      	mov	r9, r0
   82514:	4b24      	ldr	r3, [pc, #144]	; (825a8 <prvSampleTimeNow+0x9c>)
   82516:	4798      	blx	r3
   82518:	4680      	mov	r8, r0
   8251a:	4b24      	ldr	r3, [pc, #144]	; (825ac <prvSampleTimeNow+0xa0>)
   8251c:	881b      	ldrh	r3, [r3, #0]
   8251e:	4283      	cmp	r3, r0
   82520:	d937      	bls.n	82592 <prvSampleTimeNow+0x86>
   82522:	4e23      	ldr	r6, [pc, #140]	; (825b0 <prvSampleTimeNow+0xa4>)
   82524:	4f23      	ldr	r7, [pc, #140]	; (825b4 <prvSampleTimeNow+0xa8>)
   82526:	e027      	b.n	82578 <prvSampleTimeNow+0x6c>
   82528:	68da      	ldr	r2, [r3, #12]
   8252a:	f8b2 a000 	ldrh.w	sl, [r2]
   8252e:	fa1f fa8a 	uxth.w	sl, sl
   82532:	68db      	ldr	r3, [r3, #12]
   82534:	68dc      	ldr	r4, [r3, #12]
   82536:	1d25      	adds	r5, r4, #4
   82538:	4628      	mov	r0, r5
   8253a:	47b8      	blx	r7
   8253c:	6a63      	ldr	r3, [r4, #36]	; 0x24
   8253e:	4620      	mov	r0, r4
   82540:	4798      	blx	r3
   82542:	69e3      	ldr	r3, [r4, #28]
   82544:	2b01      	cmp	r3, #1
   82546:	d117      	bne.n	82578 <prvSampleTimeNow+0x6c>
   82548:	8b23      	ldrh	r3, [r4, #24]
   8254a:	4453      	add	r3, sl
   8254c:	b29b      	uxth	r3, r3
   8254e:	4553      	cmp	r3, sl
   82550:	d906      	bls.n	82560 <prvSampleTimeNow+0x54>
   82552:	80a3      	strh	r3, [r4, #4]
   82554:	6124      	str	r4, [r4, #16]
   82556:	6830      	ldr	r0, [r6, #0]
   82558:	4629      	mov	r1, r5
   8255a:	4b17      	ldr	r3, [pc, #92]	; (825b8 <prvSampleTimeNow+0xac>)
   8255c:	4798      	blx	r3
   8255e:	e00b      	b.n	82578 <prvSampleTimeNow+0x6c>
   82560:	2300      	movs	r3, #0
   82562:	9300      	str	r3, [sp, #0]
   82564:	4620      	mov	r0, r4
   82566:	4619      	mov	r1, r3
   82568:	4652      	mov	r2, sl
   8256a:	4c14      	ldr	r4, [pc, #80]	; (825bc <prvSampleTimeNow+0xb0>)
   8256c:	47a0      	blx	r4
   8256e:	b918      	cbnz	r0, 82578 <prvSampleTimeNow+0x6c>
   82570:	4b13      	ldr	r3, [pc, #76]	; (825c0 <prvSampleTimeNow+0xb4>)
   82572:	4798      	blx	r3
   82574:	bf00      	nop
   82576:	e7fd      	b.n	82574 <prvSampleTimeNow+0x68>
   82578:	6833      	ldr	r3, [r6, #0]
   8257a:	681a      	ldr	r2, [r3, #0]
   8257c:	2a00      	cmp	r2, #0
   8257e:	d1d3      	bne.n	82528 <prvSampleTimeNow+0x1c>
   82580:	4a10      	ldr	r2, [pc, #64]	; (825c4 <prvSampleTimeNow+0xb8>)
   82582:	6811      	ldr	r1, [r2, #0]
   82584:	480a      	ldr	r0, [pc, #40]	; (825b0 <prvSampleTimeNow+0xa4>)
   82586:	6001      	str	r1, [r0, #0]
   82588:	6013      	str	r3, [r2, #0]
   8258a:	2301      	movs	r3, #1
   8258c:	f8c9 3000 	str.w	r3, [r9]
   82590:	e002      	b.n	82598 <prvSampleTimeNow+0x8c>
   82592:	2300      	movs	r3, #0
   82594:	f8c9 3000 	str.w	r3, [r9]
   82598:	4b04      	ldr	r3, [pc, #16]	; (825ac <prvSampleTimeNow+0xa0>)
   8259a:	f8a3 8000 	strh.w	r8, [r3]
   8259e:	4640      	mov	r0, r8
   825a0:	b002      	add	sp, #8
   825a2:	e8bd 87f0 	ldmia.w	sp!, {r4, r5, r6, r7, r8, r9, sl, pc}
   825a6:	bf00      	nop
   825a8:	00081c89 	.word	0x00081c89
   825ac:	20078c24 	.word	0x20078c24
   825b0:	20078bf8 	.word	0x20078bf8
   825b4:	000810f5 	.word	0x000810f5
   825b8:	000810b1 	.word	0x000810b1
   825bc:	000824b5 	.word	0x000824b5
   825c0:	0008117d 	.word	0x0008117d
   825c4:	20078c2c 	.word	0x20078c2c

000825c8 <prvTimerTask>:
   825c8:	e92d 43f0 	stmdb	sp!, {r4, r5, r6, r7, r8, r9, lr}
   825cc:	b087      	sub	sp, #28
   825ce:	4d51      	ldr	r5, [pc, #324]	; (82714 <prvTimerTask+0x14c>)
   825d0:	f8df 8170 	ldr.w	r8, [pc, #368]	; 82744 <prvTimerTask+0x17c>
   825d4:	4b50      	ldr	r3, [pc, #320]	; (82718 <prvTimerTask+0x150>)
   825d6:	681b      	ldr	r3, [r3, #0]
   825d8:	681a      	ldr	r2, [r3, #0]
   825da:	2a00      	cmp	r2, #0
   825dc:	f000 8090 	beq.w	82700 <prvTimerTask+0x138>
   825e0:	68db      	ldr	r3, [r3, #12]
   825e2:	881e      	ldrh	r6, [r3, #0]
   825e4:	b2b6      	uxth	r6, r6
   825e6:	4b4d      	ldr	r3, [pc, #308]	; (8271c <prvTimerTask+0x154>)
   825e8:	4798      	blx	r3
   825ea:	a803      	add	r0, sp, #12
   825ec:	4b4c      	ldr	r3, [pc, #304]	; (82720 <prvTimerTask+0x158>)
   825ee:	4798      	blx	r3
   825f0:	4607      	mov	r7, r0
   825f2:	9b03      	ldr	r3, [sp, #12]
   825f4:	2b00      	cmp	r3, #0
   825f6:	d132      	bne.n	8265e <prvTimerTask+0x96>
   825f8:	4286      	cmp	r6, r0
   825fa:	d825      	bhi.n	82648 <prvTimerTask+0x80>
   825fc:	4b49      	ldr	r3, [pc, #292]	; (82724 <prvTimerTask+0x15c>)
   825fe:	4798      	blx	r3
   82600:	4b45      	ldr	r3, [pc, #276]	; (82718 <prvTimerTask+0x150>)
   82602:	681b      	ldr	r3, [r3, #0]
   82604:	68db      	ldr	r3, [r3, #12]
   82606:	68dc      	ldr	r4, [r3, #12]
   82608:	1d20      	adds	r0, r4, #4
   8260a:	47c0      	blx	r8
   8260c:	69e3      	ldr	r3, [r4, #28]
   8260e:	2b01      	cmp	r3, #1
   82610:	d115      	bne.n	8263e <prvTimerTask+0x76>
   82612:	8b21      	ldrh	r1, [r4, #24]
   82614:	4431      	add	r1, r6
   82616:	4620      	mov	r0, r4
   82618:	b289      	uxth	r1, r1
   8261a:	463a      	mov	r2, r7
   8261c:	4633      	mov	r3, r6
   8261e:	4f42      	ldr	r7, [pc, #264]	; (82728 <prvTimerTask+0x160>)
   82620:	47b8      	blx	r7
   82622:	2801      	cmp	r0, #1
   82624:	d10b      	bne.n	8263e <prvTimerTask+0x76>
   82626:	2300      	movs	r3, #0
   82628:	9300      	str	r3, [sp, #0]
   8262a:	4620      	mov	r0, r4
   8262c:	4619      	mov	r1, r3
   8262e:	4632      	mov	r2, r6
   82630:	4e3e      	ldr	r6, [pc, #248]	; (8272c <prvTimerTask+0x164>)
   82632:	47b0      	blx	r6
   82634:	b918      	cbnz	r0, 8263e <prvTimerTask+0x76>
   82636:	4b3e      	ldr	r3, [pc, #248]	; (82730 <prvTimerTask+0x168>)
   82638:	4798      	blx	r3
   8263a:	bf00      	nop
   8263c:	e7fd      	b.n	8263a <prvTimerTask+0x72>
   8263e:	6a63      	ldr	r3, [r4, #36]	; 0x24
   82640:	4620      	mov	r0, r4
   82642:	4798      	blx	r3
   82644:	e00d      	b.n	82662 <prvTimerTask+0x9a>
   82646:	2600      	movs	r6, #0
   82648:	1bf1      	subs	r1, r6, r7
   8264a:	6828      	ldr	r0, [r5, #0]
   8264c:	b289      	uxth	r1, r1
   8264e:	4b39      	ldr	r3, [pc, #228]	; (82734 <prvTimerTask+0x16c>)
   82650:	4798      	blx	r3
   82652:	4b34      	ldr	r3, [pc, #208]	; (82724 <prvTimerTask+0x15c>)
   82654:	4798      	blx	r3
   82656:	b920      	cbnz	r0, 82662 <prvTimerTask+0x9a>
   82658:	4b37      	ldr	r3, [pc, #220]	; (82738 <prvTimerTask+0x170>)
   8265a:	4798      	blx	r3
   8265c:	e001      	b.n	82662 <prvTimerTask+0x9a>
   8265e:	4b31      	ldr	r3, [pc, #196]	; (82724 <prvTimerTask+0x15c>)
   82660:	4798      	blx	r3
   82662:	a802      	add	r0, sp, #8
   82664:	4b2e      	ldr	r3, [pc, #184]	; (82720 <prvTimerTask+0x158>)
   82666:	4798      	blx	r3
   82668:	4607      	mov	r7, r0
   8266a:	4e34      	ldr	r6, [pc, #208]	; (8273c <prvTimerTask+0x174>)
   8266c:	f8df 90b8 	ldr.w	r9, [pc, #184]	; 82728 <prvTimerTask+0x160>
   82670:	e03e      	b.n	826f0 <prvTimerTask+0x128>
   82672:	9c05      	ldr	r4, [sp, #20]
   82674:	b11c      	cbz	r4, 8267e <prvTimerTask+0xb6>
   82676:	6961      	ldr	r1, [r4, #20]
   82678:	b109      	cbz	r1, 8267e <prvTimerTask+0xb6>
   8267a:	1d20      	adds	r0, r4, #4
   8267c:	47c0      	blx	r8
   8267e:	9903      	ldr	r1, [sp, #12]
   82680:	2902      	cmp	r1, #2
   82682:	d023      	beq.n	826cc <prvTimerTask+0x104>
   82684:	2903      	cmp	r1, #3
   82686:	d030      	beq.n	826ea <prvTimerTask+0x122>
   82688:	2900      	cmp	r1, #0
   8268a:	d131      	bne.n	826f0 <prvTimerTask+0x128>
   8268c:	f8bd 3010 	ldrh.w	r3, [sp, #16]
   82690:	8b21      	ldrh	r1, [r4, #24]
   82692:	4419      	add	r1, r3
   82694:	4620      	mov	r0, r4
   82696:	b289      	uxth	r1, r1
   82698:	463a      	mov	r2, r7
   8269a:	47c8      	blx	r9
   8269c:	2801      	cmp	r0, #1
   8269e:	d127      	bne.n	826f0 <prvTimerTask+0x128>
   826a0:	6a63      	ldr	r3, [r4, #36]	; 0x24
   826a2:	4620      	mov	r0, r4
   826a4:	4798      	blx	r3
   826a6:	69e3      	ldr	r3, [r4, #28]
   826a8:	2b01      	cmp	r3, #1
   826aa:	d121      	bne.n	826f0 <prvTimerTask+0x128>
   826ac:	8b22      	ldrh	r2, [r4, #24]
   826ae:	f8bd 3010 	ldrh.w	r3, [sp, #16]
   826b2:	441a      	add	r2, r3
   826b4:	2300      	movs	r3, #0
   826b6:	9300      	str	r3, [sp, #0]
   826b8:	4620      	mov	r0, r4
   826ba:	4619      	mov	r1, r3
   826bc:	b292      	uxth	r2, r2
   826be:	4c1b      	ldr	r4, [pc, #108]	; (8272c <prvTimerTask+0x164>)
   826c0:	47a0      	blx	r4
   826c2:	b9a8      	cbnz	r0, 826f0 <prvTimerTask+0x128>
   826c4:	4b1a      	ldr	r3, [pc, #104]	; (82730 <prvTimerTask+0x168>)
   826c6:	4798      	blx	r3
   826c8:	bf00      	nop
   826ca:	e7fd      	b.n	826c8 <prvTimerTask+0x100>
   826cc:	f8bd 3010 	ldrh.w	r3, [sp, #16]
   826d0:	8323      	strh	r3, [r4, #24]
   826d2:	b91b      	cbnz	r3, 826dc <prvTimerTask+0x114>
   826d4:	4b16      	ldr	r3, [pc, #88]	; (82730 <prvTimerTask+0x168>)
   826d6:	4798      	blx	r3
   826d8:	bf00      	nop
   826da:	e7fd      	b.n	826d8 <prvTimerTask+0x110>
   826dc:	18f9      	adds	r1, r7, r3
   826de:	4620      	mov	r0, r4
   826e0:	b289      	uxth	r1, r1
   826e2:	463a      	mov	r2, r7
   826e4:	463b      	mov	r3, r7
   826e6:	47c8      	blx	r9
   826e8:	e002      	b.n	826f0 <prvTimerTask+0x128>
   826ea:	4620      	mov	r0, r4
   826ec:	4b14      	ldr	r3, [pc, #80]	; (82740 <prvTimerTask+0x178>)
   826ee:	4798      	blx	r3
   826f0:	6828      	ldr	r0, [r5, #0]
   826f2:	a903      	add	r1, sp, #12
   826f4:	2200      	movs	r2, #0
   826f6:	4613      	mov	r3, r2
   826f8:	47b0      	blx	r6
   826fa:	2800      	cmp	r0, #0
   826fc:	d1b9      	bne.n	82672 <prvTimerTask+0xaa>
   826fe:	e769      	b.n	825d4 <prvTimerTask+0xc>
   82700:	4b06      	ldr	r3, [pc, #24]	; (8271c <prvTimerTask+0x154>)
   82702:	4798      	blx	r3
   82704:	a803      	add	r0, sp, #12
   82706:	4b06      	ldr	r3, [pc, #24]	; (82720 <prvTimerTask+0x158>)
   82708:	4798      	blx	r3
   8270a:	4607      	mov	r7, r0
   8270c:	9b03      	ldr	r3, [sp, #12]
   8270e:	2b00      	cmp	r3, #0
   82710:	d099      	beq.n	82646 <prvTimerTask+0x7e>
   82712:	e7a4      	b.n	8265e <prvTimerTask+0x96>
   82714:	20078c28 	.word	0x20078c28
   82718:	20078bf8 	.word	0x20078bf8
   8271c:	00081c79 	.word	0x00081c79
   82720:	0008250d 	.word	0x0008250d
   82724:	00081dd5 	.word	0x00081dd5
   82728:	000823bd 	.word	0x000823bd
   8272c:	000824b5 	.word	0x000824b5
   82730:	0008117d 	.word	0x0008117d
   82734:	0008195d 	.word	0x0008195d
   82738:	0008116d 	.word	0x0008116d
   8273c:	00081771 	.word	0x00081771
   82740:	0008139d 	.word	0x0008139d
   82744:	000810f5 	.word	0x000810f5

00082748 <cos>:
   82748:	b570      	push	{r4, r5, r6, lr}
   8274a:	4e20      	ldr	r6, [pc, #128]	; (827cc <cos+0x84>)
   8274c:	f021 4400 	bic.w	r4, r1, #2147483648	; 0x80000000
   82750:	42b4      	cmp	r4, r6
   82752:	b086      	sub	sp, #24
   82754:	4602      	mov	r2, r0
   82756:	460b      	mov	r3, r1
   82758:	dd19      	ble.n	8278e <cos+0x46>
   8275a:	4d1d      	ldr	r5, [pc, #116]	; (827d0 <cos+0x88>)
   8275c:	42ac      	cmp	r4, r5
   8275e:	dd03      	ble.n	82768 <cos+0x20>
   82760:	f001 fac4 	bl	83cec <__aeabi_dsub>
   82764:	b006      	add	sp, #24
   82766:	bd70      	pop	{r4, r5, r6, pc}
   82768:	aa02      	add	r2, sp, #8
   8276a:	f000 f8d5 	bl	82918 <__ieee754_rem_pio2>
   8276e:	f000 0003 	and.w	r0, r0, #3
   82772:	2801      	cmp	r0, #1
   82774:	d01b      	beq.n	827ae <cos+0x66>
   82776:	2802      	cmp	r0, #2
   82778:	d00f      	beq.n	8279a <cos+0x52>
   8277a:	b300      	cbz	r0, 827be <cos+0x76>
   8277c:	2301      	movs	r3, #1
   8277e:	9300      	str	r3, [sp, #0]
   82780:	e9dd 0102 	ldrd	r0, r1, [sp, #8]
   82784:	e9dd 2304 	ldrd	r2, r3, [sp, #16]
   82788:	f001 f8aa 	bl	838e0 <__kernel_sin>
   8278c:	e7ea      	b.n	82764 <cos+0x1c>
   8278e:	2200      	movs	r2, #0
   82790:	2300      	movs	r3, #0
   82792:	f000 fba1 	bl	82ed8 <__kernel_cos>
   82796:	b006      	add	sp, #24
   82798:	bd70      	pop	{r4, r5, r6, pc}
   8279a:	e9dd 0102 	ldrd	r0, r1, [sp, #8]
   8279e:	e9dd 2304 	ldrd	r2, r3, [sp, #16]
   827a2:	f000 fb99 	bl	82ed8 <__kernel_cos>
   827a6:	f101 4100 	add.w	r1, r1, #2147483648	; 0x80000000
   827aa:	b006      	add	sp, #24
   827ac:	bd70      	pop	{r4, r5, r6, pc}
   827ae:	9000      	str	r0, [sp, #0]
   827b0:	e9dd 2304 	ldrd	r2, r3, [sp, #16]
   827b4:	e9dd 0102 	ldrd	r0, r1, [sp, #8]
   827b8:	f001 f892 	bl	838e0 <__kernel_sin>
   827bc:	e7f3      	b.n	827a6 <cos+0x5e>
   827be:	e9dd 0102 	ldrd	r0, r1, [sp, #8]
   827c2:	e9dd 2304 	ldrd	r2, r3, [sp, #16]
   827c6:	f000 fb87 	bl	82ed8 <__kernel_cos>
   827ca:	e7cb      	b.n	82764 <cos+0x1c>
   827cc:	3fe921fb 	.word	0x3fe921fb
   827d0:	7fefffff 	.word	0x7fefffff

000827d4 <sin>:
   827d4:	b570      	push	{r4, r5, r6, lr}
   827d6:	4e22      	ldr	r6, [pc, #136]	; (82860 <sin+0x8c>)
   827d8:	f021 4400 	bic.w	r4, r1, #2147483648	; 0x80000000
   827dc:	42b4      	cmp	r4, r6
   827de:	b086      	sub	sp, #24
   827e0:	4602      	mov	r2, r0
   827e2:	460b      	mov	r3, r1
   827e4:	dd1a      	ble.n	8281c <sin+0x48>
   827e6:	4d1f      	ldr	r5, [pc, #124]	; (82864 <sin+0x90>)
   827e8:	42ac      	cmp	r4, r5
   827ea:	dd03      	ble.n	827f4 <sin+0x20>
   827ec:	f001 fa7e 	bl	83cec <__aeabi_dsub>
   827f0:	b006      	add	sp, #24
   827f2:	bd70      	pop	{r4, r5, r6, pc}
   827f4:	aa02      	add	r2, sp, #8
   827f6:	f000 f88f 	bl	82918 <__ieee754_rem_pio2>
   827fa:	f000 0003 	and.w	r0, r0, #3
   827fe:	2801      	cmp	r0, #1
   82800:	d01d      	beq.n	8283e <sin+0x6a>
   82802:	2802      	cmp	r0, #2
   82804:	d012      	beq.n	8282c <sin+0x58>
   82806:	b308      	cbz	r0, 8284c <sin+0x78>
   82808:	e9dd 0102 	ldrd	r0, r1, [sp, #8]
   8280c:	e9dd 2304 	ldrd	r2, r3, [sp, #16]
   82810:	f000 fb62 	bl	82ed8 <__kernel_cos>
   82814:	f101 4100 	add.w	r1, r1, #2147483648	; 0x80000000
   82818:	b006      	add	sp, #24
   8281a:	bd70      	pop	{r4, r5, r6, pc}
   8281c:	2300      	movs	r3, #0
   8281e:	9300      	str	r3, [sp, #0]
   82820:	2200      	movs	r2, #0
   82822:	2300      	movs	r3, #0
   82824:	f001 f85c 	bl	838e0 <__kernel_sin>
   82828:	b006      	add	sp, #24
   8282a:	bd70      	pop	{r4, r5, r6, pc}
   8282c:	2301      	movs	r3, #1
   8282e:	9300      	str	r3, [sp, #0]
   82830:	e9dd 0102 	ldrd	r0, r1, [sp, #8]
   82834:	e9dd 2304 	ldrd	r2, r3, [sp, #16]
   82838:	f001 f852 	bl	838e0 <__kernel_sin>
   8283c:	e7ea      	b.n	82814 <sin+0x40>
   8283e:	e9dd 0102 	ldrd	r0, r1, [sp, #8]
   82842:	e9dd 2304 	ldrd	r2, r3, [sp, #16]
   82846:	f000 fb47 	bl	82ed8 <__kernel_cos>
   8284a:	e7d1      	b.n	827f0 <sin+0x1c>
   8284c:	2301      	movs	r3, #1
   8284e:	9300      	str	r3, [sp, #0]
   82850:	e9dd 0102 	ldrd	r0, r1, [sp, #8]
   82854:	e9dd 2304 	ldrd	r2, r3, [sp, #16]
   82858:	f001 f842 	bl	838e0 <__kernel_sin>
   8285c:	e7c8      	b.n	827f0 <sin+0x1c>
   8285e:	bf00      	nop
   82860:	3fe921fb 	.word	0x3fe921fb
   82864:	7fefffff 	.word	0x7fefffff

00082868 <sqrt>:
   82868:	e92d 47f0 	stmdb	sp!, {r4, r5, r6, r7, r8, r9, sl, lr}
   8286c:	b08a      	sub	sp, #40	; 0x28
   8286e:	4604      	mov	r4, r0
   82870:	460d      	mov	r5, r1
   82872:	f000 fa71 	bl	82d58 <__ieee754_sqrt>
   82876:	f8df a098 	ldr.w	sl, [pc, #152]	; 82910 <sqrt+0xa8>
   8287a:	4606      	mov	r6, r0
   8287c:	f99a 3000 	ldrsb.w	r3, [sl]
   82880:	460f      	mov	r7, r1
   82882:	3301      	adds	r3, #1
   82884:	d00f      	beq.n	828a6 <sqrt+0x3e>
   82886:	4620      	mov	r0, r4
   82888:	4629      	mov	r1, r5
   8288a:	f001 f975 	bl	83b78 <__fpclassifyd>
   8288e:	b150      	cbz	r0, 828a6 <sqrt+0x3e>
   82890:	f04f 0800 	mov.w	r8, #0
   82894:	f04f 0900 	mov.w	r9, #0
   82898:	4642      	mov	r2, r8
   8289a:	464b      	mov	r3, r9
   8289c:	4620      	mov	r0, r4
   8289e:	4629      	mov	r1, r5
   828a0:	f001 fe4a 	bl	84538 <__aeabi_dcmplt>
   828a4:	b920      	cbnz	r0, 828b0 <sqrt+0x48>
   828a6:	4630      	mov	r0, r6
   828a8:	4639      	mov	r1, r7
   828aa:	b00a      	add	sp, #40	; 0x28
   828ac:	e8bd 87f0 	ldmia.w	sp!, {r4, r5, r6, r7, r8, r9, sl, pc}
   828b0:	4916      	ldr	r1, [pc, #88]	; (8290c <sqrt+0xa4>)
   828b2:	f89a 6000 	ldrb.w	r6, [sl]
   828b6:	2201      	movs	r2, #1
   828b8:	2300      	movs	r3, #0
   828ba:	e9cd 4504 	strd	r4, r5, [sp, #16]
   828be:	e9cd 4502 	strd	r4, r5, [sp, #8]
   828c2:	9101      	str	r1, [sp, #4]
   828c4:	9200      	str	r2, [sp, #0]
   828c6:	9308      	str	r3, [sp, #32]
   828c8:	b966      	cbnz	r6, 828e4 <sqrt+0x7c>
   828ca:	e9cd 8906 	strd	r8, r9, [sp, #24]
   828ce:	4668      	mov	r0, sp
   828d0:	f001 f97a 	bl	83bc8 <matherr>
   828d4:	b180      	cbz	r0, 828f8 <sqrt+0x90>
   828d6:	9b08      	ldr	r3, [sp, #32]
   828d8:	b99b      	cbnz	r3, 82902 <sqrt+0x9a>
   828da:	e9dd 0106 	ldrd	r0, r1, [sp, #24]
   828de:	b00a      	add	sp, #40	; 0x28
   828e0:	e8bd 87f0 	ldmia.w	sp!, {r4, r5, r6, r7, r8, r9, sl, pc}
   828e4:	4640      	mov	r0, r8
   828e6:	4649      	mov	r1, r9
   828e8:	4642      	mov	r2, r8
   828ea:	464b      	mov	r3, r9
   828ec:	f001 fcdc 	bl	842a8 <__aeabi_ddiv>
   828f0:	2e02      	cmp	r6, #2
   828f2:	e9cd 0106 	strd	r0, r1, [sp, #24]
   828f6:	d1ea      	bne.n	828ce <sqrt+0x66>
   828f8:	f002 f91c 	bl	84b34 <__errno>
   828fc:	2321      	movs	r3, #33	; 0x21
   828fe:	6003      	str	r3, [r0, #0]
   82900:	e7e9      	b.n	828d6 <sqrt+0x6e>
   82902:	f002 f917 	bl	84b34 <__errno>
   82906:	9b08      	ldr	r3, [sp, #32]
   82908:	6003      	str	r3, [r0, #0]
   8290a:	e7e6      	b.n	828da <sqrt+0x72>
   8290c:	0008a898 	.word	0x0008a898
   82910:	2007014a 	.word	0x2007014a
   82914:	00000000 	.word	0x00000000

00082918 <__ieee754_rem_pio2>:
   82918:	e92d 4ff0 	stmdb	sp!, {r4, r5, r6, r7, r8, r9, sl, fp, lr}
   8291c:	4b96      	ldr	r3, [pc, #600]	; (82b78 <__ieee754_rem_pio2+0x260>)
   8291e:	f021 4600 	bic.w	r6, r1, #2147483648	; 0x80000000
   82922:	429e      	cmp	r6, r3
   82924:	b091      	sub	sp, #68	; 0x44
   82926:	4604      	mov	r4, r0
   82928:	460d      	mov	r5, r1
   8292a:	468b      	mov	fp, r1
   8292c:	4690      	mov	r8, r2
   8292e:	f340 8081 	ble.w	82a34 <__ieee754_rem_pio2+0x11c>
   82932:	4b92      	ldr	r3, [pc, #584]	; (82b7c <__ieee754_rem_pio2+0x264>)
   82934:	429e      	cmp	r6, r3
   82936:	dc26      	bgt.n	82986 <__ieee754_rem_pio2+0x6e>
   82938:	a385      	add	r3, pc, #532	; (adr r3, 82b50 <__ieee754_rem_pio2+0x238>)
   8293a:	e9d3 2300 	ldrd	r2, r3, [r3]
   8293e:	2900      	cmp	r1, #0
   82940:	f340 81a0 	ble.w	82c84 <__ieee754_rem_pio2+0x36c>
   82944:	f001 f9d2 	bl	83cec <__aeabi_dsub>
   82948:	4b8d      	ldr	r3, [pc, #564]	; (82b80 <__ieee754_rem_pio2+0x268>)
   8294a:	4604      	mov	r4, r0
   8294c:	429e      	cmp	r6, r3
   8294e:	460d      	mov	r5, r1
   82950:	f000 8085 	beq.w	82a5e <__ieee754_rem_pio2+0x146>
   82954:	a380      	add	r3, pc, #512	; (adr r3, 82b58 <__ieee754_rem_pio2+0x240>)
   82956:	e9d3 2300 	ldrd	r2, r3, [r3]
   8295a:	f001 f9c7 	bl	83cec <__aeabi_dsub>
   8295e:	4602      	mov	r2, r0
   82960:	460b      	mov	r3, r1
   82962:	e9c8 2300 	strd	r2, r3, [r8]
   82966:	4620      	mov	r0, r4
   82968:	4629      	mov	r1, r5
   8296a:	f001 f9bf 	bl	83cec <__aeabi_dsub>
   8296e:	a37a      	add	r3, pc, #488	; (adr r3, 82b58 <__ieee754_rem_pio2+0x240>)
   82970:	e9d3 2300 	ldrd	r2, r3, [r3]
   82974:	f001 f9ba 	bl	83cec <__aeabi_dsub>
   82978:	2701      	movs	r7, #1
   8297a:	e9c8 0102 	strd	r0, r1, [r8, #8]
   8297e:	4638      	mov	r0, r7
   82980:	b011      	add	sp, #68	; 0x44
   82982:	e8bd 8ff0 	ldmia.w	sp!, {r4, r5, r6, r7, r8, r9, sl, fp, pc}
   82986:	4b7f      	ldr	r3, [pc, #508]	; (82b84 <__ieee754_rem_pio2+0x26c>)
   82988:	429e      	cmp	r6, r3
   8298a:	f340 8085 	ble.w	82a98 <__ieee754_rem_pio2+0x180>
   8298e:	4b7e      	ldr	r3, [pc, #504]	; (82b88 <__ieee754_rem_pio2+0x270>)
   82990:	429e      	cmp	r6, r3
   82992:	dc5a      	bgt.n	82a4a <__ieee754_rem_pio2+0x132>
   82994:	ea4f 5926 	mov.w	r9, r6, asr #20
   82998:	f2a9 4916 	subw	r9, r9, #1046	; 0x416
   8299c:	eba6 5509 	sub.w	r5, r6, r9, lsl #20
   829a0:	4629      	mov	r1, r5
   829a2:	4604      	mov	r4, r0
   829a4:	f001 fdf0 	bl	84588 <__aeabi_d2iz>
   829a8:	f001 faee 	bl	83f88 <__aeabi_i2d>
   829ac:	4606      	mov	r6, r0
   829ae:	460f      	mov	r7, r1
   829b0:	4602      	mov	r2, r0
   829b2:	460b      	mov	r3, r1
   829b4:	4620      	mov	r0, r4
   829b6:	4629      	mov	r1, r5
   829b8:	e9cd 670a 	strd	r6, r7, [sp, #40]	; 0x28
   829bc:	f001 f996 	bl	83cec <__aeabi_dsub>
   829c0:	2200      	movs	r2, #0
   829c2:	4b72      	ldr	r3, [pc, #456]	; (82b8c <__ieee754_rem_pio2+0x274>)
   829c4:	f001 fb46 	bl	84054 <__aeabi_dmul>
   829c8:	460f      	mov	r7, r1
   829ca:	4606      	mov	r6, r0
   829cc:	f001 fddc 	bl	84588 <__aeabi_d2iz>
   829d0:	f001 fada 	bl	83f88 <__aeabi_i2d>
   829d4:	4602      	mov	r2, r0
   829d6:	460b      	mov	r3, r1
   829d8:	4604      	mov	r4, r0
   829da:	460d      	mov	r5, r1
   829dc:	4630      	mov	r0, r6
   829de:	4639      	mov	r1, r7
   829e0:	e9cd 450c 	strd	r4, r5, [sp, #48]	; 0x30
   829e4:	f001 f982 	bl	83cec <__aeabi_dsub>
   829e8:	2200      	movs	r2, #0
   829ea:	4b68      	ldr	r3, [pc, #416]	; (82b8c <__ieee754_rem_pio2+0x274>)
   829ec:	f001 fb32 	bl	84054 <__aeabi_dmul>
   829f0:	2200      	movs	r2, #0
   829f2:	2300      	movs	r3, #0
   829f4:	e9cd 010e 	strd	r0, r1, [sp, #56]	; 0x38
   829f8:	f001 fd94 	bl	84524 <__aeabi_dcmpeq>
   829fc:	2800      	cmp	r0, #0
   829fe:	f000 816d 	beq.w	82cdc <__ieee754_rem_pio2+0x3c4>
   82a02:	2300      	movs	r3, #0
   82a04:	4620      	mov	r0, r4
   82a06:	4629      	mov	r1, r5
   82a08:	2200      	movs	r2, #0
   82a0a:	f001 fd8b 	bl	84524 <__aeabi_dcmpeq>
   82a0e:	2800      	cmp	r0, #0
   82a10:	bf14      	ite	ne
   82a12:	2301      	movne	r3, #1
   82a14:	2302      	moveq	r3, #2
   82a16:	485e      	ldr	r0, [pc, #376]	; (82b90 <__ieee754_rem_pio2+0x278>)
   82a18:	2102      	movs	r1, #2
   82a1a:	9001      	str	r0, [sp, #4]
   82a1c:	9100      	str	r1, [sp, #0]
   82a1e:	464a      	mov	r2, r9
   82a20:	a80a      	add	r0, sp, #40	; 0x28
   82a22:	4641      	mov	r1, r8
   82a24:	f000 fb7c 	bl	83120 <__kernel_rem_pio2>
   82a28:	f1bb 0f00 	cmp.w	fp, #0
   82a2c:	f2c0 8148 	blt.w	82cc0 <__ieee754_rem_pio2+0x3a8>
   82a30:	4607      	mov	r7, r0
   82a32:	e006      	b.n	82a42 <__ieee754_rem_pio2+0x12a>
   82a34:	2200      	movs	r2, #0
   82a36:	2300      	movs	r3, #0
   82a38:	e9c8 4500 	strd	r4, r5, [r8]
   82a3c:	e9c8 2302 	strd	r2, r3, [r8, #8]
   82a40:	2700      	movs	r7, #0
   82a42:	4638      	mov	r0, r7
   82a44:	b011      	add	sp, #68	; 0x44
   82a46:	e8bd 8ff0 	ldmia.w	sp!, {r4, r5, r6, r7, r8, r9, sl, fp, pc}
   82a4a:	4602      	mov	r2, r0
   82a4c:	460b      	mov	r3, r1
   82a4e:	f001 f94d 	bl	83cec <__aeabi_dsub>
   82a52:	2700      	movs	r7, #0
   82a54:	e9c8 0102 	strd	r0, r1, [r8, #8]
   82a58:	e9c8 0100 	strd	r0, r1, [r8]
   82a5c:	e7f1      	b.n	82a42 <__ieee754_rem_pio2+0x12a>
   82a5e:	a340      	add	r3, pc, #256	; (adr r3, 82b60 <__ieee754_rem_pio2+0x248>)
   82a60:	e9d3 2300 	ldrd	r2, r3, [r3]
   82a64:	f001 f942 	bl	83cec <__aeabi_dsub>
   82a68:	a33f      	add	r3, pc, #252	; (adr r3, 82b68 <__ieee754_rem_pio2+0x250>)
   82a6a:	e9d3 2300 	ldrd	r2, r3, [r3]
   82a6e:	4604      	mov	r4, r0
   82a70:	460d      	mov	r5, r1
   82a72:	f001 f93b 	bl	83cec <__aeabi_dsub>
   82a76:	4602      	mov	r2, r0
   82a78:	460b      	mov	r3, r1
   82a7a:	e9c8 2300 	strd	r2, r3, [r8]
   82a7e:	4620      	mov	r0, r4
   82a80:	4629      	mov	r1, r5
   82a82:	f001 f933 	bl	83cec <__aeabi_dsub>
   82a86:	a338      	add	r3, pc, #224	; (adr r3, 82b68 <__ieee754_rem_pio2+0x250>)
   82a88:	e9d3 2300 	ldrd	r2, r3, [r3]
   82a8c:	f001 f92e 	bl	83cec <__aeabi_dsub>
   82a90:	2701      	movs	r7, #1
   82a92:	e9c8 0102 	strd	r0, r1, [r8, #8]
   82a96:	e7d4      	b.n	82a42 <__ieee754_rem_pio2+0x12a>
   82a98:	f000 ffda 	bl	83a50 <fabs>
   82a9c:	a334      	add	r3, pc, #208	; (adr r3, 82b70 <__ieee754_rem_pio2+0x258>)
   82a9e:	e9d3 2300 	ldrd	r2, r3, [r3]
   82aa2:	4604      	mov	r4, r0
   82aa4:	460d      	mov	r5, r1
   82aa6:	f001 fad5 	bl	84054 <__aeabi_dmul>
   82aaa:	2200      	movs	r2, #0
   82aac:	4b39      	ldr	r3, [pc, #228]	; (82b94 <__ieee754_rem_pio2+0x27c>)
   82aae:	f001 f91f 	bl	83cf0 <__adddf3>
   82ab2:	f001 fd69 	bl	84588 <__aeabi_d2iz>
   82ab6:	4607      	mov	r7, r0
   82ab8:	f001 fa66 	bl	83f88 <__aeabi_i2d>
   82abc:	a324      	add	r3, pc, #144	; (adr r3, 82b50 <__ieee754_rem_pio2+0x238>)
   82abe:	e9d3 2300 	ldrd	r2, r3, [r3]
   82ac2:	e9cd 0106 	strd	r0, r1, [sp, #24]
   82ac6:	f001 fac5 	bl	84054 <__aeabi_dmul>
   82aca:	4602      	mov	r2, r0
   82acc:	460b      	mov	r3, r1
   82ace:	4620      	mov	r0, r4
   82ad0:	4629      	mov	r1, r5
   82ad2:	f001 f90b 	bl	83cec <__aeabi_dsub>
   82ad6:	a320      	add	r3, pc, #128	; (adr r3, 82b58 <__ieee754_rem_pio2+0x240>)
   82ad8:	e9d3 2300 	ldrd	r2, r3, [r3]
   82adc:	e9cd 0102 	strd	r0, r1, [sp, #8]
   82ae0:	e9dd 0106 	ldrd	r0, r1, [sp, #24]
   82ae4:	f001 fab6 	bl	84054 <__aeabi_dmul>
   82ae8:	2f1f      	cmp	r7, #31
   82aea:	e9cd 0104 	strd	r0, r1, [sp, #16]
   82aee:	e9dd 0102 	ldrd	r0, r1, [sp, #8]
   82af2:	dc53      	bgt.n	82b9c <__ieee754_rem_pio2+0x284>
   82af4:	4b28      	ldr	r3, [pc, #160]	; (82b98 <__ieee754_rem_pio2+0x280>)
   82af6:	1e7a      	subs	r2, r7, #1
   82af8:	f853 3022 	ldr.w	r3, [r3, r2, lsl #2]
   82afc:	42b3      	cmp	r3, r6
   82afe:	d04d      	beq.n	82b9c <__ieee754_rem_pio2+0x284>
   82b00:	e9dd 2304 	ldrd	r2, r3, [sp, #16]
   82b04:	f001 f8f2 	bl	83cec <__aeabi_dsub>
   82b08:	4604      	mov	r4, r0
   82b0a:	460d      	mov	r5, r1
   82b0c:	e9c8 4500 	strd	r4, r5, [r8]
   82b10:	e9dd 0102 	ldrd	r0, r1, [sp, #8]
   82b14:	4622      	mov	r2, r4
   82b16:	462b      	mov	r3, r5
   82b18:	f001 f8e8 	bl	83cec <__aeabi_dsub>
   82b1c:	e9dd 2304 	ldrd	r2, r3, [sp, #16]
   82b20:	f001 f8e4 	bl	83cec <__aeabi_dsub>
   82b24:	f1bb 0f00 	cmp.w	fp, #0
   82b28:	e9c8 0102 	strd	r0, r1, [r8, #8]
   82b2c:	da89      	bge.n	82a42 <__ieee754_rem_pio2+0x12a>
   82b2e:	4626      	mov	r6, r4
   82b30:	f101 4300 	add.w	r3, r1, #2147483648	; 0x80000000
   82b34:	f105 4400 	add.w	r4, r5, #2147483648	; 0x80000000
   82b38:	427f      	negs	r7, r7
   82b3a:	f8c8 6000 	str.w	r6, [r8]
   82b3e:	f8c8 4004 	str.w	r4, [r8, #4]
   82b42:	f8c8 0008 	str.w	r0, [r8, #8]
   82b46:	f8c8 300c 	str.w	r3, [r8, #12]
   82b4a:	e77a      	b.n	82a42 <__ieee754_rem_pio2+0x12a>
   82b4c:	f3af 8000 	nop.w
   82b50:	54400000 	.word	0x54400000
   82b54:	3ff921fb 	.word	0x3ff921fb
   82b58:	1a626331 	.word	0x1a626331
   82b5c:	3dd0b461 	.word	0x3dd0b461
   82b60:	1a600000 	.word	0x1a600000
   82b64:	3dd0b461 	.word	0x3dd0b461
   82b68:	2e037073 	.word	0x2e037073
   82b6c:	3ba3198a 	.word	0x3ba3198a
   82b70:	6dc9c883 	.word	0x6dc9c883
   82b74:	3fe45f30 	.word	0x3fe45f30
   82b78:	3fe921fb 	.word	0x3fe921fb
   82b7c:	4002d97b 	.word	0x4002d97b
   82b80:	3ff921fb 	.word	0x3ff921fb
   82b84:	413921fb 	.word	0x413921fb
   82b88:	7fefffff 	.word	0x7fefffff
   82b8c:	41700000 	.word	0x41700000
   82b90:	0008a920 	.word	0x0008a920
   82b94:	3fe00000 	.word	0x3fe00000
   82b98:	0008a8a0 	.word	0x0008a8a0
   82b9c:	e9dd 2304 	ldrd	r2, r3, [sp, #16]
   82ba0:	f001 f8a4 	bl	83cec <__aeabi_dsub>
   82ba4:	1536      	asrs	r6, r6, #20
   82ba6:	f3c1 530a 	ubfx	r3, r1, #20, #11
   82baa:	1af3      	subs	r3, r6, r3
   82bac:	4604      	mov	r4, r0
   82bae:	460d      	mov	r5, r1
   82bb0:	2b10      	cmp	r3, #16
   82bb2:	e9c8 4500 	strd	r4, r5, [r8]
   82bb6:	ddab      	ble.n	82b10 <__ieee754_rem_pio2+0x1f8>
   82bb8:	a35b      	add	r3, pc, #364	; (adr r3, 82d28 <__ieee754_rem_pio2+0x410>)
   82bba:	e9d3 2300 	ldrd	r2, r3, [r3]
   82bbe:	e9dd 0106 	ldrd	r0, r1, [sp, #24]
   82bc2:	f001 fa47 	bl	84054 <__aeabi_dmul>
   82bc6:	4604      	mov	r4, r0
   82bc8:	460d      	mov	r5, r1
   82bca:	4622      	mov	r2, r4
   82bcc:	462b      	mov	r3, r5
   82bce:	e9dd 0102 	ldrd	r0, r1, [sp, #8]
   82bd2:	f001 f88b 	bl	83cec <__aeabi_dsub>
   82bd6:	e9cd 0108 	strd	r0, r1, [sp, #32]
   82bda:	e9dd 2308 	ldrd	r2, r3, [sp, #32]
   82bde:	e9dd 0102 	ldrd	r0, r1, [sp, #8]
   82be2:	f001 f883 	bl	83cec <__aeabi_dsub>
   82be6:	4622      	mov	r2, r4
   82be8:	462b      	mov	r3, r5
   82bea:	f001 f87f 	bl	83cec <__aeabi_dsub>
   82bee:	a350      	add	r3, pc, #320	; (adr r3, 82d30 <__ieee754_rem_pio2+0x418>)
   82bf0:	e9d3 2300 	ldrd	r2, r3, [r3]
   82bf4:	4604      	mov	r4, r0
   82bf6:	460d      	mov	r5, r1
   82bf8:	e9dd 0106 	ldrd	r0, r1, [sp, #24]
   82bfc:	f001 fa2a 	bl	84054 <__aeabi_dmul>
   82c00:	4622      	mov	r2, r4
   82c02:	462b      	mov	r3, r5
   82c04:	f001 f872 	bl	83cec <__aeabi_dsub>
   82c08:	e9cd 0104 	strd	r0, r1, [sp, #16]
   82c0c:	e9dd 2304 	ldrd	r2, r3, [sp, #16]
   82c10:	e9dd 0108 	ldrd	r0, r1, [sp, #32]
   82c14:	f001 f86a 	bl	83cec <__aeabi_dsub>
   82c18:	f3c1 530a 	ubfx	r3, r1, #20, #11
   82c1c:	1af6      	subs	r6, r6, r3
   82c1e:	4604      	mov	r4, r0
   82c20:	460d      	mov	r5, r1
   82c22:	2e31      	cmp	r6, #49	; 0x31
   82c24:	e9c8 4500 	strd	r4, r5, [r8]
   82c28:	dd78      	ble.n	82d1c <__ieee754_rem_pio2+0x404>
   82c2a:	a343      	add	r3, pc, #268	; (adr r3, 82d38 <__ieee754_rem_pio2+0x420>)
   82c2c:	e9d3 2300 	ldrd	r2, r3, [r3]
   82c30:	e9dd 0106 	ldrd	r0, r1, [sp, #24]
   82c34:	f001 fa0e 	bl	84054 <__aeabi_dmul>
   82c38:	4604      	mov	r4, r0
   82c3a:	460d      	mov	r5, r1
   82c3c:	4622      	mov	r2, r4
   82c3e:	462b      	mov	r3, r5
   82c40:	e9dd 0108 	ldrd	r0, r1, [sp, #32]
   82c44:	f001 f852 	bl	83cec <__aeabi_dsub>
   82c48:	e9cd 0102 	strd	r0, r1, [sp, #8]
   82c4c:	e9dd 2302 	ldrd	r2, r3, [sp, #8]
   82c50:	e9dd 0108 	ldrd	r0, r1, [sp, #32]
   82c54:	f001 f84a 	bl	83cec <__aeabi_dsub>
   82c58:	4622      	mov	r2, r4
   82c5a:	462b      	mov	r3, r5
   82c5c:	f001 f846 	bl	83cec <__aeabi_dsub>
   82c60:	a337      	add	r3, pc, #220	; (adr r3, 82d40 <__ieee754_rem_pio2+0x428>)
   82c62:	e9d3 2300 	ldrd	r2, r3, [r3]
   82c66:	4604      	mov	r4, r0
   82c68:	460d      	mov	r5, r1
   82c6a:	e9dd 0106 	ldrd	r0, r1, [sp, #24]
   82c6e:	f001 f9f1 	bl	84054 <__aeabi_dmul>
   82c72:	4622      	mov	r2, r4
   82c74:	462b      	mov	r3, r5
   82c76:	f001 f839 	bl	83cec <__aeabi_dsub>
   82c7a:	e9cd 0104 	strd	r0, r1, [sp, #16]
   82c7e:	e9dd 0102 	ldrd	r0, r1, [sp, #8]
   82c82:	e73d      	b.n	82b00 <__ieee754_rem_pio2+0x1e8>
   82c84:	f001 f834 	bl	83cf0 <__adddf3>
   82c88:	4b31      	ldr	r3, [pc, #196]	; (82d50 <__ieee754_rem_pio2+0x438>)
   82c8a:	4604      	mov	r4, r0
   82c8c:	429e      	cmp	r6, r3
   82c8e:	460d      	mov	r5, r1
   82c90:	d026      	beq.n	82ce0 <__ieee754_rem_pio2+0x3c8>
   82c92:	a32d      	add	r3, pc, #180	; (adr r3, 82d48 <__ieee754_rem_pio2+0x430>)
   82c94:	e9d3 2300 	ldrd	r2, r3, [r3]
   82c98:	f001 f82a 	bl	83cf0 <__adddf3>
   82c9c:	4602      	mov	r2, r0
   82c9e:	460b      	mov	r3, r1
   82ca0:	e9c8 2300 	strd	r2, r3, [r8]
   82ca4:	4620      	mov	r0, r4
   82ca6:	4629      	mov	r1, r5
   82ca8:	f001 f820 	bl	83cec <__aeabi_dsub>
   82cac:	a326      	add	r3, pc, #152	; (adr r3, 82d48 <__ieee754_rem_pio2+0x430>)
   82cae:	e9d3 2300 	ldrd	r2, r3, [r3]
   82cb2:	f001 f81d 	bl	83cf0 <__adddf3>
   82cb6:	f04f 37ff 	mov.w	r7, #4294967295
   82cba:	e9c8 0102 	strd	r0, r1, [r8, #8]
   82cbe:	e6c0      	b.n	82a42 <__ieee754_rem_pio2+0x12a>
   82cc0:	f8d8 2004 	ldr.w	r2, [r8, #4]
   82cc4:	f8d8 300c 	ldr.w	r3, [r8, #12]
   82cc8:	f102 4200 	add.w	r2, r2, #2147483648	; 0x80000000
   82ccc:	f103 4300 	add.w	r3, r3, #2147483648	; 0x80000000
   82cd0:	4247      	negs	r7, r0
   82cd2:	f8c8 2004 	str.w	r2, [r8, #4]
   82cd6:	f8c8 300c 	str.w	r3, [r8, #12]
   82cda:	e6b2      	b.n	82a42 <__ieee754_rem_pio2+0x12a>
   82cdc:	2303      	movs	r3, #3
   82cde:	e69a      	b.n	82a16 <__ieee754_rem_pio2+0xfe>
   82ce0:	a311      	add	r3, pc, #68	; (adr r3, 82d28 <__ieee754_rem_pio2+0x410>)
   82ce2:	e9d3 2300 	ldrd	r2, r3, [r3]
   82ce6:	f001 f803 	bl	83cf0 <__adddf3>
   82cea:	a311      	add	r3, pc, #68	; (adr r3, 82d30 <__ieee754_rem_pio2+0x418>)
   82cec:	e9d3 2300 	ldrd	r2, r3, [r3]
   82cf0:	4604      	mov	r4, r0
   82cf2:	460d      	mov	r5, r1
   82cf4:	f000 fffc 	bl	83cf0 <__adddf3>
   82cf8:	4602      	mov	r2, r0
   82cfa:	460b      	mov	r3, r1
   82cfc:	e9c8 2300 	strd	r2, r3, [r8]
   82d00:	4620      	mov	r0, r4
   82d02:	4629      	mov	r1, r5
   82d04:	f000 fff2 	bl	83cec <__aeabi_dsub>
   82d08:	a309      	add	r3, pc, #36	; (adr r3, 82d30 <__ieee754_rem_pio2+0x418>)
   82d0a:	e9d3 2300 	ldrd	r2, r3, [r3]
   82d0e:	f000 ffef 	bl	83cf0 <__adddf3>
   82d12:	f04f 37ff 	mov.w	r7, #4294967295
   82d16:	e9c8 0102 	strd	r0, r1, [r8, #8]
   82d1a:	e692      	b.n	82a42 <__ieee754_rem_pio2+0x12a>
   82d1c:	e9dd 2308 	ldrd	r2, r3, [sp, #32]
   82d20:	e9cd 2302 	strd	r2, r3, [sp, #8]
   82d24:	e6f4      	b.n	82b10 <__ieee754_rem_pio2+0x1f8>
   82d26:	bf00      	nop
   82d28:	1a600000 	.word	0x1a600000
   82d2c:	3dd0b461 	.word	0x3dd0b461
   82d30:	2e037073 	.word	0x2e037073
   82d34:	3ba3198a 	.word	0x3ba3198a
   82d38:	2e000000 	.word	0x2e000000
   82d3c:	3ba3198a 	.word	0x3ba3198a
   82d40:	252049c1 	.word	0x252049c1
   82d44:	397b839a 	.word	0x397b839a
   82d48:	1a626331 	.word	0x1a626331
   82d4c:	3dd0b461 	.word	0x3dd0b461
   82d50:	3ff921fb 	.word	0x3ff921fb
   82d54:	f3af 8000 	nop.w

00082d58 <__ieee754_sqrt>:
   82d58:	f021 4c00 	bic.w	ip, r1, #2147483648	; 0x80000000
   82d5c:	e92d 43f8 	stmdb	sp!, {r3, r4, r5, r6, r7, r8, r9, lr}
   82d60:	ea4f 5c1c 	mov.w	ip, ip, lsr #20
   82d64:	f8df 816c 	ldr.w	r8, [pc, #364]	; 82ed4 <__ieee754_sqrt+0x17c>
   82d68:	ea4f 5c0c 	mov.w	ip, ip, lsl #20
   82d6c:	45c4      	cmp	ip, r8
   82d6e:	4606      	mov	r6, r0
   82d70:	460f      	mov	r7, r1
   82d72:	460b      	mov	r3, r1
   82d74:	4602      	mov	r2, r0
   82d76:	f000 808f 	beq.w	82e98 <__ieee754_sqrt+0x140>
   82d7a:	2900      	cmp	r1, #0
   82d7c:	dd6f      	ble.n	82e5e <__ieee754_sqrt+0x106>
   82d7e:	150f      	asrs	r7, r1, #20
   82d80:	d078      	beq.n	82e74 <__ieee754_sqrt+0x11c>
   82d82:	f2a7 37ff 	subw	r7, r7, #1023	; 0x3ff
   82d86:	f3c3 0313 	ubfx	r3, r3, #0, #20
   82d8a:	07f9      	lsls	r1, r7, #31
   82d8c:	f443 1380 	orr.w	r3, r3, #1048576	; 0x100000
   82d90:	d460      	bmi.n	82e54 <__ieee754_sqrt+0xfc>
   82d92:	0fd1      	lsrs	r1, r2, #31
   82d94:	f04f 0c00 	mov.w	ip, #0
   82d98:	eb01 0343 	add.w	r3, r1, r3, lsl #1
   82d9c:	107f      	asrs	r7, r7, #1
   82d9e:	0052      	lsls	r2, r2, #1
   82da0:	4665      	mov	r5, ip
   82da2:	2016      	movs	r0, #22
   82da4:	f44f 1100 	mov.w	r1, #2097152	; 0x200000
   82da8:	186c      	adds	r4, r5, r1
   82daa:	429c      	cmp	r4, r3
   82dac:	ea4f 76d2 	mov.w	r6, r2, lsr #31
   82db0:	ea4f 0242 	mov.w	r2, r2, lsl #1
   82db4:	dc02      	bgt.n	82dbc <__ieee754_sqrt+0x64>
   82db6:	1b1b      	subs	r3, r3, r4
   82db8:	1865      	adds	r5, r4, r1
   82dba:	448c      	add	ip, r1
   82dbc:	3801      	subs	r0, #1
   82dbe:	eb06 0343 	add.w	r3, r6, r3, lsl #1
   82dc2:	ea4f 0151 	mov.w	r1, r1, lsr #1
   82dc6:	d1ef      	bne.n	82da8 <__ieee754_sqrt+0x50>
   82dc8:	4680      	mov	r8, r0
   82dca:	2620      	movs	r6, #32
   82dcc:	f04f 4100 	mov.w	r1, #2147483648	; 0x80000000
   82dd0:	e009      	b.n	82de6 <__ieee754_sqrt+0x8e>
   82dd2:	d023      	beq.n	82e1c <__ieee754_sqrt+0xc4>
   82dd4:	0fd4      	lsrs	r4, r2, #31
   82dd6:	3e01      	subs	r6, #1
   82dd8:	ea4f 0151 	mov.w	r1, r1, lsr #1
   82ddc:	eb04 0343 	add.w	r3, r4, r3, lsl #1
   82de0:	ea4f 0242 	mov.w	r2, r2, lsl #1
   82de4:	d01e      	beq.n	82e24 <__ieee754_sqrt+0xcc>
   82de6:	42ab      	cmp	r3, r5
   82de8:	eb01 0408 	add.w	r4, r1, r8
   82dec:	ddf1      	ble.n	82dd2 <__ieee754_sqrt+0x7a>
   82dee:	f004 4900 	and.w	r9, r4, #2147483648	; 0x80000000
   82df2:	f1b9 4f00 	cmp.w	r9, #2147483648	; 0x80000000
   82df6:	eb04 0801 	add.w	r8, r4, r1
   82dfa:	d009      	beq.n	82e10 <__ieee754_sqrt+0xb8>
   82dfc:	46a9      	mov	r9, r5
   82dfe:	1b5b      	subs	r3, r3, r5
   82e00:	4294      	cmp	r4, r2
   82e02:	bf88      	it	hi
   82e04:	f103 33ff 	addhi.w	r3, r3, #4294967295
   82e08:	1b12      	subs	r2, r2, r4
   82e0a:	4408      	add	r0, r1
   82e0c:	464d      	mov	r5, r9
   82e0e:	e7e1      	b.n	82dd4 <__ieee754_sqrt+0x7c>
   82e10:	f1b8 0f00 	cmp.w	r8, #0
   82e14:	dbf2      	blt.n	82dfc <__ieee754_sqrt+0xa4>
   82e16:	f105 0901 	add.w	r9, r5, #1
   82e1a:	e7f0      	b.n	82dfe <__ieee754_sqrt+0xa6>
   82e1c:	4294      	cmp	r4, r2
   82e1e:	d9e6      	bls.n	82dee <__ieee754_sqrt+0x96>
   82e20:	461d      	mov	r5, r3
   82e22:	e7d7      	b.n	82dd4 <__ieee754_sqrt+0x7c>
   82e24:	431a      	orrs	r2, r3
   82e26:	d004      	beq.n	82e32 <__ieee754_sqrt+0xda>
   82e28:	1c43      	adds	r3, r0, #1
   82e2a:	d041      	beq.n	82eb0 <__ieee754_sqrt+0x158>
   82e2c:	f000 0301 	and.w	r3, r0, #1
   82e30:	4418      	add	r0, r3
   82e32:	0846      	lsrs	r6, r0, #1
   82e34:	ea4f 036c 	mov.w	r3, ip, asr #1
   82e38:	f01c 0f01 	tst.w	ip, #1
   82e3c:	f103 537f 	add.w	r3, r3, #1069547520	; 0x3fc00000
   82e40:	f503 1300 	add.w	r3, r3, #2097152	; 0x200000
   82e44:	bf18      	it	ne
   82e46:	f046 4600 	orrne.w	r6, r6, #2147483648	; 0x80000000
   82e4a:	eb03 5107 	add.w	r1, r3, r7, lsl #20
   82e4e:	4630      	mov	r0, r6
   82e50:	e8bd 83f8 	ldmia.w	sp!, {r3, r4, r5, r6, r7, r8, r9, pc}
   82e54:	0fd1      	lsrs	r1, r2, #31
   82e56:	eb01 0343 	add.w	r3, r1, r3, lsl #1
   82e5a:	0052      	lsls	r2, r2, #1
   82e5c:	e799      	b.n	82d92 <__ieee754_sqrt+0x3a>
   82e5e:	f021 4300 	bic.w	r3, r1, #2147483648	; 0x80000000
   82e62:	4303      	orrs	r3, r0
   82e64:	d022      	beq.n	82eac <__ieee754_sqrt+0x154>
   82e66:	bb51      	cbnz	r1, 82ebe <__ieee754_sqrt+0x166>
   82e68:	460f      	mov	r7, r1
   82e6a:	0ad3      	lsrs	r3, r2, #11
   82e6c:	3f15      	subs	r7, #21
   82e6e:	0552      	lsls	r2, r2, #21
   82e70:	2b00      	cmp	r3, #0
   82e72:	d0fa      	beq.n	82e6a <__ieee754_sqrt+0x112>
   82e74:	f413 1180 	ands.w	r1, r3, #1048576	; 0x100000
   82e78:	d11d      	bne.n	82eb6 <__ieee754_sqrt+0x15e>
   82e7a:	005b      	lsls	r3, r3, #1
   82e7c:	02d8      	lsls	r0, r3, #11
   82e7e:	f101 0101 	add.w	r1, r1, #1
   82e82:	d5fa      	bpl.n	82e7a <__ieee754_sqrt+0x122>
   82e84:	f1c1 0001 	rsb	r0, r1, #1
   82e88:	f1c1 0420 	rsb	r4, r1, #32
   82e8c:	fa22 f404 	lsr.w	r4, r2, r4
   82e90:	4407      	add	r7, r0
   82e92:	408a      	lsls	r2, r1
   82e94:	4323      	orrs	r3, r4
   82e96:	e774      	b.n	82d82 <__ieee754_sqrt+0x2a>
   82e98:	4602      	mov	r2, r0
   82e9a:	460b      	mov	r3, r1
   82e9c:	f001 f8da 	bl	84054 <__aeabi_dmul>
   82ea0:	4632      	mov	r2, r6
   82ea2:	463b      	mov	r3, r7
   82ea4:	f000 ff24 	bl	83cf0 <__adddf3>
   82ea8:	e8bd 83f8 	ldmia.w	sp!, {r3, r4, r5, r6, r7, r8, r9, pc}
   82eac:	e8bd 83f8 	ldmia.w	sp!, {r3, r4, r5, r6, r7, r8, r9, pc}
   82eb0:	f10c 0c01 	add.w	ip, ip, #1
   82eb4:	e7be      	b.n	82e34 <__ieee754_sqrt+0xdc>
   82eb6:	2420      	movs	r4, #32
   82eb8:	2001      	movs	r0, #1
   82eba:	2100      	movs	r1, #0
   82ebc:	e7e6      	b.n	82e8c <__ieee754_sqrt+0x134>
   82ebe:	4602      	mov	r2, r0
   82ec0:	460b      	mov	r3, r1
   82ec2:	f000 ff13 	bl	83cec <__aeabi_dsub>
   82ec6:	4602      	mov	r2, r0
   82ec8:	460b      	mov	r3, r1
   82eca:	f001 f9ed 	bl	842a8 <__aeabi_ddiv>
   82ece:	e8bd 83f8 	ldmia.w	sp!, {r3, r4, r5, r6, r7, r8, r9, pc}
   82ed2:	bf00      	nop
   82ed4:	7ff00000 	.word	0x7ff00000

00082ed8 <__kernel_cos>:
   82ed8:	e92d 4ff0 	stmdb	sp!, {r4, r5, r6, r7, r8, r9, sl, fp, lr}
   82edc:	f021 4900 	bic.w	r9, r1, #2147483648	; 0x80000000
   82ee0:	f1b9 5f79 	cmp.w	r9, #1044381696	; 0x3e400000
   82ee4:	b085      	sub	sp, #20
   82ee6:	4606      	mov	r6, r0
   82ee8:	460f      	mov	r7, r1
   82eea:	4692      	mov	sl, r2
   82eec:	469b      	mov	fp, r3
   82eee:	da6b      	bge.n	82fc8 <__kernel_cos+0xf0>
   82ef0:	f001 fb4a 	bl	84588 <__aeabi_d2iz>
   82ef4:	2800      	cmp	r0, #0
   82ef6:	f000 80ea 	beq.w	830ce <__kernel_cos+0x1f6>
   82efa:	4632      	mov	r2, r6
   82efc:	463b      	mov	r3, r7
   82efe:	4630      	mov	r0, r6
   82f00:	4639      	mov	r1, r7
   82f02:	f001 f8a7 	bl	84054 <__aeabi_dmul>
   82f06:	a374      	add	r3, pc, #464	; (adr r3, 830d8 <__kernel_cos+0x200>)
   82f08:	e9d3 2300 	ldrd	r2, r3, [r3]
   82f0c:	4604      	mov	r4, r0
   82f0e:	460d      	mov	r5, r1
   82f10:	f001 f8a0 	bl	84054 <__aeabi_dmul>
   82f14:	a372      	add	r3, pc, #456	; (adr r3, 830e0 <__kernel_cos+0x208>)
   82f16:	e9d3 2300 	ldrd	r2, r3, [r3]
   82f1a:	f000 fee9 	bl	83cf0 <__adddf3>
   82f1e:	4622      	mov	r2, r4
   82f20:	462b      	mov	r3, r5
   82f22:	f001 f897 	bl	84054 <__aeabi_dmul>
   82f26:	a370      	add	r3, pc, #448	; (adr r3, 830e8 <__kernel_cos+0x210>)
   82f28:	e9d3 2300 	ldrd	r2, r3, [r3]
   82f2c:	f000 fede 	bl	83cec <__aeabi_dsub>
   82f30:	4622      	mov	r2, r4
   82f32:	462b      	mov	r3, r5
   82f34:	f001 f88e 	bl	84054 <__aeabi_dmul>
   82f38:	a36d      	add	r3, pc, #436	; (adr r3, 830f0 <__kernel_cos+0x218>)
   82f3a:	e9d3 2300 	ldrd	r2, r3, [r3]
   82f3e:	f000 fed7 	bl	83cf0 <__adddf3>
   82f42:	4622      	mov	r2, r4
   82f44:	462b      	mov	r3, r5
   82f46:	f001 f885 	bl	84054 <__aeabi_dmul>
   82f4a:	a36b      	add	r3, pc, #428	; (adr r3, 830f8 <__kernel_cos+0x220>)
   82f4c:	e9d3 2300 	ldrd	r2, r3, [r3]
   82f50:	f000 fecc 	bl	83cec <__aeabi_dsub>
   82f54:	4622      	mov	r2, r4
   82f56:	462b      	mov	r3, r5
   82f58:	f001 f87c 	bl	84054 <__aeabi_dmul>
   82f5c:	a368      	add	r3, pc, #416	; (adr r3, 83100 <__kernel_cos+0x228>)
   82f5e:	e9d3 2300 	ldrd	r2, r3, [r3]
   82f62:	f000 fec5 	bl	83cf0 <__adddf3>
   82f66:	4622      	mov	r2, r4
   82f68:	462b      	mov	r3, r5
   82f6a:	f001 f873 	bl	84054 <__aeabi_dmul>
   82f6e:	e9cd 0100 	strd	r0, r1, [sp]
   82f72:	4620      	mov	r0, r4
   82f74:	4629      	mov	r1, r5
   82f76:	2200      	movs	r2, #0
   82f78:	4b63      	ldr	r3, [pc, #396]	; (83108 <__kernel_cos+0x230>)
   82f7a:	f001 f86b 	bl	84054 <__aeabi_dmul>
   82f7e:	e9dd 2300 	ldrd	r2, r3, [sp]
   82f82:	4680      	mov	r8, r0
   82f84:	4689      	mov	r9, r1
   82f86:	4620      	mov	r0, r4
   82f88:	4629      	mov	r1, r5
   82f8a:	f001 f863 	bl	84054 <__aeabi_dmul>
   82f8e:	4652      	mov	r2, sl
   82f90:	4604      	mov	r4, r0
   82f92:	460d      	mov	r5, r1
   82f94:	465b      	mov	r3, fp
   82f96:	4630      	mov	r0, r6
   82f98:	4639      	mov	r1, r7
   82f9a:	f001 f85b 	bl	84054 <__aeabi_dmul>
   82f9e:	4602      	mov	r2, r0
   82fa0:	460b      	mov	r3, r1
   82fa2:	4620      	mov	r0, r4
   82fa4:	4629      	mov	r1, r5
   82fa6:	f000 fea1 	bl	83cec <__aeabi_dsub>
   82faa:	4602      	mov	r2, r0
   82fac:	460b      	mov	r3, r1
   82fae:	4640      	mov	r0, r8
   82fb0:	4649      	mov	r1, r9
   82fb2:	f000 fe9b 	bl	83cec <__aeabi_dsub>
   82fb6:	4602      	mov	r2, r0
   82fb8:	460b      	mov	r3, r1
   82fba:	2000      	movs	r0, #0
   82fbc:	4953      	ldr	r1, [pc, #332]	; (8310c <__kernel_cos+0x234>)
   82fbe:	f000 fe95 	bl	83cec <__aeabi_dsub>
   82fc2:	b005      	add	sp, #20
   82fc4:	e8bd 8ff0 	ldmia.w	sp!, {r4, r5, r6, r7, r8, r9, sl, fp, pc}
   82fc8:	4602      	mov	r2, r0
   82fca:	460b      	mov	r3, r1
   82fcc:	f001 f842 	bl	84054 <__aeabi_dmul>
   82fd0:	a341      	add	r3, pc, #260	; (adr r3, 830d8 <__kernel_cos+0x200>)
   82fd2:	e9d3 2300 	ldrd	r2, r3, [r3]
   82fd6:	4604      	mov	r4, r0
   82fd8:	460d      	mov	r5, r1
   82fda:	f001 f83b 	bl	84054 <__aeabi_dmul>
   82fde:	a340      	add	r3, pc, #256	; (adr r3, 830e0 <__kernel_cos+0x208>)
   82fe0:	e9d3 2300 	ldrd	r2, r3, [r3]
   82fe4:	f000 fe84 	bl	83cf0 <__adddf3>
   82fe8:	4622      	mov	r2, r4
   82fea:	462b      	mov	r3, r5
   82fec:	f001 f832 	bl	84054 <__aeabi_dmul>
   82ff0:	a33d      	add	r3, pc, #244	; (adr r3, 830e8 <__kernel_cos+0x210>)
   82ff2:	e9d3 2300 	ldrd	r2, r3, [r3]
   82ff6:	f000 fe79 	bl	83cec <__aeabi_dsub>
   82ffa:	4622      	mov	r2, r4
   82ffc:	462b      	mov	r3, r5
   82ffe:	f001 f829 	bl	84054 <__aeabi_dmul>
   83002:	a33b      	add	r3, pc, #236	; (adr r3, 830f0 <__kernel_cos+0x218>)
   83004:	e9d3 2300 	ldrd	r2, r3, [r3]
   83008:	f000 fe72 	bl	83cf0 <__adddf3>
   8300c:	4622      	mov	r2, r4
   8300e:	462b      	mov	r3, r5
   83010:	f001 f820 	bl	84054 <__aeabi_dmul>
   83014:	a338      	add	r3, pc, #224	; (adr r3, 830f8 <__kernel_cos+0x220>)
   83016:	e9d3 2300 	ldrd	r2, r3, [r3]
   8301a:	f000 fe67 	bl	83cec <__aeabi_dsub>
   8301e:	4622      	mov	r2, r4
   83020:	462b      	mov	r3, r5
   83022:	f001 f817 	bl	84054 <__aeabi_dmul>
   83026:	a336      	add	r3, pc, #216	; (adr r3, 83100 <__kernel_cos+0x228>)
   83028:	e9d3 2300 	ldrd	r2, r3, [r3]
   8302c:	f000 fe60 	bl	83cf0 <__adddf3>
   83030:	462b      	mov	r3, r5
   83032:	4622      	mov	r2, r4
   83034:	f001 f80e 	bl	84054 <__aeabi_dmul>
   83038:	4b35      	ldr	r3, [pc, #212]	; (83110 <__kernel_cos+0x238>)
   8303a:	e9cd 0100 	strd	r0, r1, [sp]
   8303e:	4599      	cmp	r9, r3
   83040:	dd97      	ble.n	82f72 <__kernel_cos+0x9a>
   83042:	4b34      	ldr	r3, [pc, #208]	; (83114 <__kernel_cos+0x23c>)
   83044:	2200      	movs	r2, #0
   83046:	4599      	cmp	r9, r3
   83048:	dc39      	bgt.n	830be <__kernel_cos+0x1e6>
   8304a:	f5a9 1300 	sub.w	r3, r9, #2097152	; 0x200000
   8304e:	2200      	movs	r2, #0
   83050:	2000      	movs	r0, #0
   83052:	492e      	ldr	r1, [pc, #184]	; (8310c <__kernel_cos+0x234>)
   83054:	4690      	mov	r8, r2
   83056:	4699      	mov	r9, r3
   83058:	f000 fe48 	bl	83cec <__aeabi_dsub>
   8305c:	e9cd 0102 	strd	r0, r1, [sp, #8]
   83060:	4620      	mov	r0, r4
   83062:	4629      	mov	r1, r5
   83064:	2200      	movs	r2, #0
   83066:	4b28      	ldr	r3, [pc, #160]	; (83108 <__kernel_cos+0x230>)
   83068:	f000 fff4 	bl	84054 <__aeabi_dmul>
   8306c:	4642      	mov	r2, r8
   8306e:	464b      	mov	r3, r9
   83070:	f000 fe3c 	bl	83cec <__aeabi_dsub>
   83074:	e9dd 2300 	ldrd	r2, r3, [sp]
   83078:	4680      	mov	r8, r0
   8307a:	4689      	mov	r9, r1
   8307c:	4620      	mov	r0, r4
   8307e:	4629      	mov	r1, r5
   83080:	f000 ffe8 	bl	84054 <__aeabi_dmul>
   83084:	4652      	mov	r2, sl
   83086:	4604      	mov	r4, r0
   83088:	460d      	mov	r5, r1
   8308a:	465b      	mov	r3, fp
   8308c:	4630      	mov	r0, r6
   8308e:	4639      	mov	r1, r7
   83090:	f000 ffe0 	bl	84054 <__aeabi_dmul>
   83094:	4602      	mov	r2, r0
   83096:	460b      	mov	r3, r1
   83098:	4620      	mov	r0, r4
   8309a:	4629      	mov	r1, r5
   8309c:	f000 fe26 	bl	83cec <__aeabi_dsub>
   830a0:	4602      	mov	r2, r0
   830a2:	460b      	mov	r3, r1
   830a4:	4640      	mov	r0, r8
   830a6:	4649      	mov	r1, r9
   830a8:	f000 fe20 	bl	83cec <__aeabi_dsub>
   830ac:	4602      	mov	r2, r0
   830ae:	460b      	mov	r3, r1
   830b0:	e9dd 0102 	ldrd	r0, r1, [sp, #8]
   830b4:	f000 fe1a 	bl	83cec <__aeabi_dsub>
   830b8:	b005      	add	sp, #20
   830ba:	e8bd 8ff0 	ldmia.w	sp!, {r4, r5, r6, r7, r8, r9, sl, fp, pc}
   830be:	4b16      	ldr	r3, [pc, #88]	; (83118 <__kernel_cos+0x240>)
   830c0:	f04f 0800 	mov.w	r8, #0
   830c4:	e9cd 2302 	strd	r2, r3, [sp, #8]
   830c8:	f8df 9050 	ldr.w	r9, [pc, #80]	; 8311c <__kernel_cos+0x244>
   830cc:	e7c8      	b.n	83060 <__kernel_cos+0x188>
   830ce:	490f      	ldr	r1, [pc, #60]	; (8310c <__kernel_cos+0x234>)
   830d0:	2000      	movs	r0, #0
   830d2:	b005      	add	sp, #20
   830d4:	e8bd 8ff0 	ldmia.w	sp!, {r4, r5, r6, r7, r8, r9, sl, fp, pc}
   830d8:	be8838d4 	.word	0xbe8838d4
   830dc:	bda8fae9 	.word	0xbda8fae9
   830e0:	bdb4b1c4 	.word	0xbdb4b1c4
   830e4:	3e21ee9e 	.word	0x3e21ee9e
   830e8:	809c52ad 	.word	0x809c52ad
   830ec:	3e927e4f 	.word	0x3e927e4f
   830f0:	19cb1590 	.word	0x19cb1590
   830f4:	3efa01a0 	.word	0x3efa01a0
   830f8:	16c15177 	.word	0x16c15177
   830fc:	3f56c16c 	.word	0x3f56c16c
   83100:	5555554c 	.word	0x5555554c
   83104:	3fa55555 	.word	0x3fa55555
   83108:	3fe00000 	.word	0x3fe00000
   8310c:	3ff00000 	.word	0x3ff00000
   83110:	3fd33332 	.word	0x3fd33332
   83114:	3fe90000 	.word	0x3fe90000
   83118:	3fe70000 	.word	0x3fe70000
   8311c:	3fd20000 	.word	0x3fd20000

00083120 <__kernel_rem_pio2>:
   83120:	e92d 4ff0 	stmdb	sp!, {r4, r5, r6, r7, r8, r9, sl, fp, lr}
   83124:	4d7b      	ldr	r5, [pc, #492]	; (83314 <__kernel_rem_pio2+0x1f4>)
   83126:	1ed4      	subs	r4, r2, #3
   83128:	fb85 6504 	smull	r6, r5, r5, r4
   8312c:	17e4      	asrs	r4, r4, #31
   8312e:	ebc4 05a5 	rsb	r5, r4, r5, asr #2
   83132:	f5ad 7d1d 	sub.w	sp, sp, #628	; 0x274
   83136:	ea25 75e5 	bic.w	r5, r5, r5, asr #31
   8313a:	950e      	str	r5, [sp, #56]	; 0x38
   8313c:	4699      	mov	r9, r3
   8313e:	4c76      	ldr	r4, [pc, #472]	; (83318 <__kernel_rem_pio2+0x1f8>)
   83140:	43eb      	mvns	r3, r5
   83142:	9da6      	ldr	r5, [sp, #664]	; 0x298
   83144:	f109 36ff 	add.w	r6, r9, #4294967295
   83148:	f854 4025 	ldr.w	r4, [r4, r5, lsl #2]
   8314c:	9604      	str	r6, [sp, #16]
   8314e:	940c      	str	r4, [sp, #48]	; 0x30
   83150:	9007      	str	r0, [sp, #28]
   83152:	9c0e      	ldr	r4, [sp, #56]	; 0x38
   83154:	9d04      	ldr	r5, [sp, #16]
   83156:	980c      	ldr	r0, [sp, #48]	; 0x30
   83158:	eb03 0343 	add.w	r3, r3, r3, lsl #1
   8315c:	eb02 03c3 	add.w	r3, r2, r3, lsl #3
   83160:	1ba6      	subs	r6, r4, r6
   83162:	182c      	adds	r4, r5, r0
   83164:	910b      	str	r1, [sp, #44]	; 0x2c
   83166:	930a      	str	r3, [sp, #40]	; 0x28
   83168:	d417      	bmi.n	8319a <__kernel_rem_pio2+0x7a>
   8316a:	98a7      	ldr	r0, [sp, #668]	; 0x29c
   8316c:	4434      	add	r4, r6
   8316e:	3401      	adds	r4, #1
   83170:	f10d 0888 	add.w	r8, sp, #136	; 0x88
   83174:	eb00 0586 	add.w	r5, r0, r6, lsl #2
   83178:	2700      	movs	r7, #0
   8317a:	e009      	b.n	83190 <__kernel_rem_pio2+0x70>
   8317c:	59e8      	ldr	r0, [r5, r7]
   8317e:	f000 ff03 	bl	83f88 <__aeabi_i2d>
   83182:	3601      	adds	r6, #1
   83184:	42a6      	cmp	r6, r4
   83186:	e9e8 0102 	strd	r0, r1, [r8, #8]!
   8318a:	f107 0704 	add.w	r7, r7, #4
   8318e:	d004      	beq.n	8319a <__kernel_rem_pio2+0x7a>
   83190:	2e00      	cmp	r6, #0
   83192:	daf3      	bge.n	8317c <__kernel_rem_pio2+0x5c>
   83194:	2000      	movs	r0, #0
   83196:	2100      	movs	r1, #0
   83198:	e7f3      	b.n	83182 <__kernel_rem_pio2+0x62>
   8319a:	9c0c      	ldr	r4, [sp, #48]	; 0x30
   8319c:	2c00      	cmp	r4, #0
   8319e:	db2d      	blt.n	831fc <__kernel_rem_pio2+0xdc>
   831a0:	9d0c      	ldr	r5, [sp, #48]	; 0x30
   831a2:	ae74      	add	r6, sp, #464	; 0x1d0
   831a4:	eb06 0bc5 	add.w	fp, r6, r5, lsl #3
   831a8:	a824      	add	r0, sp, #144	; 0x90
   831aa:	eb00 0ac9 	add.w	sl, r0, r9, lsl #3
   831ae:	f50d 78e4 	add.w	r8, sp, #456	; 0x1c8
   831b2:	f8cd b00c 	str.w	fp, [sp, #12]
   831b6:	9c04      	ldr	r4, [sp, #16]
   831b8:	2c00      	cmp	r4, #0
   831ba:	f2c0 8195 	blt.w	834e8 <__kernel_rem_pio2+0x3c8>
   831be:	9d07      	ldr	r5, [sp, #28]
   831c0:	4657      	mov	r7, sl
   831c2:	f1a5 0b08 	sub.w	fp, r5, #8
   831c6:	2400      	movs	r4, #0
   831c8:	2500      	movs	r5, #0
   831ca:	2600      	movs	r6, #0
   831cc:	e977 2302 	ldrd	r2, r3, [r7, #-8]!
   831d0:	e9fb 0102 	ldrd	r0, r1, [fp, #8]!
   831d4:	f000 ff3e 	bl	84054 <__aeabi_dmul>
   831d8:	4602      	mov	r2, r0
   831da:	460b      	mov	r3, r1
   831dc:	4620      	mov	r0, r4
   831de:	4629      	mov	r1, r5
   831e0:	f000 fd86 	bl	83cf0 <__adddf3>
   831e4:	3601      	adds	r6, #1
   831e6:	454e      	cmp	r6, r9
   831e8:	4604      	mov	r4, r0
   831ea:	460d      	mov	r5, r1
   831ec:	d1ee      	bne.n	831cc <__kernel_rem_pio2+0xac>
   831ee:	e9e8 4502 	strd	r4, r5, [r8, #8]!
   831f2:	9c03      	ldr	r4, [sp, #12]
   831f4:	f10a 0a08 	add.w	sl, sl, #8
   831f8:	45a0      	cmp	r8, r4
   831fa:	d1dc      	bne.n	831b6 <__kernel_rem_pio2+0x96>
   831fc:	9d0c      	ldr	r5, [sp, #48]	; 0x30
   831fe:	ac10      	add	r4, sp, #64	; 0x40
   83200:	eb04 0685 	add.w	r6, r4, r5, lsl #2
   83204:	9402      	str	r4, [sp, #8]
   83206:	960f      	str	r6, [sp, #60]	; 0x3c
   83208:	9503      	str	r5, [sp, #12]
   8320a:	9e03      	ldr	r6, [sp, #12]
   8320c:	ab9c      	add	r3, sp, #624	; 0x270
   8320e:	00f6      	lsls	r6, r6, #3
   83210:	4433      	add	r3, r6
   83212:	9606      	str	r6, [sp, #24]
   83214:	9e03      	ldr	r6, [sp, #12]
   83216:	e953 4528 	ldrd	r4, r5, [r3, #-160]	; 0xa0
   8321a:	2e00      	cmp	r6, #0
   8321c:	dd2e      	ble.n	8327c <__kernel_rem_pio2+0x15c>
   8321e:	9e06      	ldr	r6, [sp, #24]
   83220:	f50d 7ae8 	add.w	sl, sp, #464	; 0x1d0
   83224:	44b2      	add	sl, r6
   83226:	9e03      	ldr	r6, [sp, #12]
   83228:	f10d 0b3c 	add.w	fp, sp, #60	; 0x3c
   8322c:	eb0b 0b86 	add.w	fp, fp, r6, lsl #2
   83230:	f10d 083c 	add.w	r8, sp, #60	; 0x3c
   83234:	2200      	movs	r2, #0
   83236:	4b39      	ldr	r3, [pc, #228]	; (8331c <__kernel_rem_pio2+0x1fc>)
   83238:	4620      	mov	r0, r4
   8323a:	4629      	mov	r1, r5
   8323c:	f000 ff0a 	bl	84054 <__aeabi_dmul>
   83240:	f001 f9a2 	bl	84588 <__aeabi_d2iz>
   83244:	f000 fea0 	bl	83f88 <__aeabi_i2d>
   83248:	2200      	movs	r2, #0
   8324a:	4b35      	ldr	r3, [pc, #212]	; (83320 <__kernel_rem_pio2+0x200>)
   8324c:	4606      	mov	r6, r0
   8324e:	460f      	mov	r7, r1
   83250:	f000 ff00 	bl	84054 <__aeabi_dmul>
   83254:	4602      	mov	r2, r0
   83256:	460b      	mov	r3, r1
   83258:	4620      	mov	r0, r4
   8325a:	4629      	mov	r1, r5
   8325c:	f000 fd46 	bl	83cec <__aeabi_dsub>
   83260:	f001 f992 	bl	84588 <__aeabi_d2iz>
   83264:	4632      	mov	r2, r6
   83266:	f848 0f04 	str.w	r0, [r8, #4]!
   8326a:	463b      	mov	r3, r7
   8326c:	e97a 0102 	ldrd	r0, r1, [sl, #-8]!
   83270:	f000 fd3e 	bl	83cf0 <__adddf3>
   83274:	45d8      	cmp	r8, fp
   83276:	4604      	mov	r4, r0
   83278:	460d      	mov	r5, r1
   8327a:	d1db      	bne.n	83234 <__kernel_rem_pio2+0x114>
   8327c:	4620      	mov	r0, r4
   8327e:	4629      	mov	r1, r5
   83280:	9a0a      	ldr	r2, [sp, #40]	; 0x28
   83282:	f000 fca5 	bl	83bd0 <scalbn>
   83286:	2200      	movs	r2, #0
   83288:	f04f 537f 	mov.w	r3, #1069547520	; 0x3fc00000
   8328c:	4604      	mov	r4, r0
   8328e:	460d      	mov	r5, r1
   83290:	f000 fee0 	bl	84054 <__aeabi_dmul>
   83294:	f000 fbe0 	bl	83a58 <floor>
   83298:	2200      	movs	r2, #0
   8329a:	4b22      	ldr	r3, [pc, #136]	; (83324 <__kernel_rem_pio2+0x204>)
   8329c:	f000 feda 	bl	84054 <__aeabi_dmul>
   832a0:	4602      	mov	r2, r0
   832a2:	460b      	mov	r3, r1
   832a4:	4620      	mov	r0, r4
   832a6:	4629      	mov	r1, r5
   832a8:	f000 fd20 	bl	83cec <__aeabi_dsub>
   832ac:	4604      	mov	r4, r0
   832ae:	460d      	mov	r5, r1
   832b0:	f001 f96a 	bl	84588 <__aeabi_d2iz>
   832b4:	4682      	mov	sl, r0
   832b6:	f000 fe67 	bl	83f88 <__aeabi_i2d>
   832ba:	4602      	mov	r2, r0
   832bc:	460b      	mov	r3, r1
   832be:	4620      	mov	r0, r4
   832c0:	4629      	mov	r1, r5
   832c2:	f000 fd13 	bl	83cec <__aeabi_dsub>
   832c6:	9c0a      	ldr	r4, [sp, #40]	; 0x28
   832c8:	4606      	mov	r6, r0
   832ca:	2c00      	cmp	r4, #0
   832cc:	460f      	mov	r7, r1
   832ce:	f340 80f2 	ble.w	834b6 <__kernel_rem_pio2+0x396>
   832d2:	9d03      	ldr	r5, [sp, #12]
   832d4:	a810      	add	r0, sp, #64	; 0x40
   832d6:	1e69      	subs	r1, r5, #1
   832d8:	f850 3021 	ldr.w	r3, [r0, r1, lsl #2]
   832dc:	f1c4 0018 	rsb	r0, r4, #24
   832e0:	fa43 f200 	asr.w	r2, r3, r0
   832e4:	fa02 f000 	lsl.w	r0, r2, r0
   832e8:	f1c4 0517 	rsb	r5, r4, #23
   832ec:	1a1b      	subs	r3, r3, r0
   832ee:	fa43 f505 	asr.w	r5, r3, r5
   832f2:	ac10      	add	r4, sp, #64	; 0x40
   832f4:	f844 3021 	str.w	r3, [r4, r1, lsl #2]
   832f8:	4492      	add	sl, r2
   832fa:	2d00      	cmp	r5, #0
   832fc:	dd3e      	ble.n	8337c <__kernel_rem_pio2+0x25c>
   832fe:	9c03      	ldr	r4, [sp, #12]
   83300:	f10a 0a01 	add.w	sl, sl, #1
   83304:	2c00      	cmp	r4, #0
   83306:	f340 80f9 	ble.w	834fc <__kernel_rem_pio2+0x3dc>
   8330a:	ab10      	add	r3, sp, #64	; 0x40
   8330c:	eb03 0184 	add.w	r1, r3, r4, lsl #2
   83310:	2400      	movs	r4, #0
   83312:	e011      	b.n	83338 <__kernel_rem_pio2+0x218>
   83314:	2aaaaaab 	.word	0x2aaaaaab
   83318:	0008aa28 	.word	0x0008aa28
   8331c:	3e700000 	.word	0x3e700000
   83320:	41700000 	.word	0x41700000
   83324:	40200000 	.word	0x40200000
   83328:	f1c2 7080 	rsb	r0, r2, #16777216	; 0x1000000
   8332c:	b112      	cbz	r2, 83334 <__kernel_rem_pio2+0x214>
   8332e:	f843 0c04 	str.w	r0, [r3, #-4]
   83332:	2401      	movs	r4, #1
   83334:	428b      	cmp	r3, r1
   83336:	d00d      	beq.n	83354 <__kernel_rem_pio2+0x234>
   83338:	f853 2b04 	ldr.w	r2, [r3], #4
   8333c:	2c00      	cmp	r4, #0
   8333e:	d0f3      	beq.n	83328 <__kernel_rem_pio2+0x208>
   83340:	f1c2 12ff 	rsb	r2, r2, #16711935	; 0xff00ff
   83344:	f502 427f 	add.w	r2, r2, #65280	; 0xff00
   83348:	428b      	cmp	r3, r1
   8334a:	f843 2c04 	str.w	r2, [r3, #-4]
   8334e:	f04f 0401 	mov.w	r4, #1
   83352:	d1f1      	bne.n	83338 <__kernel_rem_pio2+0x218>
   83354:	980a      	ldr	r0, [sp, #40]	; 0x28
   83356:	2800      	cmp	r0, #0
   83358:	dd0d      	ble.n	83376 <__kernel_rem_pio2+0x256>
   8335a:	2801      	cmp	r0, #1
   8335c:	f000 80b3 	beq.w	834c6 <__kernel_rem_pio2+0x3a6>
   83360:	2802      	cmp	r0, #2
   83362:	d108      	bne.n	83376 <__kernel_rem_pio2+0x256>
   83364:	9903      	ldr	r1, [sp, #12]
   83366:	a810      	add	r0, sp, #64	; 0x40
   83368:	1e4b      	subs	r3, r1, #1
   8336a:	f850 2023 	ldr.w	r2, [r0, r3, lsl #2]
   8336e:	f3c2 0215 	ubfx	r2, r2, #0, #22
   83372:	f840 2023 	str.w	r2, [r0, r3, lsl #2]
   83376:	2d02      	cmp	r5, #2
   83378:	f000 8084 	beq.w	83484 <__kernel_rem_pio2+0x364>
   8337c:	4630      	mov	r0, r6
   8337e:	4639      	mov	r1, r7
   83380:	2200      	movs	r2, #0
   83382:	2300      	movs	r3, #0
   83384:	f001 f8ce 	bl	84524 <__aeabi_dcmpeq>
   83388:	2800      	cmp	r0, #0
   8338a:	f000 80b9 	beq.w	83500 <__kernel_rem_pio2+0x3e0>
   8338e:	9c03      	ldr	r4, [sp, #12]
   83390:	9e0c      	ldr	r6, [sp, #48]	; 0x30
   83392:	f104 38ff 	add.w	r8, r4, #4294967295
   83396:	4546      	cmp	r6, r8
   83398:	dc0d      	bgt.n	833b6 <__kernel_rem_pio2+0x296>
   8339a:	a810      	add	r0, sp, #64	; 0x40
   8339c:	eb00 0384 	add.w	r3, r0, r4, lsl #2
   833a0:	980f      	ldr	r0, [sp, #60]	; 0x3c
   833a2:	2200      	movs	r2, #0
   833a4:	f853 1d04 	ldr.w	r1, [r3, #-4]!
   833a8:	4283      	cmp	r3, r0
   833aa:	ea42 0201 	orr.w	r2, r2, r1
   833ae:	d1f9      	bne.n	833a4 <__kernel_rem_pio2+0x284>
   833b0:	2a00      	cmp	r2, #0
   833b2:	f040 8244 	bne.w	8383e <__kernel_rem_pio2+0x71e>
   833b6:	9c0c      	ldr	r4, [sp, #48]	; 0x30
   833b8:	ad10      	add	r5, sp, #64	; 0x40
   833ba:	1e62      	subs	r2, r4, #1
   833bc:	f855 3022 	ldr.w	r3, [r5, r2, lsl #2]
   833c0:	2b00      	cmp	r3, #0
   833c2:	f040 8254 	bne.w	8386e <__kernel_rem_pio2+0x74e>
   833c6:	eb05 0282 	add.w	r2, r5, r2, lsl #2
   833ca:	2301      	movs	r3, #1
   833cc:	f852 1d04 	ldr.w	r1, [r2, #-4]!
   833d0:	3301      	adds	r3, #1
   833d2:	2900      	cmp	r1, #0
   833d4:	d0fa      	beq.n	833cc <__kernel_rem_pio2+0x2ac>
   833d6:	9e03      	ldr	r6, [sp, #12]
   833d8:	9c03      	ldr	r4, [sp, #12]
   833da:	441e      	add	r6, r3
   833dc:	1c63      	adds	r3, r4, #1
   833de:	42b3      	cmp	r3, r6
   833e0:	960d      	str	r6, [sp, #52]	; 0x34
   833e2:	dc49      	bgt.n	83478 <__kernel_rem_pio2+0x358>
   833e4:	9d04      	ldr	r5, [sp, #16]
   833e6:	9e0e      	ldr	r6, [sp, #56]	; 0x38
   833e8:	442b      	add	r3, r5
   833ea:	4621      	mov	r1, r4
   833ec:	4622      	mov	r2, r4
   833ee:	9d0d      	ldr	r5, [sp, #52]	; 0x34
   833f0:	4432      	add	r2, r6
   833f2:	4449      	add	r1, r9
   833f4:	ae24      	add	r6, sp, #144	; 0x90
   833f6:	f103 3bff 	add.w	fp, r3, #4294967295
   833fa:	1b2b      	subs	r3, r5, r4
   833fc:	eb06 04c1 	add.w	r4, r6, r1, lsl #3
   83400:	9409      	str	r4, [sp, #36]	; 0x24
   83402:	9da7      	ldr	r5, [sp, #668]	; 0x29c
   83404:	9c06      	ldr	r4, [sp, #24]
   83406:	eb06 0bcb 	add.w	fp, r6, fp, lsl #3
   8340a:	ae74      	add	r6, sp, #464	; 0x1d0
   8340c:	eb05 0282 	add.w	r2, r5, r2, lsl #2
   83410:	00db      	lsls	r3, r3, #3
   83412:	4426      	add	r6, r4
   83414:	9203      	str	r2, [sp, #12]
   83416:	9308      	str	r3, [sp, #32]
   83418:	9606      	str	r6, [sp, #24]
   8341a:	f04f 0800 	mov.w	r8, #0
   8341e:	9d03      	ldr	r5, [sp, #12]
   83420:	f108 0808 	add.w	r8, r8, #8
   83424:	f855 0f04 	ldr.w	r0, [r5, #4]!
   83428:	9503      	str	r5, [sp, #12]
   8342a:	f000 fdad 	bl	83f88 <__aeabi_i2d>
   8342e:	9e04      	ldr	r6, [sp, #16]
   83430:	e9eb 0102 	strd	r0, r1, [fp, #8]!
   83434:	2e00      	cmp	r6, #0
   83436:	db22      	blt.n	8347e <__kernel_rem_pio2+0x35e>
   83438:	9c07      	ldr	r4, [sp, #28]
   8343a:	9f09      	ldr	r7, [sp, #36]	; 0x24
   8343c:	f1a4 0a08 	sub.w	sl, r4, #8
   83440:	4447      	add	r7, r8
   83442:	2400      	movs	r4, #0
   83444:	2500      	movs	r5, #0
   83446:	2600      	movs	r6, #0
   83448:	e977 2302 	ldrd	r2, r3, [r7, #-8]!
   8344c:	e9fa 0102 	ldrd	r0, r1, [sl, #8]!
   83450:	f000 fe00 	bl	84054 <__aeabi_dmul>
   83454:	4602      	mov	r2, r0
   83456:	460b      	mov	r3, r1
   83458:	4620      	mov	r0, r4
   8345a:	4629      	mov	r1, r5
   8345c:	f000 fc48 	bl	83cf0 <__adddf3>
   83460:	3601      	adds	r6, #1
   83462:	454e      	cmp	r6, r9
   83464:	4604      	mov	r4, r0
   83466:	460d      	mov	r5, r1
   83468:	d1ee      	bne.n	83448 <__kernel_rem_pio2+0x328>
   8346a:	9e06      	ldr	r6, [sp, #24]
   8346c:	e9e6 4502 	strd	r4, r5, [r6, #8]!
   83470:	9c08      	ldr	r4, [sp, #32]
   83472:	9606      	str	r6, [sp, #24]
   83474:	45a0      	cmp	r8, r4
   83476:	d1d2      	bne.n	8341e <__kernel_rem_pio2+0x2fe>
   83478:	9d0d      	ldr	r5, [sp, #52]	; 0x34
   8347a:	9503      	str	r5, [sp, #12]
   8347c:	e6c5      	b.n	8320a <__kernel_rem_pio2+0xea>
   8347e:	2400      	movs	r4, #0
   83480:	2500      	movs	r5, #0
   83482:	e7f2      	b.n	8346a <__kernel_rem_pio2+0x34a>
   83484:	4632      	mov	r2, r6
   83486:	463b      	mov	r3, r7
   83488:	2000      	movs	r0, #0
   8348a:	4992      	ldr	r1, [pc, #584]	; (836d4 <__kernel_rem_pio2+0x5b4>)
   8348c:	f000 fc2e 	bl	83cec <__aeabi_dsub>
   83490:	4606      	mov	r6, r0
   83492:	460f      	mov	r7, r1
   83494:	2c00      	cmp	r4, #0
   83496:	f43f af71 	beq.w	8337c <__kernel_rem_pio2+0x25c>
   8349a:	9a0a      	ldr	r2, [sp, #40]	; 0x28
   8349c:	2000      	movs	r0, #0
   8349e:	498d      	ldr	r1, [pc, #564]	; (836d4 <__kernel_rem_pio2+0x5b4>)
   834a0:	f000 fb96 	bl	83bd0 <scalbn>
   834a4:	4602      	mov	r2, r0
   834a6:	460b      	mov	r3, r1
   834a8:	4630      	mov	r0, r6
   834aa:	4639      	mov	r1, r7
   834ac:	f000 fc1e 	bl	83cec <__aeabi_dsub>
   834b0:	4606      	mov	r6, r0
   834b2:	460f      	mov	r7, r1
   834b4:	e762      	b.n	8337c <__kernel_rem_pio2+0x25c>
   834b6:	d110      	bne.n	834da <__kernel_rem_pio2+0x3ba>
   834b8:	9d03      	ldr	r5, [sp, #12]
   834ba:	a810      	add	r0, sp, #64	; 0x40
   834bc:	1e6b      	subs	r3, r5, #1
   834be:	f850 5023 	ldr.w	r5, [r0, r3, lsl #2]
   834c2:	15ed      	asrs	r5, r5, #23
   834c4:	e719      	b.n	832fa <__kernel_rem_pio2+0x1da>
   834c6:	9903      	ldr	r1, [sp, #12]
   834c8:	a810      	add	r0, sp, #64	; 0x40
   834ca:	1e4b      	subs	r3, r1, #1
   834cc:	f850 2023 	ldr.w	r2, [r0, r3, lsl #2]
   834d0:	f3c2 0216 	ubfx	r2, r2, #0, #23
   834d4:	f840 2023 	str.w	r2, [r0, r3, lsl #2]
   834d8:	e74d      	b.n	83376 <__kernel_rem_pio2+0x256>
   834da:	2200      	movs	r2, #0
   834dc:	4b7e      	ldr	r3, [pc, #504]	; (836d8 <__kernel_rem_pio2+0x5b8>)
   834de:	f001 f83f 	bl	84560 <__aeabi_dcmpge>
   834e2:	b920      	cbnz	r0, 834ee <__kernel_rem_pio2+0x3ce>
   834e4:	4605      	mov	r5, r0
   834e6:	e749      	b.n	8337c <__kernel_rem_pio2+0x25c>
   834e8:	2400      	movs	r4, #0
   834ea:	2500      	movs	r5, #0
   834ec:	e67f      	b.n	831ee <__kernel_rem_pio2+0xce>
   834ee:	9c03      	ldr	r4, [sp, #12]
   834f0:	2502      	movs	r5, #2
   834f2:	2c00      	cmp	r4, #0
   834f4:	f10a 0a01 	add.w	sl, sl, #1
   834f8:	f73f af07 	bgt.w	8330a <__kernel_rem_pio2+0x1ea>
   834fc:	2400      	movs	r4, #0
   834fe:	e729      	b.n	83354 <__kernel_rem_pio2+0x234>
   83500:	9c0a      	ldr	r4, [sp, #40]	; 0x28
   83502:	4630      	mov	r0, r6
   83504:	4262      	negs	r2, r4
   83506:	4639      	mov	r1, r7
   83508:	9506      	str	r5, [sp, #24]
   8350a:	f8cd a01c 	str.w	sl, [sp, #28]
   8350e:	f000 fb5f 	bl	83bd0 <scalbn>
   83512:	2200      	movs	r2, #0
   83514:	4b71      	ldr	r3, [pc, #452]	; (836dc <__kernel_rem_pio2+0x5bc>)
   83516:	4604      	mov	r4, r0
   83518:	460d      	mov	r5, r1
   8351a:	f001 f821 	bl	84560 <__aeabi_dcmpge>
   8351e:	2800      	cmp	r0, #0
   83520:	f000 81bb 	beq.w	8389a <__kernel_rem_pio2+0x77a>
   83524:	2200      	movs	r2, #0
   83526:	4b6e      	ldr	r3, [pc, #440]	; (836e0 <__kernel_rem_pio2+0x5c0>)
   83528:	4620      	mov	r0, r4
   8352a:	4629      	mov	r1, r5
   8352c:	f000 fd92 	bl	84054 <__aeabi_dmul>
   83530:	f001 f82a 	bl	84588 <__aeabi_d2iz>
   83534:	4606      	mov	r6, r0
   83536:	f000 fd27 	bl	83f88 <__aeabi_i2d>
   8353a:	2200      	movs	r2, #0
   8353c:	4b67      	ldr	r3, [pc, #412]	; (836dc <__kernel_rem_pio2+0x5bc>)
   8353e:	f000 fd89 	bl	84054 <__aeabi_dmul>
   83542:	4602      	mov	r2, r0
   83544:	460b      	mov	r3, r1
   83546:	4620      	mov	r0, r4
   83548:	4629      	mov	r1, r5
   8354a:	f000 fbcf 	bl	83cec <__aeabi_dsub>
   8354e:	f001 f81b 	bl	84588 <__aeabi_d2iz>
   83552:	9c03      	ldr	r4, [sp, #12]
   83554:	9d0a      	ldr	r5, [sp, #40]	; 0x28
   83556:	a910      	add	r1, sp, #64	; 0x40
   83558:	f104 0801 	add.w	r8, r4, #1
   8355c:	3518      	adds	r5, #24
   8355e:	f841 0024 	str.w	r0, [r1, r4, lsl #2]
   83562:	950a      	str	r5, [sp, #40]	; 0x28
   83564:	f841 6028 	str.w	r6, [r1, r8, lsl #2]
   83568:	9a0a      	ldr	r2, [sp, #40]	; 0x28
   8356a:	2000      	movs	r0, #0
   8356c:	4959      	ldr	r1, [pc, #356]	; (836d4 <__kernel_rem_pio2+0x5b4>)
   8356e:	f000 fb2f 	bl	83bd0 <scalbn>
   83572:	f1b8 0f00 	cmp.w	r8, #0
   83576:	4604      	mov	r4, r0
   83578:	460d      	mov	r5, r1
   8357a:	db5a      	blt.n	83632 <__kernel_rem_pio2+0x512>
   8357c:	f108 0601 	add.w	r6, r8, #1
   83580:	a810      	add	r0, sp, #64	; 0x40
   83582:	a974      	add	r1, sp, #464	; 0x1d0
   83584:	9603      	str	r6, [sp, #12]
   83586:	eb00 0786 	add.w	r7, r0, r6, lsl #2
   8358a:	eb01 06c6 	add.w	r6, r1, r6, lsl #3
   8358e:	f857 0d04 	ldr.w	r0, [r7, #-4]!
   83592:	f000 fcf9 	bl	83f88 <__aeabi_i2d>
   83596:	4622      	mov	r2, r4
   83598:	462b      	mov	r3, r5
   8359a:	f000 fd5b 	bl	84054 <__aeabi_dmul>
   8359e:	2200      	movs	r2, #0
   835a0:	e966 0102 	strd	r0, r1, [r6, #-8]!
   835a4:	4b4e      	ldr	r3, [pc, #312]	; (836e0 <__kernel_rem_pio2+0x5c0>)
   835a6:	4620      	mov	r0, r4
   835a8:	4629      	mov	r1, r5
   835aa:	f000 fd53 	bl	84054 <__aeabi_dmul>
   835ae:	9a02      	ldr	r2, [sp, #8]
   835b0:	4604      	mov	r4, r0
   835b2:	4297      	cmp	r7, r2
   835b4:	460d      	mov	r5, r1
   835b6:	d1ea      	bne.n	8358e <__kernel_rem_pio2+0x46e>
   835b8:	f108 5b00 	add.w	fp, r8, #536870912	; 0x20000000
   835bc:	f10b 3bff 	add.w	fp, fp, #4294967295
   835c0:	ab74      	add	r3, sp, #464	; 0x1d0
   835c2:	f50d 7a98 	add.w	sl, sp, #304	; 0x130
   835c6:	f8cd 8020 	str.w	r8, [sp, #32]
   835ca:	f8dd 8030 	ldr.w	r8, [sp, #48]	; 0x30
   835ce:	eb03 0bcb 	add.w	fp, r3, fp, lsl #3
   835d2:	f04f 0900 	mov.w	r9, #0
   835d6:	f8cd a010 	str.w	sl, [sp, #16]
   835da:	f1b8 0f00 	cmp.w	r8, #0
   835de:	f2c0 8128 	blt.w	83832 <__kernel_rem_pio2+0x712>
   835e2:	f8df a100 	ldr.w	sl, [pc, #256]	; 836e4 <__kernel_rem_pio2+0x5c4>
   835e6:	465f      	mov	r7, fp
   835e8:	2400      	movs	r4, #0
   835ea:	2500      	movs	r5, #0
   835ec:	2600      	movs	r6, #0
   835ee:	e001      	b.n	835f4 <__kernel_rem_pio2+0x4d4>
   835f0:	454e      	cmp	r6, r9
   835f2:	dc10      	bgt.n	83616 <__kernel_rem_pio2+0x4f6>
   835f4:	e9f7 2302 	ldrd	r2, r3, [r7, #8]!
   835f8:	e9fa 0102 	ldrd	r0, r1, [sl, #8]!
   835fc:	f000 fd2a 	bl	84054 <__aeabi_dmul>
   83600:	4602      	mov	r2, r0
   83602:	460b      	mov	r3, r1
   83604:	4620      	mov	r0, r4
   83606:	4629      	mov	r1, r5
   83608:	f000 fb72 	bl	83cf0 <__adddf3>
   8360c:	3601      	adds	r6, #1
   8360e:	45b0      	cmp	r8, r6
   83610:	4604      	mov	r4, r0
   83612:	460d      	mov	r5, r1
   83614:	daec      	bge.n	835f0 <__kernel_rem_pio2+0x4d0>
   83616:	9e04      	ldr	r6, [sp, #16]
   83618:	f1ab 0b08 	sub.w	fp, fp, #8
   8361c:	eb06 03c9 	add.w	r3, r6, r9, lsl #3
   83620:	e9c3 4500 	strd	r4, r5, [r3]
   83624:	9c03      	ldr	r4, [sp, #12]
   83626:	f109 0901 	add.w	r9, r9, #1
   8362a:	45a1      	cmp	r9, r4
   8362c:	d1d5      	bne.n	835da <__kernel_rem_pio2+0x4ba>
   8362e:	f8dd 8020 	ldr.w	r8, [sp, #32]
   83632:	9da6      	ldr	r5, [sp, #664]	; 0x298
   83634:	2d03      	cmp	r5, #3
   83636:	f200 8097 	bhi.w	83768 <__kernel_rem_pio2+0x648>
   8363a:	e8df f015 	tbh	[pc, r5, lsl #1]
   8363e:	00da      	.short	0x00da
   83640:	009c009c 	.word	0x009c009c
   83644:	0004      	.short	0x0004
   83646:	f1b8 0f00 	cmp.w	r8, #0
   8364a:	f340 8112 	ble.w	83872 <__kernel_rem_pio2+0x752>
   8364e:	f50d 7a98 	add.w	sl, sp, #304	; 0x130
   83652:	f108 0301 	add.w	r3, r8, #1
   83656:	eb0a 03c3 	add.w	r3, sl, r3, lsl #3
   8365a:	ea4f 0bc8 	mov.w	fp, r8, lsl #3
   8365e:	9303      	str	r3, [sp, #12]
   83660:	4699      	mov	r9, r3
   83662:	eb0a 030b 	add.w	r3, sl, fp
   83666:	f50d 7c9c 	add.w	ip, sp, #312	; 0x138
   8366a:	e9d3 6700 	ldrd	r6, r7, [r3]
   8366e:	e001      	b.n	83674 <__kernel_rem_pio2+0x554>
   83670:	4626      	mov	r6, r4
   83672:	462f      	mov	r7, r5
   83674:	e959 4504 	ldrd	r4, r5, [r9, #-16]
   83678:	4632      	mov	r2, r6
   8367a:	463b      	mov	r3, r7
   8367c:	4620      	mov	r0, r4
   8367e:	4629      	mov	r1, r5
   83680:	f8cd c004 	str.w	ip, [sp, #4]
   83684:	e9cd 4504 	strd	r4, r5, [sp, #16]
   83688:	f000 fb32 	bl	83cf0 <__adddf3>
   8368c:	4604      	mov	r4, r0
   8368e:	460d      	mov	r5, r1
   83690:	4622      	mov	r2, r4
   83692:	462b      	mov	r3, r5
   83694:	e9dd 0104 	ldrd	r0, r1, [sp, #16]
   83698:	f000 fb28 	bl	83cec <__aeabi_dsub>
   8369c:	4632      	mov	r2, r6
   8369e:	463b      	mov	r3, r7
   836a0:	f000 fb26 	bl	83cf0 <__adddf3>
   836a4:	e969 0102 	strd	r0, r1, [r9, #-8]!
   836a8:	f8dd c004 	ldr.w	ip, [sp, #4]
   836ac:	e949 4502 	strd	r4, r5, [r9, #-8]
   836b0:	45e1      	cmp	r9, ip
   836b2:	d1dd      	bne.n	83670 <__kernel_rem_pio2+0x550>
   836b4:	f1b8 0f01 	cmp.w	r8, #1
   836b8:	f340 810d 	ble.w	838d6 <__kernel_rem_pio2+0x7b6>
   836bc:	f8dd c00c 	ldr.w	ip, [sp, #12]
   836c0:	eb0a 030b 	add.w	r3, sl, fp
   836c4:	f8cd a010 	str.w	sl, [sp, #16]
   836c8:	f10a 0b10 	add.w	fp, sl, #16
   836cc:	e9d3 4500 	ldrd	r4, r5, [r3]
   836d0:	46e2      	mov	sl, ip
   836d2:	e00b      	b.n	836ec <__kernel_rem_pio2+0x5cc>
   836d4:	3ff00000 	.word	0x3ff00000
   836d8:	3fe00000 	.word	0x3fe00000
   836dc:	41700000 	.word	0x41700000
   836e0:	3e700000 	.word	0x3e700000
   836e4:	0008aa30 	.word	0x0008aa30
   836e8:	4634      	mov	r4, r6
   836ea:	463d      	mov	r5, r7
   836ec:	e95a 8904 	ldrd	r8, r9, [sl, #-16]
   836f0:	4622      	mov	r2, r4
   836f2:	462b      	mov	r3, r5
   836f4:	4640      	mov	r0, r8
   836f6:	4649      	mov	r1, r9
   836f8:	f000 fafa 	bl	83cf0 <__adddf3>
   836fc:	4606      	mov	r6, r0
   836fe:	460f      	mov	r7, r1
   83700:	4632      	mov	r2, r6
   83702:	463b      	mov	r3, r7
   83704:	4640      	mov	r0, r8
   83706:	4649      	mov	r1, r9
   83708:	f000 faf0 	bl	83cec <__aeabi_dsub>
   8370c:	4622      	mov	r2, r4
   8370e:	462b      	mov	r3, r5
   83710:	f000 faee 	bl	83cf0 <__adddf3>
   83714:	e96a 0102 	strd	r0, r1, [sl, #-8]!
   83718:	45da      	cmp	sl, fp
   8371a:	e94a 6702 	strd	r6, r7, [sl, #-8]
   8371e:	d1e3      	bne.n	836e8 <__kernel_rem_pio2+0x5c8>
   83720:	f8dd a010 	ldr.w	sl, [sp, #16]
   83724:	9c03      	ldr	r4, [sp, #12]
   83726:	2000      	movs	r0, #0
   83728:	2100      	movs	r1, #0
   8372a:	e974 2302 	ldrd	r2, r3, [r4, #-8]!
   8372e:	f000 fadf 	bl	83cf0 <__adddf3>
   83732:	45a3      	cmp	fp, r4
   83734:	d1f9      	bne.n	8372a <__kernel_rem_pio2+0x60a>
   83736:	9d06      	ldr	r5, [sp, #24]
   83738:	2d00      	cmp	r5, #0
   8373a:	f000 80a2 	beq.w	83882 <__kernel_rem_pio2+0x762>
   8373e:	f8da 5004 	ldr.w	r5, [sl, #4]
   83742:	f8da 400c 	ldr.w	r4, [sl, #12]
   83746:	9e0b      	ldr	r6, [sp, #44]	; 0x2c
   83748:	f8da 2000 	ldr.w	r2, [sl]
   8374c:	f8da 3008 	ldr.w	r3, [sl, #8]
   83750:	f105 4500 	add.w	r5, r5, #2147483648	; 0x80000000
   83754:	f104 4400 	add.w	r4, r4, #2147483648	; 0x80000000
   83758:	f101 4100 	add.w	r1, r1, #2147483648	; 0x80000000
   8375c:	6075      	str	r5, [r6, #4]
   8375e:	60f4      	str	r4, [r6, #12]
   83760:	6032      	str	r2, [r6, #0]
   83762:	60b3      	str	r3, [r6, #8]
   83764:	6130      	str	r0, [r6, #16]
   83766:	6171      	str	r1, [r6, #20]
   83768:	9c07      	ldr	r4, [sp, #28]
   8376a:	f004 0007 	and.w	r0, r4, #7
   8376e:	f50d 7d1d 	add.w	sp, sp, #628	; 0x274
   83772:	e8bd 8ff0 	ldmia.w	sp!, {r4, r5, r6, r7, r8, r9, sl, fp, pc}
   83776:	f1b8 0f00 	cmp.w	r8, #0
   8377a:	f2c0 80a7 	blt.w	838cc <__kernel_rem_pio2+0x7ac>
   8377e:	f50d 7a98 	add.w	sl, sp, #304	; 0x130
   83782:	f108 0401 	add.w	r4, r8, #1
   83786:	2200      	movs	r2, #0
   83788:	2300      	movs	r3, #0
   8378a:	eb0a 04c4 	add.w	r4, sl, r4, lsl #3
   8378e:	4610      	mov	r0, r2
   83790:	4619      	mov	r1, r3
   83792:	e974 2302 	ldrd	r2, r3, [r4, #-8]!
   83796:	f000 faab 	bl	83cf0 <__adddf3>
   8379a:	4554      	cmp	r4, sl
   8379c:	d1f9      	bne.n	83792 <__kernel_rem_pio2+0x672>
   8379e:	4602      	mov	r2, r0
   837a0:	460b      	mov	r3, r1
   837a2:	9e06      	ldr	r6, [sp, #24]
   837a4:	2e00      	cmp	r6, #0
   837a6:	d047      	beq.n	83838 <__kernel_rem_pio2+0x718>
   837a8:	4610      	mov	r0, r2
   837aa:	f103 4100 	add.w	r1, r3, #2147483648	; 0x80000000
   837ae:	9c0b      	ldr	r4, [sp, #44]	; 0x2c
   837b0:	e9c4 0100 	strd	r0, r1, [r4]
   837b4:	e9da 0100 	ldrd	r0, r1, [sl]
   837b8:	f000 fa98 	bl	83cec <__aeabi_dsub>
   837bc:	f1b8 0f00 	cmp.w	r8, #0
   837c0:	dd07      	ble.n	837d2 <__kernel_rem_pio2+0x6b2>
   837c2:	eb0a 08c8 	add.w	r8, sl, r8, lsl #3
   837c6:	e9fa 2302 	ldrd	r2, r3, [sl, #8]!
   837ca:	f000 fa91 	bl	83cf0 <__adddf3>
   837ce:	45c2      	cmp	sl, r8
   837d0:	d1f9      	bne.n	837c6 <__kernel_rem_pio2+0x6a6>
   837d2:	9d06      	ldr	r5, [sp, #24]
   837d4:	2d00      	cmp	r5, #0
   837d6:	d06a      	beq.n	838ae <__kernel_rem_pio2+0x78e>
   837d8:	9e0b      	ldr	r6, [sp, #44]	; 0x2c
   837da:	4602      	mov	r2, r0
   837dc:	f101 4300 	add.w	r3, r1, #2147483648	; 0x80000000
   837e0:	e9c6 2302 	strd	r2, r3, [r6, #8]
   837e4:	9c07      	ldr	r4, [sp, #28]
   837e6:	f004 0007 	and.w	r0, r4, #7
   837ea:	f50d 7d1d 	add.w	sp, sp, #628	; 0x274
   837ee:	e8bd 8ff0 	ldmia.w	sp!, {r4, r5, r6, r7, r8, r9, sl, fp, pc}
   837f2:	f1b8 0f00 	cmp.w	r8, #0
   837f6:	db66      	blt.n	838c6 <__kernel_rem_pio2+0x7a6>
   837f8:	f108 0401 	add.w	r4, r8, #1
   837fc:	ad4c      	add	r5, sp, #304	; 0x130
   837fe:	eb05 04c4 	add.w	r4, r5, r4, lsl #3
   83802:	2000      	movs	r0, #0
   83804:	2100      	movs	r1, #0
   83806:	e974 2302 	ldrd	r2, r3, [r4, #-8]!
   8380a:	f000 fa71 	bl	83cf0 <__adddf3>
   8380e:	42ac      	cmp	r4, r5
   83810:	d1f9      	bne.n	83806 <__kernel_rem_pio2+0x6e6>
   83812:	9c06      	ldr	r4, [sp, #24]
   83814:	2c00      	cmp	r4, #0
   83816:	d050      	beq.n	838ba <__kernel_rem_pio2+0x79a>
   83818:	9d0b      	ldr	r5, [sp, #44]	; 0x2c
   8381a:	4602      	mov	r2, r0
   8381c:	f101 4300 	add.w	r3, r1, #2147483648	; 0x80000000
   83820:	e9c5 2300 	strd	r2, r3, [r5]
   83824:	9c07      	ldr	r4, [sp, #28]
   83826:	f004 0007 	and.w	r0, r4, #7
   8382a:	f50d 7d1d 	add.w	sp, sp, #628	; 0x274
   8382e:	e8bd 8ff0 	ldmia.w	sp!, {r4, r5, r6, r7, r8, r9, sl, fp, pc}
   83832:	2400      	movs	r4, #0
   83834:	2500      	movs	r5, #0
   83836:	e6ee      	b.n	83616 <__kernel_rem_pio2+0x4f6>
   83838:	4610      	mov	r0, r2
   8383a:	4619      	mov	r1, r3
   8383c:	e7b7      	b.n	837ae <__kernel_rem_pio2+0x68e>
   8383e:	9e0a      	ldr	r6, [sp, #40]	; 0x28
   83840:	9506      	str	r5, [sp, #24]
   83842:	ad10      	add	r5, sp, #64	; 0x40
   83844:	f855 3028 	ldr.w	r3, [r5, r8, lsl #2]
   83848:	3e18      	subs	r6, #24
   8384a:	f8cd a01c 	str.w	sl, [sp, #28]
   8384e:	960a      	str	r6, [sp, #40]	; 0x28
   83850:	2b00      	cmp	r3, #0
   83852:	f47f ae89 	bne.w	83568 <__kernel_rem_pio2+0x448>
   83856:	eb05 0388 	add.w	r3, r5, r8, lsl #2
   8385a:	4632      	mov	r2, r6
   8385c:	f853 1d04 	ldr.w	r1, [r3, #-4]!
   83860:	f108 38ff 	add.w	r8, r8, #4294967295
   83864:	3a18      	subs	r2, #24
   83866:	2900      	cmp	r1, #0
   83868:	d0f8      	beq.n	8385c <__kernel_rem_pio2+0x73c>
   8386a:	920a      	str	r2, [sp, #40]	; 0x28
   8386c:	e67c      	b.n	83568 <__kernel_rem_pio2+0x448>
   8386e:	2301      	movs	r3, #1
   83870:	e5b1      	b.n	833d6 <__kernel_rem_pio2+0x2b6>
   83872:	9d06      	ldr	r5, [sp, #24]
   83874:	2000      	movs	r0, #0
   83876:	2100      	movs	r1, #0
   83878:	f50d 7a98 	add.w	sl, sp, #304	; 0x130
   8387c:	2d00      	cmp	r5, #0
   8387e:	f47f af5e 	bne.w	8373e <__kernel_rem_pio2+0x61e>
   83882:	9e0b      	ldr	r6, [sp, #44]	; 0x2c
   83884:	e9da 2300 	ldrd	r2, r3, [sl]
   83888:	e9c6 0104 	strd	r0, r1, [r6, #16]
   8388c:	e9da 0102 	ldrd	r0, r1, [sl, #8]
   83890:	e9c6 2300 	strd	r2, r3, [r6]
   83894:	e9c6 0102 	strd	r0, r1, [r6, #8]
   83898:	e766      	b.n	83768 <__kernel_rem_pio2+0x648>
   8389a:	4620      	mov	r0, r4
   8389c:	4629      	mov	r1, r5
   8389e:	f000 fe73 	bl	84588 <__aeabi_d2iz>
   838a2:	f8dd 800c 	ldr.w	r8, [sp, #12]
   838a6:	aa10      	add	r2, sp, #64	; 0x40
   838a8:	f842 0028 	str.w	r0, [r2, r8, lsl #2]
   838ac:	e65c      	b.n	83568 <__kernel_rem_pio2+0x448>
   838ae:	9e0b      	ldr	r6, [sp, #44]	; 0x2c
   838b0:	4602      	mov	r2, r0
   838b2:	460b      	mov	r3, r1
   838b4:	e9c6 2302 	strd	r2, r3, [r6, #8]
   838b8:	e794      	b.n	837e4 <__kernel_rem_pio2+0x6c4>
   838ba:	9d0b      	ldr	r5, [sp, #44]	; 0x2c
   838bc:	4602      	mov	r2, r0
   838be:	460b      	mov	r3, r1
   838c0:	e9c5 2300 	strd	r2, r3, [r5]
   838c4:	e7ae      	b.n	83824 <__kernel_rem_pio2+0x704>
   838c6:	2000      	movs	r0, #0
   838c8:	2100      	movs	r1, #0
   838ca:	e7a2      	b.n	83812 <__kernel_rem_pio2+0x6f2>
   838cc:	2200      	movs	r2, #0
   838ce:	2300      	movs	r3, #0
   838d0:	f50d 7a98 	add.w	sl, sp, #304	; 0x130
   838d4:	e765      	b.n	837a2 <__kernel_rem_pio2+0x682>
   838d6:	2000      	movs	r0, #0
   838d8:	2100      	movs	r1, #0
   838da:	e72c      	b.n	83736 <__kernel_rem_pio2+0x616>
   838dc:	0000      	movs	r0, r0
	...

000838e0 <__kernel_sin>:
   838e0:	e92d 4ff0 	stmdb	sp!, {r4, r5, r6, r7, r8, r9, sl, fp, lr}
   838e4:	f021 4600 	bic.w	r6, r1, #2147483648	; 0x80000000
   838e8:	f1b6 5f79 	cmp.w	r6, #1044381696	; 0x3e400000
   838ec:	b085      	sub	sp, #20
   838ee:	4604      	mov	r4, r0
   838f0:	460d      	mov	r5, r1
   838f2:	4690      	mov	r8, r2
   838f4:	4699      	mov	r9, r3
   838f6:	da04      	bge.n	83902 <__kernel_sin+0x22>
   838f8:	f000 fe46 	bl	84588 <__aeabi_d2iz>
   838fc:	2800      	cmp	r0, #0
   838fe:	f000 8084 	beq.w	83a0a <__kernel_sin+0x12a>
   83902:	4622      	mov	r2, r4
   83904:	462b      	mov	r3, r5
   83906:	4620      	mov	r0, r4
   83908:	4629      	mov	r1, r5
   8390a:	f000 fba3 	bl	84054 <__aeabi_dmul>
   8390e:	4622      	mov	r2, r4
   83910:	462b      	mov	r3, r5
   83912:	4606      	mov	r6, r0
   83914:	460f      	mov	r7, r1
   83916:	f000 fb9d 	bl	84054 <__aeabi_dmul>
   8391a:	a33f      	add	r3, pc, #252	; (adr r3, 83a18 <__kernel_sin+0x138>)
   8391c:	e9d3 2300 	ldrd	r2, r3, [r3]
   83920:	4682      	mov	sl, r0
   83922:	468b      	mov	fp, r1
   83924:	4630      	mov	r0, r6
   83926:	4639      	mov	r1, r7
   83928:	f000 fb94 	bl	84054 <__aeabi_dmul>
   8392c:	a33c      	add	r3, pc, #240	; (adr r3, 83a20 <__kernel_sin+0x140>)
   8392e:	e9d3 2300 	ldrd	r2, r3, [r3]
   83932:	f000 f9db 	bl	83cec <__aeabi_dsub>
   83936:	4632      	mov	r2, r6
   83938:	463b      	mov	r3, r7
   8393a:	f000 fb8b 	bl	84054 <__aeabi_dmul>
   8393e:	a33a      	add	r3, pc, #232	; (adr r3, 83a28 <__kernel_sin+0x148>)
   83940:	e9d3 2300 	ldrd	r2, r3, [r3]
   83944:	f000 f9d4 	bl	83cf0 <__adddf3>
   83948:	4632      	mov	r2, r6
   8394a:	463b      	mov	r3, r7
   8394c:	f000 fb82 	bl	84054 <__aeabi_dmul>
   83950:	a337      	add	r3, pc, #220	; (adr r3, 83a30 <__kernel_sin+0x150>)
   83952:	e9d3 2300 	ldrd	r2, r3, [r3]
   83956:	f000 f9c9 	bl	83cec <__aeabi_dsub>
   8395a:	4632      	mov	r2, r6
   8395c:	463b      	mov	r3, r7
   8395e:	f000 fb79 	bl	84054 <__aeabi_dmul>
   83962:	a335      	add	r3, pc, #212	; (adr r3, 83a38 <__kernel_sin+0x158>)
   83964:	e9d3 2300 	ldrd	r2, r3, [r3]
   83968:	f000 f9c2 	bl	83cf0 <__adddf3>
   8396c:	9b0e      	ldr	r3, [sp, #56]	; 0x38
   8396e:	e9cd 0102 	strd	r0, r1, [sp, #8]
   83972:	2b00      	cmp	r3, #0
   83974:	d033      	beq.n	839de <__kernel_sin+0xfe>
   83976:	4640      	mov	r0, r8
   83978:	4649      	mov	r1, r9
   8397a:	2200      	movs	r2, #0
   8397c:	4b32      	ldr	r3, [pc, #200]	; (83a48 <__kernel_sin+0x168>)
   8397e:	f000 fb69 	bl	84054 <__aeabi_dmul>
   83982:	e9dd 2302 	ldrd	r2, r3, [sp, #8]
   83986:	e9cd 0100 	strd	r0, r1, [sp]
   8398a:	4650      	mov	r0, sl
   8398c:	4659      	mov	r1, fp
   8398e:	f000 fb61 	bl	84054 <__aeabi_dmul>
   83992:	4602      	mov	r2, r0
   83994:	460b      	mov	r3, r1
   83996:	e9dd 0100 	ldrd	r0, r1, [sp]
   8399a:	f000 f9a7 	bl	83cec <__aeabi_dsub>
   8399e:	4632      	mov	r2, r6
   839a0:	463b      	mov	r3, r7
   839a2:	f000 fb57 	bl	84054 <__aeabi_dmul>
   839a6:	4642      	mov	r2, r8
   839a8:	464b      	mov	r3, r9
   839aa:	f000 f99f 	bl	83cec <__aeabi_dsub>
   839ae:	a324      	add	r3, pc, #144	; (adr r3, 83a40 <__kernel_sin+0x160>)
   839b0:	e9d3 2300 	ldrd	r2, r3, [r3]
   839b4:	4606      	mov	r6, r0
   839b6:	460f      	mov	r7, r1
   839b8:	4650      	mov	r0, sl
   839ba:	4659      	mov	r1, fp
   839bc:	f000 fb4a 	bl	84054 <__aeabi_dmul>
   839c0:	4602      	mov	r2, r0
   839c2:	460b      	mov	r3, r1
   839c4:	4630      	mov	r0, r6
   839c6:	4639      	mov	r1, r7
   839c8:	f000 f992 	bl	83cf0 <__adddf3>
   839cc:	4602      	mov	r2, r0
   839ce:	460b      	mov	r3, r1
   839d0:	4620      	mov	r0, r4
   839d2:	4629      	mov	r1, r5
   839d4:	f000 f98a 	bl	83cec <__aeabi_dsub>
   839d8:	b005      	add	sp, #20
   839da:	e8bd 8ff0 	ldmia.w	sp!, {r4, r5, r6, r7, r8, r9, sl, fp, pc}
   839de:	e9dd 2302 	ldrd	r2, r3, [sp, #8]
   839e2:	4630      	mov	r0, r6
   839e4:	4639      	mov	r1, r7
   839e6:	f000 fb35 	bl	84054 <__aeabi_dmul>
   839ea:	a315      	add	r3, pc, #84	; (adr r3, 83a40 <__kernel_sin+0x160>)
   839ec:	e9d3 2300 	ldrd	r2, r3, [r3]
   839f0:	f000 f97c 	bl	83cec <__aeabi_dsub>
   839f4:	4652      	mov	r2, sl
   839f6:	465b      	mov	r3, fp
   839f8:	f000 fb2c 	bl	84054 <__aeabi_dmul>
   839fc:	4622      	mov	r2, r4
   839fe:	462b      	mov	r3, r5
   83a00:	f000 f976 	bl	83cf0 <__adddf3>
   83a04:	b005      	add	sp, #20
   83a06:	e8bd 8ff0 	ldmia.w	sp!, {r4, r5, r6, r7, r8, r9, sl, fp, pc}
   83a0a:	4620      	mov	r0, r4
   83a0c:	4629      	mov	r1, r5
   83a0e:	b005      	add	sp, #20
   83a10:	e8bd 8ff0 	ldmia.w	sp!, {r4, r5, r6, r7, r8, r9, sl, fp, pc}
   83a14:	f3af 8000 	nop.w
   83a18:	5acfd57c 	.word	0x5acfd57c
   83a1c:	3de5d93a 	.word	0x3de5d93a
   83a20:	8a2b9ceb 	.word	0x8a2b9ceb
   83a24:	3e5ae5e6 	.word	0x3e5ae5e6
   83a28:	57b1fe7d 	.word	0x57b1fe7d
   83a2c:	3ec71de3 	.word	0x3ec71de3
   83a30:	19c161d5 	.word	0x19c161d5
   83a34:	3f2a01a0 	.word	0x3f2a01a0
   83a38:	1110f8a6 	.word	0x1110f8a6
   83a3c:	3f811111 	.word	0x3f811111
   83a40:	55555549 	.word	0x55555549
   83a44:	3fc55555 	.word	0x3fc55555
   83a48:	3fe00000 	.word	0x3fe00000
   83a4c:	f3af 8000 	nop.w

00083a50 <fabs>:
   83a50:	f021 4100 	bic.w	r1, r1, #2147483648	; 0x80000000
   83a54:	4770      	bx	lr
   83a56:	bf00      	nop

00083a58 <floor>:
   83a58:	e92d 4ff8 	stmdb	sp!, {r3, r4, r5, r6, r7, r8, r9, sl, fp, lr}
   83a5c:	f3c1 570a 	ubfx	r7, r1, #20, #11
   83a60:	f2a7 36ff 	subw	r6, r7, #1023	; 0x3ff
   83a64:	2e13      	cmp	r6, #19
   83a66:	4602      	mov	r2, r0
   83a68:	460b      	mov	r3, r1
   83a6a:	4604      	mov	r4, r0
   83a6c:	460d      	mov	r5, r1
   83a6e:	4689      	mov	r9, r1
   83a70:	468a      	mov	sl, r1
   83a72:	4680      	mov	r8, r0
   83a74:	dc1c      	bgt.n	83ab0 <floor+0x58>
   83a76:	2e00      	cmp	r6, #0
   83a78:	db40      	blt.n	83afc <floor+0xa4>
   83a7a:	4f3d      	ldr	r7, [pc, #244]	; (83b70 <floor+0x118>)
   83a7c:	4137      	asrs	r7, r6
   83a7e:	ea07 0c01 	and.w	ip, r7, r1
   83a82:	ea5c 0c00 	orrs.w	ip, ip, r0
   83a86:	d018      	beq.n	83aba <floor+0x62>
   83a88:	a337      	add	r3, pc, #220	; (adr r3, 83b68 <floor+0x110>)
   83a8a:	e9d3 2300 	ldrd	r2, r3, [r3]
   83a8e:	f000 f92f 	bl	83cf0 <__adddf3>
   83a92:	2200      	movs	r2, #0
   83a94:	2300      	movs	r3, #0
   83a96:	f000 fd6d 	bl	84574 <__aeabi_dcmpgt>
   83a9a:	b128      	cbz	r0, 83aa8 <floor+0x50>
   83a9c:	2d00      	cmp	r5, #0
   83a9e:	db42      	blt.n	83b26 <floor+0xce>
   83aa0:	ea2a 0907 	bic.w	r9, sl, r7
   83aa4:	f04f 0800 	mov.w	r8, #0
   83aa8:	4640      	mov	r0, r8
   83aaa:	4649      	mov	r1, r9
   83aac:	e8bd 8ff8 	ldmia.w	sp!, {r3, r4, r5, r6, r7, r8, r9, sl, fp, pc}
   83ab0:	2e33      	cmp	r6, #51	; 0x33
   83ab2:	dd06      	ble.n	83ac2 <floor+0x6a>
   83ab4:	f5b6 6f80 	cmp.w	r6, #1024	; 0x400
   83ab8:	d031      	beq.n	83b1e <floor+0xc6>
   83aba:	4610      	mov	r0, r2
   83abc:	4619      	mov	r1, r3
   83abe:	e8bd 8ff8 	ldmia.w	sp!, {r3, r4, r5, r6, r7, r8, r9, sl, fp, pc}
   83ac2:	f2a7 4c13 	subw	ip, r7, #1043	; 0x413
   83ac6:	f04f 3bff 	mov.w	fp, #4294967295
   83aca:	fa2b fb0c 	lsr.w	fp, fp, ip
   83ace:	ea1b 0f00 	tst.w	fp, r0
   83ad2:	d0f2      	beq.n	83aba <floor+0x62>
   83ad4:	a324      	add	r3, pc, #144	; (adr r3, 83b68 <floor+0x110>)
   83ad6:	e9d3 2300 	ldrd	r2, r3, [r3]
   83ada:	f000 f909 	bl	83cf0 <__adddf3>
   83ade:	2200      	movs	r2, #0
   83ae0:	2300      	movs	r3, #0
   83ae2:	f000 fd47 	bl	84574 <__aeabi_dcmpgt>
   83ae6:	2800      	cmp	r0, #0
   83ae8:	d0de      	beq.n	83aa8 <floor+0x50>
   83aea:	2d00      	cmp	r5, #0
   83aec:	db22      	blt.n	83b34 <floor+0xdc>
   83aee:	ea28 080b 	bic.w	r8, r8, fp
   83af2:	46d1      	mov	r9, sl
   83af4:	4640      	mov	r0, r8
   83af6:	4649      	mov	r1, r9
   83af8:	e8bd 8ff8 	ldmia.w	sp!, {r3, r4, r5, r6, r7, r8, r9, sl, fp, pc}
   83afc:	a31a      	add	r3, pc, #104	; (adr r3, 83b68 <floor+0x110>)
   83afe:	e9d3 2300 	ldrd	r2, r3, [r3]
   83b02:	f000 f8f5 	bl	83cf0 <__adddf3>
   83b06:	2200      	movs	r2, #0
   83b08:	2300      	movs	r3, #0
   83b0a:	f000 fd33 	bl	84574 <__aeabi_dcmpgt>
   83b0e:	2800      	cmp	r0, #0
   83b10:	d0ca      	beq.n	83aa8 <floor+0x50>
   83b12:	2d00      	cmp	r5, #0
   83b14:	db1c      	blt.n	83b50 <floor+0xf8>
   83b16:	f04f 0800 	mov.w	r8, #0
   83b1a:	46c1      	mov	r9, r8
   83b1c:	e7c4      	b.n	83aa8 <floor+0x50>
   83b1e:	f000 f8e7 	bl	83cf0 <__adddf3>
   83b22:	e8bd 8ff8 	ldmia.w	sp!, {r3, r4, r5, r6, r7, r8, r9, sl, fp, pc}
   83b26:	f44f 1a80 	mov.w	sl, #1048576	; 0x100000
   83b2a:	fa4a f606 	asr.w	r6, sl, r6
   83b2e:	eb06 0a05 	add.w	sl, r6, r5
   83b32:	e7b5      	b.n	83aa0 <floor+0x48>
   83b34:	2e14      	cmp	r6, #20
   83b36:	d014      	beq.n	83b62 <floor+0x10a>
   83b38:	f5c7 6786 	rsb	r7, r7, #1072	; 0x430
   83b3c:	2301      	movs	r3, #1
   83b3e:	3703      	adds	r7, #3
   83b40:	fa03 f707 	lsl.w	r7, r3, r7
   83b44:	eb17 0804 	adds.w	r8, r7, r4
   83b48:	bf28      	it	cs
   83b4a:	eb05 0a03 	addcs.w	sl, r5, r3
   83b4e:	e7ce      	b.n	83aee <floor+0x96>
   83b50:	f025 4200 	bic.w	r2, r5, #2147483648	; 0x80000000
   83b54:	4b07      	ldr	r3, [pc, #28]	; (83b74 <floor+0x11c>)
   83b56:	4322      	orrs	r2, r4
   83b58:	bf18      	it	ne
   83b5a:	4699      	movne	r9, r3
   83b5c:	f04f 0800 	mov.w	r8, #0
   83b60:	e7a2      	b.n	83aa8 <floor+0x50>
   83b62:	f105 0a01 	add.w	sl, r5, #1
   83b66:	e7c2      	b.n	83aee <floor+0x96>
   83b68:	8800759c 	.word	0x8800759c
   83b6c:	7e37e43c 	.word	0x7e37e43c
   83b70:	000fffff 	.word	0x000fffff
   83b74:	bff00000 	.word	0xbff00000

00083b78 <__fpclassifyd>:
   83b78:	f031 4300 	bics.w	r3, r1, #2147483648	; 0x80000000
   83b7c:	b410      	push	{r4}
   83b7e:	d008      	beq.n	83b92 <__fpclassifyd+0x1a>
   83b80:	4a0f      	ldr	r2, [pc, #60]	; (83bc0 <__fpclassifyd+0x48>)
   83b82:	f5a3 1480 	sub.w	r4, r3, #1048576	; 0x100000
   83b86:	4294      	cmp	r4, r2
   83b88:	d80a      	bhi.n	83ba0 <__fpclassifyd+0x28>
   83b8a:	2004      	movs	r0, #4
   83b8c:	f85d 4b04 	ldr.w	r4, [sp], #4
   83b90:	4770      	bx	lr
   83b92:	2800      	cmp	r0, #0
   83b94:	bf0c      	ite	eq
   83b96:	2002      	moveq	r0, #2
   83b98:	2003      	movne	r0, #3
   83b9a:	f85d 4b04 	ldr.w	r4, [sp], #4
   83b9e:	4770      	bx	lr
   83ba0:	f5b3 1f80 	cmp.w	r3, #1048576	; 0x100000
   83ba4:	d201      	bcs.n	83baa <__fpclassifyd+0x32>
   83ba6:	2003      	movs	r0, #3
   83ba8:	e7f7      	b.n	83b9a <__fpclassifyd+0x22>
   83baa:	4a06      	ldr	r2, [pc, #24]	; (83bc4 <__fpclassifyd+0x4c>)
   83bac:	4293      	cmp	r3, r2
   83bae:	d001      	beq.n	83bb4 <__fpclassifyd+0x3c>
   83bb0:	2000      	movs	r0, #0
   83bb2:	e7f2      	b.n	83b9a <__fpclassifyd+0x22>
   83bb4:	f1d0 0001 	rsbs	r0, r0, #1
   83bb8:	bf38      	it	cc
   83bba:	2000      	movcc	r0, #0
   83bbc:	e7ed      	b.n	83b9a <__fpclassifyd+0x22>
   83bbe:	bf00      	nop
   83bc0:	7fdfffff 	.word	0x7fdfffff
   83bc4:	7ff00000 	.word	0x7ff00000

00083bc8 <matherr>:
   83bc8:	2000      	movs	r0, #0
   83bca:	4770      	bx	lr
   83bcc:	0000      	movs	r0, r0
	...

00083bd0 <scalbn>:
   83bd0:	f3c1 530a 	ubfx	r3, r1, #20, #11
   83bd4:	e92d 41f0 	stmdb	sp!, {r4, r5, r6, r7, r8, lr}
   83bd8:	4690      	mov	r8, r2
   83bda:	4606      	mov	r6, r0
   83bdc:	460f      	mov	r7, r1
   83bde:	460a      	mov	r2, r1
   83be0:	bb1b      	cbnz	r3, 83c2a <scalbn+0x5a>
   83be2:	f021 4300 	bic.w	r3, r1, #2147483648	; 0x80000000
   83be6:	4303      	orrs	r3, r0
   83be8:	d034      	beq.n	83c54 <scalbn+0x84>
   83bea:	4b35      	ldr	r3, [pc, #212]	; (83cc0 <scalbn+0xf0>)
   83bec:	2200      	movs	r2, #0
   83bee:	f000 fa31 	bl	84054 <__aeabi_dmul>
   83bf2:	4b34      	ldr	r3, [pc, #208]	; (83cc4 <scalbn+0xf4>)
   83bf4:	4606      	mov	r6, r0
   83bf6:	4598      	cmp	r8, r3
   83bf8:	460f      	mov	r7, r1
   83bfa:	db3b      	blt.n	83c74 <scalbn+0xa4>
   83bfc:	f3c1 530a 	ubfx	r3, r1, #20, #11
   83c00:	3b36      	subs	r3, #54	; 0x36
   83c02:	460a      	mov	r2, r1
   83c04:	4443      	add	r3, r8
   83c06:	f240 71fe 	movw	r1, #2046	; 0x7fe
   83c0a:	428b      	cmp	r3, r1
   83c0c:	dd16      	ble.n	83c3c <scalbn+0x6c>
   83c0e:	a128      	add	r1, pc, #160	; (adr r1, 83cb0 <scalbn+0xe0>)
   83c10:	e9d1 0100 	ldrd	r0, r1, [r1]
   83c14:	4632      	mov	r2, r6
   83c16:	463b      	mov	r3, r7
   83c18:	f000 f85a 	bl	83cd0 <copysign>
   83c1c:	a324      	add	r3, pc, #144	; (adr r3, 83cb0 <scalbn+0xe0>)
   83c1e:	e9d3 2300 	ldrd	r2, r3, [r3]
   83c22:	f000 fa17 	bl	84054 <__aeabi_dmul>
   83c26:	e8bd 81f0 	ldmia.w	sp!, {r4, r5, r6, r7, r8, pc}
   83c2a:	f240 74ff 	movw	r4, #2047	; 0x7ff
   83c2e:	42a3      	cmp	r3, r4
   83c30:	d027      	beq.n	83c82 <scalbn+0xb2>
   83c32:	4443      	add	r3, r8
   83c34:	f240 71fe 	movw	r1, #2046	; 0x7fe
   83c38:	428b      	cmp	r3, r1
   83c3a:	dce8      	bgt.n	83c0e <scalbn+0x3e>
   83c3c:	2b00      	cmp	r3, #0
   83c3e:	dd0b      	ble.n	83c58 <scalbn+0x88>
   83c40:	f022 42ff 	bic.w	r2, r2, #2139095040	; 0x7f800000
   83c44:	f422 02e0 	bic.w	r2, r2, #7340032	; 0x700000
   83c48:	ea42 5703 	orr.w	r7, r2, r3, lsl #20
   83c4c:	4630      	mov	r0, r6
   83c4e:	4639      	mov	r1, r7
   83c50:	e8bd 81f0 	ldmia.w	sp!, {r4, r5, r6, r7, r8, pc}
   83c54:	e8bd 81f0 	ldmia.w	sp!, {r4, r5, r6, r7, r8, pc}
   83c58:	f113 0f35 	cmn.w	r3, #53	; 0x35
   83c5c:	da17      	bge.n	83c8e <scalbn+0xbe>
   83c5e:	f24c 3350 	movw	r3, #50000	; 0xc350
   83c62:	4598      	cmp	r8, r3
   83c64:	dcd3      	bgt.n	83c0e <scalbn+0x3e>
   83c66:	a114      	add	r1, pc, #80	; (adr r1, 83cb8 <scalbn+0xe8>)
   83c68:	e9d1 0100 	ldrd	r0, r1, [r1]
   83c6c:	4632      	mov	r2, r6
   83c6e:	463b      	mov	r3, r7
   83c70:	f000 f82e 	bl	83cd0 <copysign>
   83c74:	a310      	add	r3, pc, #64	; (adr r3, 83cb8 <scalbn+0xe8>)
   83c76:	e9d3 2300 	ldrd	r2, r3, [r3]
   83c7a:	f000 f9eb 	bl	84054 <__aeabi_dmul>
   83c7e:	e8bd 81f0 	ldmia.w	sp!, {r4, r5, r6, r7, r8, pc}
   83c82:	4602      	mov	r2, r0
   83c84:	460b      	mov	r3, r1
   83c86:	f000 f833 	bl	83cf0 <__adddf3>
   83c8a:	e8bd 81f0 	ldmia.w	sp!, {r4, r5, r6, r7, r8, pc}
   83c8e:	f022 42ff 	bic.w	r2, r2, #2139095040	; 0x7f800000
   83c92:	f422 02e0 	bic.w	r2, r2, #7340032	; 0x700000
   83c96:	3336      	adds	r3, #54	; 0x36
   83c98:	ea42 5703 	orr.w	r7, r2, r3, lsl #20
   83c9c:	4630      	mov	r0, r6
   83c9e:	4639      	mov	r1, r7
   83ca0:	2200      	movs	r2, #0
   83ca2:	4b09      	ldr	r3, [pc, #36]	; (83cc8 <scalbn+0xf8>)
   83ca4:	f000 f9d6 	bl	84054 <__aeabi_dmul>
   83ca8:	e8bd 81f0 	ldmia.w	sp!, {r4, r5, r6, r7, r8, pc}
   83cac:	f3af 8000 	nop.w
   83cb0:	8800759c 	.word	0x8800759c
   83cb4:	7e37e43c 	.word	0x7e37e43c
   83cb8:	c2f8f359 	.word	0xc2f8f359
   83cbc:	01a56e1f 	.word	0x01a56e1f
   83cc0:	43500000 	.word	0x43500000
   83cc4:	ffff3cb0 	.word	0xffff3cb0
   83cc8:	3c900000 	.word	0x3c900000
   83ccc:	f3af 8000 	nop.w

00083cd0 <copysign>:
   83cd0:	b430      	push	{r4, r5}
   83cd2:	f003 4300 	and.w	r3, r3, #2147483648	; 0x80000000
   83cd6:	f021 4200 	bic.w	r2, r1, #2147483648	; 0x80000000
   83cda:	ea43 0102 	orr.w	r1, r3, r2
   83cde:	bc30      	pop	{r4, r5}
   83ce0:	4770      	bx	lr
   83ce2:	bf00      	nop

00083ce4 <__aeabi_drsub>:
   83ce4:	f081 4100 	eor.w	r1, r1, #2147483648	; 0x80000000
   83ce8:	e002      	b.n	83cf0 <__adddf3>
   83cea:	bf00      	nop

00083cec <__aeabi_dsub>:
   83cec:	f083 4300 	eor.w	r3, r3, #2147483648	; 0x80000000

00083cf0 <__adddf3>:
   83cf0:	b530      	push	{r4, r5, lr}
   83cf2:	ea4f 0441 	mov.w	r4, r1, lsl #1
   83cf6:	ea4f 0543 	mov.w	r5, r3, lsl #1
   83cfa:	ea94 0f05 	teq	r4, r5
   83cfe:	bf08      	it	eq
   83d00:	ea90 0f02 	teqeq	r0, r2
   83d04:	bf1f      	itttt	ne
   83d06:	ea54 0c00 	orrsne.w	ip, r4, r0
   83d0a:	ea55 0c02 	orrsne.w	ip, r5, r2
   83d0e:	ea7f 5c64 	mvnsne.w	ip, r4, asr #21
   83d12:	ea7f 5c65 	mvnsne.w	ip, r5, asr #21
   83d16:	f000 80e2 	beq.w	83ede <__adddf3+0x1ee>
   83d1a:	ea4f 5454 	mov.w	r4, r4, lsr #21
   83d1e:	ebd4 5555 	rsbs	r5, r4, r5, lsr #21
   83d22:	bfb8      	it	lt
   83d24:	426d      	neglt	r5, r5
   83d26:	dd0c      	ble.n	83d42 <__adddf3+0x52>
   83d28:	442c      	add	r4, r5
   83d2a:	ea80 0202 	eor.w	r2, r0, r2
   83d2e:	ea81 0303 	eor.w	r3, r1, r3
   83d32:	ea82 0000 	eor.w	r0, r2, r0
   83d36:	ea83 0101 	eor.w	r1, r3, r1
   83d3a:	ea80 0202 	eor.w	r2, r0, r2
   83d3e:	ea81 0303 	eor.w	r3, r1, r3
   83d42:	2d36      	cmp	r5, #54	; 0x36
   83d44:	bf88      	it	hi
   83d46:	bd30      	pophi	{r4, r5, pc}
   83d48:	f011 4f00 	tst.w	r1, #2147483648	; 0x80000000
   83d4c:	ea4f 3101 	mov.w	r1, r1, lsl #12
   83d50:	f44f 1c80 	mov.w	ip, #1048576	; 0x100000
   83d54:	ea4c 3111 	orr.w	r1, ip, r1, lsr #12
   83d58:	d002      	beq.n	83d60 <__adddf3+0x70>
   83d5a:	4240      	negs	r0, r0
   83d5c:	eb61 0141 	sbc.w	r1, r1, r1, lsl #1
   83d60:	f013 4f00 	tst.w	r3, #2147483648	; 0x80000000
   83d64:	ea4f 3303 	mov.w	r3, r3, lsl #12
   83d68:	ea4c 3313 	orr.w	r3, ip, r3, lsr #12
   83d6c:	d002      	beq.n	83d74 <__adddf3+0x84>
   83d6e:	4252      	negs	r2, r2
   83d70:	eb63 0343 	sbc.w	r3, r3, r3, lsl #1
   83d74:	ea94 0f05 	teq	r4, r5
   83d78:	f000 80a7 	beq.w	83eca <__adddf3+0x1da>
   83d7c:	f1a4 0401 	sub.w	r4, r4, #1
   83d80:	f1d5 0e20 	rsbs	lr, r5, #32
   83d84:	db0d      	blt.n	83da2 <__adddf3+0xb2>
   83d86:	fa02 fc0e 	lsl.w	ip, r2, lr
   83d8a:	fa22 f205 	lsr.w	r2, r2, r5
   83d8e:	1880      	adds	r0, r0, r2
   83d90:	f141 0100 	adc.w	r1, r1, #0
   83d94:	fa03 f20e 	lsl.w	r2, r3, lr
   83d98:	1880      	adds	r0, r0, r2
   83d9a:	fa43 f305 	asr.w	r3, r3, r5
   83d9e:	4159      	adcs	r1, r3
   83da0:	e00e      	b.n	83dc0 <__adddf3+0xd0>
   83da2:	f1a5 0520 	sub.w	r5, r5, #32
   83da6:	f10e 0e20 	add.w	lr, lr, #32
   83daa:	2a01      	cmp	r2, #1
   83dac:	fa03 fc0e 	lsl.w	ip, r3, lr
   83db0:	bf28      	it	cs
   83db2:	f04c 0c02 	orrcs.w	ip, ip, #2
   83db6:	fa43 f305 	asr.w	r3, r3, r5
   83dba:	18c0      	adds	r0, r0, r3
   83dbc:	eb51 71e3 	adcs.w	r1, r1, r3, asr #31
   83dc0:	f001 4500 	and.w	r5, r1, #2147483648	; 0x80000000
   83dc4:	d507      	bpl.n	83dd6 <__adddf3+0xe6>
   83dc6:	f04f 0e00 	mov.w	lr, #0
   83dca:	f1dc 0c00 	rsbs	ip, ip, #0
   83dce:	eb7e 0000 	sbcs.w	r0, lr, r0
   83dd2:	eb6e 0101 	sbc.w	r1, lr, r1
   83dd6:	f5b1 1f80 	cmp.w	r1, #1048576	; 0x100000
   83dda:	d31b      	bcc.n	83e14 <__adddf3+0x124>
   83ddc:	f5b1 1f00 	cmp.w	r1, #2097152	; 0x200000
   83de0:	d30c      	bcc.n	83dfc <__adddf3+0x10c>
   83de2:	0849      	lsrs	r1, r1, #1
   83de4:	ea5f 0030 	movs.w	r0, r0, rrx
   83de8:	ea4f 0c3c 	mov.w	ip, ip, rrx
   83dec:	f104 0401 	add.w	r4, r4, #1
   83df0:	ea4f 5244 	mov.w	r2, r4, lsl #21
   83df4:	f512 0f80 	cmn.w	r2, #4194304	; 0x400000
   83df8:	f080 809a 	bcs.w	83f30 <__adddf3+0x240>
   83dfc:	f1bc 4f00 	cmp.w	ip, #2147483648	; 0x80000000
   83e00:	bf08      	it	eq
   83e02:	ea5f 0c50 	movseq.w	ip, r0, lsr #1
   83e06:	f150 0000 	adcs.w	r0, r0, #0
   83e0a:	eb41 5104 	adc.w	r1, r1, r4, lsl #20
   83e0e:	ea41 0105 	orr.w	r1, r1, r5
   83e12:	bd30      	pop	{r4, r5, pc}
   83e14:	ea5f 0c4c 	movs.w	ip, ip, lsl #1
   83e18:	4140      	adcs	r0, r0
   83e1a:	eb41 0101 	adc.w	r1, r1, r1
   83e1e:	f411 1f80 	tst.w	r1, #1048576	; 0x100000
   83e22:	f1a4 0401 	sub.w	r4, r4, #1
   83e26:	d1e9      	bne.n	83dfc <__adddf3+0x10c>
   83e28:	f091 0f00 	teq	r1, #0
   83e2c:	bf04      	itt	eq
   83e2e:	4601      	moveq	r1, r0
   83e30:	2000      	moveq	r0, #0
   83e32:	fab1 f381 	clz	r3, r1
   83e36:	bf08      	it	eq
   83e38:	3320      	addeq	r3, #32
   83e3a:	f1a3 030b 	sub.w	r3, r3, #11
   83e3e:	f1b3 0220 	subs.w	r2, r3, #32
   83e42:	da0c      	bge.n	83e5e <__adddf3+0x16e>
   83e44:	320c      	adds	r2, #12
   83e46:	dd08      	ble.n	83e5a <__adddf3+0x16a>
   83e48:	f102 0c14 	add.w	ip, r2, #20
   83e4c:	f1c2 020c 	rsb	r2, r2, #12
   83e50:	fa01 f00c 	lsl.w	r0, r1, ip
   83e54:	fa21 f102 	lsr.w	r1, r1, r2
   83e58:	e00c      	b.n	83e74 <__adddf3+0x184>
   83e5a:	f102 0214 	add.w	r2, r2, #20
   83e5e:	bfd8      	it	le
   83e60:	f1c2 0c20 	rsble	ip, r2, #32
   83e64:	fa01 f102 	lsl.w	r1, r1, r2
   83e68:	fa20 fc0c 	lsr.w	ip, r0, ip
   83e6c:	bfdc      	itt	le
   83e6e:	ea41 010c 	orrle.w	r1, r1, ip
   83e72:	4090      	lslle	r0, r2
   83e74:	1ae4      	subs	r4, r4, r3
   83e76:	bfa2      	ittt	ge
   83e78:	eb01 5104 	addge.w	r1, r1, r4, lsl #20
   83e7c:	4329      	orrge	r1, r5
   83e7e:	bd30      	popge	{r4, r5, pc}
   83e80:	ea6f 0404 	mvn.w	r4, r4
   83e84:	3c1f      	subs	r4, #31
   83e86:	da1c      	bge.n	83ec2 <__adddf3+0x1d2>
   83e88:	340c      	adds	r4, #12
   83e8a:	dc0e      	bgt.n	83eaa <__adddf3+0x1ba>
   83e8c:	f104 0414 	add.w	r4, r4, #20
   83e90:	f1c4 0220 	rsb	r2, r4, #32
   83e94:	fa20 f004 	lsr.w	r0, r0, r4
   83e98:	fa01 f302 	lsl.w	r3, r1, r2
   83e9c:	ea40 0003 	orr.w	r0, r0, r3
   83ea0:	fa21 f304 	lsr.w	r3, r1, r4
   83ea4:	ea45 0103 	orr.w	r1, r5, r3
   83ea8:	bd30      	pop	{r4, r5, pc}
   83eaa:	f1c4 040c 	rsb	r4, r4, #12
   83eae:	f1c4 0220 	rsb	r2, r4, #32
   83eb2:	fa20 f002 	lsr.w	r0, r0, r2
   83eb6:	fa01 f304 	lsl.w	r3, r1, r4
   83eba:	ea40 0003 	orr.w	r0, r0, r3
   83ebe:	4629      	mov	r1, r5
   83ec0:	bd30      	pop	{r4, r5, pc}
   83ec2:	fa21 f004 	lsr.w	r0, r1, r4
   83ec6:	4629      	mov	r1, r5
   83ec8:	bd30      	pop	{r4, r5, pc}
   83eca:	f094 0f00 	teq	r4, #0
   83ece:	f483 1380 	eor.w	r3, r3, #1048576	; 0x100000
   83ed2:	bf06      	itte	eq
   83ed4:	f481 1180 	eoreq.w	r1, r1, #1048576	; 0x100000
   83ed8:	3401      	addeq	r4, #1
   83eda:	3d01      	subne	r5, #1
   83edc:	e74e      	b.n	83d7c <__adddf3+0x8c>
   83ede:	ea7f 5c64 	mvns.w	ip, r4, asr #21
   83ee2:	bf18      	it	ne
   83ee4:	ea7f 5c65 	mvnsne.w	ip, r5, asr #21
   83ee8:	d029      	beq.n	83f3e <__adddf3+0x24e>
   83eea:	ea94 0f05 	teq	r4, r5
   83eee:	bf08      	it	eq
   83ef0:	ea90 0f02 	teqeq	r0, r2
   83ef4:	d005      	beq.n	83f02 <__adddf3+0x212>
   83ef6:	ea54 0c00 	orrs.w	ip, r4, r0
   83efa:	bf04      	itt	eq
   83efc:	4619      	moveq	r1, r3
   83efe:	4610      	moveq	r0, r2
   83f00:	bd30      	pop	{r4, r5, pc}
   83f02:	ea91 0f03 	teq	r1, r3
   83f06:	bf1e      	ittt	ne
   83f08:	2100      	movne	r1, #0
   83f0a:	2000      	movne	r0, #0
   83f0c:	bd30      	popne	{r4, r5, pc}
   83f0e:	ea5f 5c54 	movs.w	ip, r4, lsr #21
   83f12:	d105      	bne.n	83f20 <__adddf3+0x230>
   83f14:	0040      	lsls	r0, r0, #1
   83f16:	4149      	adcs	r1, r1
   83f18:	bf28      	it	cs
   83f1a:	f041 4100 	orrcs.w	r1, r1, #2147483648	; 0x80000000
   83f1e:	bd30      	pop	{r4, r5, pc}
   83f20:	f514 0480 	adds.w	r4, r4, #4194304	; 0x400000
   83f24:	bf3c      	itt	cc
   83f26:	f501 1180 	addcc.w	r1, r1, #1048576	; 0x100000
   83f2a:	bd30      	popcc	{r4, r5, pc}
   83f2c:	f001 4500 	and.w	r5, r1, #2147483648	; 0x80000000
   83f30:	f045 41fe 	orr.w	r1, r5, #2130706432	; 0x7f000000
   83f34:	f441 0170 	orr.w	r1, r1, #15728640	; 0xf00000
   83f38:	f04f 0000 	mov.w	r0, #0
   83f3c:	bd30      	pop	{r4, r5, pc}
   83f3e:	ea7f 5c64 	mvns.w	ip, r4, asr #21
   83f42:	bf1a      	itte	ne
   83f44:	4619      	movne	r1, r3
   83f46:	4610      	movne	r0, r2
   83f48:	ea7f 5c65 	mvnseq.w	ip, r5, asr #21
   83f4c:	bf1c      	itt	ne
   83f4e:	460b      	movne	r3, r1
   83f50:	4602      	movne	r2, r0
   83f52:	ea50 3401 	orrs.w	r4, r0, r1, lsl #12
   83f56:	bf06      	itte	eq
   83f58:	ea52 3503 	orrseq.w	r5, r2, r3, lsl #12
   83f5c:	ea91 0f03 	teqeq	r1, r3
   83f60:	f441 2100 	orrne.w	r1, r1, #524288	; 0x80000
   83f64:	bd30      	pop	{r4, r5, pc}
   83f66:	bf00      	nop

00083f68 <__aeabi_ui2d>:
   83f68:	f090 0f00 	teq	r0, #0
   83f6c:	bf04      	itt	eq
   83f6e:	2100      	moveq	r1, #0
   83f70:	4770      	bxeq	lr
   83f72:	b530      	push	{r4, r5, lr}
   83f74:	f44f 6480 	mov.w	r4, #1024	; 0x400
   83f78:	f104 0432 	add.w	r4, r4, #50	; 0x32
   83f7c:	f04f 0500 	mov.w	r5, #0
   83f80:	f04f 0100 	mov.w	r1, #0
   83f84:	e750      	b.n	83e28 <__adddf3+0x138>
   83f86:	bf00      	nop

00083f88 <__aeabi_i2d>:
   83f88:	f090 0f00 	teq	r0, #0
   83f8c:	bf04      	itt	eq
   83f8e:	2100      	moveq	r1, #0
   83f90:	4770      	bxeq	lr
   83f92:	b530      	push	{r4, r5, lr}
   83f94:	f44f 6480 	mov.w	r4, #1024	; 0x400
   83f98:	f104 0432 	add.w	r4, r4, #50	; 0x32
   83f9c:	f010 4500 	ands.w	r5, r0, #2147483648	; 0x80000000
   83fa0:	bf48      	it	mi
   83fa2:	4240      	negmi	r0, r0
   83fa4:	f04f 0100 	mov.w	r1, #0
   83fa8:	e73e      	b.n	83e28 <__adddf3+0x138>
   83faa:	bf00      	nop

00083fac <__aeabi_f2d>:
   83fac:	0042      	lsls	r2, r0, #1
   83fae:	ea4f 01e2 	mov.w	r1, r2, asr #3
   83fb2:	ea4f 0131 	mov.w	r1, r1, rrx
   83fb6:	ea4f 7002 	mov.w	r0, r2, lsl #28
   83fba:	bf1f      	itttt	ne
   83fbc:	f012 437f 	andsne.w	r3, r2, #4278190080	; 0xff000000
   83fc0:	f093 4f7f 	teqne	r3, #4278190080	; 0xff000000
   83fc4:	f081 5160 	eorne.w	r1, r1, #939524096	; 0x38000000
   83fc8:	4770      	bxne	lr
   83fca:	f092 0f00 	teq	r2, #0
   83fce:	bf14      	ite	ne
   83fd0:	f093 4f7f 	teqne	r3, #4278190080	; 0xff000000
   83fd4:	4770      	bxeq	lr
   83fd6:	b530      	push	{r4, r5, lr}
   83fd8:	f44f 7460 	mov.w	r4, #896	; 0x380
   83fdc:	f001 4500 	and.w	r5, r1, #2147483648	; 0x80000000
   83fe0:	f021 4100 	bic.w	r1, r1, #2147483648	; 0x80000000
   83fe4:	e720      	b.n	83e28 <__adddf3+0x138>
   83fe6:	bf00      	nop

00083fe8 <__aeabi_ul2d>:
   83fe8:	ea50 0201 	orrs.w	r2, r0, r1
   83fec:	bf08      	it	eq
   83fee:	4770      	bxeq	lr
   83ff0:	b530      	push	{r4, r5, lr}
   83ff2:	f04f 0500 	mov.w	r5, #0
   83ff6:	e00a      	b.n	8400e <__aeabi_l2d+0x16>

00083ff8 <__aeabi_l2d>:
   83ff8:	ea50 0201 	orrs.w	r2, r0, r1
   83ffc:	bf08      	it	eq
   83ffe:	4770      	bxeq	lr
   84000:	b530      	push	{r4, r5, lr}
   84002:	f011 4500 	ands.w	r5, r1, #2147483648	; 0x80000000
   84006:	d502      	bpl.n	8400e <__aeabi_l2d+0x16>
   84008:	4240      	negs	r0, r0
   8400a:	eb61 0141 	sbc.w	r1, r1, r1, lsl #1
   8400e:	f44f 6480 	mov.w	r4, #1024	; 0x400
   84012:	f104 0432 	add.w	r4, r4, #50	; 0x32
   84016:	ea5f 5c91 	movs.w	ip, r1, lsr #22
   8401a:	f43f aedc 	beq.w	83dd6 <__adddf3+0xe6>
   8401e:	f04f 0203 	mov.w	r2, #3
   84022:	ea5f 0cdc 	movs.w	ip, ip, lsr #3
   84026:	bf18      	it	ne
   84028:	3203      	addne	r2, #3
   8402a:	ea5f 0cdc 	movs.w	ip, ip, lsr #3
   8402e:	bf18      	it	ne
   84030:	3203      	addne	r2, #3
   84032:	eb02 02dc 	add.w	r2, r2, ip, lsr #3
   84036:	f1c2 0320 	rsb	r3, r2, #32
   8403a:	fa00 fc03 	lsl.w	ip, r0, r3
   8403e:	fa20 f002 	lsr.w	r0, r0, r2
   84042:	fa01 fe03 	lsl.w	lr, r1, r3
   84046:	ea40 000e 	orr.w	r0, r0, lr
   8404a:	fa21 f102 	lsr.w	r1, r1, r2
   8404e:	4414      	add	r4, r2
   84050:	e6c1      	b.n	83dd6 <__adddf3+0xe6>
   84052:	bf00      	nop

00084054 <__aeabi_dmul>:
   84054:	b570      	push	{r4, r5, r6, lr}
   84056:	f04f 0cff 	mov.w	ip, #255	; 0xff
   8405a:	f44c 6ce0 	orr.w	ip, ip, #1792	; 0x700
   8405e:	ea1c 5411 	ands.w	r4, ip, r1, lsr #20
   84062:	bf1d      	ittte	ne
   84064:	ea1c 5513 	andsne.w	r5, ip, r3, lsr #20
   84068:	ea94 0f0c 	teqne	r4, ip
   8406c:	ea95 0f0c 	teqne	r5, ip
   84070:	f000 f8de 	bleq	84230 <__aeabi_dmul+0x1dc>
   84074:	442c      	add	r4, r5
   84076:	ea81 0603 	eor.w	r6, r1, r3
   8407a:	ea21 514c 	bic.w	r1, r1, ip, lsl #21
   8407e:	ea23 534c 	bic.w	r3, r3, ip, lsl #21
   84082:	ea50 3501 	orrs.w	r5, r0, r1, lsl #12
   84086:	bf18      	it	ne
   84088:	ea52 3503 	orrsne.w	r5, r2, r3, lsl #12
   8408c:	f441 1180 	orr.w	r1, r1, #1048576	; 0x100000
   84090:	f443 1380 	orr.w	r3, r3, #1048576	; 0x100000
   84094:	d038      	beq.n	84108 <__aeabi_dmul+0xb4>
   84096:	fba0 ce02 	umull	ip, lr, r0, r2
   8409a:	f04f 0500 	mov.w	r5, #0
   8409e:	fbe1 e502 	umlal	lr, r5, r1, r2
   840a2:	f006 4200 	and.w	r2, r6, #2147483648	; 0x80000000
   840a6:	fbe0 e503 	umlal	lr, r5, r0, r3
   840aa:	f04f 0600 	mov.w	r6, #0
   840ae:	fbe1 5603 	umlal	r5, r6, r1, r3
   840b2:	f09c 0f00 	teq	ip, #0
   840b6:	bf18      	it	ne
   840b8:	f04e 0e01 	orrne.w	lr, lr, #1
   840bc:	f1a4 04ff 	sub.w	r4, r4, #255	; 0xff
   840c0:	f5b6 7f00 	cmp.w	r6, #512	; 0x200
   840c4:	f564 7440 	sbc.w	r4, r4, #768	; 0x300
   840c8:	d204      	bcs.n	840d4 <__aeabi_dmul+0x80>
   840ca:	ea5f 0e4e 	movs.w	lr, lr, lsl #1
   840ce:	416d      	adcs	r5, r5
   840d0:	eb46 0606 	adc.w	r6, r6, r6
   840d4:	ea42 21c6 	orr.w	r1, r2, r6, lsl #11
   840d8:	ea41 5155 	orr.w	r1, r1, r5, lsr #21
   840dc:	ea4f 20c5 	mov.w	r0, r5, lsl #11
   840e0:	ea40 505e 	orr.w	r0, r0, lr, lsr #21
   840e4:	ea4f 2ece 	mov.w	lr, lr, lsl #11
   840e8:	f1b4 0cfd 	subs.w	ip, r4, #253	; 0xfd
   840ec:	bf88      	it	hi
   840ee:	f5bc 6fe0 	cmphi.w	ip, #1792	; 0x700
   840f2:	d81e      	bhi.n	84132 <__aeabi_dmul+0xde>
   840f4:	f1be 4f00 	cmp.w	lr, #2147483648	; 0x80000000
   840f8:	bf08      	it	eq
   840fa:	ea5f 0e50 	movseq.w	lr, r0, lsr #1
   840fe:	f150 0000 	adcs.w	r0, r0, #0
   84102:	eb41 5104 	adc.w	r1, r1, r4, lsl #20
   84106:	bd70      	pop	{r4, r5, r6, pc}
   84108:	f006 4600 	and.w	r6, r6, #2147483648	; 0x80000000
   8410c:	ea46 0101 	orr.w	r1, r6, r1
   84110:	ea40 0002 	orr.w	r0, r0, r2
   84114:	ea81 0103 	eor.w	r1, r1, r3
   84118:	ebb4 045c 	subs.w	r4, r4, ip, lsr #1
   8411c:	bfc2      	ittt	gt
   8411e:	ebd4 050c 	rsbsgt	r5, r4, ip
   84122:	ea41 5104 	orrgt.w	r1, r1, r4, lsl #20
   84126:	bd70      	popgt	{r4, r5, r6, pc}
   84128:	f441 1180 	orr.w	r1, r1, #1048576	; 0x100000
   8412c:	f04f 0e00 	mov.w	lr, #0
   84130:	3c01      	subs	r4, #1
   84132:	f300 80ab 	bgt.w	8428c <__aeabi_dmul+0x238>
   84136:	f114 0f36 	cmn.w	r4, #54	; 0x36
   8413a:	bfde      	ittt	le
   8413c:	2000      	movle	r0, #0
   8413e:	f001 4100 	andle.w	r1, r1, #2147483648	; 0x80000000
   84142:	bd70      	pople	{r4, r5, r6, pc}
   84144:	f1c4 0400 	rsb	r4, r4, #0
   84148:	3c20      	subs	r4, #32
   8414a:	da35      	bge.n	841b8 <__aeabi_dmul+0x164>
   8414c:	340c      	adds	r4, #12
   8414e:	dc1b      	bgt.n	84188 <__aeabi_dmul+0x134>
   84150:	f104 0414 	add.w	r4, r4, #20
   84154:	f1c4 0520 	rsb	r5, r4, #32
   84158:	fa00 f305 	lsl.w	r3, r0, r5
   8415c:	fa20 f004 	lsr.w	r0, r0, r4
   84160:	fa01 f205 	lsl.w	r2, r1, r5
   84164:	ea40 0002 	orr.w	r0, r0, r2
   84168:	f001 4200 	and.w	r2, r1, #2147483648	; 0x80000000
   8416c:	f021 4100 	bic.w	r1, r1, #2147483648	; 0x80000000
   84170:	eb10 70d3 	adds.w	r0, r0, r3, lsr #31
   84174:	fa21 f604 	lsr.w	r6, r1, r4
   84178:	eb42 0106 	adc.w	r1, r2, r6
   8417c:	ea5e 0e43 	orrs.w	lr, lr, r3, lsl #1
   84180:	bf08      	it	eq
   84182:	ea20 70d3 	biceq.w	r0, r0, r3, lsr #31
   84186:	bd70      	pop	{r4, r5, r6, pc}
   84188:	f1c4 040c 	rsb	r4, r4, #12
   8418c:	f1c4 0520 	rsb	r5, r4, #32
   84190:	fa00 f304 	lsl.w	r3, r0, r4
   84194:	fa20 f005 	lsr.w	r0, r0, r5
   84198:	fa01 f204 	lsl.w	r2, r1, r4
   8419c:	ea40 0002 	orr.w	r0, r0, r2
   841a0:	f001 4100 	and.w	r1, r1, #2147483648	; 0x80000000
   841a4:	eb10 70d3 	adds.w	r0, r0, r3, lsr #31
   841a8:	f141 0100 	adc.w	r1, r1, #0
   841ac:	ea5e 0e43 	orrs.w	lr, lr, r3, lsl #1
   841b0:	bf08      	it	eq
   841b2:	ea20 70d3 	biceq.w	r0, r0, r3, lsr #31
   841b6:	bd70      	pop	{r4, r5, r6, pc}
   841b8:	f1c4 0520 	rsb	r5, r4, #32
   841bc:	fa00 f205 	lsl.w	r2, r0, r5
   841c0:	ea4e 0e02 	orr.w	lr, lr, r2
   841c4:	fa20 f304 	lsr.w	r3, r0, r4
   841c8:	fa01 f205 	lsl.w	r2, r1, r5
   841cc:	ea43 0302 	orr.w	r3, r3, r2
   841d0:	fa21 f004 	lsr.w	r0, r1, r4
   841d4:	f001 4100 	and.w	r1, r1, #2147483648	; 0x80000000
   841d8:	fa21 f204 	lsr.w	r2, r1, r4
   841dc:	ea20 0002 	bic.w	r0, r0, r2
   841e0:	eb00 70d3 	add.w	r0, r0, r3, lsr #31
   841e4:	ea5e 0e43 	orrs.w	lr, lr, r3, lsl #1
   841e8:	bf08      	it	eq
   841ea:	ea20 70d3 	biceq.w	r0, r0, r3, lsr #31
   841ee:	bd70      	pop	{r4, r5, r6, pc}
   841f0:	f094 0f00 	teq	r4, #0
   841f4:	d10f      	bne.n	84216 <__aeabi_dmul+0x1c2>
   841f6:	f001 4600 	and.w	r6, r1, #2147483648	; 0x80000000
   841fa:	0040      	lsls	r0, r0, #1
   841fc:	eb41 0101 	adc.w	r1, r1, r1
   84200:	f411 1f80 	tst.w	r1, #1048576	; 0x100000
   84204:	bf08      	it	eq
   84206:	3c01      	subeq	r4, #1
   84208:	d0f7      	beq.n	841fa <__aeabi_dmul+0x1a6>
   8420a:	ea41 0106 	orr.w	r1, r1, r6
   8420e:	f095 0f00 	teq	r5, #0
   84212:	bf18      	it	ne
   84214:	4770      	bxne	lr
   84216:	f003 4600 	and.w	r6, r3, #2147483648	; 0x80000000
   8421a:	0052      	lsls	r2, r2, #1
   8421c:	eb43 0303 	adc.w	r3, r3, r3
   84220:	f413 1f80 	tst.w	r3, #1048576	; 0x100000
   84224:	bf08      	it	eq
   84226:	3d01      	subeq	r5, #1
   84228:	d0f7      	beq.n	8421a <__aeabi_dmul+0x1c6>
   8422a:	ea43 0306 	orr.w	r3, r3, r6
   8422e:	4770      	bx	lr
   84230:	ea94 0f0c 	teq	r4, ip
   84234:	ea0c 5513 	and.w	r5, ip, r3, lsr #20
   84238:	bf18      	it	ne
   8423a:	ea95 0f0c 	teqne	r5, ip
   8423e:	d00c      	beq.n	8425a <__aeabi_dmul+0x206>
   84240:	ea50 0641 	orrs.w	r6, r0, r1, lsl #1
   84244:	bf18      	it	ne
   84246:	ea52 0643 	orrsne.w	r6, r2, r3, lsl #1
   8424a:	d1d1      	bne.n	841f0 <__aeabi_dmul+0x19c>
   8424c:	ea81 0103 	eor.w	r1, r1, r3
   84250:	f001 4100 	and.w	r1, r1, #2147483648	; 0x80000000
   84254:	f04f 0000 	mov.w	r0, #0
   84258:	bd70      	pop	{r4, r5, r6, pc}
   8425a:	ea50 0641 	orrs.w	r6, r0, r1, lsl #1
   8425e:	bf06      	itte	eq
   84260:	4610      	moveq	r0, r2
   84262:	4619      	moveq	r1, r3
   84264:	ea52 0643 	orrsne.w	r6, r2, r3, lsl #1
   84268:	d019      	beq.n	8429e <__aeabi_dmul+0x24a>
   8426a:	ea94 0f0c 	teq	r4, ip
   8426e:	d102      	bne.n	84276 <__aeabi_dmul+0x222>
   84270:	ea50 3601 	orrs.w	r6, r0, r1, lsl #12
   84274:	d113      	bne.n	8429e <__aeabi_dmul+0x24a>
   84276:	ea95 0f0c 	teq	r5, ip
   8427a:	d105      	bne.n	84288 <__aeabi_dmul+0x234>
   8427c:	ea52 3603 	orrs.w	r6, r2, r3, lsl #12
   84280:	bf1c      	itt	ne
   84282:	4610      	movne	r0, r2
   84284:	4619      	movne	r1, r3
   84286:	d10a      	bne.n	8429e <__aeabi_dmul+0x24a>
   84288:	ea81 0103 	eor.w	r1, r1, r3
   8428c:	f001 4100 	and.w	r1, r1, #2147483648	; 0x80000000
   84290:	f041 41fe 	orr.w	r1, r1, #2130706432	; 0x7f000000
   84294:	f441 0170 	orr.w	r1, r1, #15728640	; 0xf00000
   84298:	f04f 0000 	mov.w	r0, #0
   8429c:	bd70      	pop	{r4, r5, r6, pc}
   8429e:	f041 41fe 	orr.w	r1, r1, #2130706432	; 0x7f000000
   842a2:	f441 0178 	orr.w	r1, r1, #16252928	; 0xf80000
   842a6:	bd70      	pop	{r4, r5, r6, pc}

000842a8 <__aeabi_ddiv>:
   842a8:	b570      	push	{r4, r5, r6, lr}
   842aa:	f04f 0cff 	mov.w	ip, #255	; 0xff
   842ae:	f44c 6ce0 	orr.w	ip, ip, #1792	; 0x700
   842b2:	ea1c 5411 	ands.w	r4, ip, r1, lsr #20
   842b6:	bf1d      	ittte	ne
   842b8:	ea1c 5513 	andsne.w	r5, ip, r3, lsr #20
   842bc:	ea94 0f0c 	teqne	r4, ip
   842c0:	ea95 0f0c 	teqne	r5, ip
   842c4:	f000 f8a7 	bleq	84416 <__aeabi_ddiv+0x16e>
   842c8:	eba4 0405 	sub.w	r4, r4, r5
   842cc:	ea81 0e03 	eor.w	lr, r1, r3
   842d0:	ea52 3503 	orrs.w	r5, r2, r3, lsl #12
   842d4:	ea4f 3101 	mov.w	r1, r1, lsl #12
   842d8:	f000 8088 	beq.w	843ec <__aeabi_ddiv+0x144>
   842dc:	ea4f 3303 	mov.w	r3, r3, lsl #12
   842e0:	f04f 5580 	mov.w	r5, #268435456	; 0x10000000
   842e4:	ea45 1313 	orr.w	r3, r5, r3, lsr #4
   842e8:	ea43 6312 	orr.w	r3, r3, r2, lsr #24
   842ec:	ea4f 2202 	mov.w	r2, r2, lsl #8
   842f0:	ea45 1511 	orr.w	r5, r5, r1, lsr #4
   842f4:	ea45 6510 	orr.w	r5, r5, r0, lsr #24
   842f8:	ea4f 2600 	mov.w	r6, r0, lsl #8
   842fc:	f00e 4100 	and.w	r1, lr, #2147483648	; 0x80000000
   84300:	429d      	cmp	r5, r3
   84302:	bf08      	it	eq
   84304:	4296      	cmpeq	r6, r2
   84306:	f144 04fd 	adc.w	r4, r4, #253	; 0xfd
   8430a:	f504 7440 	add.w	r4, r4, #768	; 0x300
   8430e:	d202      	bcs.n	84316 <__aeabi_ddiv+0x6e>
   84310:	085b      	lsrs	r3, r3, #1
   84312:	ea4f 0232 	mov.w	r2, r2, rrx
   84316:	1ab6      	subs	r6, r6, r2
   84318:	eb65 0503 	sbc.w	r5, r5, r3
   8431c:	085b      	lsrs	r3, r3, #1
   8431e:	ea4f 0232 	mov.w	r2, r2, rrx
   84322:	f44f 1080 	mov.w	r0, #1048576	; 0x100000
   84326:	f44f 2c00 	mov.w	ip, #524288	; 0x80000
   8432a:	ebb6 0e02 	subs.w	lr, r6, r2
   8432e:	eb75 0e03 	sbcs.w	lr, r5, r3
   84332:	bf22      	ittt	cs
   84334:	1ab6      	subcs	r6, r6, r2
   84336:	4675      	movcs	r5, lr
   84338:	ea40 000c 	orrcs.w	r0, r0, ip
   8433c:	085b      	lsrs	r3, r3, #1
   8433e:	ea4f 0232 	mov.w	r2, r2, rrx
   84342:	ebb6 0e02 	subs.w	lr, r6, r2
   84346:	eb75 0e03 	sbcs.w	lr, r5, r3
   8434a:	bf22      	ittt	cs
   8434c:	1ab6      	subcs	r6, r6, r2
   8434e:	4675      	movcs	r5, lr
   84350:	ea40 005c 	orrcs.w	r0, r0, ip, lsr #1
   84354:	085b      	lsrs	r3, r3, #1
   84356:	ea4f 0232 	mov.w	r2, r2, rrx
   8435a:	ebb6 0e02 	subs.w	lr, r6, r2
   8435e:	eb75 0e03 	sbcs.w	lr, r5, r3
   84362:	bf22      	ittt	cs
   84364:	1ab6      	subcs	r6, r6, r2
   84366:	4675      	movcs	r5, lr
   84368:	ea40 009c 	orrcs.w	r0, r0, ip, lsr #2
   8436c:	085b      	lsrs	r3, r3, #1
   8436e:	ea4f 0232 	mov.w	r2, r2, rrx
   84372:	ebb6 0e02 	subs.w	lr, r6, r2
   84376:	eb75 0e03 	sbcs.w	lr, r5, r3
   8437a:	bf22      	ittt	cs
   8437c:	1ab6      	subcs	r6, r6, r2
   8437e:	4675      	movcs	r5, lr
   84380:	ea40 00dc 	orrcs.w	r0, r0, ip, lsr #3
   84384:	ea55 0e06 	orrs.w	lr, r5, r6
   84388:	d018      	beq.n	843bc <__aeabi_ddiv+0x114>
   8438a:	ea4f 1505 	mov.w	r5, r5, lsl #4
   8438e:	ea45 7516 	orr.w	r5, r5, r6, lsr #28
   84392:	ea4f 1606 	mov.w	r6, r6, lsl #4
   84396:	ea4f 03c3 	mov.w	r3, r3, lsl #3
   8439a:	ea43 7352 	orr.w	r3, r3, r2, lsr #29
   8439e:	ea4f 02c2 	mov.w	r2, r2, lsl #3
   843a2:	ea5f 1c1c 	movs.w	ip, ip, lsr #4
   843a6:	d1c0      	bne.n	8432a <__aeabi_ddiv+0x82>
   843a8:	f411 1f80 	tst.w	r1, #1048576	; 0x100000
   843ac:	d10b      	bne.n	843c6 <__aeabi_ddiv+0x11e>
   843ae:	ea41 0100 	orr.w	r1, r1, r0
   843b2:	f04f 0000 	mov.w	r0, #0
   843b6:	f04f 4c00 	mov.w	ip, #2147483648	; 0x80000000
   843ba:	e7b6      	b.n	8432a <__aeabi_ddiv+0x82>
   843bc:	f411 1f80 	tst.w	r1, #1048576	; 0x100000
   843c0:	bf04      	itt	eq
   843c2:	4301      	orreq	r1, r0
   843c4:	2000      	moveq	r0, #0
   843c6:	f1b4 0cfd 	subs.w	ip, r4, #253	; 0xfd
   843ca:	bf88      	it	hi
   843cc:	f5bc 6fe0 	cmphi.w	ip, #1792	; 0x700
   843d0:	f63f aeaf 	bhi.w	84132 <__aeabi_dmul+0xde>
   843d4:	ebb5 0c03 	subs.w	ip, r5, r3
   843d8:	bf04      	itt	eq
   843da:	ebb6 0c02 	subseq.w	ip, r6, r2
   843de:	ea5f 0c50 	movseq.w	ip, r0, lsr #1
   843e2:	f150 0000 	adcs.w	r0, r0, #0
   843e6:	eb41 5104 	adc.w	r1, r1, r4, lsl #20
   843ea:	bd70      	pop	{r4, r5, r6, pc}
   843ec:	f00e 4e00 	and.w	lr, lr, #2147483648	; 0x80000000
   843f0:	ea4e 3111 	orr.w	r1, lr, r1, lsr #12
   843f4:	eb14 045c 	adds.w	r4, r4, ip, lsr #1
   843f8:	bfc2      	ittt	gt
   843fa:	ebd4 050c 	rsbsgt	r5, r4, ip
   843fe:	ea41 5104 	orrgt.w	r1, r1, r4, lsl #20
   84402:	bd70      	popgt	{r4, r5, r6, pc}
   84404:	f441 1180 	orr.w	r1, r1, #1048576	; 0x100000
   84408:	f04f 0e00 	mov.w	lr, #0
   8440c:	3c01      	subs	r4, #1
   8440e:	e690      	b.n	84132 <__aeabi_dmul+0xde>
   84410:	ea45 0e06 	orr.w	lr, r5, r6
   84414:	e68d      	b.n	84132 <__aeabi_dmul+0xde>
   84416:	ea0c 5513 	and.w	r5, ip, r3, lsr #20
   8441a:	ea94 0f0c 	teq	r4, ip
   8441e:	bf08      	it	eq
   84420:	ea95 0f0c 	teqeq	r5, ip
   84424:	f43f af3b 	beq.w	8429e <__aeabi_dmul+0x24a>
   84428:	ea94 0f0c 	teq	r4, ip
   8442c:	d10a      	bne.n	84444 <__aeabi_ddiv+0x19c>
   8442e:	ea50 3401 	orrs.w	r4, r0, r1, lsl #12
   84432:	f47f af34 	bne.w	8429e <__aeabi_dmul+0x24a>
   84436:	ea95 0f0c 	teq	r5, ip
   8443a:	f47f af25 	bne.w	84288 <__aeabi_dmul+0x234>
   8443e:	4610      	mov	r0, r2
   84440:	4619      	mov	r1, r3
   84442:	e72c      	b.n	8429e <__aeabi_dmul+0x24a>
   84444:	ea95 0f0c 	teq	r5, ip
   84448:	d106      	bne.n	84458 <__aeabi_ddiv+0x1b0>
   8444a:	ea52 3503 	orrs.w	r5, r2, r3, lsl #12
   8444e:	f43f aefd 	beq.w	8424c <__aeabi_dmul+0x1f8>
   84452:	4610      	mov	r0, r2
   84454:	4619      	mov	r1, r3
   84456:	e722      	b.n	8429e <__aeabi_dmul+0x24a>
   84458:	ea50 0641 	orrs.w	r6, r0, r1, lsl #1
   8445c:	bf18      	it	ne
   8445e:	ea52 0643 	orrsne.w	r6, r2, r3, lsl #1
   84462:	f47f aec5 	bne.w	841f0 <__aeabi_dmul+0x19c>
   84466:	ea50 0441 	orrs.w	r4, r0, r1, lsl #1
   8446a:	f47f af0d 	bne.w	84288 <__aeabi_dmul+0x234>
   8446e:	ea52 0543 	orrs.w	r5, r2, r3, lsl #1
   84472:	f47f aeeb 	bne.w	8424c <__aeabi_dmul+0x1f8>
   84476:	e712      	b.n	8429e <__aeabi_dmul+0x24a>

00084478 <__gedf2>:
   84478:	f04f 3cff 	mov.w	ip, #4294967295
   8447c:	e006      	b.n	8448c <__cmpdf2+0x4>
   8447e:	bf00      	nop

00084480 <__ledf2>:
   84480:	f04f 0c01 	mov.w	ip, #1
   84484:	e002      	b.n	8448c <__cmpdf2+0x4>
   84486:	bf00      	nop

00084488 <__cmpdf2>:
   84488:	f04f 0c01 	mov.w	ip, #1
   8448c:	f84d cd04 	str.w	ip, [sp, #-4]!
   84490:	ea4f 0c41 	mov.w	ip, r1, lsl #1
   84494:	ea7f 5c6c 	mvns.w	ip, ip, asr #21
   84498:	ea4f 0c43 	mov.w	ip, r3, lsl #1
   8449c:	bf18      	it	ne
   8449e:	ea7f 5c6c 	mvnsne.w	ip, ip, asr #21
   844a2:	d01b      	beq.n	844dc <__cmpdf2+0x54>
   844a4:	b001      	add	sp, #4
   844a6:	ea50 0c41 	orrs.w	ip, r0, r1, lsl #1
   844aa:	bf0c      	ite	eq
   844ac:	ea52 0c43 	orrseq.w	ip, r2, r3, lsl #1
   844b0:	ea91 0f03 	teqne	r1, r3
   844b4:	bf02      	ittt	eq
   844b6:	ea90 0f02 	teqeq	r0, r2
   844ba:	2000      	moveq	r0, #0
   844bc:	4770      	bxeq	lr
   844be:	f110 0f00 	cmn.w	r0, #0
   844c2:	ea91 0f03 	teq	r1, r3
   844c6:	bf58      	it	pl
   844c8:	4299      	cmppl	r1, r3
   844ca:	bf08      	it	eq
   844cc:	4290      	cmpeq	r0, r2
   844ce:	bf2c      	ite	cs
   844d0:	17d8      	asrcs	r0, r3, #31
   844d2:	ea6f 70e3 	mvncc.w	r0, r3, asr #31
   844d6:	f040 0001 	orr.w	r0, r0, #1
   844da:	4770      	bx	lr
   844dc:	ea4f 0c41 	mov.w	ip, r1, lsl #1
   844e0:	ea7f 5c6c 	mvns.w	ip, ip, asr #21
   844e4:	d102      	bne.n	844ec <__cmpdf2+0x64>
   844e6:	ea50 3c01 	orrs.w	ip, r0, r1, lsl #12
   844ea:	d107      	bne.n	844fc <__cmpdf2+0x74>
   844ec:	ea4f 0c43 	mov.w	ip, r3, lsl #1
   844f0:	ea7f 5c6c 	mvns.w	ip, ip, asr #21
   844f4:	d1d6      	bne.n	844a4 <__cmpdf2+0x1c>
   844f6:	ea52 3c03 	orrs.w	ip, r2, r3, lsl #12
   844fa:	d0d3      	beq.n	844a4 <__cmpdf2+0x1c>
   844fc:	f85d 0b04 	ldr.w	r0, [sp], #4
   84500:	4770      	bx	lr
   84502:	bf00      	nop

00084504 <__aeabi_cdrcmple>:
   84504:	4684      	mov	ip, r0
   84506:	4610      	mov	r0, r2
   84508:	4662      	mov	r2, ip
   8450a:	468c      	mov	ip, r1
   8450c:	4619      	mov	r1, r3
   8450e:	4663      	mov	r3, ip
   84510:	e000      	b.n	84514 <__aeabi_cdcmpeq>
   84512:	bf00      	nop

00084514 <__aeabi_cdcmpeq>:
   84514:	b501      	push	{r0, lr}
   84516:	f7ff ffb7 	bl	84488 <__cmpdf2>
   8451a:	2800      	cmp	r0, #0
   8451c:	bf48      	it	mi
   8451e:	f110 0f00 	cmnmi.w	r0, #0
   84522:	bd01      	pop	{r0, pc}

00084524 <__aeabi_dcmpeq>:
   84524:	f84d ed08 	str.w	lr, [sp, #-8]!
   84528:	f7ff fff4 	bl	84514 <__aeabi_cdcmpeq>
   8452c:	bf0c      	ite	eq
   8452e:	2001      	moveq	r0, #1
   84530:	2000      	movne	r0, #0
   84532:	f85d fb08 	ldr.w	pc, [sp], #8
   84536:	bf00      	nop

00084538 <__aeabi_dcmplt>:
   84538:	f84d ed08 	str.w	lr, [sp, #-8]!
   8453c:	f7ff ffea 	bl	84514 <__aeabi_cdcmpeq>
   84540:	bf34      	ite	cc
   84542:	2001      	movcc	r0, #1
   84544:	2000      	movcs	r0, #0
   84546:	f85d fb08 	ldr.w	pc, [sp], #8
   8454a:	bf00      	nop

0008454c <__aeabi_dcmple>:
   8454c:	f84d ed08 	str.w	lr, [sp, #-8]!
   84550:	f7ff ffe0 	bl	84514 <__aeabi_cdcmpeq>
   84554:	bf94      	ite	ls
   84556:	2001      	movls	r0, #1
   84558:	2000      	movhi	r0, #0
   8455a:	f85d fb08 	ldr.w	pc, [sp], #8
   8455e:	bf00      	nop

00084560 <__aeabi_dcmpge>:
   84560:	f84d ed08 	str.w	lr, [sp, #-8]!
   84564:	f7ff ffce 	bl	84504 <__aeabi_cdrcmple>
   84568:	bf94      	ite	ls
   8456a:	2001      	movls	r0, #1
   8456c:	2000      	movhi	r0, #0
   8456e:	f85d fb08 	ldr.w	pc, [sp], #8
   84572:	bf00      	nop

00084574 <__aeabi_dcmpgt>:
   84574:	f84d ed08 	str.w	lr, [sp, #-8]!
   84578:	f7ff ffc4 	bl	84504 <__aeabi_cdrcmple>
   8457c:	bf34      	ite	cc
   8457e:	2001      	movcc	r0, #1
   84580:	2000      	movcs	r0, #0
   84582:	f85d fb08 	ldr.w	pc, [sp], #8
   84586:	bf00      	nop

00084588 <__aeabi_d2iz>:
   84588:	ea4f 0241 	mov.w	r2, r1, lsl #1
   8458c:	f512 1200 	adds.w	r2, r2, #2097152	; 0x200000
   84590:	d215      	bcs.n	845be <__aeabi_d2iz+0x36>
   84592:	d511      	bpl.n	845b8 <__aeabi_d2iz+0x30>
   84594:	f46f 7378 	mvn.w	r3, #992	; 0x3e0
   84598:	ebb3 5262 	subs.w	r2, r3, r2, asr #21
   8459c:	d912      	bls.n	845c4 <__aeabi_d2iz+0x3c>
   8459e:	ea4f 23c1 	mov.w	r3, r1, lsl #11
   845a2:	f043 4300 	orr.w	r3, r3, #2147483648	; 0x80000000
   845a6:	ea43 5350 	orr.w	r3, r3, r0, lsr #21
   845aa:	f011 4f00 	tst.w	r1, #2147483648	; 0x80000000
   845ae:	fa23 f002 	lsr.w	r0, r3, r2
   845b2:	bf18      	it	ne
   845b4:	4240      	negne	r0, r0
   845b6:	4770      	bx	lr
   845b8:	f04f 0000 	mov.w	r0, #0
   845bc:	4770      	bx	lr
   845be:	ea50 3001 	orrs.w	r0, r0, r1, lsl #12
   845c2:	d105      	bne.n	845d0 <__aeabi_d2iz+0x48>
   845c4:	f011 4000 	ands.w	r0, r1, #2147483648	; 0x80000000
   845c8:	bf08      	it	eq
   845ca:	f06f 4000 	mvneq.w	r0, #2147483648	; 0x80000000
   845ce:	4770      	bx	lr
   845d0:	f04f 0000 	mov.w	r0, #0
   845d4:	4770      	bx	lr
   845d6:	bf00      	nop

000845d8 <__aeabi_d2f>:
   845d8:	ea4f 0241 	mov.w	r2, r1, lsl #1
   845dc:	f1b2 43e0 	subs.w	r3, r2, #1879048192	; 0x70000000
   845e0:	bf24      	itt	cs
   845e2:	f5b3 1c00 	subscs.w	ip, r3, #2097152	; 0x200000
   845e6:	f1dc 5cfe 	rsbscs	ip, ip, #532676608	; 0x1fc00000
   845ea:	d90d      	bls.n	84608 <__aeabi_d2f+0x30>
   845ec:	f001 4c00 	and.w	ip, r1, #2147483648	; 0x80000000
   845f0:	ea4f 02c0 	mov.w	r2, r0, lsl #3
   845f4:	ea4c 7050 	orr.w	r0, ip, r0, lsr #29
   845f8:	f1b2 4f00 	cmp.w	r2, #2147483648	; 0x80000000
   845fc:	eb40 0083 	adc.w	r0, r0, r3, lsl #2
   84600:	bf08      	it	eq
   84602:	f020 0001 	biceq.w	r0, r0, #1
   84606:	4770      	bx	lr
   84608:	f011 4f80 	tst.w	r1, #1073741824	; 0x40000000
   8460c:	d121      	bne.n	84652 <__aeabi_d2f+0x7a>
   8460e:	f113 7238 	adds.w	r2, r3, #48234496	; 0x2e00000
   84612:	bfbc      	itt	lt
   84614:	f001 4000 	andlt.w	r0, r1, #2147483648	; 0x80000000
   84618:	4770      	bxlt	lr
   8461a:	f441 1180 	orr.w	r1, r1, #1048576	; 0x100000
   8461e:	ea4f 5252 	mov.w	r2, r2, lsr #21
   84622:	f1c2 0218 	rsb	r2, r2, #24
   84626:	f1c2 0c20 	rsb	ip, r2, #32
   8462a:	fa10 f30c 	lsls.w	r3, r0, ip
   8462e:	fa20 f002 	lsr.w	r0, r0, r2
   84632:	bf18      	it	ne
   84634:	f040 0001 	orrne.w	r0, r0, #1
   84638:	ea4f 23c1 	mov.w	r3, r1, lsl #11
   8463c:	ea4f 23d3 	mov.w	r3, r3, lsr #11
   84640:	fa03 fc0c 	lsl.w	ip, r3, ip
   84644:	ea40 000c 	orr.w	r0, r0, ip
   84648:	fa23 f302 	lsr.w	r3, r3, r2
   8464c:	ea4f 0343 	mov.w	r3, r3, lsl #1
   84650:	e7cc      	b.n	845ec <__aeabi_d2f+0x14>
   84652:	ea7f 5362 	mvns.w	r3, r2, asr #21
   84656:	d107      	bne.n	84668 <__aeabi_d2f+0x90>
   84658:	ea50 3301 	orrs.w	r3, r0, r1, lsl #12
   8465c:	bf1e      	ittt	ne
   8465e:	f04f 40fe 	movne.w	r0, #2130706432	; 0x7f000000
   84662:	f440 0040 	orrne.w	r0, r0, #12582912	; 0xc00000
   84666:	4770      	bxne	lr
   84668:	f001 4000 	and.w	r0, r1, #2147483648	; 0x80000000
   8466c:	f040 40fe 	orr.w	r0, r0, #2130706432	; 0x7f000000
   84670:	f440 0000 	orr.w	r0, r0, #8388608	; 0x800000
   84674:	4770      	bx	lr
   84676:	bf00      	nop

00084678 <__aeabi_frsub>:
   84678:	f080 4000 	eor.w	r0, r0, #2147483648	; 0x80000000
   8467c:	e002      	b.n	84684 <__addsf3>
   8467e:	bf00      	nop

00084680 <__aeabi_fsub>:
   84680:	f081 4100 	eor.w	r1, r1, #2147483648	; 0x80000000

00084684 <__addsf3>:
   84684:	0042      	lsls	r2, r0, #1
   84686:	bf1f      	itttt	ne
   84688:	ea5f 0341 	movsne.w	r3, r1, lsl #1
   8468c:	ea92 0f03 	teqne	r2, r3
   84690:	ea7f 6c22 	mvnsne.w	ip, r2, asr #24
   84694:	ea7f 6c23 	mvnsne.w	ip, r3, asr #24
   84698:	d06a      	beq.n	84770 <__addsf3+0xec>
   8469a:	ea4f 6212 	mov.w	r2, r2, lsr #24
   8469e:	ebd2 6313 	rsbs	r3, r2, r3, lsr #24
   846a2:	bfc1      	itttt	gt
   846a4:	18d2      	addgt	r2, r2, r3
   846a6:	4041      	eorgt	r1, r0
   846a8:	4048      	eorgt	r0, r1
   846aa:	4041      	eorgt	r1, r0
   846ac:	bfb8      	it	lt
   846ae:	425b      	neglt	r3, r3
   846b0:	2b19      	cmp	r3, #25
   846b2:	bf88      	it	hi
   846b4:	4770      	bxhi	lr
   846b6:	f010 4f00 	tst.w	r0, #2147483648	; 0x80000000
   846ba:	f440 0000 	orr.w	r0, r0, #8388608	; 0x800000
   846be:	f020 407f 	bic.w	r0, r0, #4278190080	; 0xff000000
   846c2:	bf18      	it	ne
   846c4:	4240      	negne	r0, r0
   846c6:	f011 4f00 	tst.w	r1, #2147483648	; 0x80000000
   846ca:	f441 0100 	orr.w	r1, r1, #8388608	; 0x800000
   846ce:	f021 417f 	bic.w	r1, r1, #4278190080	; 0xff000000
   846d2:	bf18      	it	ne
   846d4:	4249      	negne	r1, r1
   846d6:	ea92 0f03 	teq	r2, r3
   846da:	d03f      	beq.n	8475c <__addsf3+0xd8>
   846dc:	f1a2 0201 	sub.w	r2, r2, #1
   846e0:	fa41 fc03 	asr.w	ip, r1, r3
   846e4:	eb10 000c 	adds.w	r0, r0, ip
   846e8:	f1c3 0320 	rsb	r3, r3, #32
   846ec:	fa01 f103 	lsl.w	r1, r1, r3
   846f0:	f000 4300 	and.w	r3, r0, #2147483648	; 0x80000000
   846f4:	d502      	bpl.n	846fc <__addsf3+0x78>
   846f6:	4249      	negs	r1, r1
   846f8:	eb60 0040 	sbc.w	r0, r0, r0, lsl #1
   846fc:	f5b0 0f00 	cmp.w	r0, #8388608	; 0x800000
   84700:	d313      	bcc.n	8472a <__addsf3+0xa6>
   84702:	f1b0 7f80 	cmp.w	r0, #16777216	; 0x1000000
   84706:	d306      	bcc.n	84716 <__addsf3+0x92>
   84708:	0840      	lsrs	r0, r0, #1
   8470a:	ea4f 0131 	mov.w	r1, r1, rrx
   8470e:	f102 0201 	add.w	r2, r2, #1
   84712:	2afe      	cmp	r2, #254	; 0xfe
   84714:	d251      	bcs.n	847ba <__addsf3+0x136>
   84716:	f1b1 4f00 	cmp.w	r1, #2147483648	; 0x80000000
   8471a:	eb40 50c2 	adc.w	r0, r0, r2, lsl #23
   8471e:	bf08      	it	eq
   84720:	f020 0001 	biceq.w	r0, r0, #1
   84724:	ea40 0003 	orr.w	r0, r0, r3
   84728:	4770      	bx	lr
   8472a:	0049      	lsls	r1, r1, #1
   8472c:	eb40 0000 	adc.w	r0, r0, r0
   84730:	f410 0f00 	tst.w	r0, #8388608	; 0x800000
   84734:	f1a2 0201 	sub.w	r2, r2, #1
   84738:	d1ed      	bne.n	84716 <__addsf3+0x92>
   8473a:	fab0 fc80 	clz	ip, r0
   8473e:	f1ac 0c08 	sub.w	ip, ip, #8
   84742:	ebb2 020c 	subs.w	r2, r2, ip
   84746:	fa00 f00c 	lsl.w	r0, r0, ip
   8474a:	bfaa      	itet	ge
   8474c:	eb00 50c2 	addge.w	r0, r0, r2, lsl #23
   84750:	4252      	neglt	r2, r2
   84752:	4318      	orrge	r0, r3
   84754:	bfbc      	itt	lt
   84756:	40d0      	lsrlt	r0, r2
   84758:	4318      	orrlt	r0, r3
   8475a:	4770      	bx	lr
   8475c:	f092 0f00 	teq	r2, #0
   84760:	f481 0100 	eor.w	r1, r1, #8388608	; 0x800000
   84764:	bf06      	itte	eq
   84766:	f480 0000 	eoreq.w	r0, r0, #8388608	; 0x800000
   8476a:	3201      	addeq	r2, #1
   8476c:	3b01      	subne	r3, #1
   8476e:	e7b5      	b.n	846dc <__addsf3+0x58>
   84770:	ea4f 0341 	mov.w	r3, r1, lsl #1
   84774:	ea7f 6c22 	mvns.w	ip, r2, asr #24
   84778:	bf18      	it	ne
   8477a:	ea7f 6c23 	mvnsne.w	ip, r3, asr #24
   8477e:	d021      	beq.n	847c4 <__addsf3+0x140>
   84780:	ea92 0f03 	teq	r2, r3
   84784:	d004      	beq.n	84790 <__addsf3+0x10c>
   84786:	f092 0f00 	teq	r2, #0
   8478a:	bf08      	it	eq
   8478c:	4608      	moveq	r0, r1
   8478e:	4770      	bx	lr
   84790:	ea90 0f01 	teq	r0, r1
   84794:	bf1c      	itt	ne
   84796:	2000      	movne	r0, #0
   84798:	4770      	bxne	lr
   8479a:	f012 4f7f 	tst.w	r2, #4278190080	; 0xff000000
   8479e:	d104      	bne.n	847aa <__addsf3+0x126>
   847a0:	0040      	lsls	r0, r0, #1
   847a2:	bf28      	it	cs
   847a4:	f040 4000 	orrcs.w	r0, r0, #2147483648	; 0x80000000
   847a8:	4770      	bx	lr
   847aa:	f112 7200 	adds.w	r2, r2, #33554432	; 0x2000000
   847ae:	bf3c      	itt	cc
   847b0:	f500 0000 	addcc.w	r0, r0, #8388608	; 0x800000
   847b4:	4770      	bxcc	lr
   847b6:	f000 4300 	and.w	r3, r0, #2147483648	; 0x80000000
   847ba:	f043 40fe 	orr.w	r0, r3, #2130706432	; 0x7f000000
   847be:	f440 0000 	orr.w	r0, r0, #8388608	; 0x800000
   847c2:	4770      	bx	lr
   847c4:	ea7f 6222 	mvns.w	r2, r2, asr #24
   847c8:	bf16      	itet	ne
   847ca:	4608      	movne	r0, r1
   847cc:	ea7f 6323 	mvnseq.w	r3, r3, asr #24
   847d0:	4601      	movne	r1, r0
   847d2:	0242      	lsls	r2, r0, #9
   847d4:	bf06      	itte	eq
   847d6:	ea5f 2341 	movseq.w	r3, r1, lsl #9
   847da:	ea90 0f01 	teqeq	r0, r1
   847de:	f440 0080 	orrne.w	r0, r0, #4194304	; 0x400000
   847e2:	4770      	bx	lr

000847e4 <__aeabi_ui2f>:
   847e4:	f04f 0300 	mov.w	r3, #0
   847e8:	e004      	b.n	847f4 <__aeabi_i2f+0x8>
   847ea:	bf00      	nop

000847ec <__aeabi_i2f>:
   847ec:	f010 4300 	ands.w	r3, r0, #2147483648	; 0x80000000
   847f0:	bf48      	it	mi
   847f2:	4240      	negmi	r0, r0
   847f4:	ea5f 0c00 	movs.w	ip, r0
   847f8:	bf08      	it	eq
   847fa:	4770      	bxeq	lr
   847fc:	f043 4396 	orr.w	r3, r3, #1258291200	; 0x4b000000
   84800:	4601      	mov	r1, r0
   84802:	f04f 0000 	mov.w	r0, #0
   84806:	e01c      	b.n	84842 <__aeabi_l2f+0x2a>

00084808 <__aeabi_ul2f>:
   84808:	ea50 0201 	orrs.w	r2, r0, r1
   8480c:	bf08      	it	eq
   8480e:	4770      	bxeq	lr
   84810:	f04f 0300 	mov.w	r3, #0
   84814:	e00a      	b.n	8482c <__aeabi_l2f+0x14>
   84816:	bf00      	nop

00084818 <__aeabi_l2f>:
   84818:	ea50 0201 	orrs.w	r2, r0, r1
   8481c:	bf08      	it	eq
   8481e:	4770      	bxeq	lr
   84820:	f011 4300 	ands.w	r3, r1, #2147483648	; 0x80000000
   84824:	d502      	bpl.n	8482c <__aeabi_l2f+0x14>
   84826:	4240      	negs	r0, r0
   84828:	eb61 0141 	sbc.w	r1, r1, r1, lsl #1
   8482c:	ea5f 0c01 	movs.w	ip, r1
   84830:	bf02      	ittt	eq
   84832:	4684      	moveq	ip, r0
   84834:	4601      	moveq	r1, r0
   84836:	2000      	moveq	r0, #0
   84838:	f043 43b6 	orr.w	r3, r3, #1526726656	; 0x5b000000
   8483c:	bf08      	it	eq
   8483e:	f1a3 5380 	subeq.w	r3, r3, #268435456	; 0x10000000
   84842:	f5a3 0300 	sub.w	r3, r3, #8388608	; 0x800000
   84846:	fabc f28c 	clz	r2, ip
   8484a:	3a08      	subs	r2, #8
   8484c:	eba3 53c2 	sub.w	r3, r3, r2, lsl #23
   84850:	db10      	blt.n	84874 <__aeabi_l2f+0x5c>
   84852:	fa01 fc02 	lsl.w	ip, r1, r2
   84856:	4463      	add	r3, ip
   84858:	fa00 fc02 	lsl.w	ip, r0, r2
   8485c:	f1c2 0220 	rsb	r2, r2, #32
   84860:	f1bc 4f00 	cmp.w	ip, #2147483648	; 0x80000000
   84864:	fa20 f202 	lsr.w	r2, r0, r2
   84868:	eb43 0002 	adc.w	r0, r3, r2
   8486c:	bf08      	it	eq
   8486e:	f020 0001 	biceq.w	r0, r0, #1
   84872:	4770      	bx	lr
   84874:	f102 0220 	add.w	r2, r2, #32
   84878:	fa01 fc02 	lsl.w	ip, r1, r2
   8487c:	f1c2 0220 	rsb	r2, r2, #32
   84880:	ea50 004c 	orrs.w	r0, r0, ip, lsl #1
   84884:	fa21 f202 	lsr.w	r2, r1, r2
   84888:	eb43 0002 	adc.w	r0, r3, r2
   8488c:	bf08      	it	eq
   8488e:	ea20 70dc 	biceq.w	r0, r0, ip, lsr #31
   84892:	4770      	bx	lr

00084894 <__aeabi_fmul>:
   84894:	f04f 0cff 	mov.w	ip, #255	; 0xff
   84898:	ea1c 52d0 	ands.w	r2, ip, r0, lsr #23
   8489c:	bf1e      	ittt	ne
   8489e:	ea1c 53d1 	andsne.w	r3, ip, r1, lsr #23
   848a2:	ea92 0f0c 	teqne	r2, ip
   848a6:	ea93 0f0c 	teqne	r3, ip
   848aa:	d06f      	beq.n	8498c <__aeabi_fmul+0xf8>
   848ac:	441a      	add	r2, r3
   848ae:	ea80 0c01 	eor.w	ip, r0, r1
   848b2:	0240      	lsls	r0, r0, #9
   848b4:	bf18      	it	ne
   848b6:	ea5f 2141 	movsne.w	r1, r1, lsl #9
   848ba:	d01e      	beq.n	848fa <__aeabi_fmul+0x66>
   848bc:	f04f 6300 	mov.w	r3, #134217728	; 0x8000000
   848c0:	ea43 1050 	orr.w	r0, r3, r0, lsr #5
   848c4:	ea43 1151 	orr.w	r1, r3, r1, lsr #5
   848c8:	fba0 3101 	umull	r3, r1, r0, r1
   848cc:	f00c 4000 	and.w	r0, ip, #2147483648	; 0x80000000
   848d0:	f5b1 0f00 	cmp.w	r1, #8388608	; 0x800000
   848d4:	bf3e      	ittt	cc
   848d6:	0049      	lslcc	r1, r1, #1
   848d8:	ea41 71d3 	orrcc.w	r1, r1, r3, lsr #31
   848dc:	005b      	lslcc	r3, r3, #1
   848de:	ea40 0001 	orr.w	r0, r0, r1
   848e2:	f162 027f 	sbc.w	r2, r2, #127	; 0x7f
   848e6:	2afd      	cmp	r2, #253	; 0xfd
   848e8:	d81d      	bhi.n	84926 <__aeabi_fmul+0x92>
   848ea:	f1b3 4f00 	cmp.w	r3, #2147483648	; 0x80000000
   848ee:	eb40 50c2 	adc.w	r0, r0, r2, lsl #23
   848f2:	bf08      	it	eq
   848f4:	f020 0001 	biceq.w	r0, r0, #1
   848f8:	4770      	bx	lr
   848fa:	f090 0f00 	teq	r0, #0
   848fe:	f00c 4c00 	and.w	ip, ip, #2147483648	; 0x80000000
   84902:	bf08      	it	eq
   84904:	0249      	lsleq	r1, r1, #9
   84906:	ea4c 2050 	orr.w	r0, ip, r0, lsr #9
   8490a:	ea40 2051 	orr.w	r0, r0, r1, lsr #9
   8490e:	3a7f      	subs	r2, #127	; 0x7f
   84910:	bfc2      	ittt	gt
   84912:	f1d2 03ff 	rsbsgt	r3, r2, #255	; 0xff
   84916:	ea40 50c2 	orrgt.w	r0, r0, r2, lsl #23
   8491a:	4770      	bxgt	lr
   8491c:	f440 0000 	orr.w	r0, r0, #8388608	; 0x800000
   84920:	f04f 0300 	mov.w	r3, #0
   84924:	3a01      	subs	r2, #1
   84926:	dc5d      	bgt.n	849e4 <__aeabi_fmul+0x150>
   84928:	f112 0f19 	cmn.w	r2, #25
   8492c:	bfdc      	itt	le
   8492e:	f000 4000 	andle.w	r0, r0, #2147483648	; 0x80000000
   84932:	4770      	bxle	lr
   84934:	f1c2 0200 	rsb	r2, r2, #0
   84938:	0041      	lsls	r1, r0, #1
   8493a:	fa21 f102 	lsr.w	r1, r1, r2
   8493e:	f1c2 0220 	rsb	r2, r2, #32
   84942:	fa00 fc02 	lsl.w	ip, r0, r2
   84946:	ea5f 0031 	movs.w	r0, r1, rrx
   8494a:	f140 0000 	adc.w	r0, r0, #0
   8494e:	ea53 034c 	orrs.w	r3, r3, ip, lsl #1
   84952:	bf08      	it	eq
   84954:	ea20 70dc 	biceq.w	r0, r0, ip, lsr #31
   84958:	4770      	bx	lr
   8495a:	f092 0f00 	teq	r2, #0
   8495e:	f000 4c00 	and.w	ip, r0, #2147483648	; 0x80000000
   84962:	bf02      	ittt	eq
   84964:	0040      	lsleq	r0, r0, #1
   84966:	f410 0f00 	tsteq.w	r0, #8388608	; 0x800000
   8496a:	3a01      	subeq	r2, #1
   8496c:	d0f9      	beq.n	84962 <__aeabi_fmul+0xce>
   8496e:	ea40 000c 	orr.w	r0, r0, ip
   84972:	f093 0f00 	teq	r3, #0
   84976:	f001 4c00 	and.w	ip, r1, #2147483648	; 0x80000000
   8497a:	bf02      	ittt	eq
   8497c:	0049      	lsleq	r1, r1, #1
   8497e:	f411 0f00 	tsteq.w	r1, #8388608	; 0x800000
   84982:	3b01      	subeq	r3, #1
   84984:	d0f9      	beq.n	8497a <__aeabi_fmul+0xe6>
   84986:	ea41 010c 	orr.w	r1, r1, ip
   8498a:	e78f      	b.n	848ac <__aeabi_fmul+0x18>
   8498c:	ea0c 53d1 	and.w	r3, ip, r1, lsr #23
   84990:	ea92 0f0c 	teq	r2, ip
   84994:	bf18      	it	ne
   84996:	ea93 0f0c 	teqne	r3, ip
   8499a:	d00a      	beq.n	849b2 <__aeabi_fmul+0x11e>
   8499c:	f030 4c00 	bics.w	ip, r0, #2147483648	; 0x80000000
   849a0:	bf18      	it	ne
   849a2:	f031 4c00 	bicsne.w	ip, r1, #2147483648	; 0x80000000
   849a6:	d1d8      	bne.n	8495a <__aeabi_fmul+0xc6>
   849a8:	ea80 0001 	eor.w	r0, r0, r1
   849ac:	f000 4000 	and.w	r0, r0, #2147483648	; 0x80000000
   849b0:	4770      	bx	lr
   849b2:	f090 0f00 	teq	r0, #0
   849b6:	bf17      	itett	ne
   849b8:	f090 4f00 	teqne	r0, #2147483648	; 0x80000000
   849bc:	4608      	moveq	r0, r1
   849be:	f091 0f00 	teqne	r1, #0
   849c2:	f091 4f00 	teqne	r1, #2147483648	; 0x80000000
   849c6:	d014      	beq.n	849f2 <__aeabi_fmul+0x15e>
   849c8:	ea92 0f0c 	teq	r2, ip
   849cc:	d101      	bne.n	849d2 <__aeabi_fmul+0x13e>
   849ce:	0242      	lsls	r2, r0, #9
   849d0:	d10f      	bne.n	849f2 <__aeabi_fmul+0x15e>
   849d2:	ea93 0f0c 	teq	r3, ip
   849d6:	d103      	bne.n	849e0 <__aeabi_fmul+0x14c>
   849d8:	024b      	lsls	r3, r1, #9
   849da:	bf18      	it	ne
   849dc:	4608      	movne	r0, r1
   849de:	d108      	bne.n	849f2 <__aeabi_fmul+0x15e>
   849e0:	ea80 0001 	eor.w	r0, r0, r1
   849e4:	f000 4000 	and.w	r0, r0, #2147483648	; 0x80000000
   849e8:	f040 40fe 	orr.w	r0, r0, #2130706432	; 0x7f000000
   849ec:	f440 0000 	orr.w	r0, r0, #8388608	; 0x800000
   849f0:	4770      	bx	lr
   849f2:	f040 40fe 	orr.w	r0, r0, #2130706432	; 0x7f000000
   849f6:	f440 0040 	orr.w	r0, r0, #12582912	; 0xc00000
   849fa:	4770      	bx	lr

000849fc <__aeabi_fdiv>:
   849fc:	f04f 0cff 	mov.w	ip, #255	; 0xff
   84a00:	ea1c 52d0 	ands.w	r2, ip, r0, lsr #23
   84a04:	bf1e      	ittt	ne
   84a06:	ea1c 53d1 	andsne.w	r3, ip, r1, lsr #23
   84a0a:	ea92 0f0c 	teqne	r2, ip
   84a0e:	ea93 0f0c 	teqne	r3, ip
   84a12:	d069      	beq.n	84ae8 <__aeabi_fdiv+0xec>
   84a14:	eba2 0203 	sub.w	r2, r2, r3
   84a18:	ea80 0c01 	eor.w	ip, r0, r1
   84a1c:	0249      	lsls	r1, r1, #9
   84a1e:	ea4f 2040 	mov.w	r0, r0, lsl #9
   84a22:	d037      	beq.n	84a94 <__aeabi_fdiv+0x98>
   84a24:	f04f 5380 	mov.w	r3, #268435456	; 0x10000000
   84a28:	ea43 1111 	orr.w	r1, r3, r1, lsr #4
   84a2c:	ea43 1310 	orr.w	r3, r3, r0, lsr #4
   84a30:	f00c 4000 	and.w	r0, ip, #2147483648	; 0x80000000
   84a34:	428b      	cmp	r3, r1
   84a36:	bf38      	it	cc
   84a38:	005b      	lslcc	r3, r3, #1
   84a3a:	f142 027d 	adc.w	r2, r2, #125	; 0x7d
   84a3e:	f44f 0c00 	mov.w	ip, #8388608	; 0x800000
   84a42:	428b      	cmp	r3, r1
   84a44:	bf24      	itt	cs
   84a46:	1a5b      	subcs	r3, r3, r1
   84a48:	ea40 000c 	orrcs.w	r0, r0, ip
   84a4c:	ebb3 0f51 	cmp.w	r3, r1, lsr #1
   84a50:	bf24      	itt	cs
   84a52:	eba3 0351 	subcs.w	r3, r3, r1, lsr #1
   84a56:	ea40 005c 	orrcs.w	r0, r0, ip, lsr #1
   84a5a:	ebb3 0f91 	cmp.w	r3, r1, lsr #2
   84a5e:	bf24      	itt	cs
   84a60:	eba3 0391 	subcs.w	r3, r3, r1, lsr #2
   84a64:	ea40 009c 	orrcs.w	r0, r0, ip, lsr #2
   84a68:	ebb3 0fd1 	cmp.w	r3, r1, lsr #3
   84a6c:	bf24      	itt	cs
   84a6e:	eba3 03d1 	subcs.w	r3, r3, r1, lsr #3
   84a72:	ea40 00dc 	orrcs.w	r0, r0, ip, lsr #3
   84a76:	011b      	lsls	r3, r3, #4
   84a78:	bf18      	it	ne
   84a7a:	ea5f 1c1c 	movsne.w	ip, ip, lsr #4
   84a7e:	d1e0      	bne.n	84a42 <__aeabi_fdiv+0x46>
   84a80:	2afd      	cmp	r2, #253	; 0xfd
   84a82:	f63f af50 	bhi.w	84926 <__aeabi_fmul+0x92>
   84a86:	428b      	cmp	r3, r1
   84a88:	eb40 50c2 	adc.w	r0, r0, r2, lsl #23
   84a8c:	bf08      	it	eq
   84a8e:	f020 0001 	biceq.w	r0, r0, #1
   84a92:	4770      	bx	lr
   84a94:	f00c 4c00 	and.w	ip, ip, #2147483648	; 0x80000000
   84a98:	ea4c 2050 	orr.w	r0, ip, r0, lsr #9
   84a9c:	327f      	adds	r2, #127	; 0x7f
   84a9e:	bfc2      	ittt	gt
   84aa0:	f1d2 03ff 	rsbsgt	r3, r2, #255	; 0xff
   84aa4:	ea40 50c2 	orrgt.w	r0, r0, r2, lsl #23
   84aa8:	4770      	bxgt	lr
   84aaa:	f440 0000 	orr.w	r0, r0, #8388608	; 0x800000
   84aae:	f04f 0300 	mov.w	r3, #0
   84ab2:	3a01      	subs	r2, #1
   84ab4:	e737      	b.n	84926 <__aeabi_fmul+0x92>
   84ab6:	f092 0f00 	teq	r2, #0
   84aba:	f000 4c00 	and.w	ip, r0, #2147483648	; 0x80000000
   84abe:	bf02      	ittt	eq
   84ac0:	0040      	lsleq	r0, r0, #1
   84ac2:	f410 0f00 	tsteq.w	r0, #8388608	; 0x800000
   84ac6:	3a01      	subeq	r2, #1
   84ac8:	d0f9      	beq.n	84abe <__aeabi_fdiv+0xc2>
   84aca:	ea40 000c 	orr.w	r0, r0, ip
   84ace:	f093 0f00 	teq	r3, #0
   84ad2:	f001 4c00 	and.w	ip, r1, #2147483648	; 0x80000000
   84ad6:	bf02      	ittt	eq
   84ad8:	0049      	lsleq	r1, r1, #1
   84ada:	f411 0f00 	tsteq.w	r1, #8388608	; 0x800000
   84ade:	3b01      	subeq	r3, #1
   84ae0:	d0f9      	beq.n	84ad6 <__aeabi_fdiv+0xda>
   84ae2:	ea41 010c 	orr.w	r1, r1, ip
   84ae6:	e795      	b.n	84a14 <__aeabi_fdiv+0x18>
   84ae8:	ea0c 53d1 	and.w	r3, ip, r1, lsr #23
   84aec:	ea92 0f0c 	teq	r2, ip
   84af0:	d108      	bne.n	84b04 <__aeabi_fdiv+0x108>
   84af2:	0242      	lsls	r2, r0, #9
   84af4:	f47f af7d 	bne.w	849f2 <__aeabi_fmul+0x15e>
   84af8:	ea93 0f0c 	teq	r3, ip
   84afc:	f47f af70 	bne.w	849e0 <__aeabi_fmul+0x14c>
   84b00:	4608      	mov	r0, r1
   84b02:	e776      	b.n	849f2 <__aeabi_fmul+0x15e>
   84b04:	ea93 0f0c 	teq	r3, ip
   84b08:	d104      	bne.n	84b14 <__aeabi_fdiv+0x118>
   84b0a:	024b      	lsls	r3, r1, #9
   84b0c:	f43f af4c 	beq.w	849a8 <__aeabi_fmul+0x114>
   84b10:	4608      	mov	r0, r1
   84b12:	e76e      	b.n	849f2 <__aeabi_fmul+0x15e>
   84b14:	f030 4c00 	bics.w	ip, r0, #2147483648	; 0x80000000
   84b18:	bf18      	it	ne
   84b1a:	f031 4c00 	bicsne.w	ip, r1, #2147483648	; 0x80000000
   84b1e:	d1ca      	bne.n	84ab6 <__aeabi_fdiv+0xba>
   84b20:	f030 4200 	bics.w	r2, r0, #2147483648	; 0x80000000
   84b24:	f47f af5c 	bne.w	849e0 <__aeabi_fmul+0x14c>
   84b28:	f031 4300 	bics.w	r3, r1, #2147483648	; 0x80000000
   84b2c:	f47f af3c 	bne.w	849a8 <__aeabi_fmul+0x114>
   84b30:	e75f      	b.n	849f2 <__aeabi_fmul+0x15e>
   84b32:	bf00      	nop

00084b34 <__errno>:
   84b34:	4b01      	ldr	r3, [pc, #4]	; (84b3c <__errno+0x8>)
   84b36:	6818      	ldr	r0, [r3, #0]
   84b38:	4770      	bx	lr
   84b3a:	bf00      	nop
   84b3c:	20070578 	.word	0x20070578

00084b40 <__libc_init_array>:
   84b40:	b570      	push	{r4, r5, r6, lr}
   84b42:	4e0f      	ldr	r6, [pc, #60]	; (84b80 <__libc_init_array+0x40>)
   84b44:	4d0f      	ldr	r5, [pc, #60]	; (84b84 <__libc_init_array+0x44>)
   84b46:	1b76      	subs	r6, r6, r5
   84b48:	10b6      	asrs	r6, r6, #2
   84b4a:	d007      	beq.n	84b5c <__libc_init_array+0x1c>
   84b4c:	3d04      	subs	r5, #4
   84b4e:	2400      	movs	r4, #0
   84b50:	3401      	adds	r4, #1
   84b52:	f855 3f04 	ldr.w	r3, [r5, #4]!
   84b56:	4798      	blx	r3
   84b58:	42a6      	cmp	r6, r4
   84b5a:	d1f9      	bne.n	84b50 <__libc_init_array+0x10>
   84b5c:	4e0a      	ldr	r6, [pc, #40]	; (84b88 <__libc_init_array+0x48>)
   84b5e:	4d0b      	ldr	r5, [pc, #44]	; (84b8c <__libc_init_array+0x4c>)
   84b60:	f006 f85c 	bl	8ac1c <_init>
   84b64:	1b76      	subs	r6, r6, r5
   84b66:	10b6      	asrs	r6, r6, #2
   84b68:	d008      	beq.n	84b7c <__libc_init_array+0x3c>
   84b6a:	3d04      	subs	r5, #4
   84b6c:	2400      	movs	r4, #0
   84b6e:	3401      	adds	r4, #1
   84b70:	f855 3f04 	ldr.w	r3, [r5, #4]!
   84b74:	4798      	blx	r3
   84b76:	42a6      	cmp	r6, r4
   84b78:	d1f9      	bne.n	84b6e <__libc_init_array+0x2e>
   84b7a:	bd70      	pop	{r4, r5, r6, pc}
   84b7c:	bd70      	pop	{r4, r5, r6, pc}
   84b7e:	bf00      	nop
   84b80:	0008ac28 	.word	0x0008ac28
   84b84:	0008ac28 	.word	0x0008ac28
   84b88:	0008ac30 	.word	0x0008ac30
   84b8c:	0008ac28 	.word	0x0008ac28

00084b90 <iprintf>:
   84b90:	b40f      	push	{r0, r1, r2, r3}
   84b92:	b510      	push	{r4, lr}
   84b94:	4b07      	ldr	r3, [pc, #28]	; (84bb4 <iprintf+0x24>)
   84b96:	b082      	sub	sp, #8
   84b98:	ac04      	add	r4, sp, #16
   84b9a:	f854 2b04 	ldr.w	r2, [r4], #4
   84b9e:	6818      	ldr	r0, [r3, #0]
   84ba0:	4623      	mov	r3, r4
   84ba2:	6881      	ldr	r1, [r0, #8]
   84ba4:	9401      	str	r4, [sp, #4]
   84ba6:	f001 fcbb 	bl	86520 <_vfiprintf_r>
   84baa:	b002      	add	sp, #8
   84bac:	e8bd 4010 	ldmia.w	sp!, {r4, lr}
   84bb0:	b004      	add	sp, #16
   84bb2:	4770      	bx	lr
   84bb4:	20070578 	.word	0x20070578

00084bb8 <memcpy>:
   84bb8:	4684      	mov	ip, r0
   84bba:	ea41 0300 	orr.w	r3, r1, r0
   84bbe:	f013 0303 	ands.w	r3, r3, #3
   84bc2:	d149      	bne.n	84c58 <memcpy+0xa0>
   84bc4:	3a40      	subs	r2, #64	; 0x40
   84bc6:	d323      	bcc.n	84c10 <memcpy+0x58>
   84bc8:	680b      	ldr	r3, [r1, #0]
   84bca:	6003      	str	r3, [r0, #0]
   84bcc:	684b      	ldr	r3, [r1, #4]
   84bce:	6043      	str	r3, [r0, #4]
   84bd0:	688b      	ldr	r3, [r1, #8]
   84bd2:	6083      	str	r3, [r0, #8]
   84bd4:	68cb      	ldr	r3, [r1, #12]
   84bd6:	60c3      	str	r3, [r0, #12]
   84bd8:	690b      	ldr	r3, [r1, #16]
   84bda:	6103      	str	r3, [r0, #16]
   84bdc:	694b      	ldr	r3, [r1, #20]
   84bde:	6143      	str	r3, [r0, #20]
   84be0:	698b      	ldr	r3, [r1, #24]
   84be2:	6183      	str	r3, [r0, #24]
   84be4:	69cb      	ldr	r3, [r1, #28]
   84be6:	61c3      	str	r3, [r0, #28]
   84be8:	6a0b      	ldr	r3, [r1, #32]
   84bea:	6203      	str	r3, [r0, #32]
   84bec:	6a4b      	ldr	r3, [r1, #36]	; 0x24
   84bee:	6243      	str	r3, [r0, #36]	; 0x24
   84bf0:	6a8b      	ldr	r3, [r1, #40]	; 0x28
   84bf2:	6283      	str	r3, [r0, #40]	; 0x28
   84bf4:	6acb      	ldr	r3, [r1, #44]	; 0x2c
   84bf6:	62c3      	str	r3, [r0, #44]	; 0x2c
   84bf8:	6b0b      	ldr	r3, [r1, #48]	; 0x30
   84bfa:	6303      	str	r3, [r0, #48]	; 0x30
   84bfc:	6b4b      	ldr	r3, [r1, #52]	; 0x34
   84bfe:	6343      	str	r3, [r0, #52]	; 0x34
   84c00:	6b8b      	ldr	r3, [r1, #56]	; 0x38
   84c02:	6383      	str	r3, [r0, #56]	; 0x38
   84c04:	6bcb      	ldr	r3, [r1, #60]	; 0x3c
   84c06:	63c3      	str	r3, [r0, #60]	; 0x3c
   84c08:	3040      	adds	r0, #64	; 0x40
   84c0a:	3140      	adds	r1, #64	; 0x40
   84c0c:	3a40      	subs	r2, #64	; 0x40
   84c0e:	d2db      	bcs.n	84bc8 <memcpy+0x10>
   84c10:	3230      	adds	r2, #48	; 0x30
   84c12:	d30b      	bcc.n	84c2c <memcpy+0x74>
   84c14:	680b      	ldr	r3, [r1, #0]
   84c16:	6003      	str	r3, [r0, #0]
   84c18:	684b      	ldr	r3, [r1, #4]
   84c1a:	6043      	str	r3, [r0, #4]
   84c1c:	688b      	ldr	r3, [r1, #8]
   84c1e:	6083      	str	r3, [r0, #8]
   84c20:	68cb      	ldr	r3, [r1, #12]
   84c22:	60c3      	str	r3, [r0, #12]
   84c24:	3010      	adds	r0, #16
   84c26:	3110      	adds	r1, #16
   84c28:	3a10      	subs	r2, #16
   84c2a:	d2f3      	bcs.n	84c14 <memcpy+0x5c>
   84c2c:	320c      	adds	r2, #12
   84c2e:	d305      	bcc.n	84c3c <memcpy+0x84>
   84c30:	f851 3b04 	ldr.w	r3, [r1], #4
   84c34:	f840 3b04 	str.w	r3, [r0], #4
   84c38:	3a04      	subs	r2, #4
   84c3a:	d2f9      	bcs.n	84c30 <memcpy+0x78>
   84c3c:	3204      	adds	r2, #4
   84c3e:	d008      	beq.n	84c52 <memcpy+0x9a>
   84c40:	07d2      	lsls	r2, r2, #31
   84c42:	bf1c      	itt	ne
   84c44:	f811 3b01 	ldrbne.w	r3, [r1], #1
   84c48:	f800 3b01 	strbne.w	r3, [r0], #1
   84c4c:	d301      	bcc.n	84c52 <memcpy+0x9a>
   84c4e:	880b      	ldrh	r3, [r1, #0]
   84c50:	8003      	strh	r3, [r0, #0]
   84c52:	4660      	mov	r0, ip
   84c54:	4770      	bx	lr
   84c56:	bf00      	nop
   84c58:	2a08      	cmp	r2, #8
   84c5a:	d313      	bcc.n	84c84 <memcpy+0xcc>
   84c5c:	078b      	lsls	r3, r1, #30
   84c5e:	d0b1      	beq.n	84bc4 <memcpy+0xc>
   84c60:	f010 0303 	ands.w	r3, r0, #3
   84c64:	d0ae      	beq.n	84bc4 <memcpy+0xc>
   84c66:	f1c3 0304 	rsb	r3, r3, #4
   84c6a:	1ad2      	subs	r2, r2, r3
   84c6c:	07db      	lsls	r3, r3, #31
   84c6e:	bf1c      	itt	ne
   84c70:	f811 3b01 	ldrbne.w	r3, [r1], #1
   84c74:	f800 3b01 	strbne.w	r3, [r0], #1
   84c78:	d3a4      	bcc.n	84bc4 <memcpy+0xc>
   84c7a:	f831 3b02 	ldrh.w	r3, [r1], #2
   84c7e:	f820 3b02 	strh.w	r3, [r0], #2
   84c82:	e79f      	b.n	84bc4 <memcpy+0xc>
   84c84:	3a04      	subs	r2, #4
   84c86:	d3d9      	bcc.n	84c3c <memcpy+0x84>
   84c88:	3a01      	subs	r2, #1
   84c8a:	f811 3b01 	ldrb.w	r3, [r1], #1
   84c8e:	f800 3b01 	strb.w	r3, [r0], #1
   84c92:	d2f9      	bcs.n	84c88 <memcpy+0xd0>
   84c94:	780b      	ldrb	r3, [r1, #0]
   84c96:	7003      	strb	r3, [r0, #0]
   84c98:	784b      	ldrb	r3, [r1, #1]
   84c9a:	7043      	strb	r3, [r0, #1]
   84c9c:	788b      	ldrb	r3, [r1, #2]
   84c9e:	7083      	strb	r3, [r0, #2]
   84ca0:	4660      	mov	r0, ip
   84ca2:	4770      	bx	lr

00084ca4 <memset>:
   84ca4:	b4f0      	push	{r4, r5, r6, r7}
   84ca6:	0784      	lsls	r4, r0, #30
   84ca8:	d043      	beq.n	84d32 <memset+0x8e>
   84caa:	1e54      	subs	r4, r2, #1
   84cac:	2a00      	cmp	r2, #0
   84cae:	d03e      	beq.n	84d2e <memset+0x8a>
   84cb0:	b2cd      	uxtb	r5, r1
   84cb2:	4603      	mov	r3, r0
   84cb4:	e003      	b.n	84cbe <memset+0x1a>
   84cb6:	1e62      	subs	r2, r4, #1
   84cb8:	2c00      	cmp	r4, #0
   84cba:	d038      	beq.n	84d2e <memset+0x8a>
   84cbc:	4614      	mov	r4, r2
   84cbe:	f803 5b01 	strb.w	r5, [r3], #1
   84cc2:	079a      	lsls	r2, r3, #30
   84cc4:	d1f7      	bne.n	84cb6 <memset+0x12>
   84cc6:	2c03      	cmp	r4, #3
   84cc8:	d92a      	bls.n	84d20 <memset+0x7c>
   84cca:	b2cd      	uxtb	r5, r1
   84ccc:	ea45 2505 	orr.w	r5, r5, r5, lsl #8
   84cd0:	2c0f      	cmp	r4, #15
   84cd2:	ea45 4505 	orr.w	r5, r5, r5, lsl #16
   84cd6:	d915      	bls.n	84d04 <memset+0x60>
   84cd8:	f1a4 0710 	sub.w	r7, r4, #16
   84cdc:	093f      	lsrs	r7, r7, #4
   84cde:	f103 0610 	add.w	r6, r3, #16
   84ce2:	eb06 1607 	add.w	r6, r6, r7, lsl #4
   84ce6:	461a      	mov	r2, r3
   84ce8:	6015      	str	r5, [r2, #0]
   84cea:	6055      	str	r5, [r2, #4]
   84cec:	6095      	str	r5, [r2, #8]
   84cee:	60d5      	str	r5, [r2, #12]
   84cf0:	3210      	adds	r2, #16
   84cf2:	42b2      	cmp	r2, r6
   84cf4:	d1f8      	bne.n	84ce8 <memset+0x44>
   84cf6:	f004 040f 	and.w	r4, r4, #15
   84cfa:	3701      	adds	r7, #1
   84cfc:	2c03      	cmp	r4, #3
   84cfe:	eb03 1307 	add.w	r3, r3, r7, lsl #4
   84d02:	d90d      	bls.n	84d20 <memset+0x7c>
   84d04:	461e      	mov	r6, r3
   84d06:	4622      	mov	r2, r4
   84d08:	3a04      	subs	r2, #4
   84d0a:	2a03      	cmp	r2, #3
   84d0c:	f846 5b04 	str.w	r5, [r6], #4
   84d10:	d8fa      	bhi.n	84d08 <memset+0x64>
   84d12:	1f22      	subs	r2, r4, #4
   84d14:	f022 0203 	bic.w	r2, r2, #3
   84d18:	3204      	adds	r2, #4
   84d1a:	4413      	add	r3, r2
   84d1c:	f004 0403 	and.w	r4, r4, #3
   84d20:	b12c      	cbz	r4, 84d2e <memset+0x8a>
   84d22:	b2c9      	uxtb	r1, r1
   84d24:	441c      	add	r4, r3
   84d26:	f803 1b01 	strb.w	r1, [r3], #1
   84d2a:	42a3      	cmp	r3, r4
   84d2c:	d1fb      	bne.n	84d26 <memset+0x82>
   84d2e:	bcf0      	pop	{r4, r5, r6, r7}
   84d30:	4770      	bx	lr
   84d32:	4614      	mov	r4, r2
   84d34:	4603      	mov	r3, r0
   84d36:	e7c6      	b.n	84cc6 <memset+0x22>

00084d38 <_puts_r>:
   84d38:	b5f0      	push	{r4, r5, r6, r7, lr}
   84d3a:	4604      	mov	r4, r0
   84d3c:	b089      	sub	sp, #36	; 0x24
   84d3e:	4608      	mov	r0, r1
   84d40:	460d      	mov	r5, r1
   84d42:	f000 f8df 	bl	84f04 <strlen>
   84d46:	68a3      	ldr	r3, [r4, #8]
   84d48:	2102      	movs	r1, #2
   84d4a:	899a      	ldrh	r2, [r3, #12]
   84d4c:	f8df e044 	ldr.w	lr, [pc, #68]	; 84d94 <_puts_r+0x5c>
   84d50:	f100 0c01 	add.w	ip, r0, #1
   84d54:	2701      	movs	r7, #1
   84d56:	ae04      	add	r6, sp, #16
   84d58:	9102      	str	r1, [sp, #8]
   84d5a:	0491      	lsls	r1, r2, #18
   84d5c:	9504      	str	r5, [sp, #16]
   84d5e:	9005      	str	r0, [sp, #20]
   84d60:	f8cd c00c 	str.w	ip, [sp, #12]
   84d64:	f8cd e018 	str.w	lr, [sp, #24]
   84d68:	9707      	str	r7, [sp, #28]
   84d6a:	9601      	str	r6, [sp, #4]
   84d6c:	d406      	bmi.n	84d7c <_puts_r+0x44>
   84d6e:	6e59      	ldr	r1, [r3, #100]	; 0x64
   84d70:	f442 5200 	orr.w	r2, r2, #8192	; 0x2000
   84d74:	f421 5100 	bic.w	r1, r1, #8192	; 0x2000
   84d78:	819a      	strh	r2, [r3, #12]
   84d7a:	6659      	str	r1, [r3, #100]	; 0x64
   84d7c:	4620      	mov	r0, r4
   84d7e:	4619      	mov	r1, r3
   84d80:	aa01      	add	r2, sp, #4
   84d82:	f003 fd2d 	bl	887e0 <__sfvwrite_r>
   84d86:	2800      	cmp	r0, #0
   84d88:	bf0c      	ite	eq
   84d8a:	200a      	moveq	r0, #10
   84d8c:	f04f 30ff 	movne.w	r0, #4294967295
   84d90:	b009      	add	sp, #36	; 0x24
   84d92:	bdf0      	pop	{r4, r5, r6, r7, pc}
   84d94:	0008a880 	.word	0x0008a880

00084d98 <puts>:
   84d98:	4b02      	ldr	r3, [pc, #8]	; (84da4 <puts+0xc>)
   84d9a:	4601      	mov	r1, r0
   84d9c:	6818      	ldr	r0, [r3, #0]
   84d9e:	f7ff bfcb 	b.w	84d38 <_puts_r>
   84da2:	bf00      	nop
   84da4:	20070578 	.word	0x20070578

00084da8 <setbuf>:
   84da8:	2900      	cmp	r1, #0
   84daa:	bf0c      	ite	eq
   84dac:	2202      	moveq	r2, #2
   84dae:	2200      	movne	r2, #0
   84db0:	f44f 6380 	mov.w	r3, #1024	; 0x400
   84db4:	f000 b800 	b.w	84db8 <setvbuf>

00084db8 <setvbuf>:
   84db8:	e92d 41f0 	stmdb	sp!, {r4, r5, r6, r7, r8, lr}
   84dbc:	4d3c      	ldr	r5, [pc, #240]	; (84eb0 <setvbuf+0xf8>)
   84dbe:	4604      	mov	r4, r0
   84dc0:	682d      	ldr	r5, [r5, #0]
   84dc2:	4688      	mov	r8, r1
   84dc4:	4616      	mov	r6, r2
   84dc6:	461f      	mov	r7, r3
   84dc8:	b115      	cbz	r5, 84dd0 <setvbuf+0x18>
   84dca:	6bab      	ldr	r3, [r5, #56]	; 0x38
   84dcc:	2b00      	cmp	r3, #0
   84dce:	d04f      	beq.n	84e70 <setvbuf+0xb8>
   84dd0:	2e02      	cmp	r6, #2
   84dd2:	d830      	bhi.n	84e36 <setvbuf+0x7e>
   84dd4:	2f00      	cmp	r7, #0
   84dd6:	db2e      	blt.n	84e36 <setvbuf+0x7e>
   84dd8:	4628      	mov	r0, r5
   84dda:	4621      	mov	r1, r4
   84ddc:	f003 fad4 	bl	88388 <_fflush_r>
   84de0:	89a3      	ldrh	r3, [r4, #12]
   84de2:	2200      	movs	r2, #0
   84de4:	6062      	str	r2, [r4, #4]
   84de6:	61a2      	str	r2, [r4, #24]
   84de8:	061a      	lsls	r2, r3, #24
   84dea:	d428      	bmi.n	84e3e <setvbuf+0x86>
   84dec:	f023 0383 	bic.w	r3, r3, #131	; 0x83
   84df0:	b29b      	uxth	r3, r3
   84df2:	2e02      	cmp	r6, #2
   84df4:	81a3      	strh	r3, [r4, #12]
   84df6:	d02d      	beq.n	84e54 <setvbuf+0x9c>
   84df8:	f1b8 0f00 	cmp.w	r8, #0
   84dfc:	d03c      	beq.n	84e78 <setvbuf+0xc0>
   84dfe:	2e01      	cmp	r6, #1
   84e00:	d013      	beq.n	84e2a <setvbuf+0x72>
   84e02:	b29b      	uxth	r3, r3
   84e04:	f003 0008 	and.w	r0, r3, #8
   84e08:	4a2a      	ldr	r2, [pc, #168]	; (84eb4 <setvbuf+0xfc>)
   84e0a:	b280      	uxth	r0, r0
   84e0c:	63ea      	str	r2, [r5, #60]	; 0x3c
   84e0e:	f8c4 8000 	str.w	r8, [r4]
   84e12:	f8c4 8010 	str.w	r8, [r4, #16]
   84e16:	6167      	str	r7, [r4, #20]
   84e18:	b178      	cbz	r0, 84e3a <setvbuf+0x82>
   84e1a:	f013 0f03 	tst.w	r3, #3
   84e1e:	bf18      	it	ne
   84e20:	2700      	movne	r7, #0
   84e22:	60a7      	str	r7, [r4, #8]
   84e24:	2000      	movs	r0, #0
   84e26:	e8bd 81f0 	ldmia.w	sp!, {r4, r5, r6, r7, r8, pc}
   84e2a:	f043 0301 	orr.w	r3, r3, #1
   84e2e:	427a      	negs	r2, r7
   84e30:	81a3      	strh	r3, [r4, #12]
   84e32:	61a2      	str	r2, [r4, #24]
   84e34:	e7e5      	b.n	84e02 <setvbuf+0x4a>
   84e36:	f04f 30ff 	mov.w	r0, #4294967295
   84e3a:	e8bd 81f0 	ldmia.w	sp!, {r4, r5, r6, r7, r8, pc}
   84e3e:	4628      	mov	r0, r5
   84e40:	6921      	ldr	r1, [r4, #16]
   84e42:	f003 fc01 	bl	88648 <_free_r>
   84e46:	89a3      	ldrh	r3, [r4, #12]
   84e48:	2e02      	cmp	r6, #2
   84e4a:	f023 0383 	bic.w	r3, r3, #131	; 0x83
   84e4e:	b29b      	uxth	r3, r3
   84e50:	81a3      	strh	r3, [r4, #12]
   84e52:	d1d1      	bne.n	84df8 <setvbuf+0x40>
   84e54:	2000      	movs	r0, #0
   84e56:	f104 0243 	add.w	r2, r4, #67	; 0x43
   84e5a:	f043 0302 	orr.w	r3, r3, #2
   84e5e:	2500      	movs	r5, #0
   84e60:	2101      	movs	r1, #1
   84e62:	81a3      	strh	r3, [r4, #12]
   84e64:	60a5      	str	r5, [r4, #8]
   84e66:	6022      	str	r2, [r4, #0]
   84e68:	6122      	str	r2, [r4, #16]
   84e6a:	6161      	str	r1, [r4, #20]
   84e6c:	e8bd 81f0 	ldmia.w	sp!, {r4, r5, r6, r7, r8, pc}
   84e70:	4628      	mov	r0, r5
   84e72:	f003 faa5 	bl	883c0 <__sinit>
   84e76:	e7ab      	b.n	84dd0 <setvbuf+0x18>
   84e78:	2f00      	cmp	r7, #0
   84e7a:	bf08      	it	eq
   84e7c:	f44f 6780 	moveq.w	r7, #1024	; 0x400
   84e80:	4638      	mov	r0, r7
   84e82:	f003 fedb 	bl	88c3c <malloc>
   84e86:	4680      	mov	r8, r0
   84e88:	b128      	cbz	r0, 84e96 <setvbuf+0xde>
   84e8a:	89a3      	ldrh	r3, [r4, #12]
   84e8c:	f043 0380 	orr.w	r3, r3, #128	; 0x80
   84e90:	b29b      	uxth	r3, r3
   84e92:	81a3      	strh	r3, [r4, #12]
   84e94:	e7b3      	b.n	84dfe <setvbuf+0x46>
   84e96:	f44f 6080 	mov.w	r0, #1024	; 0x400
   84e9a:	f003 fecf 	bl	88c3c <malloc>
   84e9e:	4680      	mov	r8, r0
   84ea0:	b918      	cbnz	r0, 84eaa <setvbuf+0xf2>
   84ea2:	89a3      	ldrh	r3, [r4, #12]
   84ea4:	f04f 30ff 	mov.w	r0, #4294967295
   84ea8:	e7d5      	b.n	84e56 <setvbuf+0x9e>
   84eaa:	f44f 6780 	mov.w	r7, #1024	; 0x400
   84eae:	e7ec      	b.n	84e8a <setvbuf+0xd2>
   84eb0:	20070578 	.word	0x20070578
   84eb4:	000883b5 	.word	0x000883b5

00084eb8 <sprintf>:
   84eb8:	b40e      	push	{r1, r2, r3}
   84eba:	b5f0      	push	{r4, r5, r6, r7, lr}
   84ebc:	b09c      	sub	sp, #112	; 0x70
   84ebe:	ac21      	add	r4, sp, #132	; 0x84
   84ec0:	f854 2b04 	ldr.w	r2, [r4], #4
   84ec4:	490e      	ldr	r1, [pc, #56]	; (84f00 <sprintf+0x48>)
   84ec6:	4606      	mov	r6, r0
   84ec8:	4623      	mov	r3, r4
   84eca:	f44f 7e02 	mov.w	lr, #520	; 0x208
   84ece:	f06f 4500 	mvn.w	r5, #2147483648	; 0x80000000
   84ed2:	6808      	ldr	r0, [r1, #0]
   84ed4:	f64f 77ff 	movw	r7, #65535	; 0xffff
   84ed8:	a902      	add	r1, sp, #8
   84eda:	9602      	str	r6, [sp, #8]
   84edc:	9606      	str	r6, [sp, #24]
   84ede:	9401      	str	r4, [sp, #4]
   84ee0:	f8ad e014 	strh.w	lr, [sp, #20]
   84ee4:	9504      	str	r5, [sp, #16]
   84ee6:	9507      	str	r5, [sp, #28]
   84ee8:	f8ad 7016 	strh.w	r7, [sp, #22]
   84eec:	f000 f86c 	bl	84fc8 <_svfprintf_r>
   84ef0:	9b02      	ldr	r3, [sp, #8]
   84ef2:	2200      	movs	r2, #0
   84ef4:	701a      	strb	r2, [r3, #0]
   84ef6:	b01c      	add	sp, #112	; 0x70
   84ef8:	e8bd 40f0 	ldmia.w	sp!, {r4, r5, r6, r7, lr}
   84efc:	b003      	add	sp, #12
   84efe:	4770      	bx	lr
   84f00:	20070578 	.word	0x20070578

00084f04 <strlen>:
   84f04:	f020 0103 	bic.w	r1, r0, #3
   84f08:	f010 0003 	ands.w	r0, r0, #3
   84f0c:	f1c0 0000 	rsb	r0, r0, #0
   84f10:	f851 3b04 	ldr.w	r3, [r1], #4
   84f14:	f100 0c04 	add.w	ip, r0, #4
   84f18:	ea4f 0ccc 	mov.w	ip, ip, lsl #3
   84f1c:	f06f 0200 	mvn.w	r2, #0
   84f20:	bf1c      	itt	ne
   84f22:	fa22 f20c 	lsrne.w	r2, r2, ip
   84f26:	4313      	orrne	r3, r2
   84f28:	f04f 0c01 	mov.w	ip, #1
   84f2c:	ea4c 2c0c 	orr.w	ip, ip, ip, lsl #8
   84f30:	ea4c 4c0c 	orr.w	ip, ip, ip, lsl #16
   84f34:	eba3 020c 	sub.w	r2, r3, ip
   84f38:	ea22 0203 	bic.w	r2, r2, r3
   84f3c:	ea12 12cc 	ands.w	r2, r2, ip, lsl #7
   84f40:	bf04      	itt	eq
   84f42:	f851 3b04 	ldreq.w	r3, [r1], #4
   84f46:	3004      	addeq	r0, #4
   84f48:	d0f4      	beq.n	84f34 <strlen+0x30>
   84f4a:	f013 0fff 	tst.w	r3, #255	; 0xff
   84f4e:	bf1f      	itttt	ne
   84f50:	3001      	addne	r0, #1
   84f52:	f413 4f7f 	tstne.w	r3, #65280	; 0xff00
   84f56:	3001      	addne	r0, #1
   84f58:	f413 0f7f 	tstne.w	r3, #16711680	; 0xff0000
   84f5c:	bf18      	it	ne
   84f5e:	3001      	addne	r0, #1
   84f60:	4770      	bx	lr
   84f62:	bf00      	nop

00084f64 <strncpy>:
   84f64:	ea40 0301 	orr.w	r3, r0, r1
   84f68:	079b      	lsls	r3, r3, #30
   84f6a:	b470      	push	{r4, r5, r6}
   84f6c:	d12a      	bne.n	84fc4 <strncpy+0x60>
   84f6e:	2a03      	cmp	r2, #3
   84f70:	d928      	bls.n	84fc4 <strncpy+0x60>
   84f72:	460c      	mov	r4, r1
   84f74:	4603      	mov	r3, r0
   84f76:	4621      	mov	r1, r4
   84f78:	f854 5b04 	ldr.w	r5, [r4], #4
   84f7c:	f1a5 3601 	sub.w	r6, r5, #16843009	; 0x1010101
   84f80:	ea26 0605 	bic.w	r6, r6, r5
   84f84:	f016 3f80 	tst.w	r6, #2155905152	; 0x80808080
   84f88:	d105      	bne.n	84f96 <strncpy+0x32>
   84f8a:	3a04      	subs	r2, #4
   84f8c:	2a03      	cmp	r2, #3
   84f8e:	f843 5b04 	str.w	r5, [r3], #4
   84f92:	4621      	mov	r1, r4
   84f94:	d8ef      	bhi.n	84f76 <strncpy+0x12>
   84f96:	b19a      	cbz	r2, 84fc0 <strncpy+0x5c>
   84f98:	780c      	ldrb	r4, [r1, #0]
   84f9a:	3a01      	subs	r2, #1
   84f9c:	701c      	strb	r4, [r3, #0]
   84f9e:	3301      	adds	r3, #1
   84fa0:	b13c      	cbz	r4, 84fb2 <strncpy+0x4e>
   84fa2:	b16a      	cbz	r2, 84fc0 <strncpy+0x5c>
   84fa4:	f811 4f01 	ldrb.w	r4, [r1, #1]!
   84fa8:	3a01      	subs	r2, #1
   84faa:	f803 4b01 	strb.w	r4, [r3], #1
   84fae:	2c00      	cmp	r4, #0
   84fb0:	d1f7      	bne.n	84fa2 <strncpy+0x3e>
   84fb2:	b12a      	cbz	r2, 84fc0 <strncpy+0x5c>
   84fb4:	441a      	add	r2, r3
   84fb6:	2100      	movs	r1, #0
   84fb8:	f803 1b01 	strb.w	r1, [r3], #1
   84fbc:	4293      	cmp	r3, r2
   84fbe:	d1fb      	bne.n	84fb8 <strncpy+0x54>
   84fc0:	bc70      	pop	{r4, r5, r6}
   84fc2:	4770      	bx	lr
   84fc4:	4603      	mov	r3, r0
   84fc6:	e7e6      	b.n	84f96 <strncpy+0x32>

00084fc8 <_svfprintf_r>:
   84fc8:	e92d 4ff0 	stmdb	sp!, {r4, r5, r6, r7, r8, r9, sl, fp, lr}
   84fcc:	b0c9      	sub	sp, #292	; 0x124
   84fce:	9310      	str	r3, [sp, #64]	; 0x40
   84fd0:	910c      	str	r1, [sp, #48]	; 0x30
   84fd2:	4691      	mov	r9, r2
   84fd4:	900d      	str	r0, [sp, #52]	; 0x34
   84fd6:	f003 fdbd 	bl	88b54 <_localeconv_r>
   84fda:	6800      	ldr	r0, [r0, #0]
   84fdc:	9015      	str	r0, [sp, #84]	; 0x54
   84fde:	f7ff ff91 	bl	84f04 <strlen>
   84fe2:	9c0c      	ldr	r4, [sp, #48]	; 0x30
   84fe4:	9018      	str	r0, [sp, #96]	; 0x60
   84fe6:	89a3      	ldrh	r3, [r4, #12]
   84fe8:	061e      	lsls	r6, r3, #24
   84fea:	d503      	bpl.n	84ff4 <_svfprintf_r+0x2c>
   84fec:	6923      	ldr	r3, [r4, #16]
   84fee:	2b00      	cmp	r3, #0
   84ff0:	f001 8081 	beq.w	860f6 <_svfprintf_r+0x112e>
   84ff4:	ac38      	add	r4, sp, #224	; 0xe0
   84ff6:	46a4      	mov	ip, r4
   84ff8:	9408      	str	r4, [sp, #32]
   84ffa:	942b      	str	r4, [sp, #172]	; 0xac
   84ffc:	2500      	movs	r5, #0
   84ffe:	2400      	movs	r4, #0
   85000:	e9cd 4516 	strd	r4, r5, [sp, #88]	; 0x58
   85004:	2300      	movs	r3, #0
   85006:	9311      	str	r3, [sp, #68]	; 0x44
   85008:	932d      	str	r3, [sp, #180]	; 0xb4
   8500a:	932c      	str	r3, [sp, #176]	; 0xb0
   8500c:	931a      	str	r3, [sp, #104]	; 0x68
   8500e:	9319      	str	r3, [sp, #100]	; 0x64
   85010:	930e      	str	r3, [sp, #56]	; 0x38
   85012:	4666      	mov	r6, ip
   85014:	f899 3000 	ldrb.w	r3, [r9]
   85018:	2b00      	cmp	r3, #0
   8501a:	f000 80f8 	beq.w	8520e <_svfprintf_r+0x246>
   8501e:	2b25      	cmp	r3, #37	; 0x25
   85020:	f000 80f5 	beq.w	8520e <_svfprintf_r+0x246>
   85024:	f109 0201 	add.w	r2, r9, #1
   85028:	e001      	b.n	8502e <_svfprintf_r+0x66>
   8502a:	2b25      	cmp	r3, #37	; 0x25
   8502c:	d004      	beq.n	85038 <_svfprintf_r+0x70>
   8502e:	7813      	ldrb	r3, [r2, #0]
   85030:	4614      	mov	r4, r2
   85032:	3201      	adds	r2, #1
   85034:	2b00      	cmp	r3, #0
   85036:	d1f8      	bne.n	8502a <_svfprintf_r+0x62>
   85038:	ebc9 0504 	rsb	r5, r9, r4
   8503c:	b17d      	cbz	r5, 8505e <_svfprintf_r+0x96>
   8503e:	9b2c      	ldr	r3, [sp, #176]	; 0xb0
   85040:	9a2d      	ldr	r2, [sp, #180]	; 0xb4
   85042:	3301      	adds	r3, #1
   85044:	442a      	add	r2, r5
   85046:	2b07      	cmp	r3, #7
   85048:	f8c6 9000 	str.w	r9, [r6]
   8504c:	6075      	str	r5, [r6, #4]
   8504e:	922d      	str	r2, [sp, #180]	; 0xb4
   85050:	932c      	str	r3, [sp, #176]	; 0xb0
   85052:	f300 80c2 	bgt.w	851da <_svfprintf_r+0x212>
   85056:	3608      	adds	r6, #8
   85058:	980e      	ldr	r0, [sp, #56]	; 0x38
   8505a:	4428      	add	r0, r5
   8505c:	900e      	str	r0, [sp, #56]	; 0x38
   8505e:	7823      	ldrb	r3, [r4, #0]
   85060:	2b00      	cmp	r3, #0
   85062:	f000 80c2 	beq.w	851ea <_svfprintf_r+0x222>
   85066:	2300      	movs	r3, #0
   85068:	f894 8001 	ldrb.w	r8, [r4, #1]
   8506c:	461a      	mov	r2, r3
   8506e:	f88d 308f 	strb.w	r3, [sp, #143]	; 0x8f
   85072:	930f      	str	r3, [sp, #60]	; 0x3c
   85074:	9309      	str	r3, [sp, #36]	; 0x24
   85076:	f104 0901 	add.w	r9, r4, #1
   8507a:	f04f 34ff 	mov.w	r4, #4294967295
   8507e:	940a      	str	r4, [sp, #40]	; 0x28
   85080:	f109 0901 	add.w	r9, r9, #1
   85084:	f1a8 0320 	sub.w	r3, r8, #32
   85088:	2b58      	cmp	r3, #88	; 0x58
   8508a:	f200 83c5 	bhi.w	85818 <_svfprintf_r+0x850>
   8508e:	e8df f013 	tbh	[pc, r3, lsl #1]
   85092:	026a      	.short	0x026a
   85094:	03c303c3 	.word	0x03c303c3
   85098:	03c30271 	.word	0x03c30271
   8509c:	03c303c3 	.word	0x03c303c3
   850a0:	03c303c3 	.word	0x03c303c3
   850a4:	031403c3 	.word	0x031403c3
   850a8:	03c30366 	.word	0x03c30366
   850ac:	00c0009d 	.word	0x00c0009d
   850b0:	027803c3 	.word	0x027803c3
   850b4:	027f027f 	.word	0x027f027f
   850b8:	027f027f 	.word	0x027f027f
   850bc:	027f027f 	.word	0x027f027f
   850c0:	027f027f 	.word	0x027f027f
   850c4:	03c3027f 	.word	0x03c3027f
   850c8:	03c303c3 	.word	0x03c303c3
   850cc:	03c303c3 	.word	0x03c303c3
   850d0:	03c303c3 	.word	0x03c303c3
   850d4:	03c303c3 	.word	0x03c303c3
   850d8:	029003c3 	.word	0x029003c3
   850dc:	03c30371 	.word	0x03c30371
   850e0:	03c30371 	.word	0x03c30371
   850e4:	03c303c3 	.word	0x03c303c3
   850e8:	036a03c3 	.word	0x036a03c3
   850ec:	03c303c3 	.word	0x03c303c3
   850f0:	03c30078 	.word	0x03c30078
   850f4:	03c303c3 	.word	0x03c303c3
   850f8:	03c303c3 	.word	0x03c303c3
   850fc:	03c30059 	.word	0x03c30059
   85100:	02af03c3 	.word	0x02af03c3
   85104:	03c303c3 	.word	0x03c303c3
   85108:	03c303c3 	.word	0x03c303c3
   8510c:	03c303c3 	.word	0x03c303c3
   85110:	03c303c3 	.word	0x03c303c3
   85114:	03c303c3 	.word	0x03c303c3
   85118:	03480337 	.word	0x03480337
   8511c:	03710371 	.word	0x03710371
   85120:	02ff0371 	.word	0x02ff0371
   85124:	03c30348 	.word	0x03c30348
   85128:	030803c3 	.word	0x030803c3
   8512c:	02c503c3 	.word	0x02c503c3
   85130:	0320007c 	.word	0x0320007c
   85134:	03c303a3 	.word	0x03c303a3
   85138:	03c302d9 	.word	0x03c302d9
   8513c:	03c3005f 	.word	0x03c3005f
   85140:	00de03c3 	.word	0x00de03c3
   85144:	f8dd c024 	ldr.w	ip, [sp, #36]	; 0x24
   85148:	f04c 0c10 	orr.w	ip, ip, #16
   8514c:	f8cd c024 	str.w	ip, [sp, #36]	; 0x24
   85150:	9c09      	ldr	r4, [sp, #36]	; 0x24
   85152:	06a2      	lsls	r2, r4, #26
   85154:	f100 8354 	bmi.w	85800 <_svfprintf_r+0x838>
   85158:	9c09      	ldr	r4, [sp, #36]	; 0x24
   8515a:	06e3      	lsls	r3, r4, #27
   8515c:	f100 85bd 	bmi.w	85cda <_svfprintf_r+0xd12>
   85160:	f8dd c024 	ldr.w	ip, [sp, #36]	; 0x24
   85164:	f01c 0f40 	tst.w	ip, #64	; 0x40
   85168:	f000 85b7 	beq.w	85cda <_svfprintf_r+0xd12>
   8516c:	f8dd c040 	ldr.w	ip, [sp, #64]	; 0x40
   85170:	2500      	movs	r5, #0
   85172:	f8bc 4000 	ldrh.w	r4, [ip]
   85176:	f10c 0c04 	add.w	ip, ip, #4
   8517a:	2301      	movs	r3, #1
   8517c:	f8cd c040 	str.w	ip, [sp, #64]	; 0x40
   85180:	e08c      	b.n	8529c <_svfprintf_r+0x2d4>
   85182:	9d09      	ldr	r5, [sp, #36]	; 0x24
   85184:	f045 0510 	orr.w	r5, r5, #16
   85188:	9509      	str	r5, [sp, #36]	; 0x24
   8518a:	f8dd c024 	ldr.w	ip, [sp, #36]	; 0x24
   8518e:	f01c 0320 	ands.w	r3, ip, #32
   85192:	f040 832a 	bne.w	857ea <_svfprintf_r+0x822>
   85196:	f8dd c024 	ldr.w	ip, [sp, #36]	; 0x24
   8519a:	f01c 0210 	ands.w	r2, ip, #16
   8519e:	f040 85a4 	bne.w	85cea <_svfprintf_r+0xd22>
   851a2:	f8dd c024 	ldr.w	ip, [sp, #36]	; 0x24
   851a6:	f01c 0340 	ands.w	r3, ip, #64	; 0x40
   851aa:	f000 859e 	beq.w	85cea <_svfprintf_r+0xd22>
   851ae:	f8dd c040 	ldr.w	ip, [sp, #64]	; 0x40
   851b2:	4613      	mov	r3, r2
   851b4:	f8bc 4000 	ldrh.w	r4, [ip]
   851b8:	f10c 0c04 	add.w	ip, ip, #4
   851bc:	2500      	movs	r5, #0
   851be:	f8cd c040 	str.w	ip, [sp, #64]	; 0x40
   851c2:	e06b      	b.n	8529c <_svfprintf_r+0x2d4>
   851c4:	9c0f      	ldr	r4, [sp, #60]	; 0x3c
   851c6:	9310      	str	r3, [sp, #64]	; 0x40
   851c8:	4264      	negs	r4, r4
   851ca:	940f      	str	r4, [sp, #60]	; 0x3c
   851cc:	9d09      	ldr	r5, [sp, #36]	; 0x24
   851ce:	f045 0504 	orr.w	r5, r5, #4
   851d2:	9509      	str	r5, [sp, #36]	; 0x24
   851d4:	f899 8000 	ldrb.w	r8, [r9]
   851d8:	e752      	b.n	85080 <_svfprintf_r+0xb8>
   851da:	980d      	ldr	r0, [sp, #52]	; 0x34
   851dc:	990c      	ldr	r1, [sp, #48]	; 0x30
   851de:	aa2b      	add	r2, sp, #172	; 0xac
   851e0:	f004 fdc2 	bl	89d68 <__ssprint_r>
   851e4:	b940      	cbnz	r0, 851f8 <_svfprintf_r+0x230>
   851e6:	ae38      	add	r6, sp, #224	; 0xe0
   851e8:	e736      	b.n	85058 <_svfprintf_r+0x90>
   851ea:	9b2d      	ldr	r3, [sp, #180]	; 0xb4
   851ec:	b123      	cbz	r3, 851f8 <_svfprintf_r+0x230>
   851ee:	980d      	ldr	r0, [sp, #52]	; 0x34
   851f0:	990c      	ldr	r1, [sp, #48]	; 0x30
   851f2:	aa2b      	add	r2, sp, #172	; 0xac
   851f4:	f004 fdb8 	bl	89d68 <__ssprint_r>
   851f8:	9c0c      	ldr	r4, [sp, #48]	; 0x30
   851fa:	980e      	ldr	r0, [sp, #56]	; 0x38
   851fc:	89a3      	ldrh	r3, [r4, #12]
   851fe:	f013 0f40 	tst.w	r3, #64	; 0x40
   85202:	bf18      	it	ne
   85204:	f04f 30ff 	movne.w	r0, #4294967295
   85208:	b049      	add	sp, #292	; 0x124
   8520a:	e8bd 8ff0 	ldmia.w	sp!, {r4, r5, r6, r7, r8, r9, sl, fp, pc}
   8520e:	464c      	mov	r4, r9
   85210:	e725      	b.n	8505e <_svfprintf_r+0x96>
   85212:	f899 8000 	ldrb.w	r8, [r9]
   85216:	f109 0001 	add.w	r0, r9, #1
   8521a:	f1b8 0f2a 	cmp.w	r8, #42	; 0x2a
   8521e:	f001 810c 	beq.w	8643a <_svfprintf_r+0x1472>
   85222:	f1a8 0330 	sub.w	r3, r8, #48	; 0x30
   85226:	2b09      	cmp	r3, #9
   85228:	bf98      	it	ls
   8522a:	2100      	movls	r1, #0
   8522c:	f201 806b 	bhi.w	86306 <_svfprintf_r+0x133e>
   85230:	f810 8b01 	ldrb.w	r8, [r0], #1
   85234:	eb01 0181 	add.w	r1, r1, r1, lsl #2
   85238:	eb03 0141 	add.w	r1, r3, r1, lsl #1
   8523c:	f1a8 0330 	sub.w	r3, r8, #48	; 0x30
   85240:	2b09      	cmp	r3, #9
   85242:	d9f5      	bls.n	85230 <_svfprintf_r+0x268>
   85244:	ea41 71e1 	orr.w	r1, r1, r1, asr #31
   85248:	910a      	str	r1, [sp, #40]	; 0x28
   8524a:	4681      	mov	r9, r0
   8524c:	e71a      	b.n	85084 <_svfprintf_r+0xbc>
   8524e:	9d09      	ldr	r5, [sp, #36]	; 0x24
   85250:	4ca1      	ldr	r4, [pc, #644]	; (854d8 <_svfprintf_r+0x510>)
   85252:	06af      	lsls	r7, r5, #26
   85254:	941a      	str	r4, [sp, #104]	; 0x68
   85256:	f88d 208f 	strb.w	r2, [sp, #143]	; 0x8f
   8525a:	f140 81d1 	bpl.w	85600 <_svfprintf_r+0x638>
   8525e:	f8dd c040 	ldr.w	ip, [sp, #64]	; 0x40
   85262:	f10c 0307 	add.w	r3, ip, #7
   85266:	f023 0307 	bic.w	r3, r3, #7
   8526a:	f103 0408 	add.w	r4, r3, #8
   8526e:	9410      	str	r4, [sp, #64]	; 0x40
   85270:	e9d3 4500 	ldrd	r4, r5, [r3]
   85274:	f8dd c024 	ldr.w	ip, [sp, #36]	; 0x24
   85278:	f01c 0f01 	tst.w	ip, #1
   8527c:	f000 8462 	beq.w	85b44 <_svfprintf_r+0xb7c>
   85280:	ea54 0005 	orrs.w	r0, r4, r5
   85284:	f000 845e 	beq.w	85b44 <_svfprintf_r+0xb7c>
   85288:	2330      	movs	r3, #48	; 0x30
   8528a:	f04c 0c02 	orr.w	ip, ip, #2
   8528e:	f88d 3090 	strb.w	r3, [sp, #144]	; 0x90
   85292:	f88d 8091 	strb.w	r8, [sp, #145]	; 0x91
   85296:	f8cd c024 	str.w	ip, [sp, #36]	; 0x24
   8529a:	2302      	movs	r3, #2
   8529c:	f04f 0a00 	mov.w	sl, #0
   852a0:	f88d a08f 	strb.w	sl, [sp, #143]	; 0x8f
   852a4:	990a      	ldr	r1, [sp, #40]	; 0x28
   852a6:	2900      	cmp	r1, #0
   852a8:	db05      	blt.n	852b6 <_svfprintf_r+0x2ee>
   852aa:	f8dd c024 	ldr.w	ip, [sp, #36]	; 0x24
   852ae:	f02c 0c80 	bic.w	ip, ip, #128	; 0x80
   852b2:	f8cd c024 	str.w	ip, [sp, #36]	; 0x24
   852b6:	ea54 0005 	orrs.w	r0, r4, r5
   852ba:	f040 82c5 	bne.w	85848 <_svfprintf_r+0x880>
   852be:	990a      	ldr	r1, [sp, #40]	; 0x28
   852c0:	2900      	cmp	r1, #0
   852c2:	f040 82c1 	bne.w	85848 <_svfprintf_r+0x880>
   852c6:	2b00      	cmp	r3, #0
   852c8:	f040 8438 	bne.w	85b3c <_svfprintf_r+0xb74>
   852cc:	f8dd c024 	ldr.w	ip, [sp, #36]	; 0x24
   852d0:	f01c 0f01 	tst.w	ip, #1
   852d4:	f000 8432 	beq.w	85b3c <_svfprintf_r+0xb74>
   852d8:	af48      	add	r7, sp, #288	; 0x120
   852da:	2330      	movs	r3, #48	; 0x30
   852dc:	9d08      	ldr	r5, [sp, #32]
   852de:	f807 3d41 	strb.w	r3, [r7, #-65]!
   852e2:	1bec      	subs	r4, r5, r7
   852e4:	f8dd c028 	ldr.w	ip, [sp, #40]	; 0x28
   852e8:	2500      	movs	r5, #0
   852ea:	4564      	cmp	r4, ip
   852ec:	bfa8      	it	ge
   852ee:	46a4      	movge	ip, r4
   852f0:	f8cd c02c 	str.w	ip, [sp, #44]	; 0x2c
   852f4:	9514      	str	r5, [sp, #80]	; 0x50
   852f6:	f1ba 0f00 	cmp.w	sl, #0
   852fa:	d002      	beq.n	85302 <_svfprintf_r+0x33a>
   852fc:	9d0b      	ldr	r5, [sp, #44]	; 0x2c
   852fe:	3501      	adds	r5, #1
   85300:	950b      	str	r5, [sp, #44]	; 0x2c
   85302:	9b09      	ldr	r3, [sp, #36]	; 0x24
   85304:	f013 0302 	ands.w	r3, r3, #2
   85308:	9312      	str	r3, [sp, #72]	; 0x48
   8530a:	d002      	beq.n	85312 <_svfprintf_r+0x34a>
   8530c:	9d0b      	ldr	r5, [sp, #44]	; 0x2c
   8530e:	3502      	adds	r5, #2
   85310:	950b      	str	r5, [sp, #44]	; 0x2c
   85312:	f8dd c024 	ldr.w	ip, [sp, #36]	; 0x24
   85316:	f01c 0c84 	ands.w	ip, ip, #132	; 0x84
   8531a:	f8cd c04c 	str.w	ip, [sp, #76]	; 0x4c
   8531e:	f040 8290 	bne.w	85842 <_svfprintf_r+0x87a>
   85322:	9d0f      	ldr	r5, [sp, #60]	; 0x3c
   85324:	f8dd c02c 	ldr.w	ip, [sp, #44]	; 0x2c
   85328:	ebcc 0b05 	rsb	fp, ip, r5
   8532c:	f1bb 0f00 	cmp.w	fp, #0
   85330:	f340 8287 	ble.w	85842 <_svfprintf_r+0x87a>
   85334:	f1bb 0f10 	cmp.w	fp, #16
   85338:	992d      	ldr	r1, [sp, #180]	; 0xb4
   8533a:	9a2c      	ldr	r2, [sp, #176]	; 0xb0
   8533c:	f8df a1a0 	ldr.w	sl, [pc, #416]	; 854e0 <_svfprintf_r+0x518>
   85340:	dd2c      	ble.n	8539c <_svfprintf_r+0x3d4>
   85342:	971b      	str	r7, [sp, #108]	; 0x6c
   85344:	4630      	mov	r0, r6
   85346:	4657      	mov	r7, sl
   85348:	2510      	movs	r5, #16
   8534a:	46ca      	mov	sl, r9
   8534c:	9e0c      	ldr	r6, [sp, #48]	; 0x30
   8534e:	46a1      	mov	r9, r4
   85350:	9c0d      	ldr	r4, [sp, #52]	; 0x34
   85352:	e006      	b.n	85362 <_svfprintf_r+0x39a>
   85354:	f1ab 0b10 	sub.w	fp, fp, #16
   85358:	f1bb 0f10 	cmp.w	fp, #16
   8535c:	f100 0008 	add.w	r0, r0, #8
   85360:	dd17      	ble.n	85392 <_svfprintf_r+0x3ca>
   85362:	3201      	adds	r2, #1
   85364:	3110      	adds	r1, #16
   85366:	2a07      	cmp	r2, #7
   85368:	912d      	str	r1, [sp, #180]	; 0xb4
   8536a:	922c      	str	r2, [sp, #176]	; 0xb0
   8536c:	6007      	str	r7, [r0, #0]
   8536e:	6045      	str	r5, [r0, #4]
   85370:	ddf0      	ble.n	85354 <_svfprintf_r+0x38c>
   85372:	4620      	mov	r0, r4
   85374:	4631      	mov	r1, r6
   85376:	aa2b      	add	r2, sp, #172	; 0xac
   85378:	f004 fcf6 	bl	89d68 <__ssprint_r>
   8537c:	2800      	cmp	r0, #0
   8537e:	f47f af3b 	bne.w	851f8 <_svfprintf_r+0x230>
   85382:	f1ab 0b10 	sub.w	fp, fp, #16
   85386:	f1bb 0f10 	cmp.w	fp, #16
   8538a:	992d      	ldr	r1, [sp, #180]	; 0xb4
   8538c:	9a2c      	ldr	r2, [sp, #176]	; 0xb0
   8538e:	a838      	add	r0, sp, #224	; 0xe0
   85390:	dce7      	bgt.n	85362 <_svfprintf_r+0x39a>
   85392:	464c      	mov	r4, r9
   85394:	46d1      	mov	r9, sl
   85396:	46ba      	mov	sl, r7
   85398:	9f1b      	ldr	r7, [sp, #108]	; 0x6c
   8539a:	4606      	mov	r6, r0
   8539c:	3201      	adds	r2, #1
   8539e:	eb0b 0c01 	add.w	ip, fp, r1
   853a2:	2a07      	cmp	r2, #7
   853a4:	f8cd c0b4 	str.w	ip, [sp, #180]	; 0xb4
   853a8:	922c      	str	r2, [sp, #176]	; 0xb0
   853aa:	e886 0c00 	stmia.w	r6, {sl, fp}
   853ae:	f300 841a 	bgt.w	85be6 <_svfprintf_r+0xc1e>
   853b2:	f89d a08f 	ldrb.w	sl, [sp, #143]	; 0x8f
   853b6:	3608      	adds	r6, #8
   853b8:	f1ba 0f00 	cmp.w	sl, #0
   853bc:	d00f      	beq.n	853de <_svfprintf_r+0x416>
   853be:	9b2c      	ldr	r3, [sp, #176]	; 0xb0
   853c0:	f10c 0c01 	add.w	ip, ip, #1
   853c4:	3301      	adds	r3, #1
   853c6:	f10d 018f 	add.w	r1, sp, #143	; 0x8f
   853ca:	2201      	movs	r2, #1
   853cc:	2b07      	cmp	r3, #7
   853ce:	f8cd c0b4 	str.w	ip, [sp, #180]	; 0xb4
   853d2:	932c      	str	r3, [sp, #176]	; 0xb0
   853d4:	e886 0006 	stmia.w	r6, {r1, r2}
   853d8:	f300 83a4 	bgt.w	85b24 <_svfprintf_r+0xb5c>
   853dc:	3608      	adds	r6, #8
   853de:	9b12      	ldr	r3, [sp, #72]	; 0x48
   853e0:	b173      	cbz	r3, 85400 <_svfprintf_r+0x438>
   853e2:	9b2c      	ldr	r3, [sp, #176]	; 0xb0
   853e4:	f10c 0c02 	add.w	ip, ip, #2
   853e8:	3301      	adds	r3, #1
   853ea:	a924      	add	r1, sp, #144	; 0x90
   853ec:	2202      	movs	r2, #2
   853ee:	2b07      	cmp	r3, #7
   853f0:	f8cd c0b4 	str.w	ip, [sp, #180]	; 0xb4
   853f4:	932c      	str	r3, [sp, #176]	; 0xb0
   853f6:	e886 0006 	stmia.w	r6, {r1, r2}
   853fa:	f300 8387 	bgt.w	85b0c <_svfprintf_r+0xb44>
   853fe:	3608      	adds	r6, #8
   85400:	9d13      	ldr	r5, [sp, #76]	; 0x4c
   85402:	2d80      	cmp	r5, #128	; 0x80
   85404:	f000 82ca 	beq.w	8599c <_svfprintf_r+0x9d4>
   85408:	9d0a      	ldr	r5, [sp, #40]	; 0x28
   8540a:	ebc4 0a05 	rsb	sl, r4, r5
   8540e:	f1ba 0f00 	cmp.w	sl, #0
   85412:	dd3b      	ble.n	8548c <_svfprintf_r+0x4c4>
   85414:	f1ba 0f10 	cmp.w	sl, #16
   85418:	9b2c      	ldr	r3, [sp, #176]	; 0xb0
   8541a:	4d30      	ldr	r5, [pc, #192]	; (854dc <_svfprintf_r+0x514>)
   8541c:	dd2b      	ble.n	85476 <_svfprintf_r+0x4ae>
   8541e:	940a      	str	r4, [sp, #40]	; 0x28
   85420:	4632      	mov	r2, r6
   85422:	f04f 0b10 	mov.w	fp, #16
   85426:	462e      	mov	r6, r5
   85428:	4661      	mov	r1, ip
   8542a:	9c0d      	ldr	r4, [sp, #52]	; 0x34
   8542c:	9d0c      	ldr	r5, [sp, #48]	; 0x30
   8542e:	e006      	b.n	8543e <_svfprintf_r+0x476>
   85430:	f1aa 0a10 	sub.w	sl, sl, #16
   85434:	f1ba 0f10 	cmp.w	sl, #16
   85438:	f102 0208 	add.w	r2, r2, #8
   8543c:	dd17      	ble.n	8546e <_svfprintf_r+0x4a6>
   8543e:	3301      	adds	r3, #1
   85440:	3110      	adds	r1, #16
   85442:	2b07      	cmp	r3, #7
   85444:	912d      	str	r1, [sp, #180]	; 0xb4
   85446:	932c      	str	r3, [sp, #176]	; 0xb0
   85448:	e882 0840 	stmia.w	r2, {r6, fp}
   8544c:	ddf0      	ble.n	85430 <_svfprintf_r+0x468>
   8544e:	4620      	mov	r0, r4
   85450:	4629      	mov	r1, r5
   85452:	aa2b      	add	r2, sp, #172	; 0xac
   85454:	f004 fc88 	bl	89d68 <__ssprint_r>
   85458:	2800      	cmp	r0, #0
   8545a:	f47f aecd 	bne.w	851f8 <_svfprintf_r+0x230>
   8545e:	f1aa 0a10 	sub.w	sl, sl, #16
   85462:	f1ba 0f10 	cmp.w	sl, #16
   85466:	992d      	ldr	r1, [sp, #180]	; 0xb4
   85468:	9b2c      	ldr	r3, [sp, #176]	; 0xb0
   8546a:	aa38      	add	r2, sp, #224	; 0xe0
   8546c:	dce7      	bgt.n	8543e <_svfprintf_r+0x476>
   8546e:	9c0a      	ldr	r4, [sp, #40]	; 0x28
   85470:	4635      	mov	r5, r6
   85472:	468c      	mov	ip, r1
   85474:	4616      	mov	r6, r2
   85476:	3301      	adds	r3, #1
   85478:	44d4      	add	ip, sl
   8547a:	2b07      	cmp	r3, #7
   8547c:	f8cd c0b4 	str.w	ip, [sp, #180]	; 0xb4
   85480:	932c      	str	r3, [sp, #176]	; 0xb0
   85482:	e886 0420 	stmia.w	r6, {r5, sl}
   85486:	f300 8335 	bgt.w	85af4 <_svfprintf_r+0xb2c>
   8548a:	3608      	adds	r6, #8
   8548c:	9d09      	ldr	r5, [sp, #36]	; 0x24
   8548e:	05ed      	lsls	r5, r5, #23
   85490:	f100 8224 	bmi.w	858dc <_svfprintf_r+0x914>
   85494:	9b2c      	ldr	r3, [sp, #176]	; 0xb0
   85496:	44a4      	add	ip, r4
   85498:	3301      	adds	r3, #1
   8549a:	2b07      	cmp	r3, #7
   8549c:	f8cd c0b4 	str.w	ip, [sp, #180]	; 0xb4
   854a0:	6037      	str	r7, [r6, #0]
   854a2:	6074      	str	r4, [r6, #4]
   854a4:	932c      	str	r3, [sp, #176]	; 0xb0
   854a6:	f300 830f 	bgt.w	85ac8 <_svfprintf_r+0xb00>
   854aa:	3608      	adds	r6, #8
   854ac:	9c09      	ldr	r4, [sp, #36]	; 0x24
   854ae:	0763      	lsls	r3, r4, #29
   854b0:	d549      	bpl.n	85546 <_svfprintf_r+0x57e>
   854b2:	9d0f      	ldr	r5, [sp, #60]	; 0x3c
   854b4:	980b      	ldr	r0, [sp, #44]	; 0x2c
   854b6:	1a2c      	subs	r4, r5, r0
   854b8:	2c00      	cmp	r4, #0
   854ba:	dd44      	ble.n	85546 <_svfprintf_r+0x57e>
   854bc:	2c10      	cmp	r4, #16
   854be:	9b2c      	ldr	r3, [sp, #176]	; 0xb0
   854c0:	f8df a01c 	ldr.w	sl, [pc, #28]	; 854e0 <_svfprintf_r+0x518>
   854c4:	dd2b      	ble.n	8551e <_svfprintf_r+0x556>
   854c6:	4657      	mov	r7, sl
   854c8:	2510      	movs	r5, #16
   854ca:	4662      	mov	r2, ip
   854cc:	f8dd 8030 	ldr.w	r8, [sp, #48]	; 0x30
   854d0:	f8dd a034 	ldr.w	sl, [sp, #52]	; 0x34
   854d4:	e00b      	b.n	854ee <_svfprintf_r+0x526>
   854d6:	bf00      	nop
   854d8:	0008aab4 	.word	0x0008aab4
   854dc:	0008aa80 	.word	0x0008aa80
   854e0:	0008aad4 	.word	0x0008aad4
   854e4:	3c10      	subs	r4, #16
   854e6:	2c10      	cmp	r4, #16
   854e8:	f106 0608 	add.w	r6, r6, #8
   854ec:	dd15      	ble.n	8551a <_svfprintf_r+0x552>
   854ee:	3301      	adds	r3, #1
   854f0:	3210      	adds	r2, #16
   854f2:	2b07      	cmp	r3, #7
   854f4:	922d      	str	r2, [sp, #180]	; 0xb4
   854f6:	932c      	str	r3, [sp, #176]	; 0xb0
   854f8:	6037      	str	r7, [r6, #0]
   854fa:	6075      	str	r5, [r6, #4]
   854fc:	ddf2      	ble.n	854e4 <_svfprintf_r+0x51c>
   854fe:	4650      	mov	r0, sl
   85500:	4641      	mov	r1, r8
   85502:	aa2b      	add	r2, sp, #172	; 0xac
   85504:	f004 fc30 	bl	89d68 <__ssprint_r>
   85508:	2800      	cmp	r0, #0
   8550a:	f47f ae75 	bne.w	851f8 <_svfprintf_r+0x230>
   8550e:	3c10      	subs	r4, #16
   85510:	2c10      	cmp	r4, #16
   85512:	9a2d      	ldr	r2, [sp, #180]	; 0xb4
   85514:	9b2c      	ldr	r3, [sp, #176]	; 0xb0
   85516:	ae38      	add	r6, sp, #224	; 0xe0
   85518:	dce9      	bgt.n	854ee <_svfprintf_r+0x526>
   8551a:	4694      	mov	ip, r2
   8551c:	46ba      	mov	sl, r7
   8551e:	3301      	adds	r3, #1
   85520:	44a4      	add	ip, r4
   85522:	2b07      	cmp	r3, #7
   85524:	f8cd c0b4 	str.w	ip, [sp, #180]	; 0xb4
   85528:	932c      	str	r3, [sp, #176]	; 0xb0
   8552a:	f8c6 a000 	str.w	sl, [r6]
   8552e:	6074      	str	r4, [r6, #4]
   85530:	dd09      	ble.n	85546 <_svfprintf_r+0x57e>
   85532:	980d      	ldr	r0, [sp, #52]	; 0x34
   85534:	990c      	ldr	r1, [sp, #48]	; 0x30
   85536:	aa2b      	add	r2, sp, #172	; 0xac
   85538:	f004 fc16 	bl	89d68 <__ssprint_r>
   8553c:	2800      	cmp	r0, #0
   8553e:	f47f ae5b 	bne.w	851f8 <_svfprintf_r+0x230>
   85542:	f8dd c0b4 	ldr.w	ip, [sp, #180]	; 0xb4
   85546:	9c0e      	ldr	r4, [sp, #56]	; 0x38
   85548:	980b      	ldr	r0, [sp, #44]	; 0x2c
   8554a:	9d0f      	ldr	r5, [sp, #60]	; 0x3c
   8554c:	42a8      	cmp	r0, r5
   8554e:	bfac      	ite	ge
   85550:	1824      	addge	r4, r4, r0
   85552:	1964      	addlt	r4, r4, r5
   85554:	940e      	str	r4, [sp, #56]	; 0x38
   85556:	f1bc 0f00 	cmp.w	ip, #0
   8555a:	f040 82c1 	bne.w	85ae0 <_svfprintf_r+0xb18>
   8555e:	2300      	movs	r3, #0
   85560:	932c      	str	r3, [sp, #176]	; 0xb0
   85562:	ae38      	add	r6, sp, #224	; 0xe0
   85564:	e556      	b.n	85014 <_svfprintf_r+0x4c>
   85566:	f899 8000 	ldrb.w	r8, [r9]
   8556a:	2a00      	cmp	r2, #0
   8556c:	f47f ad88 	bne.w	85080 <_svfprintf_r+0xb8>
   85570:	2220      	movs	r2, #32
   85572:	e585      	b.n	85080 <_svfprintf_r+0xb8>
   85574:	9d09      	ldr	r5, [sp, #36]	; 0x24
   85576:	f045 0501 	orr.w	r5, r5, #1
   8557a:	9509      	str	r5, [sp, #36]	; 0x24
   8557c:	f899 8000 	ldrb.w	r8, [r9]
   85580:	e57e      	b.n	85080 <_svfprintf_r+0xb8>
   85582:	9d09      	ldr	r5, [sp, #36]	; 0x24
   85584:	f045 0580 	orr.w	r5, r5, #128	; 0x80
   85588:	9509      	str	r5, [sp, #36]	; 0x24
   8558a:	f899 8000 	ldrb.w	r8, [r9]
   8558e:	e577      	b.n	85080 <_svfprintf_r+0xb8>
   85590:	2400      	movs	r4, #0
   85592:	f1a8 0330 	sub.w	r3, r8, #48	; 0x30
   85596:	940f      	str	r4, [sp, #60]	; 0x3c
   85598:	4621      	mov	r1, r4
   8559a:	f819 8b01 	ldrb.w	r8, [r9], #1
   8559e:	eb01 0181 	add.w	r1, r1, r1, lsl #2
   855a2:	eb03 0141 	add.w	r1, r3, r1, lsl #1
   855a6:	f1a8 0330 	sub.w	r3, r8, #48	; 0x30
   855aa:	2b09      	cmp	r3, #9
   855ac:	d9f5      	bls.n	8559a <_svfprintf_r+0x5d2>
   855ae:	910f      	str	r1, [sp, #60]	; 0x3c
   855b0:	e568      	b.n	85084 <_svfprintf_r+0xbc>
   855b2:	f8dd c024 	ldr.w	ip, [sp, #36]	; 0x24
   855b6:	f88d 208f 	strb.w	r2, [sp, #143]	; 0x8f
   855ba:	f04c 0c10 	orr.w	ip, ip, #16
   855be:	f8cd c024 	str.w	ip, [sp, #36]	; 0x24
   855c2:	9c09      	ldr	r4, [sp, #36]	; 0x24
   855c4:	06a5      	lsls	r5, r4, #26
   855c6:	f140 80b2 	bpl.w	8572e <_svfprintf_r+0x766>
   855ca:	9d10      	ldr	r5, [sp, #64]	; 0x40
   855cc:	1de9      	adds	r1, r5, #7
   855ce:	f021 0107 	bic.w	r1, r1, #7
   855d2:	e9d1 2300 	ldrd	r2, r3, [r1]
   855d6:	3108      	adds	r1, #8
   855d8:	9110      	str	r1, [sp, #64]	; 0x40
   855da:	4614      	mov	r4, r2
   855dc:	461d      	mov	r5, r3
   855de:	2a00      	cmp	r2, #0
   855e0:	f173 0c00 	sbcs.w	ip, r3, #0
   855e4:	f2c0 8394 	blt.w	85d10 <_svfprintf_r+0xd48>
   855e8:	f89d a08f 	ldrb.w	sl, [sp, #143]	; 0x8f
   855ec:	2301      	movs	r3, #1
   855ee:	e659      	b.n	852a4 <_svfprintf_r+0x2dc>
   855f0:	9d09      	ldr	r5, [sp, #36]	; 0x24
   855f2:	4cb6      	ldr	r4, [pc, #728]	; (858cc <_svfprintf_r+0x904>)
   855f4:	06af      	lsls	r7, r5, #26
   855f6:	f88d 208f 	strb.w	r2, [sp, #143]	; 0x8f
   855fa:	941a      	str	r4, [sp, #104]	; 0x68
   855fc:	f53f ae2f 	bmi.w	8525e <_svfprintf_r+0x296>
   85600:	9d09      	ldr	r5, [sp, #36]	; 0x24
   85602:	06ed      	lsls	r5, r5, #27
   85604:	f140 8443 	bpl.w	85e8e <_svfprintf_r+0xec6>
   85608:	f8dd c040 	ldr.w	ip, [sp, #64]	; 0x40
   8560c:	2500      	movs	r5, #0
   8560e:	f8dc 4000 	ldr.w	r4, [ip]
   85612:	f10c 0c04 	add.w	ip, ip, #4
   85616:	f8cd c040 	str.w	ip, [sp, #64]	; 0x40
   8561a:	e62b      	b.n	85274 <_svfprintf_r+0x2ac>
   8561c:	f8dd c024 	ldr.w	ip, [sp, #36]	; 0x24
   85620:	f88d 208f 	strb.w	r2, [sp, #143]	; 0x8f
   85624:	f01c 0f20 	tst.w	ip, #32
   85628:	f000 8440 	beq.w	85eac <_svfprintf_r+0xee4>
   8562c:	9c10      	ldr	r4, [sp, #64]	; 0x40
   8562e:	6821      	ldr	r1, [r4, #0]
   85630:	9c0e      	ldr	r4, [sp, #56]	; 0x38
   85632:	17e5      	asrs	r5, r4, #31
   85634:	462b      	mov	r3, r5
   85636:	9d10      	ldr	r5, [sp, #64]	; 0x40
   85638:	4622      	mov	r2, r4
   8563a:	3504      	adds	r5, #4
   8563c:	9510      	str	r5, [sp, #64]	; 0x40
   8563e:	e9c1 2300 	strd	r2, r3, [r1]
   85642:	e4e7      	b.n	85014 <_svfprintf_r+0x4c>
   85644:	9c10      	ldr	r4, [sp, #64]	; 0x40
   85646:	f04f 0a00 	mov.w	sl, #0
   8564a:	6827      	ldr	r7, [r4, #0]
   8564c:	f88d a08f 	strb.w	sl, [sp, #143]	; 0x8f
   85650:	1d25      	adds	r5, r4, #4
   85652:	2f00      	cmp	r7, #0
   85654:	f000 85e9 	beq.w	8622a <_svfprintf_r+0x1262>
   85658:	9c0a      	ldr	r4, [sp, #40]	; 0x28
   8565a:	4638      	mov	r0, r7
   8565c:	2c00      	cmp	r4, #0
   8565e:	f2c0 859b 	blt.w	86198 <_svfprintf_r+0x11d0>
   85662:	4651      	mov	r1, sl
   85664:	4622      	mov	r2, r4
   85666:	f003 fd8d 	bl	89184 <memchr>
   8566a:	2800      	cmp	r0, #0
   8566c:	f000 8613 	beq.w	86296 <_svfprintf_r+0x12ce>
   85670:	9c0a      	ldr	r4, [sp, #40]	; 0x28
   85672:	1bc0      	subs	r0, r0, r7
   85674:	42a0      	cmp	r0, r4
   85676:	bfb8      	it	lt
   85678:	4604      	movlt	r4, r0
   8567a:	9510      	str	r5, [sp, #64]	; 0x40
   8567c:	ea24 75e4 	bic.w	r5, r4, r4, asr #31
   85680:	f8cd a028 	str.w	sl, [sp, #40]	; 0x28
   85684:	f8cd a050 	str.w	sl, [sp, #80]	; 0x50
   85688:	950b      	str	r5, [sp, #44]	; 0x2c
   8568a:	f89d a08f 	ldrb.w	sl, [sp, #143]	; 0x8f
   8568e:	e632      	b.n	852f6 <_svfprintf_r+0x32e>
   85690:	f8dd c024 	ldr.w	ip, [sp, #36]	; 0x24
   85694:	f04c 0c40 	orr.w	ip, ip, #64	; 0x40
   85698:	f8cd c024 	str.w	ip, [sp, #36]	; 0x24
   8569c:	f899 8000 	ldrb.w	r8, [r9]
   856a0:	e4ee      	b.n	85080 <_svfprintf_r+0xb8>
   856a2:	f899 8000 	ldrb.w	r8, [r9]
   856a6:	464b      	mov	r3, r9
   856a8:	f1b8 0f6c 	cmp.w	r8, #108	; 0x6c
   856ac:	f000 847f 	beq.w	85fae <_svfprintf_r+0xfe6>
   856b0:	9d09      	ldr	r5, [sp, #36]	; 0x24
   856b2:	f045 0510 	orr.w	r5, r5, #16
   856b6:	9509      	str	r5, [sp, #36]	; 0x24
   856b8:	e4e2      	b.n	85080 <_svfprintf_r+0xb8>
   856ba:	9c10      	ldr	r4, [sp, #64]	; 0x40
   856bc:	9d10      	ldr	r5, [sp, #64]	; 0x40
   856be:	6824      	ldr	r4, [r4, #0]
   856c0:	1d2b      	adds	r3, r5, #4
   856c2:	2c00      	cmp	r4, #0
   856c4:	940f      	str	r4, [sp, #60]	; 0x3c
   856c6:	f6ff ad7d 	blt.w	851c4 <_svfprintf_r+0x1fc>
   856ca:	9310      	str	r3, [sp, #64]	; 0x40
   856cc:	f899 8000 	ldrb.w	r8, [r9]
   856d0:	e4d6      	b.n	85080 <_svfprintf_r+0xb8>
   856d2:	9b10      	ldr	r3, [sp, #64]	; 0x40
   856d4:	f8dd c024 	ldr.w	ip, [sp, #36]	; 0x24
   856d8:	9d10      	ldr	r5, [sp, #64]	; 0x40
   856da:	487d      	ldr	r0, [pc, #500]	; (858d0 <_svfprintf_r+0x908>)
   856dc:	3504      	adds	r5, #4
   856de:	681c      	ldr	r4, [r3, #0]
   856e0:	f04f 0878 	mov.w	r8, #120	; 0x78
   856e4:	2330      	movs	r3, #48	; 0x30
   856e6:	f04c 0c02 	orr.w	ip, ip, #2
   856ea:	9510      	str	r5, [sp, #64]	; 0x40
   856ec:	f88d 3090 	strb.w	r3, [sp, #144]	; 0x90
   856f0:	f8cd c024 	str.w	ip, [sp, #36]	; 0x24
   856f4:	2500      	movs	r5, #0
   856f6:	f88d 8091 	strb.w	r8, [sp, #145]	; 0x91
   856fa:	901a      	str	r0, [sp, #104]	; 0x68
   856fc:	2302      	movs	r3, #2
   856fe:	e5cd      	b.n	8529c <_svfprintf_r+0x2d4>
   85700:	9b10      	ldr	r3, [sp, #64]	; 0x40
   85702:	9d10      	ldr	r5, [sp, #64]	; 0x40
   85704:	681a      	ldr	r2, [r3, #0]
   85706:	2401      	movs	r4, #1
   85708:	2300      	movs	r3, #0
   8570a:	3504      	adds	r5, #4
   8570c:	469a      	mov	sl, r3
   8570e:	940b      	str	r4, [sp, #44]	; 0x2c
   85710:	f88d 20b8 	strb.w	r2, [sp, #184]	; 0xb8
   85714:	9510      	str	r5, [sp, #64]	; 0x40
   85716:	f88d 308f 	strb.w	r3, [sp, #143]	; 0x8f
   8571a:	930a      	str	r3, [sp, #40]	; 0x28
   8571c:	9314      	str	r3, [sp, #80]	; 0x50
   8571e:	af2e      	add	r7, sp, #184	; 0xb8
   85720:	e5ef      	b.n	85302 <_svfprintf_r+0x33a>
   85722:	9c09      	ldr	r4, [sp, #36]	; 0x24
   85724:	f88d 208f 	strb.w	r2, [sp, #143]	; 0x8f
   85728:	06a5      	lsls	r5, r4, #26
   8572a:	f53f af4e 	bmi.w	855ca <_svfprintf_r+0x602>
   8572e:	f8dd c024 	ldr.w	ip, [sp, #36]	; 0x24
   85732:	f01c 0f10 	tst.w	ip, #16
   85736:	f040 82df 	bne.w	85cf8 <_svfprintf_r+0xd30>
   8573a:	f8dd c024 	ldr.w	ip, [sp, #36]	; 0x24
   8573e:	f01c 0f40 	tst.w	ip, #64	; 0x40
   85742:	f000 82d9 	beq.w	85cf8 <_svfprintf_r+0xd30>
   85746:	f8dd c040 	ldr.w	ip, [sp, #64]	; 0x40
   8574a:	f9bc 4000 	ldrsh.w	r4, [ip]
   8574e:	f10c 0c04 	add.w	ip, ip, #4
   85752:	17e5      	asrs	r5, r4, #31
   85754:	4622      	mov	r2, r4
   85756:	462b      	mov	r3, r5
   85758:	f8cd c040 	str.w	ip, [sp, #64]	; 0x40
   8575c:	e73f      	b.n	855de <_svfprintf_r+0x616>
   8575e:	f899 8000 	ldrb.w	r8, [r9]
   85762:	222b      	movs	r2, #43	; 0x2b
   85764:	e48c      	b.n	85080 <_svfprintf_r+0xb8>
   85766:	9d09      	ldr	r5, [sp, #36]	; 0x24
   85768:	f045 0508 	orr.w	r5, r5, #8
   8576c:	9509      	str	r5, [sp, #36]	; 0x24
   8576e:	f899 8000 	ldrb.w	r8, [r9]
   85772:	e485      	b.n	85080 <_svfprintf_r+0xb8>
   85774:	9d10      	ldr	r5, [sp, #64]	; 0x40
   85776:	f88d 208f 	strb.w	r2, [sp, #143]	; 0x8f
   8577a:	1deb      	adds	r3, r5, #7
   8577c:	f023 0307 	bic.w	r3, r3, #7
   85780:	f103 0c08 	add.w	ip, r3, #8
   85784:	f8cd c040 	str.w	ip, [sp, #64]	; 0x40
   85788:	e9d3 4500 	ldrd	r4, r5, [r3]
   8578c:	e9cd 4516 	strd	r4, r5, [sp, #88]	; 0x58
   85790:	e9dd 0116 	ldrd	r0, r1, [sp, #88]	; 0x58
   85794:	f7fe f9f0 	bl	83b78 <__fpclassifyd>
   85798:	2801      	cmp	r0, #1
   8579a:	e9dd 0116 	ldrd	r0, r1, [sp, #88]	; 0x58
   8579e:	f040 835c 	bne.w	85e5a <_svfprintf_r+0xe92>
   857a2:	2200      	movs	r2, #0
   857a4:	2300      	movs	r3, #0
   857a6:	f7fe fec7 	bl	84538 <__aeabi_dcmplt>
   857aa:	2800      	cmp	r0, #0
   857ac:	f040 8563 	bne.w	86276 <_svfprintf_r+0x12ae>
   857b0:	f89d a08f 	ldrb.w	sl, [sp, #143]	; 0x8f
   857b4:	2503      	movs	r5, #3
   857b6:	950b      	str	r5, [sp, #44]	; 0x2c
   857b8:	9d09      	ldr	r5, [sp, #36]	; 0x24
   857ba:	4f46      	ldr	r7, [pc, #280]	; (858d4 <_svfprintf_r+0x90c>)
   857bc:	f025 0580 	bic.w	r5, r5, #128	; 0x80
   857c0:	4b45      	ldr	r3, [pc, #276]	; (858d8 <_svfprintf_r+0x910>)
   857c2:	2400      	movs	r4, #0
   857c4:	9509      	str	r5, [sp, #36]	; 0x24
   857c6:	2500      	movs	r5, #0
   857c8:	940a      	str	r4, [sp, #40]	; 0x28
   857ca:	f1b8 0f47 	cmp.w	r8, #71	; 0x47
   857ce:	bfd8      	it	le
   857d0:	461f      	movle	r7, r3
   857d2:	2403      	movs	r4, #3
   857d4:	9514      	str	r5, [sp, #80]	; 0x50
   857d6:	e58e      	b.n	852f6 <_svfprintf_r+0x32e>
   857d8:	f8dd c024 	ldr.w	ip, [sp, #36]	; 0x24
   857dc:	f04c 0c20 	orr.w	ip, ip, #32
   857e0:	f8cd c024 	str.w	ip, [sp, #36]	; 0x24
   857e4:	f899 8000 	ldrb.w	r8, [r9]
   857e8:	e44a      	b.n	85080 <_svfprintf_r+0xb8>
   857ea:	9c10      	ldr	r4, [sp, #64]	; 0x40
   857ec:	1de3      	adds	r3, r4, #7
   857ee:	f023 0307 	bic.w	r3, r3, #7
   857f2:	f103 0508 	add.w	r5, r3, #8
   857f6:	9510      	str	r5, [sp, #64]	; 0x40
   857f8:	e9d3 4500 	ldrd	r4, r5, [r3]
   857fc:	2300      	movs	r3, #0
   857fe:	e54d      	b.n	8529c <_svfprintf_r+0x2d4>
   85800:	9d10      	ldr	r5, [sp, #64]	; 0x40
   85802:	1deb      	adds	r3, r5, #7
   85804:	f023 0307 	bic.w	r3, r3, #7
   85808:	f103 0c08 	add.w	ip, r3, #8
   8580c:	e9d3 4500 	ldrd	r4, r5, [r3]
   85810:	f8cd c040 	str.w	ip, [sp, #64]	; 0x40
   85814:	2301      	movs	r3, #1
   85816:	e541      	b.n	8529c <_svfprintf_r+0x2d4>
   85818:	f88d 208f 	strb.w	r2, [sp, #143]	; 0x8f
   8581c:	f1b8 0f00 	cmp.w	r8, #0
   85820:	f43f ace3 	beq.w	851ea <_svfprintf_r+0x222>
   85824:	2300      	movs	r3, #0
   85826:	f04f 0c01 	mov.w	ip, #1
   8582a:	469a      	mov	sl, r3
   8582c:	f8cd c02c 	str.w	ip, [sp, #44]	; 0x2c
   85830:	f88d 80b8 	strb.w	r8, [sp, #184]	; 0xb8
   85834:	f88d 308f 	strb.w	r3, [sp, #143]	; 0x8f
   85838:	930a      	str	r3, [sp, #40]	; 0x28
   8583a:	9314      	str	r3, [sp, #80]	; 0x50
   8583c:	4664      	mov	r4, ip
   8583e:	af2e      	add	r7, sp, #184	; 0xb8
   85840:	e55f      	b.n	85302 <_svfprintf_r+0x33a>
   85842:	f8dd c0b4 	ldr.w	ip, [sp, #180]	; 0xb4
   85846:	e5b7      	b.n	853b8 <_svfprintf_r+0x3f0>
   85848:	2b01      	cmp	r3, #1
   8584a:	f000 80ec 	beq.w	85a26 <_svfprintf_r+0xa5e>
   8584e:	2b02      	cmp	r3, #2
   85850:	f10d 03df 	add.w	r3, sp, #223	; 0xdf
   85854:	d118      	bne.n	85888 <_svfprintf_r+0x8c0>
   85856:	f8dd c068 	ldr.w	ip, [sp, #104]	; 0x68
   8585a:	4619      	mov	r1, r3
   8585c:	f004 000f 	and.w	r0, r4, #15
   85860:	0922      	lsrs	r2, r4, #4
   85862:	f81c 0000 	ldrb.w	r0, [ip, r0]
   85866:	ea42 7205 	orr.w	r2, r2, r5, lsl #28
   8586a:	092b      	lsrs	r3, r5, #4
   8586c:	7008      	strb	r0, [r1, #0]
   8586e:	ea52 0003 	orrs.w	r0, r2, r3
   85872:	460f      	mov	r7, r1
   85874:	4614      	mov	r4, r2
   85876:	461d      	mov	r5, r3
   85878:	f101 31ff 	add.w	r1, r1, #4294967295
   8587c:	d1ee      	bne.n	8585c <_svfprintf_r+0x894>
   8587e:	9d08      	ldr	r5, [sp, #32]
   85880:	e9cd 231e 	strd	r2, r3, [sp, #120]	; 0x78
   85884:	1bec      	subs	r4, r5, r7
   85886:	e52d      	b.n	852e4 <_svfprintf_r+0x31c>
   85888:	08e0      	lsrs	r0, r4, #3
   8588a:	ea40 7045 	orr.w	r0, r0, r5, lsl #29
   8588e:	f004 0207 	and.w	r2, r4, #7
   85892:	08e9      	lsrs	r1, r5, #3
   85894:	3230      	adds	r2, #48	; 0x30
   85896:	ea50 0c01 	orrs.w	ip, r0, r1
   8589a:	461f      	mov	r7, r3
   8589c:	701a      	strb	r2, [r3, #0]
   8589e:	4604      	mov	r4, r0
   858a0:	460d      	mov	r5, r1
   858a2:	f103 33ff 	add.w	r3, r3, #4294967295
   858a6:	d1ef      	bne.n	85888 <_svfprintf_r+0x8c0>
   858a8:	9c09      	ldr	r4, [sp, #36]	; 0x24
   858aa:	e9cd 011c 	strd	r0, r1, [sp, #112]	; 0x70
   858ae:	07e0      	lsls	r0, r4, #31
   858b0:	4639      	mov	r1, r7
   858b2:	f140 80c1 	bpl.w	85a38 <_svfprintf_r+0xa70>
   858b6:	2a30      	cmp	r2, #48	; 0x30
   858b8:	f000 80be 	beq.w	85a38 <_svfprintf_r+0xa70>
   858bc:	9d08      	ldr	r5, [sp, #32]
   858be:	461f      	mov	r7, r3
   858c0:	2330      	movs	r3, #48	; 0x30
   858c2:	1bec      	subs	r4, r5, r7
   858c4:	f801 3c01 	strb.w	r3, [r1, #-1]
   858c8:	e50c      	b.n	852e4 <_svfprintf_r+0x31c>
   858ca:	bf00      	nop
   858cc:	0008aaa0 	.word	0x0008aaa0
   858d0:	0008aab4 	.word	0x0008aab4
   858d4:	0008aa94 	.word	0x0008aa94
   858d8:	0008aa90 	.word	0x0008aa90
   858dc:	f1b8 0f65 	cmp.w	r8, #101	; 0x65
   858e0:	f340 80ad 	ble.w	85a3e <_svfprintf_r+0xa76>
   858e4:	e9dd 0116 	ldrd	r0, r1, [sp, #88]	; 0x58
   858e8:	2200      	movs	r2, #0
   858ea:	2300      	movs	r3, #0
   858ec:	f8cd c01c 	str.w	ip, [sp, #28]
   858f0:	f7fe fe18 	bl	84524 <__aeabi_dcmpeq>
   858f4:	f8dd c01c 	ldr.w	ip, [sp, #28]
   858f8:	2800      	cmp	r0, #0
   858fa:	f000 8126 	beq.w	85b4a <_svfprintf_r+0xb82>
   858fe:	9b2c      	ldr	r3, [sp, #176]	; 0xb0
   85900:	49aa      	ldr	r1, [pc, #680]	; (85bac <_svfprintf_r+0xbe4>)
   85902:	3301      	adds	r3, #1
   85904:	f10c 0c01 	add.w	ip, ip, #1
   85908:	2201      	movs	r2, #1
   8590a:	2b07      	cmp	r3, #7
   8590c:	f8cd c0b4 	str.w	ip, [sp, #180]	; 0xb4
   85910:	932c      	str	r3, [sp, #176]	; 0xb0
   85912:	e886 0006 	stmia.w	r6, {r1, r2}
   85916:	f300 82ed 	bgt.w	85ef4 <_svfprintf_r+0xf2c>
   8591a:	3608      	adds	r6, #8
   8591c:	9b25      	ldr	r3, [sp, #148]	; 0x94
   8591e:	9c11      	ldr	r4, [sp, #68]	; 0x44
   85920:	42a3      	cmp	r3, r4
   85922:	db03      	blt.n	8592c <_svfprintf_r+0x964>
   85924:	9d09      	ldr	r5, [sp, #36]	; 0x24
   85926:	07ec      	lsls	r4, r5, #31
   85928:	f57f adc0 	bpl.w	854ac <_svfprintf_r+0x4e4>
   8592c:	9b2c      	ldr	r3, [sp, #176]	; 0xb0
   8592e:	9c18      	ldr	r4, [sp, #96]	; 0x60
   85930:	3301      	adds	r3, #1
   85932:	9d15      	ldr	r5, [sp, #84]	; 0x54
   85934:	44a4      	add	ip, r4
   85936:	2b07      	cmp	r3, #7
   85938:	f8cd c0b4 	str.w	ip, [sp, #180]	; 0xb4
   8593c:	6035      	str	r5, [r6, #0]
   8593e:	6074      	str	r4, [r6, #4]
   85940:	932c      	str	r3, [sp, #176]	; 0xb0
   85942:	f300 833e 	bgt.w	85fc2 <_svfprintf_r+0xffa>
   85946:	3608      	adds	r6, #8
   85948:	9d11      	ldr	r5, [sp, #68]	; 0x44
   8594a:	1e6c      	subs	r4, r5, #1
   8594c:	2c00      	cmp	r4, #0
   8594e:	f77f adad 	ble.w	854ac <_svfprintf_r+0x4e4>
   85952:	2c10      	cmp	r4, #16
   85954:	9b2c      	ldr	r3, [sp, #176]	; 0xb0
   85956:	4d96      	ldr	r5, [pc, #600]	; (85bb0 <_svfprintf_r+0xbe8>)
   85958:	f340 8197 	ble.w	85c8a <_svfprintf_r+0xcc2>
   8595c:	2710      	movs	r7, #16
   8595e:	4662      	mov	r2, ip
   85960:	f8dd 8034 	ldr.w	r8, [sp, #52]	; 0x34
   85964:	f8dd a030 	ldr.w	sl, [sp, #48]	; 0x30
   85968:	e004      	b.n	85974 <_svfprintf_r+0x9ac>
   8596a:	3608      	adds	r6, #8
   8596c:	3c10      	subs	r4, #16
   8596e:	2c10      	cmp	r4, #16
   85970:	f340 818a 	ble.w	85c88 <_svfprintf_r+0xcc0>
   85974:	3301      	adds	r3, #1
   85976:	3210      	adds	r2, #16
   85978:	2b07      	cmp	r3, #7
   8597a:	922d      	str	r2, [sp, #180]	; 0xb4
   8597c:	932c      	str	r3, [sp, #176]	; 0xb0
   8597e:	e886 00a0 	stmia.w	r6, {r5, r7}
   85982:	ddf2      	ble.n	8596a <_svfprintf_r+0x9a2>
   85984:	4640      	mov	r0, r8
   85986:	4651      	mov	r1, sl
   85988:	aa2b      	add	r2, sp, #172	; 0xac
   8598a:	f004 f9ed 	bl	89d68 <__ssprint_r>
   8598e:	2800      	cmp	r0, #0
   85990:	f47f ac32 	bne.w	851f8 <_svfprintf_r+0x230>
   85994:	9a2d      	ldr	r2, [sp, #180]	; 0xb4
   85996:	9b2c      	ldr	r3, [sp, #176]	; 0xb0
   85998:	ae38      	add	r6, sp, #224	; 0xe0
   8599a:	e7e7      	b.n	8596c <_svfprintf_r+0x9a4>
   8599c:	9d0f      	ldr	r5, [sp, #60]	; 0x3c
   8599e:	980b      	ldr	r0, [sp, #44]	; 0x2c
   859a0:	ebc0 0a05 	rsb	sl, r0, r5
   859a4:	f1ba 0f00 	cmp.w	sl, #0
   859a8:	f77f ad2e 	ble.w	85408 <_svfprintf_r+0x440>
   859ac:	f1ba 0f10 	cmp.w	sl, #16
   859b0:	9b2c      	ldr	r3, [sp, #176]	; 0xb0
   859b2:	4d7f      	ldr	r5, [pc, #508]	; (85bb0 <_svfprintf_r+0xbe8>)
   859b4:	dd2b      	ble.n	85a0e <_svfprintf_r+0xa46>
   859b6:	9412      	str	r4, [sp, #72]	; 0x48
   859b8:	4632      	mov	r2, r6
   859ba:	f04f 0b10 	mov.w	fp, #16
   859be:	462e      	mov	r6, r5
   859c0:	4661      	mov	r1, ip
   859c2:	9c0d      	ldr	r4, [sp, #52]	; 0x34
   859c4:	9d0c      	ldr	r5, [sp, #48]	; 0x30
   859c6:	e006      	b.n	859d6 <_svfprintf_r+0xa0e>
   859c8:	f1aa 0a10 	sub.w	sl, sl, #16
   859cc:	f1ba 0f10 	cmp.w	sl, #16
   859d0:	f102 0208 	add.w	r2, r2, #8
   859d4:	dd17      	ble.n	85a06 <_svfprintf_r+0xa3e>
   859d6:	3301      	adds	r3, #1
   859d8:	3110      	adds	r1, #16
   859da:	2b07      	cmp	r3, #7
   859dc:	912d      	str	r1, [sp, #180]	; 0xb4
   859de:	932c      	str	r3, [sp, #176]	; 0xb0
   859e0:	e882 0840 	stmia.w	r2, {r6, fp}
   859e4:	ddf0      	ble.n	859c8 <_svfprintf_r+0xa00>
   859e6:	4620      	mov	r0, r4
   859e8:	4629      	mov	r1, r5
   859ea:	aa2b      	add	r2, sp, #172	; 0xac
   859ec:	f004 f9bc 	bl	89d68 <__ssprint_r>
   859f0:	2800      	cmp	r0, #0
   859f2:	f47f ac01 	bne.w	851f8 <_svfprintf_r+0x230>
   859f6:	f1aa 0a10 	sub.w	sl, sl, #16
   859fa:	f1ba 0f10 	cmp.w	sl, #16
   859fe:	992d      	ldr	r1, [sp, #180]	; 0xb4
   85a00:	9b2c      	ldr	r3, [sp, #176]	; 0xb0
   85a02:	aa38      	add	r2, sp, #224	; 0xe0
   85a04:	dce7      	bgt.n	859d6 <_svfprintf_r+0xa0e>
   85a06:	9c12      	ldr	r4, [sp, #72]	; 0x48
   85a08:	4635      	mov	r5, r6
   85a0a:	468c      	mov	ip, r1
   85a0c:	4616      	mov	r6, r2
   85a0e:	3301      	adds	r3, #1
   85a10:	44d4      	add	ip, sl
   85a12:	2b07      	cmp	r3, #7
   85a14:	f8cd c0b4 	str.w	ip, [sp, #180]	; 0xb4
   85a18:	932c      	str	r3, [sp, #176]	; 0xb0
   85a1a:	e886 0420 	stmia.w	r6, {r5, sl}
   85a1e:	f300 820f 	bgt.w	85e40 <_svfprintf_r+0xe78>
   85a22:	3608      	adds	r6, #8
   85a24:	e4f0      	b.n	85408 <_svfprintf_r+0x440>
   85a26:	2d00      	cmp	r5, #0
   85a28:	bf08      	it	eq
   85a2a:	2c0a      	cmpeq	r4, #10
   85a2c:	f080 8138 	bcs.w	85ca0 <_svfprintf_r+0xcd8>
   85a30:	3430      	adds	r4, #48	; 0x30
   85a32:	af48      	add	r7, sp, #288	; 0x120
   85a34:	f807 4d41 	strb.w	r4, [r7, #-65]!
   85a38:	9d08      	ldr	r5, [sp, #32]
   85a3a:	1bec      	subs	r4, r5, r7
   85a3c:	e452      	b.n	852e4 <_svfprintf_r+0x31c>
   85a3e:	9c11      	ldr	r4, [sp, #68]	; 0x44
   85a40:	2c01      	cmp	r4, #1
   85a42:	9c2c      	ldr	r4, [sp, #176]	; 0xb0
   85a44:	f340 81d2 	ble.w	85dec <_svfprintf_r+0xe24>
   85a48:	3401      	adds	r4, #1
   85a4a:	f10c 0301 	add.w	r3, ip, #1
   85a4e:	2201      	movs	r2, #1
   85a50:	2c07      	cmp	r4, #7
   85a52:	932d      	str	r3, [sp, #180]	; 0xb4
   85a54:	6037      	str	r7, [r6, #0]
   85a56:	942c      	str	r4, [sp, #176]	; 0xb0
   85a58:	6072      	str	r2, [r6, #4]
   85a5a:	f300 81d8 	bgt.w	85e0e <_svfprintf_r+0xe46>
   85a5e:	3608      	adds	r6, #8
   85a60:	9d15      	ldr	r5, [sp, #84]	; 0x54
   85a62:	f8dd 8060 	ldr.w	r8, [sp, #96]	; 0x60
   85a66:	3401      	adds	r4, #1
   85a68:	6035      	str	r5, [r6, #0]
   85a6a:	9d18      	ldr	r5, [sp, #96]	; 0x60
   85a6c:	4498      	add	r8, r3
   85a6e:	2c07      	cmp	r4, #7
   85a70:	f8cd 80b4 	str.w	r8, [sp, #180]	; 0xb4
   85a74:	942c      	str	r4, [sp, #176]	; 0xb0
   85a76:	6075      	str	r5, [r6, #4]
   85a78:	f300 81d5 	bgt.w	85e26 <_svfprintf_r+0xe5e>
   85a7c:	3608      	adds	r6, #8
   85a7e:	e9dd 0116 	ldrd	r0, r1, [sp, #88]	; 0x58
   85a82:	2200      	movs	r2, #0
   85a84:	2300      	movs	r3, #0
   85a86:	f7fe fd4d 	bl	84524 <__aeabi_dcmpeq>
   85a8a:	9d11      	ldr	r5, [sp, #68]	; 0x44
   85a8c:	2800      	cmp	r0, #0
   85a8e:	f040 80b9 	bne.w	85c04 <_svfprintf_r+0xc3c>
   85a92:	1e6b      	subs	r3, r5, #1
   85a94:	3401      	adds	r4, #1
   85a96:	3701      	adds	r7, #1
   85a98:	4498      	add	r8, r3
   85a9a:	2c07      	cmp	r4, #7
   85a9c:	942c      	str	r4, [sp, #176]	; 0xb0
   85a9e:	f8cd 80b4 	str.w	r8, [sp, #180]	; 0xb4
   85aa2:	6037      	str	r7, [r6, #0]
   85aa4:	6073      	str	r3, [r6, #4]
   85aa6:	f300 80e2 	bgt.w	85c6e <_svfprintf_r+0xca6>
   85aaa:	3608      	adds	r6, #8
   85aac:	f8dd c064 	ldr.w	ip, [sp, #100]	; 0x64
   85ab0:	3401      	adds	r4, #1
   85ab2:	9d19      	ldr	r5, [sp, #100]	; 0x64
   85ab4:	44c4      	add	ip, r8
   85ab6:	ab27      	add	r3, sp, #156	; 0x9c
   85ab8:	2c07      	cmp	r4, #7
   85aba:	f8cd c0b4 	str.w	ip, [sp, #180]	; 0xb4
   85abe:	942c      	str	r4, [sp, #176]	; 0xb0
   85ac0:	e886 0028 	stmia.w	r6, {r3, r5}
   85ac4:	f77f acf1 	ble.w	854aa <_svfprintf_r+0x4e2>
   85ac8:	980d      	ldr	r0, [sp, #52]	; 0x34
   85aca:	990c      	ldr	r1, [sp, #48]	; 0x30
   85acc:	aa2b      	add	r2, sp, #172	; 0xac
   85ace:	f004 f94b 	bl	89d68 <__ssprint_r>
   85ad2:	2800      	cmp	r0, #0
   85ad4:	f47f ab90 	bne.w	851f8 <_svfprintf_r+0x230>
   85ad8:	f8dd c0b4 	ldr.w	ip, [sp, #180]	; 0xb4
   85adc:	ae38      	add	r6, sp, #224	; 0xe0
   85ade:	e4e5      	b.n	854ac <_svfprintf_r+0x4e4>
   85ae0:	980d      	ldr	r0, [sp, #52]	; 0x34
   85ae2:	990c      	ldr	r1, [sp, #48]	; 0x30
   85ae4:	aa2b      	add	r2, sp, #172	; 0xac
   85ae6:	f004 f93f 	bl	89d68 <__ssprint_r>
   85aea:	2800      	cmp	r0, #0
   85aec:	f43f ad37 	beq.w	8555e <_svfprintf_r+0x596>
   85af0:	f7ff bb82 	b.w	851f8 <_svfprintf_r+0x230>
   85af4:	980d      	ldr	r0, [sp, #52]	; 0x34
   85af6:	990c      	ldr	r1, [sp, #48]	; 0x30
   85af8:	aa2b      	add	r2, sp, #172	; 0xac
   85afa:	f004 f935 	bl	89d68 <__ssprint_r>
   85afe:	2800      	cmp	r0, #0
   85b00:	f47f ab7a 	bne.w	851f8 <_svfprintf_r+0x230>
   85b04:	f8dd c0b4 	ldr.w	ip, [sp, #180]	; 0xb4
   85b08:	ae38      	add	r6, sp, #224	; 0xe0
   85b0a:	e4bf      	b.n	8548c <_svfprintf_r+0x4c4>
   85b0c:	980d      	ldr	r0, [sp, #52]	; 0x34
   85b0e:	990c      	ldr	r1, [sp, #48]	; 0x30
   85b10:	aa2b      	add	r2, sp, #172	; 0xac
   85b12:	f004 f929 	bl	89d68 <__ssprint_r>
   85b16:	2800      	cmp	r0, #0
   85b18:	f47f ab6e 	bne.w	851f8 <_svfprintf_r+0x230>
   85b1c:	f8dd c0b4 	ldr.w	ip, [sp, #180]	; 0xb4
   85b20:	ae38      	add	r6, sp, #224	; 0xe0
   85b22:	e46d      	b.n	85400 <_svfprintf_r+0x438>
   85b24:	980d      	ldr	r0, [sp, #52]	; 0x34
   85b26:	990c      	ldr	r1, [sp, #48]	; 0x30
   85b28:	aa2b      	add	r2, sp, #172	; 0xac
   85b2a:	f004 f91d 	bl	89d68 <__ssprint_r>
   85b2e:	2800      	cmp	r0, #0
   85b30:	f47f ab62 	bne.w	851f8 <_svfprintf_r+0x230>
   85b34:	f8dd c0b4 	ldr.w	ip, [sp, #180]	; 0xb4
   85b38:	ae38      	add	r6, sp, #224	; 0xe0
   85b3a:	e450      	b.n	853de <_svfprintf_r+0x416>
   85b3c:	9c0a      	ldr	r4, [sp, #40]	; 0x28
   85b3e:	af38      	add	r7, sp, #224	; 0xe0
   85b40:	f7ff bbd0 	b.w	852e4 <_svfprintf_r+0x31c>
   85b44:	2302      	movs	r3, #2
   85b46:	f7ff bba9 	b.w	8529c <_svfprintf_r+0x2d4>
   85b4a:	9b25      	ldr	r3, [sp, #148]	; 0x94
   85b4c:	2b00      	cmp	r3, #0
   85b4e:	f340 81dd 	ble.w	85f0c <_svfprintf_r+0xf44>
   85b52:	9c11      	ldr	r4, [sp, #68]	; 0x44
   85b54:	9d14      	ldr	r5, [sp, #80]	; 0x50
   85b56:	f8dd a044 	ldr.w	sl, [sp, #68]	; 0x44
   85b5a:	42ac      	cmp	r4, r5
   85b5c:	bfa8      	it	ge
   85b5e:	462c      	movge	r4, r5
   85b60:	2c00      	cmp	r4, #0
   85b62:	44ba      	add	sl, r7
   85b64:	dd0b      	ble.n	85b7e <_svfprintf_r+0xbb6>
   85b66:	9b2c      	ldr	r3, [sp, #176]	; 0xb0
   85b68:	44a4      	add	ip, r4
   85b6a:	3301      	adds	r3, #1
   85b6c:	2b07      	cmp	r3, #7
   85b6e:	f8cd c0b4 	str.w	ip, [sp, #180]	; 0xb4
   85b72:	6037      	str	r7, [r6, #0]
   85b74:	6074      	str	r4, [r6, #4]
   85b76:	932c      	str	r3, [sp, #176]	; 0xb0
   85b78:	f300 831e 	bgt.w	861b8 <_svfprintf_r+0x11f0>
   85b7c:	3608      	adds	r6, #8
   85b7e:	9d14      	ldr	r5, [sp, #80]	; 0x50
   85b80:	ea24 74e4 	bic.w	r4, r4, r4, asr #31
   85b84:	1b2c      	subs	r4, r5, r4
   85b86:	2c00      	cmp	r4, #0
   85b88:	f340 80d7 	ble.w	85d3a <_svfprintf_r+0xd72>
   85b8c:	2c10      	cmp	r4, #16
   85b8e:	9b2c      	ldr	r3, [sp, #176]	; 0xb0
   85b90:	4d07      	ldr	r5, [pc, #28]	; (85bb0 <_svfprintf_r+0xbe8>)
   85b92:	f340 81a3 	ble.w	85edc <_svfprintf_r+0xf14>
   85b96:	970a      	str	r7, [sp, #40]	; 0x28
   85b98:	f04f 0810 	mov.w	r8, #16
   85b9c:	462f      	mov	r7, r5
   85b9e:	4662      	mov	r2, ip
   85ba0:	4625      	mov	r5, r4
   85ba2:	f8dd b034 	ldr.w	fp, [sp, #52]	; 0x34
   85ba6:	9c0c      	ldr	r4, [sp, #48]	; 0x30
   85ba8:	e009      	b.n	85bbe <_svfprintf_r+0xbf6>
   85baa:	bf00      	nop
   85bac:	0008aad0 	.word	0x0008aad0
   85bb0:	0008aa80 	.word	0x0008aa80
   85bb4:	3608      	adds	r6, #8
   85bb6:	3d10      	subs	r5, #16
   85bb8:	2d10      	cmp	r5, #16
   85bba:	f340 818b 	ble.w	85ed4 <_svfprintf_r+0xf0c>
   85bbe:	3301      	adds	r3, #1
   85bc0:	3210      	adds	r2, #16
   85bc2:	2b07      	cmp	r3, #7
   85bc4:	922d      	str	r2, [sp, #180]	; 0xb4
   85bc6:	932c      	str	r3, [sp, #176]	; 0xb0
   85bc8:	e886 0180 	stmia.w	r6, {r7, r8}
   85bcc:	ddf2      	ble.n	85bb4 <_svfprintf_r+0xbec>
   85bce:	4658      	mov	r0, fp
   85bd0:	4621      	mov	r1, r4
   85bd2:	aa2b      	add	r2, sp, #172	; 0xac
   85bd4:	f004 f8c8 	bl	89d68 <__ssprint_r>
   85bd8:	2800      	cmp	r0, #0
   85bda:	f47f ab0d 	bne.w	851f8 <_svfprintf_r+0x230>
   85bde:	9a2d      	ldr	r2, [sp, #180]	; 0xb4
   85be0:	9b2c      	ldr	r3, [sp, #176]	; 0xb0
   85be2:	ae38      	add	r6, sp, #224	; 0xe0
   85be4:	e7e7      	b.n	85bb6 <_svfprintf_r+0xbee>
   85be6:	980d      	ldr	r0, [sp, #52]	; 0x34
   85be8:	990c      	ldr	r1, [sp, #48]	; 0x30
   85bea:	aa2b      	add	r2, sp, #172	; 0xac
   85bec:	f004 f8bc 	bl	89d68 <__ssprint_r>
   85bf0:	2800      	cmp	r0, #0
   85bf2:	f47f ab01 	bne.w	851f8 <_svfprintf_r+0x230>
   85bf6:	f89d a08f 	ldrb.w	sl, [sp, #143]	; 0x8f
   85bfa:	f8dd c0b4 	ldr.w	ip, [sp, #180]	; 0xb4
   85bfe:	ae38      	add	r6, sp, #224	; 0xe0
   85c00:	f7ff bbda 	b.w	853b8 <_svfprintf_r+0x3f0>
   85c04:	1e6f      	subs	r7, r5, #1
   85c06:	2f00      	cmp	r7, #0
   85c08:	f77f af50 	ble.w	85aac <_svfprintf_r+0xae4>
   85c0c:	2f10      	cmp	r7, #16
   85c0e:	4dae      	ldr	r5, [pc, #696]	; (85ec8 <_svfprintf_r+0xf00>)
   85c10:	dd23      	ble.n	85c5a <_svfprintf_r+0xc92>
   85c12:	4643      	mov	r3, r8
   85c14:	f04f 0a10 	mov.w	sl, #16
   85c18:	f8dd 8034 	ldr.w	r8, [sp, #52]	; 0x34
   85c1c:	f8dd b030 	ldr.w	fp, [sp, #48]	; 0x30
   85c20:	e004      	b.n	85c2c <_svfprintf_r+0xc64>
   85c22:	3f10      	subs	r7, #16
   85c24:	2f10      	cmp	r7, #16
   85c26:	f106 0608 	add.w	r6, r6, #8
   85c2a:	dd15      	ble.n	85c58 <_svfprintf_r+0xc90>
   85c2c:	3401      	adds	r4, #1
   85c2e:	3310      	adds	r3, #16
   85c30:	2c07      	cmp	r4, #7
   85c32:	932d      	str	r3, [sp, #180]	; 0xb4
   85c34:	942c      	str	r4, [sp, #176]	; 0xb0
   85c36:	e886 0420 	stmia.w	r6, {r5, sl}
   85c3a:	ddf2      	ble.n	85c22 <_svfprintf_r+0xc5a>
   85c3c:	4640      	mov	r0, r8
   85c3e:	4659      	mov	r1, fp
   85c40:	aa2b      	add	r2, sp, #172	; 0xac
   85c42:	f004 f891 	bl	89d68 <__ssprint_r>
   85c46:	2800      	cmp	r0, #0
   85c48:	f47f aad6 	bne.w	851f8 <_svfprintf_r+0x230>
   85c4c:	3f10      	subs	r7, #16
   85c4e:	2f10      	cmp	r7, #16
   85c50:	9b2d      	ldr	r3, [sp, #180]	; 0xb4
   85c52:	9c2c      	ldr	r4, [sp, #176]	; 0xb0
   85c54:	ae38      	add	r6, sp, #224	; 0xe0
   85c56:	dce9      	bgt.n	85c2c <_svfprintf_r+0xc64>
   85c58:	4698      	mov	r8, r3
   85c5a:	3401      	adds	r4, #1
   85c5c:	44b8      	add	r8, r7
   85c5e:	2c07      	cmp	r4, #7
   85c60:	f8cd 80b4 	str.w	r8, [sp, #180]	; 0xb4
   85c64:	942c      	str	r4, [sp, #176]	; 0xb0
   85c66:	e886 00a0 	stmia.w	r6, {r5, r7}
   85c6a:	f77f af1e 	ble.w	85aaa <_svfprintf_r+0xae2>
   85c6e:	980d      	ldr	r0, [sp, #52]	; 0x34
   85c70:	990c      	ldr	r1, [sp, #48]	; 0x30
   85c72:	aa2b      	add	r2, sp, #172	; 0xac
   85c74:	f004 f878 	bl	89d68 <__ssprint_r>
   85c78:	2800      	cmp	r0, #0
   85c7a:	f47f aabd 	bne.w	851f8 <_svfprintf_r+0x230>
   85c7e:	f8dd 80b4 	ldr.w	r8, [sp, #180]	; 0xb4
   85c82:	9c2c      	ldr	r4, [sp, #176]	; 0xb0
   85c84:	ae38      	add	r6, sp, #224	; 0xe0
   85c86:	e711      	b.n	85aac <_svfprintf_r+0xae4>
   85c88:	4694      	mov	ip, r2
   85c8a:	3301      	adds	r3, #1
   85c8c:	44a4      	add	ip, r4
   85c8e:	2b07      	cmp	r3, #7
   85c90:	f8cd c0b4 	str.w	ip, [sp, #180]	; 0xb4
   85c94:	932c      	str	r3, [sp, #176]	; 0xb0
   85c96:	6035      	str	r5, [r6, #0]
   85c98:	6074      	str	r4, [r6, #4]
   85c9a:	f77f ac06 	ble.w	854aa <_svfprintf_r+0x4e2>
   85c9e:	e713      	b.n	85ac8 <_svfprintf_r+0xb00>
   85ca0:	f10d 0bdf 	add.w	fp, sp, #223	; 0xdf
   85ca4:	4620      	mov	r0, r4
   85ca6:	4629      	mov	r1, r5
   85ca8:	220a      	movs	r2, #10
   85caa:	2300      	movs	r3, #0
   85cac:	f004 faa6 	bl	8a1fc <__aeabi_uldivmod>
   85cb0:	3230      	adds	r2, #48	; 0x30
   85cb2:	f88b 2000 	strb.w	r2, [fp]
   85cb6:	4620      	mov	r0, r4
   85cb8:	4629      	mov	r1, r5
   85cba:	220a      	movs	r2, #10
   85cbc:	2300      	movs	r3, #0
   85cbe:	f004 fa9d 	bl	8a1fc <__aeabi_uldivmod>
   85cc2:	4604      	mov	r4, r0
   85cc4:	460d      	mov	r5, r1
   85cc6:	ea54 0c05 	orrs.w	ip, r4, r5
   85cca:	465f      	mov	r7, fp
   85ccc:	f10b 3bff 	add.w	fp, fp, #4294967295
   85cd0:	d1e8      	bne.n	85ca4 <_svfprintf_r+0xcdc>
   85cd2:	9d08      	ldr	r5, [sp, #32]
   85cd4:	1bec      	subs	r4, r5, r7
   85cd6:	f7ff bb05 	b.w	852e4 <_svfprintf_r+0x31c>
   85cda:	9d10      	ldr	r5, [sp, #64]	; 0x40
   85cdc:	2301      	movs	r3, #1
   85cde:	682c      	ldr	r4, [r5, #0]
   85ce0:	3504      	adds	r5, #4
   85ce2:	9510      	str	r5, [sp, #64]	; 0x40
   85ce4:	2500      	movs	r5, #0
   85ce6:	f7ff bad9 	b.w	8529c <_svfprintf_r+0x2d4>
   85cea:	9d10      	ldr	r5, [sp, #64]	; 0x40
   85cec:	682c      	ldr	r4, [r5, #0]
   85cee:	3504      	adds	r5, #4
   85cf0:	9510      	str	r5, [sp, #64]	; 0x40
   85cf2:	2500      	movs	r5, #0
   85cf4:	f7ff bad2 	b.w	8529c <_svfprintf_r+0x2d4>
   85cf8:	9d10      	ldr	r5, [sp, #64]	; 0x40
   85cfa:	682c      	ldr	r4, [r5, #0]
   85cfc:	3504      	adds	r5, #4
   85cfe:	9510      	str	r5, [sp, #64]	; 0x40
   85d00:	17e5      	asrs	r5, r4, #31
   85d02:	4622      	mov	r2, r4
   85d04:	462b      	mov	r3, r5
   85d06:	2a00      	cmp	r2, #0
   85d08:	f173 0c00 	sbcs.w	ip, r3, #0
   85d0c:	f6bf ac6c 	bge.w	855e8 <_svfprintf_r+0x620>
   85d10:	f04f 0a2d 	mov.w	sl, #45	; 0x2d
   85d14:	4264      	negs	r4, r4
   85d16:	eb65 0545 	sbc.w	r5, r5, r5, lsl #1
   85d1a:	f88d a08f 	strb.w	sl, [sp, #143]	; 0x8f
   85d1e:	2301      	movs	r3, #1
   85d20:	f7ff bac0 	b.w	852a4 <_svfprintf_r+0x2dc>
   85d24:	980d      	ldr	r0, [sp, #52]	; 0x34
   85d26:	990c      	ldr	r1, [sp, #48]	; 0x30
   85d28:	aa2b      	add	r2, sp, #172	; 0xac
   85d2a:	f004 f81d 	bl	89d68 <__ssprint_r>
   85d2e:	2800      	cmp	r0, #0
   85d30:	f47f aa62 	bne.w	851f8 <_svfprintf_r+0x230>
   85d34:	f8dd c0b4 	ldr.w	ip, [sp, #180]	; 0xb4
   85d38:	ae38      	add	r6, sp, #224	; 0xe0
   85d3a:	9d14      	ldr	r5, [sp, #80]	; 0x50
   85d3c:	9c25      	ldr	r4, [sp, #148]	; 0x94
   85d3e:	442f      	add	r7, r5
   85d40:	9d11      	ldr	r5, [sp, #68]	; 0x44
   85d42:	42ac      	cmp	r4, r5
   85d44:	db42      	blt.n	85dcc <_svfprintf_r+0xe04>
   85d46:	9d09      	ldr	r5, [sp, #36]	; 0x24
   85d48:	07e9      	lsls	r1, r5, #31
   85d4a:	d43f      	bmi.n	85dcc <_svfprintf_r+0xe04>
   85d4c:	9811      	ldr	r0, [sp, #68]	; 0x44
   85d4e:	ebc7 050a 	rsb	r5, r7, sl
   85d52:	1b04      	subs	r4, r0, r4
   85d54:	42ac      	cmp	r4, r5
   85d56:	bfb8      	it	lt
   85d58:	4625      	movlt	r5, r4
   85d5a:	2d00      	cmp	r5, #0
   85d5c:	dd0b      	ble.n	85d76 <_svfprintf_r+0xdae>
   85d5e:	9b2c      	ldr	r3, [sp, #176]	; 0xb0
   85d60:	44ac      	add	ip, r5
   85d62:	3301      	adds	r3, #1
   85d64:	2b07      	cmp	r3, #7
   85d66:	f8cd c0b4 	str.w	ip, [sp, #180]	; 0xb4
   85d6a:	6037      	str	r7, [r6, #0]
   85d6c:	6075      	str	r5, [r6, #4]
   85d6e:	932c      	str	r3, [sp, #176]	; 0xb0
   85d70:	f300 824c 	bgt.w	8620c <_svfprintf_r+0x1244>
   85d74:	3608      	adds	r6, #8
   85d76:	ea25 75e5 	bic.w	r5, r5, r5, asr #31
   85d7a:	1b64      	subs	r4, r4, r5
   85d7c:	2c00      	cmp	r4, #0
   85d7e:	f77f ab95 	ble.w	854ac <_svfprintf_r+0x4e4>
   85d82:	2c10      	cmp	r4, #16
   85d84:	9b2c      	ldr	r3, [sp, #176]	; 0xb0
   85d86:	4d50      	ldr	r5, [pc, #320]	; (85ec8 <_svfprintf_r+0xf00>)
   85d88:	f77f af7f 	ble.w	85c8a <_svfprintf_r+0xcc2>
   85d8c:	2710      	movs	r7, #16
   85d8e:	4662      	mov	r2, ip
   85d90:	f8dd 8034 	ldr.w	r8, [sp, #52]	; 0x34
   85d94:	f8dd a030 	ldr.w	sl, [sp, #48]	; 0x30
   85d98:	e004      	b.n	85da4 <_svfprintf_r+0xddc>
   85d9a:	3608      	adds	r6, #8
   85d9c:	3c10      	subs	r4, #16
   85d9e:	2c10      	cmp	r4, #16
   85da0:	f77f af72 	ble.w	85c88 <_svfprintf_r+0xcc0>
   85da4:	3301      	adds	r3, #1
   85da6:	3210      	adds	r2, #16
   85da8:	2b07      	cmp	r3, #7
   85daa:	922d      	str	r2, [sp, #180]	; 0xb4
   85dac:	932c      	str	r3, [sp, #176]	; 0xb0
   85dae:	e886 00a0 	stmia.w	r6, {r5, r7}
   85db2:	ddf2      	ble.n	85d9a <_svfprintf_r+0xdd2>
   85db4:	4640      	mov	r0, r8
   85db6:	4651      	mov	r1, sl
   85db8:	aa2b      	add	r2, sp, #172	; 0xac
   85dba:	f003 ffd5 	bl	89d68 <__ssprint_r>
   85dbe:	2800      	cmp	r0, #0
   85dc0:	f47f aa1a 	bne.w	851f8 <_svfprintf_r+0x230>
   85dc4:	9a2d      	ldr	r2, [sp, #180]	; 0xb4
   85dc6:	9b2c      	ldr	r3, [sp, #176]	; 0xb0
   85dc8:	ae38      	add	r6, sp, #224	; 0xe0
   85dca:	e7e7      	b.n	85d9c <_svfprintf_r+0xdd4>
   85dcc:	9d18      	ldr	r5, [sp, #96]	; 0x60
   85dce:	9b2c      	ldr	r3, [sp, #176]	; 0xb0
   85dd0:	44ac      	add	ip, r5
   85dd2:	9d15      	ldr	r5, [sp, #84]	; 0x54
   85dd4:	3301      	adds	r3, #1
   85dd6:	6035      	str	r5, [r6, #0]
   85dd8:	9d18      	ldr	r5, [sp, #96]	; 0x60
   85dda:	2b07      	cmp	r3, #7
   85ddc:	f8cd c0b4 	str.w	ip, [sp, #180]	; 0xb4
   85de0:	6075      	str	r5, [r6, #4]
   85de2:	932c      	str	r3, [sp, #176]	; 0xb0
   85de4:	f300 81f4 	bgt.w	861d0 <_svfprintf_r+0x1208>
   85de8:	3608      	adds	r6, #8
   85dea:	e7af      	b.n	85d4c <_svfprintf_r+0xd84>
   85dec:	9d09      	ldr	r5, [sp, #36]	; 0x24
   85dee:	07ea      	lsls	r2, r5, #31
   85df0:	f53f ae2a 	bmi.w	85a48 <_svfprintf_r+0xa80>
   85df4:	3401      	adds	r4, #1
   85df6:	f10c 0801 	add.w	r8, ip, #1
   85dfa:	2301      	movs	r3, #1
   85dfc:	2c07      	cmp	r4, #7
   85dfe:	f8cd 80b4 	str.w	r8, [sp, #180]	; 0xb4
   85e02:	942c      	str	r4, [sp, #176]	; 0xb0
   85e04:	6037      	str	r7, [r6, #0]
   85e06:	6073      	str	r3, [r6, #4]
   85e08:	f77f ae4f 	ble.w	85aaa <_svfprintf_r+0xae2>
   85e0c:	e72f      	b.n	85c6e <_svfprintf_r+0xca6>
   85e0e:	980d      	ldr	r0, [sp, #52]	; 0x34
   85e10:	990c      	ldr	r1, [sp, #48]	; 0x30
   85e12:	aa2b      	add	r2, sp, #172	; 0xac
   85e14:	f003 ffa8 	bl	89d68 <__ssprint_r>
   85e18:	2800      	cmp	r0, #0
   85e1a:	f47f a9ed 	bne.w	851f8 <_svfprintf_r+0x230>
   85e1e:	9b2d      	ldr	r3, [sp, #180]	; 0xb4
   85e20:	9c2c      	ldr	r4, [sp, #176]	; 0xb0
   85e22:	ae38      	add	r6, sp, #224	; 0xe0
   85e24:	e61c      	b.n	85a60 <_svfprintf_r+0xa98>
   85e26:	980d      	ldr	r0, [sp, #52]	; 0x34
   85e28:	990c      	ldr	r1, [sp, #48]	; 0x30
   85e2a:	aa2b      	add	r2, sp, #172	; 0xac
   85e2c:	f003 ff9c 	bl	89d68 <__ssprint_r>
   85e30:	2800      	cmp	r0, #0
   85e32:	f47f a9e1 	bne.w	851f8 <_svfprintf_r+0x230>
   85e36:	f8dd 80b4 	ldr.w	r8, [sp, #180]	; 0xb4
   85e3a:	9c2c      	ldr	r4, [sp, #176]	; 0xb0
   85e3c:	ae38      	add	r6, sp, #224	; 0xe0
   85e3e:	e61e      	b.n	85a7e <_svfprintf_r+0xab6>
   85e40:	980d      	ldr	r0, [sp, #52]	; 0x34
   85e42:	990c      	ldr	r1, [sp, #48]	; 0x30
   85e44:	aa2b      	add	r2, sp, #172	; 0xac
   85e46:	f003 ff8f 	bl	89d68 <__ssprint_r>
   85e4a:	2800      	cmp	r0, #0
   85e4c:	f47f a9d4 	bne.w	851f8 <_svfprintf_r+0x230>
   85e50:	f8dd c0b4 	ldr.w	ip, [sp, #180]	; 0xb4
   85e54:	ae38      	add	r6, sp, #224	; 0xe0
   85e56:	f7ff bad7 	b.w	85408 <_svfprintf_r+0x440>
   85e5a:	f7fd fe8d 	bl	83b78 <__fpclassifyd>
   85e5e:	2800      	cmp	r0, #0
   85e60:	f040 80bb 	bne.w	85fda <_svfprintf_r+0x1012>
   85e64:	9c09      	ldr	r4, [sp, #36]	; 0x24
   85e66:	4f19      	ldr	r7, [pc, #100]	; (85ecc <_svfprintf_r+0xf04>)
   85e68:	4b19      	ldr	r3, [pc, #100]	; (85ed0 <_svfprintf_r+0xf08>)
   85e6a:	f04f 0c03 	mov.w	ip, #3
   85e6e:	f024 0480 	bic.w	r4, r4, #128	; 0x80
   85e72:	9409      	str	r4, [sp, #36]	; 0x24
   85e74:	900a      	str	r0, [sp, #40]	; 0x28
   85e76:	f8cd c02c 	str.w	ip, [sp, #44]	; 0x2c
   85e7a:	9014      	str	r0, [sp, #80]	; 0x50
   85e7c:	f1b8 0f47 	cmp.w	r8, #71	; 0x47
   85e80:	bfd8      	it	le
   85e82:	461f      	movle	r7, r3
   85e84:	4664      	mov	r4, ip
   85e86:	f89d a08f 	ldrb.w	sl, [sp, #143]	; 0x8f
   85e8a:	f7ff ba34 	b.w	852f6 <_svfprintf_r+0x32e>
   85e8e:	9c09      	ldr	r4, [sp, #36]	; 0x24
   85e90:	0664      	lsls	r4, r4, #25
   85e92:	f140 8150 	bpl.w	86136 <_svfprintf_r+0x116e>
   85e96:	f8dd c040 	ldr.w	ip, [sp, #64]	; 0x40
   85e9a:	2500      	movs	r5, #0
   85e9c:	f8bc 4000 	ldrh.w	r4, [ip]
   85ea0:	f10c 0c04 	add.w	ip, ip, #4
   85ea4:	f8cd c040 	str.w	ip, [sp, #64]	; 0x40
   85ea8:	f7ff b9e4 	b.w	85274 <_svfprintf_r+0x2ac>
   85eac:	f8dd c024 	ldr.w	ip, [sp, #36]	; 0x24
   85eb0:	f01c 0f10 	tst.w	ip, #16
   85eb4:	f000 8146 	beq.w	86144 <_svfprintf_r+0x117c>
   85eb8:	9c10      	ldr	r4, [sp, #64]	; 0x40
   85eba:	9d0e      	ldr	r5, [sp, #56]	; 0x38
   85ebc:	6823      	ldr	r3, [r4, #0]
   85ebe:	3404      	adds	r4, #4
   85ec0:	9410      	str	r4, [sp, #64]	; 0x40
   85ec2:	601d      	str	r5, [r3, #0]
   85ec4:	f7ff b8a6 	b.w	85014 <_svfprintf_r+0x4c>
   85ec8:	0008aa80 	.word	0x0008aa80
   85ecc:	0008aa9c 	.word	0x0008aa9c
   85ed0:	0008aa98 	.word	0x0008aa98
   85ed4:	462c      	mov	r4, r5
   85ed6:	463d      	mov	r5, r7
   85ed8:	9f0a      	ldr	r7, [sp, #40]	; 0x28
   85eda:	4694      	mov	ip, r2
   85edc:	3301      	adds	r3, #1
   85ede:	44a4      	add	ip, r4
   85ee0:	2b07      	cmp	r3, #7
   85ee2:	f8cd c0b4 	str.w	ip, [sp, #180]	; 0xb4
   85ee6:	932c      	str	r3, [sp, #176]	; 0xb0
   85ee8:	6035      	str	r5, [r6, #0]
   85eea:	6074      	str	r4, [r6, #4]
   85eec:	f73f af1a 	bgt.w	85d24 <_svfprintf_r+0xd5c>
   85ef0:	3608      	adds	r6, #8
   85ef2:	e722      	b.n	85d3a <_svfprintf_r+0xd72>
   85ef4:	980d      	ldr	r0, [sp, #52]	; 0x34
   85ef6:	990c      	ldr	r1, [sp, #48]	; 0x30
   85ef8:	aa2b      	add	r2, sp, #172	; 0xac
   85efa:	f003 ff35 	bl	89d68 <__ssprint_r>
   85efe:	2800      	cmp	r0, #0
   85f00:	f47f a97a 	bne.w	851f8 <_svfprintf_r+0x230>
   85f04:	f8dd c0b4 	ldr.w	ip, [sp, #180]	; 0xb4
   85f08:	ae38      	add	r6, sp, #224	; 0xe0
   85f0a:	e507      	b.n	8591c <_svfprintf_r+0x954>
   85f0c:	9a2c      	ldr	r2, [sp, #176]	; 0xb0
   85f0e:	49b7      	ldr	r1, [pc, #732]	; (861ec <_svfprintf_r+0x1224>)
   85f10:	3201      	adds	r2, #1
   85f12:	f10c 0c01 	add.w	ip, ip, #1
   85f16:	2001      	movs	r0, #1
   85f18:	2a07      	cmp	r2, #7
   85f1a:	f8cd c0b4 	str.w	ip, [sp, #180]	; 0xb4
   85f1e:	922c      	str	r2, [sp, #176]	; 0xb0
   85f20:	6031      	str	r1, [r6, #0]
   85f22:	6070      	str	r0, [r6, #4]
   85f24:	f300 80f7 	bgt.w	86116 <_svfprintf_r+0x114e>
   85f28:	3608      	adds	r6, #8
   85f2a:	461c      	mov	r4, r3
   85f2c:	b92c      	cbnz	r4, 85f3a <_svfprintf_r+0xf72>
   85f2e:	9d11      	ldr	r5, [sp, #68]	; 0x44
   85f30:	b91d      	cbnz	r5, 85f3a <_svfprintf_r+0xf72>
   85f32:	9d09      	ldr	r5, [sp, #36]	; 0x24
   85f34:	07e8      	lsls	r0, r5, #31
   85f36:	f57f aab9 	bpl.w	854ac <_svfprintf_r+0x4e4>
   85f3a:	9b2c      	ldr	r3, [sp, #176]	; 0xb0
   85f3c:	9d15      	ldr	r5, [sp, #84]	; 0x54
   85f3e:	9918      	ldr	r1, [sp, #96]	; 0x60
   85f40:	3301      	adds	r3, #1
   85f42:	6035      	str	r5, [r6, #0]
   85f44:	9d18      	ldr	r5, [sp, #96]	; 0x60
   85f46:	4461      	add	r1, ip
   85f48:	2b07      	cmp	r3, #7
   85f4a:	912d      	str	r1, [sp, #180]	; 0xb4
   85f4c:	6075      	str	r5, [r6, #4]
   85f4e:	932c      	str	r3, [sp, #176]	; 0xb0
   85f50:	f300 81de 	bgt.w	86310 <_svfprintf_r+0x1348>
   85f54:	f106 0208 	add.w	r2, r6, #8
   85f58:	4264      	negs	r4, r4
   85f5a:	2c00      	cmp	r4, #0
   85f5c:	f340 810b 	ble.w	86176 <_svfprintf_r+0x11ae>
   85f60:	2c10      	cmp	r4, #16
   85f62:	4da3      	ldr	r5, [pc, #652]	; (861f0 <_svfprintf_r+0x1228>)
   85f64:	f340 8148 	ble.w	861f8 <_svfprintf_r+0x1230>
   85f68:	46a3      	mov	fp, r4
   85f6a:	2610      	movs	r6, #16
   85f6c:	460c      	mov	r4, r1
   85f6e:	f8dd 8034 	ldr.w	r8, [sp, #52]	; 0x34
   85f72:	f8dd a030 	ldr.w	sl, [sp, #48]	; 0x30
   85f76:	e006      	b.n	85f86 <_svfprintf_r+0xfbe>
   85f78:	3208      	adds	r2, #8
   85f7a:	f1ab 0b10 	sub.w	fp, fp, #16
   85f7e:	f1bb 0f10 	cmp.w	fp, #16
   85f82:	f340 8137 	ble.w	861f4 <_svfprintf_r+0x122c>
   85f86:	3301      	adds	r3, #1
   85f88:	3410      	adds	r4, #16
   85f8a:	2b07      	cmp	r3, #7
   85f8c:	942d      	str	r4, [sp, #180]	; 0xb4
   85f8e:	932c      	str	r3, [sp, #176]	; 0xb0
   85f90:	e882 0060 	stmia.w	r2, {r5, r6}
   85f94:	ddf0      	ble.n	85f78 <_svfprintf_r+0xfb0>
   85f96:	4640      	mov	r0, r8
   85f98:	4651      	mov	r1, sl
   85f9a:	aa2b      	add	r2, sp, #172	; 0xac
   85f9c:	f003 fee4 	bl	89d68 <__ssprint_r>
   85fa0:	2800      	cmp	r0, #0
   85fa2:	f47f a929 	bne.w	851f8 <_svfprintf_r+0x230>
   85fa6:	9c2d      	ldr	r4, [sp, #180]	; 0xb4
   85fa8:	9b2c      	ldr	r3, [sp, #176]	; 0xb0
   85faa:	aa38      	add	r2, sp, #224	; 0xe0
   85fac:	e7e5      	b.n	85f7a <_svfprintf_r+0xfb2>
   85fae:	9c09      	ldr	r4, [sp, #36]	; 0x24
   85fb0:	f109 0901 	add.w	r9, r9, #1
   85fb4:	f044 0420 	orr.w	r4, r4, #32
   85fb8:	9409      	str	r4, [sp, #36]	; 0x24
   85fba:	f893 8001 	ldrb.w	r8, [r3, #1]
   85fbe:	f7ff b85f 	b.w	85080 <_svfprintf_r+0xb8>
   85fc2:	980d      	ldr	r0, [sp, #52]	; 0x34
   85fc4:	990c      	ldr	r1, [sp, #48]	; 0x30
   85fc6:	aa2b      	add	r2, sp, #172	; 0xac
   85fc8:	f003 fece 	bl	89d68 <__ssprint_r>
   85fcc:	2800      	cmp	r0, #0
   85fce:	f47f a913 	bne.w	851f8 <_svfprintf_r+0x230>
   85fd2:	f8dd c0b4 	ldr.w	ip, [sp, #180]	; 0xb4
   85fd6:	ae38      	add	r6, sp, #224	; 0xe0
   85fd8:	e4b6      	b.n	85948 <_svfprintf_r+0x980>
   85fda:	9d0a      	ldr	r5, [sp, #40]	; 0x28
   85fdc:	f028 0a20 	bic.w	sl, r8, #32
   85fe0:	3501      	adds	r5, #1
   85fe2:	f000 80a5 	beq.w	86130 <_svfprintf_r+0x1168>
   85fe6:	f1ba 0f47 	cmp.w	sl, #71	; 0x47
   85fea:	d104      	bne.n	85ff6 <_svfprintf_r+0x102e>
   85fec:	9d0a      	ldr	r5, [sp, #40]	; 0x28
   85fee:	2d00      	cmp	r5, #0
   85ff0:	bf08      	it	eq
   85ff2:	2501      	moveq	r5, #1
   85ff4:	950a      	str	r5, [sp, #40]	; 0x28
   85ff6:	f8dd c024 	ldr.w	ip, [sp, #36]	; 0x24
   85ffa:	e9dd 2316 	ldrd	r2, r3, [sp, #88]	; 0x58
   85ffe:	f44c 7c80 	orr.w	ip, ip, #256	; 0x100
   86002:	2b00      	cmp	r3, #0
   86004:	f8cd c048 	str.w	ip, [sp, #72]	; 0x48
   86008:	f2c0 819c 	blt.w	86344 <_svfprintf_r+0x137c>
   8600c:	e9dd 4516 	ldrd	r4, r5, [sp, #88]	; 0x58
   86010:	e9cd 4520 	strd	r4, r5, [sp, #128]	; 0x80
   86014:	f04f 0b00 	mov.w	fp, #0
   86018:	f1b8 0f66 	cmp.w	r8, #102	; 0x66
   8601c:	f000 819b 	beq.w	86356 <_svfprintf_r+0x138e>
   86020:	f1b8 0f46 	cmp.w	r8, #70	; 0x46
   86024:	f000 81a9 	beq.w	8637a <_svfprintf_r+0x13b2>
   86028:	f1ba 0f45 	cmp.w	sl, #69	; 0x45
   8602c:	bf0a      	itet	eq
   8602e:	9c0a      	ldreq	r4, [sp, #40]	; 0x28
   86030:	9d0a      	ldrne	r5, [sp, #40]	; 0x28
   86032:	1c65      	addeq	r5, r4, #1
   86034:	2002      	movs	r0, #2
   86036:	a925      	add	r1, sp, #148	; 0x94
   86038:	aa26      	add	r2, sp, #152	; 0x98
   8603a:	ab29      	add	r3, sp, #164	; 0xa4
   8603c:	e88d 0021 	stmia.w	sp, {r0, r5}
   86040:	9203      	str	r2, [sp, #12]
   86042:	9304      	str	r3, [sp, #16]
   86044:	9102      	str	r1, [sp, #8]
   86046:	980d      	ldr	r0, [sp, #52]	; 0x34
   86048:	e9dd 2320 	ldrd	r2, r3, [sp, #128]	; 0x80
   8604c:	f001 f9dc 	bl	87408 <_dtoa_r>
   86050:	f1b8 0f67 	cmp.w	r8, #103	; 0x67
   86054:	4607      	mov	r7, r0
   86056:	d002      	beq.n	8605e <_svfprintf_r+0x1096>
   86058:	f1b8 0f47 	cmp.w	r8, #71	; 0x47
   8605c:	d105      	bne.n	8606a <_svfprintf_r+0x10a2>
   8605e:	f8dd c024 	ldr.w	ip, [sp, #36]	; 0x24
   86062:	f01c 0f01 	tst.w	ip, #1
   86066:	f000 819c 	beq.w	863a2 <_svfprintf_r+0x13da>
   8606a:	f1ba 0f46 	cmp.w	sl, #70	; 0x46
   8606e:	eb07 0405 	add.w	r4, r7, r5
   86072:	f000 811c 	beq.w	862ae <_svfprintf_r+0x12e6>
   86076:	e9dd 0120 	ldrd	r0, r1, [sp, #128]	; 0x80
   8607a:	2200      	movs	r2, #0
   8607c:	2300      	movs	r3, #0
   8607e:	f7fe fa51 	bl	84524 <__aeabi_dcmpeq>
   86082:	2800      	cmp	r0, #0
   86084:	f040 8105 	bne.w	86292 <_svfprintf_r+0x12ca>
   86088:	9b29      	ldr	r3, [sp, #164]	; 0xa4
   8608a:	429c      	cmp	r4, r3
   8608c:	d906      	bls.n	8609c <_svfprintf_r+0x10d4>
   8608e:	2130      	movs	r1, #48	; 0x30
   86090:	1c5a      	adds	r2, r3, #1
   86092:	9229      	str	r2, [sp, #164]	; 0xa4
   86094:	7019      	strb	r1, [r3, #0]
   86096:	9b29      	ldr	r3, [sp, #164]	; 0xa4
   86098:	429c      	cmp	r4, r3
   8609a:	d8f9      	bhi.n	86090 <_svfprintf_r+0x10c8>
   8609c:	1bdb      	subs	r3, r3, r7
   8609e:	f1ba 0f47 	cmp.w	sl, #71	; 0x47
   860a2:	9311      	str	r3, [sp, #68]	; 0x44
   860a4:	f000 80ed 	beq.w	86282 <_svfprintf_r+0x12ba>
   860a8:	f1b8 0f65 	cmp.w	r8, #101	; 0x65
   860ac:	f340 81f2 	ble.w	86494 <_svfprintf_r+0x14cc>
   860b0:	f1b8 0f66 	cmp.w	r8, #102	; 0x66
   860b4:	f000 8168 	beq.w	86388 <_svfprintf_r+0x13c0>
   860b8:	9c25      	ldr	r4, [sp, #148]	; 0x94
   860ba:	9414      	str	r4, [sp, #80]	; 0x50
   860bc:	9c11      	ldr	r4, [sp, #68]	; 0x44
   860be:	9d14      	ldr	r5, [sp, #80]	; 0x50
   860c0:	42ac      	cmp	r4, r5
   860c2:	f300 8132 	bgt.w	8632a <_svfprintf_r+0x1362>
   860c6:	f8dd c024 	ldr.w	ip, [sp, #36]	; 0x24
   860ca:	f01c 0f01 	tst.w	ip, #1
   860ce:	f040 81ad 	bne.w	8642c <_svfprintf_r+0x1464>
   860d2:	ea25 73e5 	bic.w	r3, r5, r5, asr #31
   860d6:	462c      	mov	r4, r5
   860d8:	f04f 0867 	mov.w	r8, #103	; 0x67
   860dc:	f1bb 0f00 	cmp.w	fp, #0
   860e0:	f040 80b2 	bne.w	86248 <_svfprintf_r+0x1280>
   860e4:	9d12      	ldr	r5, [sp, #72]	; 0x48
   860e6:	930b      	str	r3, [sp, #44]	; 0x2c
   860e8:	9509      	str	r5, [sp, #36]	; 0x24
   860ea:	f8cd b028 	str.w	fp, [sp, #40]	; 0x28
   860ee:	f89d a08f 	ldrb.w	sl, [sp, #143]	; 0x8f
   860f2:	f7ff b900 	b.w	852f6 <_svfprintf_r+0x32e>
   860f6:	980d      	ldr	r0, [sp, #52]	; 0x34
   860f8:	2140      	movs	r1, #64	; 0x40
   860fa:	f002 fda7 	bl	88c4c <_malloc_r>
   860fe:	6020      	str	r0, [r4, #0]
   86100:	6120      	str	r0, [r4, #16]
   86102:	2800      	cmp	r0, #0
   86104:	f000 81bf 	beq.w	86486 <_svfprintf_r+0x14be>
   86108:	f8dd c030 	ldr.w	ip, [sp, #48]	; 0x30
   8610c:	2340      	movs	r3, #64	; 0x40
   8610e:	f8cc 3014 	str.w	r3, [ip, #20]
   86112:	f7fe bf6f 	b.w	84ff4 <_svfprintf_r+0x2c>
   86116:	980d      	ldr	r0, [sp, #52]	; 0x34
   86118:	990c      	ldr	r1, [sp, #48]	; 0x30
   8611a:	aa2b      	add	r2, sp, #172	; 0xac
   8611c:	f003 fe24 	bl	89d68 <__ssprint_r>
   86120:	2800      	cmp	r0, #0
   86122:	f47f a869 	bne.w	851f8 <_svfprintf_r+0x230>
   86126:	9c25      	ldr	r4, [sp, #148]	; 0x94
   86128:	f8dd c0b4 	ldr.w	ip, [sp, #180]	; 0xb4
   8612c:	ae38      	add	r6, sp, #224	; 0xe0
   8612e:	e6fd      	b.n	85f2c <_svfprintf_r+0xf64>
   86130:	2406      	movs	r4, #6
   86132:	940a      	str	r4, [sp, #40]	; 0x28
   86134:	e75f      	b.n	85ff6 <_svfprintf_r+0x102e>
   86136:	9d10      	ldr	r5, [sp, #64]	; 0x40
   86138:	682c      	ldr	r4, [r5, #0]
   8613a:	3504      	adds	r5, #4
   8613c:	9510      	str	r5, [sp, #64]	; 0x40
   8613e:	2500      	movs	r5, #0
   86140:	f7ff b898 	b.w	85274 <_svfprintf_r+0x2ac>
   86144:	f8dd c024 	ldr.w	ip, [sp, #36]	; 0x24
   86148:	f01c 0f40 	tst.w	ip, #64	; 0x40
   8614c:	f000 8087 	beq.w	8625e <_svfprintf_r+0x1296>
   86150:	9c10      	ldr	r4, [sp, #64]	; 0x40
   86152:	9d0e      	ldr	r5, [sp, #56]	; 0x38
   86154:	6823      	ldr	r3, [r4, #0]
   86156:	3404      	adds	r4, #4
   86158:	9410      	str	r4, [sp, #64]	; 0x40
   8615a:	801d      	strh	r5, [r3, #0]
   8615c:	f7fe bf5a 	b.w	85014 <_svfprintf_r+0x4c>
   86160:	980d      	ldr	r0, [sp, #52]	; 0x34
   86162:	990c      	ldr	r1, [sp, #48]	; 0x30
   86164:	aa2b      	add	r2, sp, #172	; 0xac
   86166:	f003 fdff 	bl	89d68 <__ssprint_r>
   8616a:	2800      	cmp	r0, #0
   8616c:	f47f a844 	bne.w	851f8 <_svfprintf_r+0x230>
   86170:	992d      	ldr	r1, [sp, #180]	; 0xb4
   86172:	9b2c      	ldr	r3, [sp, #176]	; 0xb0
   86174:	aa38      	add	r2, sp, #224	; 0xe0
   86176:	f8dd c044 	ldr.w	ip, [sp, #68]	; 0x44
   8617a:	3301      	adds	r3, #1
   8617c:	9c11      	ldr	r4, [sp, #68]	; 0x44
   8617e:	448c      	add	ip, r1
   86180:	2b07      	cmp	r3, #7
   86182:	f8cd c0b4 	str.w	ip, [sp, #180]	; 0xb4
   86186:	932c      	str	r3, [sp, #176]	; 0xb0
   86188:	6017      	str	r7, [r2, #0]
   8618a:	6054      	str	r4, [r2, #4]
   8618c:	f73f ac9c 	bgt.w	85ac8 <_svfprintf_r+0xb00>
   86190:	f102 0608 	add.w	r6, r2, #8
   86194:	f7ff b98a 	b.w	854ac <_svfprintf_r+0x4e4>
   86198:	f8cd a028 	str.w	sl, [sp, #40]	; 0x28
   8619c:	f7fe feb2 	bl	84f04 <strlen>
   861a0:	9510      	str	r5, [sp, #64]	; 0x40
   861a2:	9d0a      	ldr	r5, [sp, #40]	; 0x28
   861a4:	ea20 7ce0 	bic.w	ip, r0, r0, asr #31
   861a8:	4604      	mov	r4, r0
   861aa:	f8cd c02c 	str.w	ip, [sp, #44]	; 0x2c
   861ae:	9514      	str	r5, [sp, #80]	; 0x50
   861b0:	f89d a08f 	ldrb.w	sl, [sp, #143]	; 0x8f
   861b4:	f7ff b89f 	b.w	852f6 <_svfprintf_r+0x32e>
   861b8:	980d      	ldr	r0, [sp, #52]	; 0x34
   861ba:	990c      	ldr	r1, [sp, #48]	; 0x30
   861bc:	aa2b      	add	r2, sp, #172	; 0xac
   861be:	f003 fdd3 	bl	89d68 <__ssprint_r>
   861c2:	2800      	cmp	r0, #0
   861c4:	f47f a818 	bne.w	851f8 <_svfprintf_r+0x230>
   861c8:	f8dd c0b4 	ldr.w	ip, [sp, #180]	; 0xb4
   861cc:	ae38      	add	r6, sp, #224	; 0xe0
   861ce:	e4d6      	b.n	85b7e <_svfprintf_r+0xbb6>
   861d0:	980d      	ldr	r0, [sp, #52]	; 0x34
   861d2:	990c      	ldr	r1, [sp, #48]	; 0x30
   861d4:	aa2b      	add	r2, sp, #172	; 0xac
   861d6:	f003 fdc7 	bl	89d68 <__ssprint_r>
   861da:	2800      	cmp	r0, #0
   861dc:	f47f a80c 	bne.w	851f8 <_svfprintf_r+0x230>
   861e0:	9c25      	ldr	r4, [sp, #148]	; 0x94
   861e2:	f8dd c0b4 	ldr.w	ip, [sp, #180]	; 0xb4
   861e6:	ae38      	add	r6, sp, #224	; 0xe0
   861e8:	e5b0      	b.n	85d4c <_svfprintf_r+0xd84>
   861ea:	bf00      	nop
   861ec:	0008aad0 	.word	0x0008aad0
   861f0:	0008aa80 	.word	0x0008aa80
   861f4:	4621      	mov	r1, r4
   861f6:	465c      	mov	r4, fp
   861f8:	3301      	adds	r3, #1
   861fa:	4421      	add	r1, r4
   861fc:	2b07      	cmp	r3, #7
   861fe:	912d      	str	r1, [sp, #180]	; 0xb4
   86200:	932c      	str	r3, [sp, #176]	; 0xb0
   86202:	6015      	str	r5, [r2, #0]
   86204:	6054      	str	r4, [r2, #4]
   86206:	dcab      	bgt.n	86160 <_svfprintf_r+0x1198>
   86208:	3208      	adds	r2, #8
   8620a:	e7b4      	b.n	86176 <_svfprintf_r+0x11ae>
   8620c:	980d      	ldr	r0, [sp, #52]	; 0x34
   8620e:	990c      	ldr	r1, [sp, #48]	; 0x30
   86210:	aa2b      	add	r2, sp, #172	; 0xac
   86212:	f003 fda9 	bl	89d68 <__ssprint_r>
   86216:	2800      	cmp	r0, #0
   86218:	f47e afee 	bne.w	851f8 <_svfprintf_r+0x230>
   8621c:	9c25      	ldr	r4, [sp, #148]	; 0x94
   8621e:	9911      	ldr	r1, [sp, #68]	; 0x44
   86220:	f8dd c0b4 	ldr.w	ip, [sp, #180]	; 0xb4
   86224:	1b0c      	subs	r4, r1, r4
   86226:	ae38      	add	r6, sp, #224	; 0xe0
   86228:	e5a5      	b.n	85d76 <_svfprintf_r+0xdae>
   8622a:	9c0a      	ldr	r4, [sp, #40]	; 0x28
   8622c:	46ba      	mov	sl, r7
   8622e:	2c06      	cmp	r4, #6
   86230:	bf28      	it	cs
   86232:	2406      	movcs	r4, #6
   86234:	ea24 7ce4 	bic.w	ip, r4, r4, asr #31
   86238:	970a      	str	r7, [sp, #40]	; 0x28
   8623a:	9714      	str	r7, [sp, #80]	; 0x50
   8623c:	9510      	str	r5, [sp, #64]	; 0x40
   8623e:	f8cd c02c 	str.w	ip, [sp, #44]	; 0x2c
   86242:	4f97      	ldr	r7, [pc, #604]	; (864a0 <_svfprintf_r+0x14d8>)
   86244:	f7ff b857 	b.w	852f6 <_svfprintf_r+0x32e>
   86248:	9d12      	ldr	r5, [sp, #72]	; 0x48
   8624a:	f04f 0a2d 	mov.w	sl, #45	; 0x2d
   8624e:	9509      	str	r5, [sp, #36]	; 0x24
   86250:	2500      	movs	r5, #0
   86252:	930b      	str	r3, [sp, #44]	; 0x2c
   86254:	f88d a08f 	strb.w	sl, [sp, #143]	; 0x8f
   86258:	950a      	str	r5, [sp, #40]	; 0x28
   8625a:	f7ff b84f 	b.w	852fc <_svfprintf_r+0x334>
   8625e:	f8dd c040 	ldr.w	ip, [sp, #64]	; 0x40
   86262:	9c0e      	ldr	r4, [sp, #56]	; 0x38
   86264:	f8dc 3000 	ldr.w	r3, [ip]
   86268:	f10c 0c04 	add.w	ip, ip, #4
   8626c:	f8cd c040 	str.w	ip, [sp, #64]	; 0x40
   86270:	601c      	str	r4, [r3, #0]
   86272:	f7fe becf 	b.w	85014 <_svfprintf_r+0x4c>
   86276:	f04f 0a2d 	mov.w	sl, #45	; 0x2d
   8627a:	f88d a08f 	strb.w	sl, [sp, #143]	; 0x8f
   8627e:	f7ff ba99 	b.w	857b4 <_svfprintf_r+0x7ec>
   86282:	9b25      	ldr	r3, [sp, #148]	; 0x94
   86284:	1cdc      	adds	r4, r3, #3
   86286:	db19      	blt.n	862bc <_svfprintf_r+0x12f4>
   86288:	9c0a      	ldr	r4, [sp, #40]	; 0x28
   8628a:	429c      	cmp	r4, r3
   8628c:	db16      	blt.n	862bc <_svfprintf_r+0x12f4>
   8628e:	9314      	str	r3, [sp, #80]	; 0x50
   86290:	e714      	b.n	860bc <_svfprintf_r+0x10f4>
   86292:	4623      	mov	r3, r4
   86294:	e702      	b.n	8609c <_svfprintf_r+0x10d4>
   86296:	ea24 7ce4 	bic.w	ip, r4, r4, asr #31
   8629a:	f8cd c02c 	str.w	ip, [sp, #44]	; 0x2c
   8629e:	9c0a      	ldr	r4, [sp, #40]	; 0x28
   862a0:	9510      	str	r5, [sp, #64]	; 0x40
   862a2:	900a      	str	r0, [sp, #40]	; 0x28
   862a4:	9014      	str	r0, [sp, #80]	; 0x50
   862a6:	f89d a08f 	ldrb.w	sl, [sp, #143]	; 0x8f
   862aa:	f7ff b824 	b.w	852f6 <_svfprintf_r+0x32e>
   862ae:	783b      	ldrb	r3, [r7, #0]
   862b0:	2b30      	cmp	r3, #48	; 0x30
   862b2:	f000 80ad 	beq.w	86410 <_svfprintf_r+0x1448>
   862b6:	9d25      	ldr	r5, [sp, #148]	; 0x94
   862b8:	442c      	add	r4, r5
   862ba:	e6dc      	b.n	86076 <_svfprintf_r+0x10ae>
   862bc:	f1a8 0802 	sub.w	r8, r8, #2
   862c0:	1e59      	subs	r1, r3, #1
   862c2:	2900      	cmp	r1, #0
   862c4:	9125      	str	r1, [sp, #148]	; 0x94
   862c6:	bfba      	itte	lt
   862c8:	4249      	neglt	r1, r1
   862ca:	232d      	movlt	r3, #45	; 0x2d
   862cc:	232b      	movge	r3, #43	; 0x2b
   862ce:	2909      	cmp	r1, #9
   862d0:	f88d 809c 	strb.w	r8, [sp, #156]	; 0x9c
   862d4:	f88d 309d 	strb.w	r3, [sp, #157]	; 0x9d
   862d8:	dc65      	bgt.n	863a6 <_svfprintf_r+0x13de>
   862da:	2330      	movs	r3, #48	; 0x30
   862dc:	3130      	adds	r1, #48	; 0x30
   862de:	f88d 309e 	strb.w	r3, [sp, #158]	; 0x9e
   862e2:	f88d 109f 	strb.w	r1, [sp, #159]	; 0x9f
   862e6:	ab28      	add	r3, sp, #160	; 0xa0
   862e8:	9d11      	ldr	r5, [sp, #68]	; 0x44
   862ea:	aa27      	add	r2, sp, #156	; 0x9c
   862ec:	9c11      	ldr	r4, [sp, #68]	; 0x44
   862ee:	1a9a      	subs	r2, r3, r2
   862f0:	2d01      	cmp	r5, #1
   862f2:	9219      	str	r2, [sp, #100]	; 0x64
   862f4:	4414      	add	r4, r2
   862f6:	f340 80b7 	ble.w	86468 <_svfprintf_r+0x14a0>
   862fa:	3401      	adds	r4, #1
   862fc:	2500      	movs	r5, #0
   862fe:	ea24 73e4 	bic.w	r3, r4, r4, asr #31
   86302:	9514      	str	r5, [sp, #80]	; 0x50
   86304:	e6ea      	b.n	860dc <_svfprintf_r+0x1114>
   86306:	2400      	movs	r4, #0
   86308:	4681      	mov	r9, r0
   8630a:	940a      	str	r4, [sp, #40]	; 0x28
   8630c:	f7fe beba 	b.w	85084 <_svfprintf_r+0xbc>
   86310:	980d      	ldr	r0, [sp, #52]	; 0x34
   86312:	990c      	ldr	r1, [sp, #48]	; 0x30
   86314:	aa2b      	add	r2, sp, #172	; 0xac
   86316:	f003 fd27 	bl	89d68 <__ssprint_r>
   8631a:	2800      	cmp	r0, #0
   8631c:	f47e af6c 	bne.w	851f8 <_svfprintf_r+0x230>
   86320:	9c25      	ldr	r4, [sp, #148]	; 0x94
   86322:	992d      	ldr	r1, [sp, #180]	; 0xb4
   86324:	9b2c      	ldr	r3, [sp, #176]	; 0xb0
   86326:	aa38      	add	r2, sp, #224	; 0xe0
   86328:	e616      	b.n	85f58 <_svfprintf_r+0xf90>
   8632a:	9c14      	ldr	r4, [sp, #80]	; 0x50
   8632c:	9d11      	ldr	r5, [sp, #68]	; 0x44
   8632e:	2c00      	cmp	r4, #0
   86330:	bfd4      	ite	le
   86332:	f1c4 0402 	rsble	r4, r4, #2
   86336:	2401      	movgt	r4, #1
   86338:	442c      	add	r4, r5
   8633a:	ea24 73e4 	bic.w	r3, r4, r4, asr #31
   8633e:	f04f 0867 	mov.w	r8, #103	; 0x67
   86342:	e6cb      	b.n	860dc <_svfprintf_r+0x1114>
   86344:	9917      	ldr	r1, [sp, #92]	; 0x5c
   86346:	9816      	ldr	r0, [sp, #88]	; 0x58
   86348:	f101 4100 	add.w	r1, r1, #2147483648	; 0x80000000
   8634c:	9020      	str	r0, [sp, #128]	; 0x80
   8634e:	9121      	str	r1, [sp, #132]	; 0x84
   86350:	f04f 0b2d 	mov.w	fp, #45	; 0x2d
   86354:	e660      	b.n	86018 <_svfprintf_r+0x1050>
   86356:	9d0a      	ldr	r5, [sp, #40]	; 0x28
   86358:	2003      	movs	r0, #3
   8635a:	a925      	add	r1, sp, #148	; 0x94
   8635c:	aa26      	add	r2, sp, #152	; 0x98
   8635e:	ab29      	add	r3, sp, #164	; 0xa4
   86360:	9501      	str	r5, [sp, #4]
   86362:	9000      	str	r0, [sp, #0]
   86364:	9203      	str	r2, [sp, #12]
   86366:	9304      	str	r3, [sp, #16]
   86368:	9102      	str	r1, [sp, #8]
   8636a:	980d      	ldr	r0, [sp, #52]	; 0x34
   8636c:	e9dd 2320 	ldrd	r2, r3, [sp, #128]	; 0x80
   86370:	f001 f84a 	bl	87408 <_dtoa_r>
   86374:	9d0a      	ldr	r5, [sp, #40]	; 0x28
   86376:	4607      	mov	r7, r0
   86378:	e677      	b.n	8606a <_svfprintf_r+0x10a2>
   8637a:	9c0a      	ldr	r4, [sp, #40]	; 0x28
   8637c:	2003      	movs	r0, #3
   8637e:	a925      	add	r1, sp, #148	; 0x94
   86380:	aa26      	add	r2, sp, #152	; 0x98
   86382:	ab29      	add	r3, sp, #164	; 0xa4
   86384:	9401      	str	r4, [sp, #4]
   86386:	e7ec      	b.n	86362 <_svfprintf_r+0x139a>
   86388:	9d25      	ldr	r5, [sp, #148]	; 0x94
   8638a:	9c0a      	ldr	r4, [sp, #40]	; 0x28
   8638c:	2d00      	cmp	r5, #0
   8638e:	9514      	str	r5, [sp, #80]	; 0x50
   86390:	dd63      	ble.n	8645a <_svfprintf_r+0x1492>
   86392:	bbb4      	cbnz	r4, 86402 <_svfprintf_r+0x143a>
   86394:	9d09      	ldr	r5, [sp, #36]	; 0x24
   86396:	07e8      	lsls	r0, r5, #31
   86398:	d433      	bmi.n	86402 <_svfprintf_r+0x143a>
   8639a:	9c14      	ldr	r4, [sp, #80]	; 0x50
   8639c:	ea24 73e4 	bic.w	r3, r4, r4, asr #31
   863a0:	e69c      	b.n	860dc <_svfprintf_r+0x1114>
   863a2:	9b29      	ldr	r3, [sp, #164]	; 0xa4
   863a4:	e67a      	b.n	8609c <_svfprintf_r+0x10d4>
   863a6:	f10d 02aa 	add.w	r2, sp, #170	; 0xaa
   863aa:	4d3e      	ldr	r5, [pc, #248]	; (864a4 <_svfprintf_r+0x14dc>)
   863ac:	17cb      	asrs	r3, r1, #31
   863ae:	fb85 5001 	smull	r5, r0, r5, r1
   863b2:	ebc3 00a0 	rsb	r0, r3, r0, asr #2
   863b6:	eb00 0380 	add.w	r3, r0, r0, lsl #2
   863ba:	eba1 0143 	sub.w	r1, r1, r3, lsl #1
   863be:	2809      	cmp	r0, #9
   863c0:	4613      	mov	r3, r2
   863c2:	f101 0230 	add.w	r2, r1, #48	; 0x30
   863c6:	701a      	strb	r2, [r3, #0]
   863c8:	4601      	mov	r1, r0
   863ca:	f103 32ff 	add.w	r2, r3, #4294967295
   863ce:	dcec      	bgt.n	863aa <_svfprintf_r+0x13e2>
   863d0:	f100 0130 	add.w	r1, r0, #48	; 0x30
   863d4:	f10d 04ab 	add.w	r4, sp, #171	; 0xab
   863d8:	b2c9      	uxtb	r1, r1
   863da:	4294      	cmp	r4, r2
   863dc:	f803 1c01 	strb.w	r1, [r3, #-1]
   863e0:	d95a      	bls.n	86498 <_svfprintf_r+0x14d0>
   863e2:	f10d 009d 	add.w	r0, sp, #157	; 0x9d
   863e6:	461a      	mov	r2, r3
   863e8:	e001      	b.n	863ee <_svfprintf_r+0x1426>
   863ea:	f812 1b01 	ldrb.w	r1, [r2], #1
   863ee:	42a2      	cmp	r2, r4
   863f0:	f800 1f01 	strb.w	r1, [r0, #1]!
   863f4:	d1f9      	bne.n	863ea <_svfprintf_r+0x1422>
   863f6:	f50d 7c90 	add.w	ip, sp, #288	; 0x120
   863fa:	ebc3 034c 	rsb	r3, r3, ip, lsl #1
   863fe:	3bf6      	subs	r3, #246	; 0xf6
   86400:	e772      	b.n	862e8 <_svfprintf_r+0x1320>
   86402:	9d0a      	ldr	r5, [sp, #40]	; 0x28
   86404:	1c6c      	adds	r4, r5, #1
   86406:	9d14      	ldr	r5, [sp, #80]	; 0x50
   86408:	442c      	add	r4, r5
   8640a:	ea24 73e4 	bic.w	r3, r4, r4, asr #31
   8640e:	e665      	b.n	860dc <_svfprintf_r+0x1114>
   86410:	e9dd 0120 	ldrd	r0, r1, [sp, #128]	; 0x80
   86414:	2200      	movs	r2, #0
   86416:	2300      	movs	r3, #0
   86418:	f7fe f884 	bl	84524 <__aeabi_dcmpeq>
   8641c:	2800      	cmp	r0, #0
   8641e:	f47f af4a 	bne.w	862b6 <_svfprintf_r+0x12ee>
   86422:	f1c5 0501 	rsb	r5, r5, #1
   86426:	9525      	str	r5, [sp, #148]	; 0x94
   86428:	442c      	add	r4, r5
   8642a:	e624      	b.n	86076 <_svfprintf_r+0x10ae>
   8642c:	9d14      	ldr	r5, [sp, #80]	; 0x50
   8642e:	f04f 0867 	mov.w	r8, #103	; 0x67
   86432:	1c6c      	adds	r4, r5, #1
   86434:	ea24 73e4 	bic.w	r3, r4, r4, asr #31
   86438:	e650      	b.n	860dc <_svfprintf_r+0x1114>
   8643a:	9d10      	ldr	r5, [sp, #64]	; 0x40
   8643c:	f8dd c040 	ldr.w	ip, [sp, #64]	; 0x40
   86440:	682d      	ldr	r5, [r5, #0]
   86442:	f10c 0304 	add.w	r3, ip, #4
   86446:	2d00      	cmp	r5, #0
   86448:	f899 8001 	ldrb.w	r8, [r9, #1]
   8644c:	950a      	str	r5, [sp, #40]	; 0x28
   8644e:	9310      	str	r3, [sp, #64]	; 0x40
   86450:	4681      	mov	r9, r0
   86452:	f6be ae15 	bge.w	85080 <_svfprintf_r+0xb8>
   86456:	f7fe be10 	b.w	8507a <_svfprintf_r+0xb2>
   8645a:	b97c      	cbnz	r4, 8647c <_svfprintf_r+0x14b4>
   8645c:	9d09      	ldr	r5, [sp, #36]	; 0x24
   8645e:	07e9      	lsls	r1, r5, #31
   86460:	d40c      	bmi.n	8647c <_svfprintf_r+0x14b4>
   86462:	2301      	movs	r3, #1
   86464:	461c      	mov	r4, r3
   86466:	e639      	b.n	860dc <_svfprintf_r+0x1114>
   86468:	f8dd c024 	ldr.w	ip, [sp, #36]	; 0x24
   8646c:	f01c 0301 	ands.w	r3, ip, #1
   86470:	f47f af43 	bne.w	862fa <_svfprintf_r+0x1332>
   86474:	9314      	str	r3, [sp, #80]	; 0x50
   86476:	ea24 73e4 	bic.w	r3, r4, r4, asr #31
   8647a:	e62f      	b.n	860dc <_svfprintf_r+0x1114>
   8647c:	9d0a      	ldr	r5, [sp, #40]	; 0x28
   8647e:	1cac      	adds	r4, r5, #2
   86480:	ea24 73e4 	bic.w	r3, r4, r4, asr #31
   86484:	e62a      	b.n	860dc <_svfprintf_r+0x1114>
   86486:	9d0d      	ldr	r5, [sp, #52]	; 0x34
   86488:	230c      	movs	r3, #12
   8648a:	602b      	str	r3, [r5, #0]
   8648c:	f04f 30ff 	mov.w	r0, #4294967295
   86490:	f7fe beba 	b.w	85208 <_svfprintf_r+0x240>
   86494:	9b25      	ldr	r3, [sp, #148]	; 0x94
   86496:	e713      	b.n	862c0 <_svfprintf_r+0x12f8>
   86498:	f10d 039e 	add.w	r3, sp, #158	; 0x9e
   8649c:	e724      	b.n	862e8 <_svfprintf_r+0x1320>
   8649e:	bf00      	nop
   864a0:	0008aac8 	.word	0x0008aac8
   864a4:	66666667 	.word	0x66666667

000864a8 <__sprint_r.part.0>:
   864a8:	6e4b      	ldr	r3, [r1, #100]	; 0x64
   864aa:	e92d 47f0 	stmdb	sp!, {r4, r5, r6, r7, r8, r9, sl, lr}
   864ae:	049c      	lsls	r4, r3, #18
   864b0:	460e      	mov	r6, r1
   864b2:	4680      	mov	r8, r0
   864b4:	4691      	mov	r9, r2
   864b6:	d52a      	bpl.n	8650e <__sprint_r.part.0+0x66>
   864b8:	6893      	ldr	r3, [r2, #8]
   864ba:	6812      	ldr	r2, [r2, #0]
   864bc:	f102 0a08 	add.w	sl, r2, #8
   864c0:	b31b      	cbz	r3, 8650a <__sprint_r.part.0+0x62>
   864c2:	e91a 00a0 	ldmdb	sl, {r5, r7}
   864c6:	08bf      	lsrs	r7, r7, #2
   864c8:	d017      	beq.n	864fa <__sprint_r.part.0+0x52>
   864ca:	3d04      	subs	r5, #4
   864cc:	2400      	movs	r4, #0
   864ce:	e001      	b.n	864d4 <__sprint_r.part.0+0x2c>
   864d0:	42a7      	cmp	r7, r4
   864d2:	d010      	beq.n	864f6 <__sprint_r.part.0+0x4e>
   864d4:	4640      	mov	r0, r8
   864d6:	f855 1f04 	ldr.w	r1, [r5, #4]!
   864da:	4632      	mov	r2, r6
   864dc:	f002 f806 	bl	884ec <_fputwc_r>
   864e0:	1c43      	adds	r3, r0, #1
   864e2:	f104 0401 	add.w	r4, r4, #1
   864e6:	d1f3      	bne.n	864d0 <__sprint_r.part.0+0x28>
   864e8:	2300      	movs	r3, #0
   864ea:	f8c9 3008 	str.w	r3, [r9, #8]
   864ee:	f8c9 3004 	str.w	r3, [r9, #4]
   864f2:	e8bd 87f0 	ldmia.w	sp!, {r4, r5, r6, r7, r8, r9, sl, pc}
   864f6:	f8d9 3008 	ldr.w	r3, [r9, #8]
   864fa:	eba3 0387 	sub.w	r3, r3, r7, lsl #2
   864fe:	f8c9 3008 	str.w	r3, [r9, #8]
   86502:	f10a 0a08 	add.w	sl, sl, #8
   86506:	2b00      	cmp	r3, #0
   86508:	d1db      	bne.n	864c2 <__sprint_r.part.0+0x1a>
   8650a:	2000      	movs	r0, #0
   8650c:	e7ec      	b.n	864e8 <__sprint_r.part.0+0x40>
   8650e:	f002 f967 	bl	887e0 <__sfvwrite_r>
   86512:	2300      	movs	r3, #0
   86514:	f8c9 3008 	str.w	r3, [r9, #8]
   86518:	f8c9 3004 	str.w	r3, [r9, #4]
   8651c:	e8bd 87f0 	ldmia.w	sp!, {r4, r5, r6, r7, r8, r9, sl, pc}

00086520 <_vfiprintf_r>:
   86520:	e92d 4ff0 	stmdb	sp!, {r4, r5, r6, r7, r8, r9, sl, fp, lr}
   86524:	b0b1      	sub	sp, #196	; 0xc4
   86526:	461c      	mov	r4, r3
   86528:	9102      	str	r1, [sp, #8]
   8652a:	4690      	mov	r8, r2
   8652c:	9308      	str	r3, [sp, #32]
   8652e:	9006      	str	r0, [sp, #24]
   86530:	b118      	cbz	r0, 8653a <_vfiprintf_r+0x1a>
   86532:	6b83      	ldr	r3, [r0, #56]	; 0x38
   86534:	2b00      	cmp	r3, #0
   86536:	f000 80e8 	beq.w	8670a <_vfiprintf_r+0x1ea>
   8653a:	9d02      	ldr	r5, [sp, #8]
   8653c:	89ab      	ldrh	r3, [r5, #12]
   8653e:	b29a      	uxth	r2, r3
   86540:	0490      	lsls	r0, r2, #18
   86542:	d407      	bmi.n	86554 <_vfiprintf_r+0x34>
   86544:	6e6a      	ldr	r2, [r5, #100]	; 0x64
   86546:	f443 5300 	orr.w	r3, r3, #8192	; 0x2000
   8654a:	f422 5100 	bic.w	r1, r2, #8192	; 0x2000
   8654e:	81ab      	strh	r3, [r5, #12]
   86550:	b29a      	uxth	r2, r3
   86552:	6669      	str	r1, [r5, #100]	; 0x64
   86554:	0711      	lsls	r1, r2, #28
   86556:	f140 80b7 	bpl.w	866c8 <_vfiprintf_r+0x1a8>
   8655a:	f8dd b008 	ldr.w	fp, [sp, #8]
   8655e:	f8db 3010 	ldr.w	r3, [fp, #16]
   86562:	2b00      	cmp	r3, #0
   86564:	f000 80b0 	beq.w	866c8 <_vfiprintf_r+0x1a8>
   86568:	f002 021a 	and.w	r2, r2, #26
   8656c:	2a0a      	cmp	r2, #10
   8656e:	f000 80b7 	beq.w	866e0 <_vfiprintf_r+0x1c0>
   86572:	2300      	movs	r3, #0
   86574:	f10d 0980 	add.w	r9, sp, #128	; 0x80
   86578:	930a      	str	r3, [sp, #40]	; 0x28
   8657a:	9315      	str	r3, [sp, #84]	; 0x54
   8657c:	9314      	str	r3, [sp, #80]	; 0x50
   8657e:	9309      	str	r3, [sp, #36]	; 0x24
   86580:	f8cd 904c 	str.w	r9, [sp, #76]	; 0x4c
   86584:	464e      	mov	r6, r9
   86586:	f898 3000 	ldrb.w	r3, [r8]
   8658a:	2b00      	cmp	r3, #0
   8658c:	f000 84c8 	beq.w	86f20 <_vfiprintf_r+0xa00>
   86590:	2b25      	cmp	r3, #37	; 0x25
   86592:	f000 84c5 	beq.w	86f20 <_vfiprintf_r+0xa00>
   86596:	f108 0201 	add.w	r2, r8, #1
   8659a:	e001      	b.n	865a0 <_vfiprintf_r+0x80>
   8659c:	2b25      	cmp	r3, #37	; 0x25
   8659e:	d004      	beq.n	865aa <_vfiprintf_r+0x8a>
   865a0:	7813      	ldrb	r3, [r2, #0]
   865a2:	4614      	mov	r4, r2
   865a4:	3201      	adds	r2, #1
   865a6:	2b00      	cmp	r3, #0
   865a8:	d1f8      	bne.n	8659c <_vfiprintf_r+0x7c>
   865aa:	ebc8 0504 	rsb	r5, r8, r4
   865ae:	b195      	cbz	r5, 865d6 <_vfiprintf_r+0xb6>
   865b0:	9b14      	ldr	r3, [sp, #80]	; 0x50
   865b2:	9a15      	ldr	r2, [sp, #84]	; 0x54
   865b4:	3301      	adds	r3, #1
   865b6:	442a      	add	r2, r5
   865b8:	2b07      	cmp	r3, #7
   865ba:	f8c6 8000 	str.w	r8, [r6]
   865be:	6075      	str	r5, [r6, #4]
   865c0:	9215      	str	r2, [sp, #84]	; 0x54
   865c2:	9314      	str	r3, [sp, #80]	; 0x50
   865c4:	dd7b      	ble.n	866be <_vfiprintf_r+0x19e>
   865c6:	2a00      	cmp	r2, #0
   865c8:	f040 84d5 	bne.w	86f76 <_vfiprintf_r+0xa56>
   865cc:	9809      	ldr	r0, [sp, #36]	; 0x24
   865ce:	9214      	str	r2, [sp, #80]	; 0x50
   865d0:	4428      	add	r0, r5
   865d2:	464e      	mov	r6, r9
   865d4:	9009      	str	r0, [sp, #36]	; 0x24
   865d6:	7823      	ldrb	r3, [r4, #0]
   865d8:	2b00      	cmp	r3, #0
   865da:	f000 83ed 	beq.w	86db8 <_vfiprintf_r+0x898>
   865de:	2100      	movs	r1, #0
   865e0:	f04f 0200 	mov.w	r2, #0
   865e4:	f04f 3cff 	mov.w	ip, #4294967295
   865e8:	7863      	ldrb	r3, [r4, #1]
   865ea:	f88d 2047 	strb.w	r2, [sp, #71]	; 0x47
   865ee:	9104      	str	r1, [sp, #16]
   865f0:	468a      	mov	sl, r1
   865f2:	f104 0801 	add.w	r8, r4, #1
   865f6:	4608      	mov	r0, r1
   865f8:	4665      	mov	r5, ip
   865fa:	f108 0801 	add.w	r8, r8, #1
   865fe:	f1a3 0220 	sub.w	r2, r3, #32
   86602:	2a58      	cmp	r2, #88	; 0x58
   86604:	f200 82d9 	bhi.w	86bba <_vfiprintf_r+0x69a>
   86608:	e8df f012 	tbh	[pc, r2, lsl #1]
   8660c:	02d702cb 	.word	0x02d702cb
   86610:	02d202d7 	.word	0x02d202d7
   86614:	02d702d7 	.word	0x02d702d7
   86618:	02d702d7 	.word	0x02d702d7
   8661c:	02d702d7 	.word	0x02d702d7
   86620:	028f0282 	.word	0x028f0282
   86624:	008402d7 	.word	0x008402d7
   86628:	02d70293 	.word	0x02d70293
   8662c:	0196012b 	.word	0x0196012b
   86630:	01960196 	.word	0x01960196
   86634:	01960196 	.word	0x01960196
   86638:	01960196 	.word	0x01960196
   8663c:	01960196 	.word	0x01960196
   86640:	02d702d7 	.word	0x02d702d7
   86644:	02d702d7 	.word	0x02d702d7
   86648:	02d702d7 	.word	0x02d702d7
   8664c:	02d702d7 	.word	0x02d702d7
   86650:	02d702d7 	.word	0x02d702d7
   86654:	02d70130 	.word	0x02d70130
   86658:	02d702d7 	.word	0x02d702d7
   8665c:	02d702d7 	.word	0x02d702d7
   86660:	02d702d7 	.word	0x02d702d7
   86664:	02d702d7 	.word	0x02d702d7
   86668:	017b02d7 	.word	0x017b02d7
   8666c:	02d702d7 	.word	0x02d702d7
   86670:	02d702d7 	.word	0x02d702d7
   86674:	01a402d7 	.word	0x01a402d7
   86678:	02d702d7 	.word	0x02d702d7
   8667c:	02d701bf 	.word	0x02d701bf
   86680:	02d702d7 	.word	0x02d702d7
   86684:	02d702d7 	.word	0x02d702d7
   86688:	02d702d7 	.word	0x02d702d7
   8668c:	02d702d7 	.word	0x02d702d7
   86690:	01e402d7 	.word	0x01e402d7
   86694:	02d701fa 	.word	0x02d701fa
   86698:	02d702d7 	.word	0x02d702d7
   8669c:	01fa0216 	.word	0x01fa0216
   866a0:	02d702d7 	.word	0x02d702d7
   866a4:	02d7021b 	.word	0x02d7021b
   866a8:	00890228 	.word	0x00890228
   866ac:	027d0266 	.word	0x027d0266
   866b0:	023a02d7 	.word	0x023a02d7
   866b4:	011902d7 	.word	0x011902d7
   866b8:	02d702d7 	.word	0x02d702d7
   866bc:	02af      	.short	0x02af
   866be:	3608      	adds	r6, #8
   866c0:	9809      	ldr	r0, [sp, #36]	; 0x24
   866c2:	4428      	add	r0, r5
   866c4:	9009      	str	r0, [sp, #36]	; 0x24
   866c6:	e786      	b.n	865d6 <_vfiprintf_r+0xb6>
   866c8:	9806      	ldr	r0, [sp, #24]
   866ca:	9902      	ldr	r1, [sp, #8]
   866cc:	f000 fd90 	bl	871f0 <__swsetup_r>
   866d0:	b9b0      	cbnz	r0, 86700 <_vfiprintf_r+0x1e0>
   866d2:	9d02      	ldr	r5, [sp, #8]
   866d4:	89aa      	ldrh	r2, [r5, #12]
   866d6:	f002 021a 	and.w	r2, r2, #26
   866da:	2a0a      	cmp	r2, #10
   866dc:	f47f af49 	bne.w	86572 <_vfiprintf_r+0x52>
   866e0:	f8dd b008 	ldr.w	fp, [sp, #8]
   866e4:	f9bb 300e 	ldrsh.w	r3, [fp, #14]
   866e8:	2b00      	cmp	r3, #0
   866ea:	f6ff af42 	blt.w	86572 <_vfiprintf_r+0x52>
   866ee:	9806      	ldr	r0, [sp, #24]
   866f0:	4659      	mov	r1, fp
   866f2:	4642      	mov	r2, r8
   866f4:	4623      	mov	r3, r4
   866f6:	f000 fd3d 	bl	87174 <__sbprintf>
   866fa:	b031      	add	sp, #196	; 0xc4
   866fc:	e8bd 8ff0 	ldmia.w	sp!, {r4, r5, r6, r7, r8, r9, sl, fp, pc}
   86700:	f04f 30ff 	mov.w	r0, #4294967295
   86704:	b031      	add	sp, #196	; 0xc4
   86706:	e8bd 8ff0 	ldmia.w	sp!, {r4, r5, r6, r7, r8, r9, sl, fp, pc}
   8670a:	f001 fe59 	bl	883c0 <__sinit>
   8670e:	e714      	b.n	8653a <_vfiprintf_r+0x1a>
   86710:	4240      	negs	r0, r0
   86712:	9308      	str	r3, [sp, #32]
   86714:	f04a 0a04 	orr.w	sl, sl, #4
   86718:	f898 3000 	ldrb.w	r3, [r8]
   8671c:	e76d      	b.n	865fa <_vfiprintf_r+0xda>
   8671e:	f01a 0320 	ands.w	r3, sl, #32
   86722:	9004      	str	r0, [sp, #16]
   86724:	46ac      	mov	ip, r5
   86726:	f000 80f4 	beq.w	86912 <_vfiprintf_r+0x3f2>
   8672a:	f8dd b020 	ldr.w	fp, [sp, #32]
   8672e:	f10b 0307 	add.w	r3, fp, #7
   86732:	f023 0307 	bic.w	r3, r3, #7
   86736:	f103 0408 	add.w	r4, r3, #8
   8673a:	9408      	str	r4, [sp, #32]
   8673c:	e9d3 4500 	ldrd	r4, r5, [r3]
   86740:	2300      	movs	r3, #0
   86742:	f04f 0000 	mov.w	r0, #0
   86746:	2100      	movs	r1, #0
   86748:	f88d 0047 	strb.w	r0, [sp, #71]	; 0x47
   8674c:	f8cd c014 	str.w	ip, [sp, #20]
   86750:	9107      	str	r1, [sp, #28]
   86752:	f1bc 0f00 	cmp.w	ip, #0
   86756:	bfa8      	it	ge
   86758:	f02a 0a80 	bicge.w	sl, sl, #128	; 0x80
   8675c:	ea54 0205 	orrs.w	r2, r4, r5
   86760:	f040 80ad 	bne.w	868be <_vfiprintf_r+0x39e>
   86764:	f1bc 0f00 	cmp.w	ip, #0
   86768:	f040 80a9 	bne.w	868be <_vfiprintf_r+0x39e>
   8676c:	2b00      	cmp	r3, #0
   8676e:	f040 83c0 	bne.w	86ef2 <_vfiprintf_r+0x9d2>
   86772:	f01a 0f01 	tst.w	sl, #1
   86776:	f000 83bc 	beq.w	86ef2 <_vfiprintf_r+0x9d2>
   8677a:	2330      	movs	r3, #48	; 0x30
   8677c:	af30      	add	r7, sp, #192	; 0xc0
   8677e:	f807 3d41 	strb.w	r3, [r7, #-65]!
   86782:	ebc7 0409 	rsb	r4, r7, r9
   86786:	9405      	str	r4, [sp, #20]
   86788:	f8dd b014 	ldr.w	fp, [sp, #20]
   8678c:	9c07      	ldr	r4, [sp, #28]
   8678e:	45e3      	cmp	fp, ip
   86790:	bfb8      	it	lt
   86792:	46e3      	movlt	fp, ip
   86794:	f8cd b00c 	str.w	fp, [sp, #12]
   86798:	b11c      	cbz	r4, 867a2 <_vfiprintf_r+0x282>
   8679a:	f10b 0b01 	add.w	fp, fp, #1
   8679e:	f8cd b00c 	str.w	fp, [sp, #12]
   867a2:	f01a 0502 	ands.w	r5, sl, #2
   867a6:	9507      	str	r5, [sp, #28]
   867a8:	d005      	beq.n	867b6 <_vfiprintf_r+0x296>
   867aa:	f8dd b00c 	ldr.w	fp, [sp, #12]
   867ae:	f10b 0b02 	add.w	fp, fp, #2
   867b2:	f8cd b00c 	str.w	fp, [sp, #12]
   867b6:	f01a 0384 	ands.w	r3, sl, #132	; 0x84
   867ba:	930b      	str	r3, [sp, #44]	; 0x2c
   867bc:	f040 821b 	bne.w	86bf6 <_vfiprintf_r+0x6d6>
   867c0:	9d04      	ldr	r5, [sp, #16]
   867c2:	f8dd b00c 	ldr.w	fp, [sp, #12]
   867c6:	ebcb 0405 	rsb	r4, fp, r5
   867ca:	2c00      	cmp	r4, #0
   867cc:	f340 8213 	ble.w	86bf6 <_vfiprintf_r+0x6d6>
   867d0:	2c10      	cmp	r4, #16
   867d2:	f340 8489 	ble.w	870e8 <_vfiprintf_r+0xbc8>
   867d6:	4dbe      	ldr	r5, [pc, #760]	; (86ad0 <_vfiprintf_r+0x5b0>)
   867d8:	9a15      	ldr	r2, [sp, #84]	; 0x54
   867da:	462b      	mov	r3, r5
   867dc:	9814      	ldr	r0, [sp, #80]	; 0x50
   867de:	4625      	mov	r5, r4
   867e0:	f04f 0b10 	mov.w	fp, #16
   867e4:	4664      	mov	r4, ip
   867e6:	46b4      	mov	ip, r6
   867e8:	461e      	mov	r6, r3
   867ea:	e006      	b.n	867fa <_vfiprintf_r+0x2da>
   867ec:	1c83      	adds	r3, r0, #2
   867ee:	f10c 0c08 	add.w	ip, ip, #8
   867f2:	4608      	mov	r0, r1
   867f4:	3d10      	subs	r5, #16
   867f6:	2d10      	cmp	r5, #16
   867f8:	dd11      	ble.n	8681e <_vfiprintf_r+0x2fe>
   867fa:	1c41      	adds	r1, r0, #1
   867fc:	3210      	adds	r2, #16
   867fe:	2907      	cmp	r1, #7
   86800:	9215      	str	r2, [sp, #84]	; 0x54
   86802:	e88c 0840 	stmia.w	ip, {r6, fp}
   86806:	9114      	str	r1, [sp, #80]	; 0x50
   86808:	ddf0      	ble.n	867ec <_vfiprintf_r+0x2cc>
   8680a:	2a00      	cmp	r2, #0
   8680c:	f040 81e6 	bne.w	86bdc <_vfiprintf_r+0x6bc>
   86810:	3d10      	subs	r5, #16
   86812:	2d10      	cmp	r5, #16
   86814:	f04f 0301 	mov.w	r3, #1
   86818:	4610      	mov	r0, r2
   8681a:	46cc      	mov	ip, r9
   8681c:	dced      	bgt.n	867fa <_vfiprintf_r+0x2da>
   8681e:	4631      	mov	r1, r6
   86820:	4666      	mov	r6, ip
   86822:	46a4      	mov	ip, r4
   86824:	462c      	mov	r4, r5
   86826:	460d      	mov	r5, r1
   86828:	4422      	add	r2, r4
   8682a:	2b07      	cmp	r3, #7
   8682c:	9215      	str	r2, [sp, #84]	; 0x54
   8682e:	6035      	str	r5, [r6, #0]
   86830:	6074      	str	r4, [r6, #4]
   86832:	9314      	str	r3, [sp, #80]	; 0x50
   86834:	f300 836d 	bgt.w	86f12 <_vfiprintf_r+0x9f2>
   86838:	3608      	adds	r6, #8
   8683a:	1c59      	adds	r1, r3, #1
   8683c:	e1de      	b.n	86bfc <_vfiprintf_r+0x6dc>
   8683e:	f01a 0f20 	tst.w	sl, #32
   86842:	9004      	str	r0, [sp, #16]
   86844:	46ac      	mov	ip, r5
   86846:	f000 808d 	beq.w	86964 <_vfiprintf_r+0x444>
   8684a:	9d08      	ldr	r5, [sp, #32]
   8684c:	1deb      	adds	r3, r5, #7
   8684e:	f023 0307 	bic.w	r3, r3, #7
   86852:	f103 0b08 	add.w	fp, r3, #8
   86856:	e9d3 4500 	ldrd	r4, r5, [r3]
   8685a:	f8cd b020 	str.w	fp, [sp, #32]
   8685e:	2301      	movs	r3, #1
   86860:	e76f      	b.n	86742 <_vfiprintf_r+0x222>
   86862:	f04a 0a80 	orr.w	sl, sl, #128	; 0x80
   86866:	f898 3000 	ldrb.w	r3, [r8]
   8686a:	e6c6      	b.n	865fa <_vfiprintf_r+0xda>
   8686c:	f04a 0a10 	orr.w	sl, sl, #16
   86870:	f01a 0f20 	tst.w	sl, #32
   86874:	9004      	str	r0, [sp, #16]
   86876:	46ac      	mov	ip, r5
   86878:	f88d 1047 	strb.w	r1, [sp, #71]	; 0x47
   8687c:	f000 80c8 	beq.w	86a10 <_vfiprintf_r+0x4f0>
   86880:	9c08      	ldr	r4, [sp, #32]
   86882:	1de1      	adds	r1, r4, #7
   86884:	f021 0107 	bic.w	r1, r1, #7
   86888:	e9d1 2300 	ldrd	r2, r3, [r1]
   8688c:	3108      	adds	r1, #8
   8688e:	9108      	str	r1, [sp, #32]
   86890:	4614      	mov	r4, r2
   86892:	461d      	mov	r5, r3
   86894:	2a00      	cmp	r2, #0
   86896:	f173 0b00 	sbcs.w	fp, r3, #0
   8689a:	f2c0 83ce 	blt.w	8703a <_vfiprintf_r+0xb1a>
   8689e:	f1bc 0f00 	cmp.w	ip, #0
   868a2:	f89d 0047 	ldrb.w	r0, [sp, #71]	; 0x47
   868a6:	bfa8      	it	ge
   868a8:	f02a 0a80 	bicge.w	sl, sl, #128	; 0x80
   868ac:	ea54 0205 	orrs.w	r2, r4, r5
   868b0:	9007      	str	r0, [sp, #28]
   868b2:	f8cd c014 	str.w	ip, [sp, #20]
   868b6:	f04f 0301 	mov.w	r3, #1
   868ba:	f43f af53 	beq.w	86764 <_vfiprintf_r+0x244>
   868be:	2b01      	cmp	r3, #1
   868c0:	f000 8319 	beq.w	86ef6 <_vfiprintf_r+0x9d6>
   868c4:	2b02      	cmp	r3, #2
   868c6:	f10d 037f 	add.w	r3, sp, #127	; 0x7f
   868ca:	f040 824c 	bne.w	86d66 <_vfiprintf_r+0x846>
   868ce:	f8dd b028 	ldr.w	fp, [sp, #40]	; 0x28
   868d2:	4619      	mov	r1, r3
   868d4:	f004 000f 	and.w	r0, r4, #15
   868d8:	0922      	lsrs	r2, r4, #4
   868da:	f81b 0000 	ldrb.w	r0, [fp, r0]
   868de:	ea42 7205 	orr.w	r2, r2, r5, lsl #28
   868e2:	092b      	lsrs	r3, r5, #4
   868e4:	7008      	strb	r0, [r1, #0]
   868e6:	ea52 0003 	orrs.w	r0, r2, r3
   868ea:	460f      	mov	r7, r1
   868ec:	4614      	mov	r4, r2
   868ee:	461d      	mov	r5, r3
   868f0:	f101 31ff 	add.w	r1, r1, #4294967295
   868f4:	d1ee      	bne.n	868d4 <_vfiprintf_r+0x3b4>
   868f6:	e9cd 230e 	strd	r2, r3, [sp, #56]	; 0x38
   868fa:	ebc7 0309 	rsb	r3, r7, r9
   868fe:	9305      	str	r3, [sp, #20]
   86900:	e742      	b.n	86788 <_vfiprintf_r+0x268>
   86902:	f04a 0a10 	orr.w	sl, sl, #16
   86906:	f01a 0320 	ands.w	r3, sl, #32
   8690a:	9004      	str	r0, [sp, #16]
   8690c:	46ac      	mov	ip, r5
   8690e:	f47f af0c 	bne.w	8672a <_vfiprintf_r+0x20a>
   86912:	f01a 0210 	ands.w	r2, sl, #16
   86916:	f040 8311 	bne.w	86f3c <_vfiprintf_r+0xa1c>
   8691a:	f01a 0340 	ands.w	r3, sl, #64	; 0x40
   8691e:	f000 830d 	beq.w	86f3c <_vfiprintf_r+0xa1c>
   86922:	f8dd b020 	ldr.w	fp, [sp, #32]
   86926:	4613      	mov	r3, r2
   86928:	f8bb 4000 	ldrh.w	r4, [fp]
   8692c:	f10b 0b04 	add.w	fp, fp, #4
   86930:	2500      	movs	r5, #0
   86932:	f8cd b020 	str.w	fp, [sp, #32]
   86936:	e704      	b.n	86742 <_vfiprintf_r+0x222>
   86938:	f1a3 0230 	sub.w	r2, r3, #48	; 0x30
   8693c:	2000      	movs	r0, #0
   8693e:	f818 3b01 	ldrb.w	r3, [r8], #1
   86942:	eb00 0080 	add.w	r0, r0, r0, lsl #2
   86946:	eb02 0040 	add.w	r0, r2, r0, lsl #1
   8694a:	f1a3 0230 	sub.w	r2, r3, #48	; 0x30
   8694e:	2a09      	cmp	r2, #9
   86950:	d9f5      	bls.n	8693e <_vfiprintf_r+0x41e>
   86952:	e654      	b.n	865fe <_vfiprintf_r+0xde>
   86954:	f04a 0a10 	orr.w	sl, sl, #16
   86958:	f01a 0f20 	tst.w	sl, #32
   8695c:	9004      	str	r0, [sp, #16]
   8695e:	46ac      	mov	ip, r5
   86960:	f47f af73 	bne.w	8684a <_vfiprintf_r+0x32a>
   86964:	f01a 0f10 	tst.w	sl, #16
   86968:	f040 82ef 	bne.w	86f4a <_vfiprintf_r+0xa2a>
   8696c:	f01a 0f40 	tst.w	sl, #64	; 0x40
   86970:	f000 82eb 	beq.w	86f4a <_vfiprintf_r+0xa2a>
   86974:	f8dd b020 	ldr.w	fp, [sp, #32]
   86978:	2500      	movs	r5, #0
   8697a:	f8bb 4000 	ldrh.w	r4, [fp]
   8697e:	f10b 0b04 	add.w	fp, fp, #4
   86982:	2301      	movs	r3, #1
   86984:	f8cd b020 	str.w	fp, [sp, #32]
   86988:	e6db      	b.n	86742 <_vfiprintf_r+0x222>
   8698a:	46ac      	mov	ip, r5
   8698c:	4d51      	ldr	r5, [pc, #324]	; (86ad4 <_vfiprintf_r+0x5b4>)
   8698e:	f01a 0f20 	tst.w	sl, #32
   86992:	9004      	str	r0, [sp, #16]
   86994:	f88d 1047 	strb.w	r1, [sp, #71]	; 0x47
   86998:	950a      	str	r5, [sp, #40]	; 0x28
   8699a:	f000 80f0 	beq.w	86b7e <_vfiprintf_r+0x65e>
   8699e:	9d08      	ldr	r5, [sp, #32]
   869a0:	1dea      	adds	r2, r5, #7
   869a2:	f022 0207 	bic.w	r2, r2, #7
   869a6:	f102 0b08 	add.w	fp, r2, #8
   869aa:	f8cd b020 	str.w	fp, [sp, #32]
   869ae:	e9d2 4500 	ldrd	r4, r5, [r2]
   869b2:	f01a 0f01 	tst.w	sl, #1
   869b6:	f000 82aa 	beq.w	86f0e <_vfiprintf_r+0x9ee>
   869ba:	ea54 0b05 	orrs.w	fp, r4, r5
   869be:	f000 82a6 	beq.w	86f0e <_vfiprintf_r+0x9ee>
   869c2:	2230      	movs	r2, #48	; 0x30
   869c4:	f88d 3049 	strb.w	r3, [sp, #73]	; 0x49
   869c8:	f04a 0a02 	orr.w	sl, sl, #2
   869cc:	f88d 2048 	strb.w	r2, [sp, #72]	; 0x48
   869d0:	2302      	movs	r3, #2
   869d2:	e6b6      	b.n	86742 <_vfiprintf_r+0x222>
   869d4:	9b08      	ldr	r3, [sp, #32]
   869d6:	f8dd b020 	ldr.w	fp, [sp, #32]
   869da:	681b      	ldr	r3, [r3, #0]
   869dc:	2401      	movs	r4, #1
   869de:	f04f 0500 	mov.w	r5, #0
   869e2:	f10b 0b04 	add.w	fp, fp, #4
   869e6:	9004      	str	r0, [sp, #16]
   869e8:	9403      	str	r4, [sp, #12]
   869ea:	f88d 5047 	strb.w	r5, [sp, #71]	; 0x47
   869ee:	f88d 3058 	strb.w	r3, [sp, #88]	; 0x58
   869f2:	f8cd b020 	str.w	fp, [sp, #32]
   869f6:	9405      	str	r4, [sp, #20]
   869f8:	af16      	add	r7, sp, #88	; 0x58
   869fa:	f04f 0c00 	mov.w	ip, #0
   869fe:	e6d0      	b.n	867a2 <_vfiprintf_r+0x282>
   86a00:	f01a 0f20 	tst.w	sl, #32
   86a04:	9004      	str	r0, [sp, #16]
   86a06:	46ac      	mov	ip, r5
   86a08:	f88d 1047 	strb.w	r1, [sp, #71]	; 0x47
   86a0c:	f47f af38 	bne.w	86880 <_vfiprintf_r+0x360>
   86a10:	f01a 0f10 	tst.w	sl, #16
   86a14:	f040 82a7 	bne.w	86f66 <_vfiprintf_r+0xa46>
   86a18:	f01a 0f40 	tst.w	sl, #64	; 0x40
   86a1c:	f000 82a3 	beq.w	86f66 <_vfiprintf_r+0xa46>
   86a20:	f8dd b020 	ldr.w	fp, [sp, #32]
   86a24:	f9bb 4000 	ldrsh.w	r4, [fp]
   86a28:	f10b 0b04 	add.w	fp, fp, #4
   86a2c:	17e5      	asrs	r5, r4, #31
   86a2e:	4622      	mov	r2, r4
   86a30:	462b      	mov	r3, r5
   86a32:	f8cd b020 	str.w	fp, [sp, #32]
   86a36:	e72d      	b.n	86894 <_vfiprintf_r+0x374>
   86a38:	f04a 0a40 	orr.w	sl, sl, #64	; 0x40
   86a3c:	f898 3000 	ldrb.w	r3, [r8]
   86a40:	e5db      	b.n	865fa <_vfiprintf_r+0xda>
   86a42:	f898 3000 	ldrb.w	r3, [r8]
   86a46:	4642      	mov	r2, r8
   86a48:	2b6c      	cmp	r3, #108	; 0x6c
   86a4a:	bf03      	ittte	eq
   86a4c:	f108 0801 	addeq.w	r8, r8, #1
   86a50:	f04a 0a20 	orreq.w	sl, sl, #32
   86a54:	7853      	ldrbeq	r3, [r2, #1]
   86a56:	f04a 0a10 	orrne.w	sl, sl, #16
   86a5a:	e5ce      	b.n	865fa <_vfiprintf_r+0xda>
   86a5c:	f01a 0f20 	tst.w	sl, #32
   86a60:	f88d 1047 	strb.w	r1, [sp, #71]	; 0x47
   86a64:	f000 82f7 	beq.w	87056 <_vfiprintf_r+0xb36>
   86a68:	9c08      	ldr	r4, [sp, #32]
   86a6a:	6821      	ldr	r1, [r4, #0]
   86a6c:	9c09      	ldr	r4, [sp, #36]	; 0x24
   86a6e:	17e5      	asrs	r5, r4, #31
   86a70:	462b      	mov	r3, r5
   86a72:	9d08      	ldr	r5, [sp, #32]
   86a74:	4622      	mov	r2, r4
   86a76:	3504      	adds	r5, #4
   86a78:	9508      	str	r5, [sp, #32]
   86a7a:	e9c1 2300 	strd	r2, r3, [r1]
   86a7e:	e582      	b.n	86586 <_vfiprintf_r+0x66>
   86a80:	9c08      	ldr	r4, [sp, #32]
   86a82:	46ac      	mov	ip, r5
   86a84:	6827      	ldr	r7, [r4, #0]
   86a86:	f04f 0500 	mov.w	r5, #0
   86a8a:	9004      	str	r0, [sp, #16]
   86a8c:	f88d 5047 	strb.w	r5, [sp, #71]	; 0x47
   86a90:	3404      	adds	r4, #4
   86a92:	2f00      	cmp	r7, #0
   86a94:	f000 8332 	beq.w	870fc <_vfiprintf_r+0xbdc>
   86a98:	f1bc 0f00 	cmp.w	ip, #0
   86a9c:	4638      	mov	r0, r7
   86a9e:	f2c0 8307 	blt.w	870b0 <_vfiprintf_r+0xb90>
   86aa2:	4662      	mov	r2, ip
   86aa4:	2100      	movs	r1, #0
   86aa6:	f8cd c004 	str.w	ip, [sp, #4]
   86aaa:	f002 fb6b 	bl	89184 <memchr>
   86aae:	f8dd c004 	ldr.w	ip, [sp, #4]
   86ab2:	2800      	cmp	r0, #0
   86ab4:	f000 833a 	beq.w	8712c <_vfiprintf_r+0xc0c>
   86ab8:	1bc0      	subs	r0, r0, r7
   86aba:	f89d 5047 	ldrb.w	r5, [sp, #71]	; 0x47
   86abe:	4560      	cmp	r0, ip
   86ac0:	bfa8      	it	ge
   86ac2:	4660      	movge	r0, ip
   86ac4:	9005      	str	r0, [sp, #20]
   86ac6:	9408      	str	r4, [sp, #32]
   86ac8:	9507      	str	r5, [sp, #28]
   86aca:	f04f 0c00 	mov.w	ip, #0
   86ace:	e65b      	b.n	86788 <_vfiprintf_r+0x268>
   86ad0:	0008aaf4 	.word	0x0008aaf4
   86ad4:	0008aaa0 	.word	0x0008aaa0
   86ad8:	9b08      	ldr	r3, [sp, #32]
   86ada:	f8dd b020 	ldr.w	fp, [sp, #32]
   86ade:	9004      	str	r0, [sp, #16]
   86ae0:	48b2      	ldr	r0, [pc, #712]	; (86dac <_vfiprintf_r+0x88c>)
   86ae2:	681c      	ldr	r4, [r3, #0]
   86ae4:	2230      	movs	r2, #48	; 0x30
   86ae6:	2378      	movs	r3, #120	; 0x78
   86ae8:	f10b 0b04 	add.w	fp, fp, #4
   86aec:	46ac      	mov	ip, r5
   86aee:	f88d 3049 	strb.w	r3, [sp, #73]	; 0x49
   86af2:	f04a 0a02 	orr.w	sl, sl, #2
   86af6:	f8cd b020 	str.w	fp, [sp, #32]
   86afa:	2500      	movs	r5, #0
   86afc:	f88d 2048 	strb.w	r2, [sp, #72]	; 0x48
   86b00:	900a      	str	r0, [sp, #40]	; 0x28
   86b02:	2302      	movs	r3, #2
   86b04:	e61d      	b.n	86742 <_vfiprintf_r+0x222>
   86b06:	f04a 0a20 	orr.w	sl, sl, #32
   86b0a:	f898 3000 	ldrb.w	r3, [r8]
   86b0e:	e574      	b.n	865fa <_vfiprintf_r+0xda>
   86b10:	f8dd b020 	ldr.w	fp, [sp, #32]
   86b14:	f8db 0000 	ldr.w	r0, [fp]
   86b18:	f10b 0304 	add.w	r3, fp, #4
   86b1c:	2800      	cmp	r0, #0
   86b1e:	f6ff adf7 	blt.w	86710 <_vfiprintf_r+0x1f0>
   86b22:	9308      	str	r3, [sp, #32]
   86b24:	f898 3000 	ldrb.w	r3, [r8]
   86b28:	e567      	b.n	865fa <_vfiprintf_r+0xda>
   86b2a:	f898 3000 	ldrb.w	r3, [r8]
   86b2e:	212b      	movs	r1, #43	; 0x2b
   86b30:	e563      	b.n	865fa <_vfiprintf_r+0xda>
   86b32:	f898 3000 	ldrb.w	r3, [r8]
   86b36:	f108 0401 	add.w	r4, r8, #1
   86b3a:	2b2a      	cmp	r3, #42	; 0x2a
   86b3c:	f000 8305 	beq.w	8714a <_vfiprintf_r+0xc2a>
   86b40:	f1a3 0230 	sub.w	r2, r3, #48	; 0x30
   86b44:	2a09      	cmp	r2, #9
   86b46:	bf98      	it	ls
   86b48:	2500      	movls	r5, #0
   86b4a:	f200 82fa 	bhi.w	87142 <_vfiprintf_r+0xc22>
   86b4e:	f814 3b01 	ldrb.w	r3, [r4], #1
   86b52:	eb05 0585 	add.w	r5, r5, r5, lsl #2
   86b56:	eb02 0545 	add.w	r5, r2, r5, lsl #1
   86b5a:	f1a3 0230 	sub.w	r2, r3, #48	; 0x30
   86b5e:	2a09      	cmp	r2, #9
   86b60:	d9f5      	bls.n	86b4e <_vfiprintf_r+0x62e>
   86b62:	ea45 75e5 	orr.w	r5, r5, r5, asr #31
   86b66:	46a0      	mov	r8, r4
   86b68:	e549      	b.n	865fe <_vfiprintf_r+0xde>
   86b6a:	4c90      	ldr	r4, [pc, #576]	; (86dac <_vfiprintf_r+0x88c>)
   86b6c:	f01a 0f20 	tst.w	sl, #32
   86b70:	9004      	str	r0, [sp, #16]
   86b72:	46ac      	mov	ip, r5
   86b74:	940a      	str	r4, [sp, #40]	; 0x28
   86b76:	f88d 1047 	strb.w	r1, [sp, #71]	; 0x47
   86b7a:	f47f af10 	bne.w	8699e <_vfiprintf_r+0x47e>
   86b7e:	f01a 0f10 	tst.w	sl, #16
   86b82:	f040 81ea 	bne.w	86f5a <_vfiprintf_r+0xa3a>
   86b86:	f01a 0f40 	tst.w	sl, #64	; 0x40
   86b8a:	f000 81e6 	beq.w	86f5a <_vfiprintf_r+0xa3a>
   86b8e:	f8dd b020 	ldr.w	fp, [sp, #32]
   86b92:	2500      	movs	r5, #0
   86b94:	f8bb 4000 	ldrh.w	r4, [fp]
   86b98:	f10b 0b04 	add.w	fp, fp, #4
   86b9c:	f8cd b020 	str.w	fp, [sp, #32]
   86ba0:	e707      	b.n	869b2 <_vfiprintf_r+0x492>
   86ba2:	f898 3000 	ldrb.w	r3, [r8]
   86ba6:	2900      	cmp	r1, #0
   86ba8:	f47f ad27 	bne.w	865fa <_vfiprintf_r+0xda>
   86bac:	2120      	movs	r1, #32
   86bae:	e524      	b.n	865fa <_vfiprintf_r+0xda>
   86bb0:	f04a 0a01 	orr.w	sl, sl, #1
   86bb4:	f898 3000 	ldrb.w	r3, [r8]
   86bb8:	e51f      	b.n	865fa <_vfiprintf_r+0xda>
   86bba:	9004      	str	r0, [sp, #16]
   86bbc:	f88d 1047 	strb.w	r1, [sp, #71]	; 0x47
   86bc0:	2b00      	cmp	r3, #0
   86bc2:	f000 80f9 	beq.w	86db8 <_vfiprintf_r+0x898>
   86bc6:	2501      	movs	r5, #1
   86bc8:	f04f 0b00 	mov.w	fp, #0
   86bcc:	9503      	str	r5, [sp, #12]
   86bce:	f88d 3058 	strb.w	r3, [sp, #88]	; 0x58
   86bd2:	f88d b047 	strb.w	fp, [sp, #71]	; 0x47
   86bd6:	9505      	str	r5, [sp, #20]
   86bd8:	af16      	add	r7, sp, #88	; 0x58
   86bda:	e70e      	b.n	869fa <_vfiprintf_r+0x4da>
   86bdc:	9806      	ldr	r0, [sp, #24]
   86bde:	9902      	ldr	r1, [sp, #8]
   86be0:	aa13      	add	r2, sp, #76	; 0x4c
   86be2:	f7ff fc61 	bl	864a8 <__sprint_r.part.0>
   86be6:	2800      	cmp	r0, #0
   86be8:	f040 80ed 	bne.w	86dc6 <_vfiprintf_r+0x8a6>
   86bec:	9814      	ldr	r0, [sp, #80]	; 0x50
   86bee:	9a15      	ldr	r2, [sp, #84]	; 0x54
   86bf0:	1c43      	adds	r3, r0, #1
   86bf2:	46cc      	mov	ip, r9
   86bf4:	e5fe      	b.n	867f4 <_vfiprintf_r+0x2d4>
   86bf6:	9b14      	ldr	r3, [sp, #80]	; 0x50
   86bf8:	9a15      	ldr	r2, [sp, #84]	; 0x54
   86bfa:	1c59      	adds	r1, r3, #1
   86bfc:	f89d 0047 	ldrb.w	r0, [sp, #71]	; 0x47
   86c00:	b168      	cbz	r0, 86c1e <_vfiprintf_r+0x6fe>
   86c02:	3201      	adds	r2, #1
   86c04:	f10d 0047 	add.w	r0, sp, #71	; 0x47
   86c08:	2301      	movs	r3, #1
   86c0a:	2907      	cmp	r1, #7
   86c0c:	9215      	str	r2, [sp, #84]	; 0x54
   86c0e:	9114      	str	r1, [sp, #80]	; 0x50
   86c10:	e886 0009 	stmia.w	r6, {r0, r3}
   86c14:	f300 8160 	bgt.w	86ed8 <_vfiprintf_r+0x9b8>
   86c18:	460b      	mov	r3, r1
   86c1a:	3608      	adds	r6, #8
   86c1c:	3101      	adds	r1, #1
   86c1e:	9c07      	ldr	r4, [sp, #28]
   86c20:	b164      	cbz	r4, 86c3c <_vfiprintf_r+0x71c>
   86c22:	3202      	adds	r2, #2
   86c24:	a812      	add	r0, sp, #72	; 0x48
   86c26:	2302      	movs	r3, #2
   86c28:	2907      	cmp	r1, #7
   86c2a:	9215      	str	r2, [sp, #84]	; 0x54
   86c2c:	9114      	str	r1, [sp, #80]	; 0x50
   86c2e:	e886 0009 	stmia.w	r6, {r0, r3}
   86c32:	f300 8157 	bgt.w	86ee4 <_vfiprintf_r+0x9c4>
   86c36:	460b      	mov	r3, r1
   86c38:	3608      	adds	r6, #8
   86c3a:	3101      	adds	r1, #1
   86c3c:	9d0b      	ldr	r5, [sp, #44]	; 0x2c
   86c3e:	2d80      	cmp	r5, #128	; 0x80
   86c40:	f000 8101 	beq.w	86e46 <_vfiprintf_r+0x926>
   86c44:	9d05      	ldr	r5, [sp, #20]
   86c46:	ebc5 040c 	rsb	r4, r5, ip
   86c4a:	2c00      	cmp	r4, #0
   86c4c:	dd2f      	ble.n	86cae <_vfiprintf_r+0x78e>
   86c4e:	2c10      	cmp	r4, #16
   86c50:	4d57      	ldr	r5, [pc, #348]	; (86db0 <_vfiprintf_r+0x890>)
   86c52:	dd22      	ble.n	86c9a <_vfiprintf_r+0x77a>
   86c54:	4630      	mov	r0, r6
   86c56:	f04f 0b10 	mov.w	fp, #16
   86c5a:	462e      	mov	r6, r5
   86c5c:	4625      	mov	r5, r4
   86c5e:	9c06      	ldr	r4, [sp, #24]
   86c60:	e006      	b.n	86c70 <_vfiprintf_r+0x750>
   86c62:	f103 0c02 	add.w	ip, r3, #2
   86c66:	3008      	adds	r0, #8
   86c68:	460b      	mov	r3, r1
   86c6a:	3d10      	subs	r5, #16
   86c6c:	2d10      	cmp	r5, #16
   86c6e:	dd10      	ble.n	86c92 <_vfiprintf_r+0x772>
   86c70:	1c59      	adds	r1, r3, #1
   86c72:	3210      	adds	r2, #16
   86c74:	2907      	cmp	r1, #7
   86c76:	9215      	str	r2, [sp, #84]	; 0x54
   86c78:	e880 0840 	stmia.w	r0, {r6, fp}
   86c7c:	9114      	str	r1, [sp, #80]	; 0x50
   86c7e:	ddf0      	ble.n	86c62 <_vfiprintf_r+0x742>
   86c80:	2a00      	cmp	r2, #0
   86c82:	d163      	bne.n	86d4c <_vfiprintf_r+0x82c>
   86c84:	3d10      	subs	r5, #16
   86c86:	2d10      	cmp	r5, #16
   86c88:	f04f 0c01 	mov.w	ip, #1
   86c8c:	4613      	mov	r3, r2
   86c8e:	4648      	mov	r0, r9
   86c90:	dcee      	bgt.n	86c70 <_vfiprintf_r+0x750>
   86c92:	462c      	mov	r4, r5
   86c94:	4661      	mov	r1, ip
   86c96:	4635      	mov	r5, r6
   86c98:	4606      	mov	r6, r0
   86c9a:	4422      	add	r2, r4
   86c9c:	2907      	cmp	r1, #7
   86c9e:	9215      	str	r2, [sp, #84]	; 0x54
   86ca0:	6035      	str	r5, [r6, #0]
   86ca2:	6074      	str	r4, [r6, #4]
   86ca4:	9114      	str	r1, [sp, #80]	; 0x50
   86ca6:	f300 80c1 	bgt.w	86e2c <_vfiprintf_r+0x90c>
   86caa:	3608      	adds	r6, #8
   86cac:	3101      	adds	r1, #1
   86cae:	9d05      	ldr	r5, [sp, #20]
   86cb0:	2907      	cmp	r1, #7
   86cb2:	442a      	add	r2, r5
   86cb4:	9215      	str	r2, [sp, #84]	; 0x54
   86cb6:	6037      	str	r7, [r6, #0]
   86cb8:	6075      	str	r5, [r6, #4]
   86cba:	9114      	str	r1, [sp, #80]	; 0x50
   86cbc:	f340 80c1 	ble.w	86e42 <_vfiprintf_r+0x922>
   86cc0:	2a00      	cmp	r2, #0
   86cc2:	f040 8130 	bne.w	86f26 <_vfiprintf_r+0xa06>
   86cc6:	9214      	str	r2, [sp, #80]	; 0x50
   86cc8:	464e      	mov	r6, r9
   86cca:	f01a 0f04 	tst.w	sl, #4
   86cce:	f000 808b 	beq.w	86de8 <_vfiprintf_r+0x8c8>
   86cd2:	9d04      	ldr	r5, [sp, #16]
   86cd4:	f8dd b00c 	ldr.w	fp, [sp, #12]
   86cd8:	ebcb 0405 	rsb	r4, fp, r5
   86cdc:	2c00      	cmp	r4, #0
   86cde:	f340 8083 	ble.w	86de8 <_vfiprintf_r+0x8c8>
   86ce2:	2c10      	cmp	r4, #16
   86ce4:	f340 821e 	ble.w	87124 <_vfiprintf_r+0xc04>
   86ce8:	9914      	ldr	r1, [sp, #80]	; 0x50
   86cea:	4d32      	ldr	r5, [pc, #200]	; (86db4 <_vfiprintf_r+0x894>)
   86cec:	2710      	movs	r7, #16
   86cee:	f8dd a018 	ldr.w	sl, [sp, #24]
   86cf2:	f8dd b008 	ldr.w	fp, [sp, #8]
   86cf6:	e005      	b.n	86d04 <_vfiprintf_r+0x7e4>
   86cf8:	1c88      	adds	r0, r1, #2
   86cfa:	3608      	adds	r6, #8
   86cfc:	4619      	mov	r1, r3
   86cfe:	3c10      	subs	r4, #16
   86d00:	2c10      	cmp	r4, #16
   86d02:	dd10      	ble.n	86d26 <_vfiprintf_r+0x806>
   86d04:	1c4b      	adds	r3, r1, #1
   86d06:	3210      	adds	r2, #16
   86d08:	2b07      	cmp	r3, #7
   86d0a:	9215      	str	r2, [sp, #84]	; 0x54
   86d0c:	e886 00a0 	stmia.w	r6, {r5, r7}
   86d10:	9314      	str	r3, [sp, #80]	; 0x50
   86d12:	ddf1      	ble.n	86cf8 <_vfiprintf_r+0x7d8>
   86d14:	2a00      	cmp	r2, #0
   86d16:	d17d      	bne.n	86e14 <_vfiprintf_r+0x8f4>
   86d18:	3c10      	subs	r4, #16
   86d1a:	2c10      	cmp	r4, #16
   86d1c:	f04f 0001 	mov.w	r0, #1
   86d20:	4611      	mov	r1, r2
   86d22:	464e      	mov	r6, r9
   86d24:	dcee      	bgt.n	86d04 <_vfiprintf_r+0x7e4>
   86d26:	4422      	add	r2, r4
   86d28:	2807      	cmp	r0, #7
   86d2a:	9215      	str	r2, [sp, #84]	; 0x54
   86d2c:	6035      	str	r5, [r6, #0]
   86d2e:	6074      	str	r4, [r6, #4]
   86d30:	9014      	str	r0, [sp, #80]	; 0x50
   86d32:	dd59      	ble.n	86de8 <_vfiprintf_r+0x8c8>
   86d34:	2a00      	cmp	r2, #0
   86d36:	d14f      	bne.n	86dd8 <_vfiprintf_r+0x8b8>
   86d38:	9c09      	ldr	r4, [sp, #36]	; 0x24
   86d3a:	f8dd b00c 	ldr.w	fp, [sp, #12]
   86d3e:	9d04      	ldr	r5, [sp, #16]
   86d40:	45ab      	cmp	fp, r5
   86d42:	bfac      	ite	ge
   86d44:	445c      	addge	r4, fp
   86d46:	1964      	addlt	r4, r4, r5
   86d48:	9409      	str	r4, [sp, #36]	; 0x24
   86d4a:	e05e      	b.n	86e0a <_vfiprintf_r+0x8ea>
   86d4c:	4620      	mov	r0, r4
   86d4e:	9902      	ldr	r1, [sp, #8]
   86d50:	aa13      	add	r2, sp, #76	; 0x4c
   86d52:	f7ff fba9 	bl	864a8 <__sprint_r.part.0>
   86d56:	2800      	cmp	r0, #0
   86d58:	d135      	bne.n	86dc6 <_vfiprintf_r+0x8a6>
   86d5a:	9b14      	ldr	r3, [sp, #80]	; 0x50
   86d5c:	9a15      	ldr	r2, [sp, #84]	; 0x54
   86d5e:	f103 0c01 	add.w	ip, r3, #1
   86d62:	4648      	mov	r0, r9
   86d64:	e781      	b.n	86c6a <_vfiprintf_r+0x74a>
   86d66:	08e0      	lsrs	r0, r4, #3
   86d68:	ea40 7045 	orr.w	r0, r0, r5, lsl #29
   86d6c:	f004 0207 	and.w	r2, r4, #7
   86d70:	08e9      	lsrs	r1, r5, #3
   86d72:	3230      	adds	r2, #48	; 0x30
   86d74:	ea50 0b01 	orrs.w	fp, r0, r1
   86d78:	461f      	mov	r7, r3
   86d7a:	701a      	strb	r2, [r3, #0]
   86d7c:	4604      	mov	r4, r0
   86d7e:	460d      	mov	r5, r1
   86d80:	f103 33ff 	add.w	r3, r3, #4294967295
   86d84:	d1ef      	bne.n	86d66 <_vfiprintf_r+0x846>
   86d86:	f01a 0f01 	tst.w	sl, #1
   86d8a:	e9cd 010c 	strd	r0, r1, [sp, #48]	; 0x30
   86d8e:	4639      	mov	r1, r7
   86d90:	f000 80b9 	beq.w	86f06 <_vfiprintf_r+0x9e6>
   86d94:	2a30      	cmp	r2, #48	; 0x30
   86d96:	f43f acf4 	beq.w	86782 <_vfiprintf_r+0x262>
   86d9a:	461f      	mov	r7, r3
   86d9c:	ebc7 0509 	rsb	r5, r7, r9
   86da0:	2330      	movs	r3, #48	; 0x30
   86da2:	9505      	str	r5, [sp, #20]
   86da4:	f801 3c01 	strb.w	r3, [r1, #-1]
   86da8:	e4ee      	b.n	86788 <_vfiprintf_r+0x268>
   86daa:	bf00      	nop
   86dac:	0008aab4 	.word	0x0008aab4
   86db0:	0008aae4 	.word	0x0008aae4
   86db4:	0008aaf4 	.word	0x0008aaf4
   86db8:	9b15      	ldr	r3, [sp, #84]	; 0x54
   86dba:	b123      	cbz	r3, 86dc6 <_vfiprintf_r+0x8a6>
   86dbc:	9806      	ldr	r0, [sp, #24]
   86dbe:	9902      	ldr	r1, [sp, #8]
   86dc0:	aa13      	add	r2, sp, #76	; 0x4c
   86dc2:	f7ff fb71 	bl	864a8 <__sprint_r.part.0>
   86dc6:	9c02      	ldr	r4, [sp, #8]
   86dc8:	89a3      	ldrh	r3, [r4, #12]
   86dca:	065b      	lsls	r3, r3, #25
   86dcc:	f53f ac98 	bmi.w	86700 <_vfiprintf_r+0x1e0>
   86dd0:	9809      	ldr	r0, [sp, #36]	; 0x24
   86dd2:	b031      	add	sp, #196	; 0xc4
   86dd4:	e8bd 8ff0 	ldmia.w	sp!, {r4, r5, r6, r7, r8, r9, sl, fp, pc}
   86dd8:	9806      	ldr	r0, [sp, #24]
   86dda:	9902      	ldr	r1, [sp, #8]
   86ddc:	aa13      	add	r2, sp, #76	; 0x4c
   86dde:	f7ff fb63 	bl	864a8 <__sprint_r.part.0>
   86de2:	2800      	cmp	r0, #0
   86de4:	d1ef      	bne.n	86dc6 <_vfiprintf_r+0x8a6>
   86de6:	9a15      	ldr	r2, [sp, #84]	; 0x54
   86de8:	9c09      	ldr	r4, [sp, #36]	; 0x24
   86dea:	f8dd b00c 	ldr.w	fp, [sp, #12]
   86dee:	9d04      	ldr	r5, [sp, #16]
   86df0:	45ab      	cmp	fp, r5
   86df2:	bfac      	ite	ge
   86df4:	445c      	addge	r4, fp
   86df6:	1964      	addlt	r4, r4, r5
   86df8:	9409      	str	r4, [sp, #36]	; 0x24
   86dfa:	b132      	cbz	r2, 86e0a <_vfiprintf_r+0x8ea>
   86dfc:	9806      	ldr	r0, [sp, #24]
   86dfe:	9902      	ldr	r1, [sp, #8]
   86e00:	aa13      	add	r2, sp, #76	; 0x4c
   86e02:	f7ff fb51 	bl	864a8 <__sprint_r.part.0>
   86e06:	2800      	cmp	r0, #0
   86e08:	d1dd      	bne.n	86dc6 <_vfiprintf_r+0x8a6>
   86e0a:	2000      	movs	r0, #0
   86e0c:	9014      	str	r0, [sp, #80]	; 0x50
   86e0e:	464e      	mov	r6, r9
   86e10:	f7ff bbb9 	b.w	86586 <_vfiprintf_r+0x66>
   86e14:	4650      	mov	r0, sl
   86e16:	4659      	mov	r1, fp
   86e18:	aa13      	add	r2, sp, #76	; 0x4c
   86e1a:	f7ff fb45 	bl	864a8 <__sprint_r.part.0>
   86e1e:	2800      	cmp	r0, #0
   86e20:	d1d1      	bne.n	86dc6 <_vfiprintf_r+0x8a6>
   86e22:	9914      	ldr	r1, [sp, #80]	; 0x50
   86e24:	9a15      	ldr	r2, [sp, #84]	; 0x54
   86e26:	1c48      	adds	r0, r1, #1
   86e28:	464e      	mov	r6, r9
   86e2a:	e768      	b.n	86cfe <_vfiprintf_r+0x7de>
   86e2c:	2a00      	cmp	r2, #0
   86e2e:	f040 80f7 	bne.w	87020 <_vfiprintf_r+0xb00>
   86e32:	9c05      	ldr	r4, [sp, #20]
   86e34:	2301      	movs	r3, #1
   86e36:	9720      	str	r7, [sp, #128]	; 0x80
   86e38:	9421      	str	r4, [sp, #132]	; 0x84
   86e3a:	9415      	str	r4, [sp, #84]	; 0x54
   86e3c:	4622      	mov	r2, r4
   86e3e:	9314      	str	r3, [sp, #80]	; 0x50
   86e40:	464e      	mov	r6, r9
   86e42:	3608      	adds	r6, #8
   86e44:	e741      	b.n	86cca <_vfiprintf_r+0x7aa>
   86e46:	9d04      	ldr	r5, [sp, #16]
   86e48:	f8dd b00c 	ldr.w	fp, [sp, #12]
   86e4c:	ebcb 0405 	rsb	r4, fp, r5
   86e50:	2c00      	cmp	r4, #0
   86e52:	f77f aef7 	ble.w	86c44 <_vfiprintf_r+0x724>
   86e56:	2c10      	cmp	r4, #16
   86e58:	4da6      	ldr	r5, [pc, #664]	; (870f4 <_vfiprintf_r+0xbd4>)
   86e5a:	f340 8170 	ble.w	8713e <_vfiprintf_r+0xc1e>
   86e5e:	4629      	mov	r1, r5
   86e60:	f04f 0b10 	mov.w	fp, #16
   86e64:	4625      	mov	r5, r4
   86e66:	4664      	mov	r4, ip
   86e68:	46b4      	mov	ip, r6
   86e6a:	460e      	mov	r6, r1
   86e6c:	e006      	b.n	86e7c <_vfiprintf_r+0x95c>
   86e6e:	1c98      	adds	r0, r3, #2
   86e70:	f10c 0c08 	add.w	ip, ip, #8
   86e74:	460b      	mov	r3, r1
   86e76:	3d10      	subs	r5, #16
   86e78:	2d10      	cmp	r5, #16
   86e7a:	dd0f      	ble.n	86e9c <_vfiprintf_r+0x97c>
   86e7c:	1c59      	adds	r1, r3, #1
   86e7e:	3210      	adds	r2, #16
   86e80:	2907      	cmp	r1, #7
   86e82:	9215      	str	r2, [sp, #84]	; 0x54
   86e84:	e88c 0840 	stmia.w	ip, {r6, fp}
   86e88:	9114      	str	r1, [sp, #80]	; 0x50
   86e8a:	ddf0      	ble.n	86e6e <_vfiprintf_r+0x94e>
   86e8c:	b9ba      	cbnz	r2, 86ebe <_vfiprintf_r+0x99e>
   86e8e:	3d10      	subs	r5, #16
   86e90:	2d10      	cmp	r5, #16
   86e92:	f04f 0001 	mov.w	r0, #1
   86e96:	4613      	mov	r3, r2
   86e98:	46cc      	mov	ip, r9
   86e9a:	dcef      	bgt.n	86e7c <_vfiprintf_r+0x95c>
   86e9c:	4633      	mov	r3, r6
   86e9e:	4666      	mov	r6, ip
   86ea0:	46a4      	mov	ip, r4
   86ea2:	462c      	mov	r4, r5
   86ea4:	461d      	mov	r5, r3
   86ea6:	4422      	add	r2, r4
   86ea8:	2807      	cmp	r0, #7
   86eaa:	9215      	str	r2, [sp, #84]	; 0x54
   86eac:	6035      	str	r5, [r6, #0]
   86eae:	6074      	str	r4, [r6, #4]
   86eb0:	9014      	str	r0, [sp, #80]	; 0x50
   86eb2:	f300 80af 	bgt.w	87014 <_vfiprintf_r+0xaf4>
   86eb6:	3608      	adds	r6, #8
   86eb8:	1c41      	adds	r1, r0, #1
   86eba:	4603      	mov	r3, r0
   86ebc:	e6c2      	b.n	86c44 <_vfiprintf_r+0x724>
   86ebe:	9806      	ldr	r0, [sp, #24]
   86ec0:	9902      	ldr	r1, [sp, #8]
   86ec2:	aa13      	add	r2, sp, #76	; 0x4c
   86ec4:	f7ff faf0 	bl	864a8 <__sprint_r.part.0>
   86ec8:	2800      	cmp	r0, #0
   86eca:	f47f af7c 	bne.w	86dc6 <_vfiprintf_r+0x8a6>
   86ece:	9b14      	ldr	r3, [sp, #80]	; 0x50
   86ed0:	9a15      	ldr	r2, [sp, #84]	; 0x54
   86ed2:	1c58      	adds	r0, r3, #1
   86ed4:	46cc      	mov	ip, r9
   86ed6:	e7ce      	b.n	86e76 <_vfiprintf_r+0x956>
   86ed8:	2a00      	cmp	r2, #0
   86eda:	d179      	bne.n	86fd0 <_vfiprintf_r+0xab0>
   86edc:	4619      	mov	r1, r3
   86ede:	464e      	mov	r6, r9
   86ee0:	4613      	mov	r3, r2
   86ee2:	e69c      	b.n	86c1e <_vfiprintf_r+0x6fe>
   86ee4:	2a00      	cmp	r2, #0
   86ee6:	f040 8084 	bne.w	86ff2 <_vfiprintf_r+0xad2>
   86eea:	2101      	movs	r1, #1
   86eec:	4613      	mov	r3, r2
   86eee:	464e      	mov	r6, r9
   86ef0:	e6a4      	b.n	86c3c <_vfiprintf_r+0x71c>
   86ef2:	464f      	mov	r7, r9
   86ef4:	e448      	b.n	86788 <_vfiprintf_r+0x268>
   86ef6:	2d00      	cmp	r5, #0
   86ef8:	bf08      	it	eq
   86efa:	2c0a      	cmpeq	r4, #10
   86efc:	d246      	bcs.n	86f8c <_vfiprintf_r+0xa6c>
   86efe:	3430      	adds	r4, #48	; 0x30
   86f00:	af30      	add	r7, sp, #192	; 0xc0
   86f02:	f807 4d41 	strb.w	r4, [r7, #-65]!
   86f06:	ebc7 0309 	rsb	r3, r7, r9
   86f0a:	9305      	str	r3, [sp, #20]
   86f0c:	e43c      	b.n	86788 <_vfiprintf_r+0x268>
   86f0e:	2302      	movs	r3, #2
   86f10:	e417      	b.n	86742 <_vfiprintf_r+0x222>
   86f12:	2a00      	cmp	r2, #0
   86f14:	f040 80af 	bne.w	87076 <_vfiprintf_r+0xb56>
   86f18:	4613      	mov	r3, r2
   86f1a:	2101      	movs	r1, #1
   86f1c:	464e      	mov	r6, r9
   86f1e:	e66d      	b.n	86bfc <_vfiprintf_r+0x6dc>
   86f20:	4644      	mov	r4, r8
   86f22:	f7ff bb58 	b.w	865d6 <_vfiprintf_r+0xb6>
   86f26:	9806      	ldr	r0, [sp, #24]
   86f28:	9902      	ldr	r1, [sp, #8]
   86f2a:	aa13      	add	r2, sp, #76	; 0x4c
   86f2c:	f7ff fabc 	bl	864a8 <__sprint_r.part.0>
   86f30:	2800      	cmp	r0, #0
   86f32:	f47f af48 	bne.w	86dc6 <_vfiprintf_r+0x8a6>
   86f36:	9a15      	ldr	r2, [sp, #84]	; 0x54
   86f38:	464e      	mov	r6, r9
   86f3a:	e6c6      	b.n	86cca <_vfiprintf_r+0x7aa>
   86f3c:	9d08      	ldr	r5, [sp, #32]
   86f3e:	682c      	ldr	r4, [r5, #0]
   86f40:	3504      	adds	r5, #4
   86f42:	9508      	str	r5, [sp, #32]
   86f44:	2500      	movs	r5, #0
   86f46:	f7ff bbfc 	b.w	86742 <_vfiprintf_r+0x222>
   86f4a:	9d08      	ldr	r5, [sp, #32]
   86f4c:	2301      	movs	r3, #1
   86f4e:	682c      	ldr	r4, [r5, #0]
   86f50:	3504      	adds	r5, #4
   86f52:	9508      	str	r5, [sp, #32]
   86f54:	2500      	movs	r5, #0
   86f56:	f7ff bbf4 	b.w	86742 <_vfiprintf_r+0x222>
   86f5a:	9d08      	ldr	r5, [sp, #32]
   86f5c:	682c      	ldr	r4, [r5, #0]
   86f5e:	3504      	adds	r5, #4
   86f60:	9508      	str	r5, [sp, #32]
   86f62:	2500      	movs	r5, #0
   86f64:	e525      	b.n	869b2 <_vfiprintf_r+0x492>
   86f66:	9d08      	ldr	r5, [sp, #32]
   86f68:	682c      	ldr	r4, [r5, #0]
   86f6a:	3504      	adds	r5, #4
   86f6c:	9508      	str	r5, [sp, #32]
   86f6e:	17e5      	asrs	r5, r4, #31
   86f70:	4622      	mov	r2, r4
   86f72:	462b      	mov	r3, r5
   86f74:	e48e      	b.n	86894 <_vfiprintf_r+0x374>
   86f76:	9806      	ldr	r0, [sp, #24]
   86f78:	9902      	ldr	r1, [sp, #8]
   86f7a:	aa13      	add	r2, sp, #76	; 0x4c
   86f7c:	f7ff fa94 	bl	864a8 <__sprint_r.part.0>
   86f80:	2800      	cmp	r0, #0
   86f82:	f47f af20 	bne.w	86dc6 <_vfiprintf_r+0x8a6>
   86f86:	464e      	mov	r6, r9
   86f88:	f7ff bb9a 	b.w	866c0 <_vfiprintf_r+0x1a0>
   86f8c:	f10d 0b7f 	add.w	fp, sp, #127	; 0x7f
   86f90:	9603      	str	r6, [sp, #12]
   86f92:	465e      	mov	r6, fp
   86f94:	46e3      	mov	fp, ip
   86f96:	4620      	mov	r0, r4
   86f98:	4629      	mov	r1, r5
   86f9a:	220a      	movs	r2, #10
   86f9c:	2300      	movs	r3, #0
   86f9e:	f003 f92d 	bl	8a1fc <__aeabi_uldivmod>
   86fa2:	3230      	adds	r2, #48	; 0x30
   86fa4:	7032      	strb	r2, [r6, #0]
   86fa6:	4620      	mov	r0, r4
   86fa8:	4629      	mov	r1, r5
   86faa:	220a      	movs	r2, #10
   86fac:	2300      	movs	r3, #0
   86fae:	f003 f925 	bl	8a1fc <__aeabi_uldivmod>
   86fb2:	4604      	mov	r4, r0
   86fb4:	460d      	mov	r5, r1
   86fb6:	ea54 0005 	orrs.w	r0, r4, r5
   86fba:	4637      	mov	r7, r6
   86fbc:	f106 36ff 	add.w	r6, r6, #4294967295
   86fc0:	d1e9      	bne.n	86f96 <_vfiprintf_r+0xa76>
   86fc2:	ebc7 0309 	rsb	r3, r7, r9
   86fc6:	46dc      	mov	ip, fp
   86fc8:	9e03      	ldr	r6, [sp, #12]
   86fca:	9305      	str	r3, [sp, #20]
   86fcc:	f7ff bbdc 	b.w	86788 <_vfiprintf_r+0x268>
   86fd0:	9806      	ldr	r0, [sp, #24]
   86fd2:	9902      	ldr	r1, [sp, #8]
   86fd4:	aa13      	add	r2, sp, #76	; 0x4c
   86fd6:	f8cd c004 	str.w	ip, [sp, #4]
   86fda:	f7ff fa65 	bl	864a8 <__sprint_r.part.0>
   86fde:	f8dd c004 	ldr.w	ip, [sp, #4]
   86fe2:	2800      	cmp	r0, #0
   86fe4:	f47f aeef 	bne.w	86dc6 <_vfiprintf_r+0x8a6>
   86fe8:	9b14      	ldr	r3, [sp, #80]	; 0x50
   86fea:	9a15      	ldr	r2, [sp, #84]	; 0x54
   86fec:	1c59      	adds	r1, r3, #1
   86fee:	464e      	mov	r6, r9
   86ff0:	e615      	b.n	86c1e <_vfiprintf_r+0x6fe>
   86ff2:	9806      	ldr	r0, [sp, #24]
   86ff4:	9902      	ldr	r1, [sp, #8]
   86ff6:	aa13      	add	r2, sp, #76	; 0x4c
   86ff8:	f8cd c004 	str.w	ip, [sp, #4]
   86ffc:	f7ff fa54 	bl	864a8 <__sprint_r.part.0>
   87000:	f8dd c004 	ldr.w	ip, [sp, #4]
   87004:	2800      	cmp	r0, #0
   87006:	f47f aede 	bne.w	86dc6 <_vfiprintf_r+0x8a6>
   8700a:	9b14      	ldr	r3, [sp, #80]	; 0x50
   8700c:	9a15      	ldr	r2, [sp, #84]	; 0x54
   8700e:	1c59      	adds	r1, r3, #1
   87010:	464e      	mov	r6, r9
   87012:	e613      	b.n	86c3c <_vfiprintf_r+0x71c>
   87014:	2a00      	cmp	r2, #0
   87016:	d156      	bne.n	870c6 <_vfiprintf_r+0xba6>
   87018:	2101      	movs	r1, #1
   8701a:	4613      	mov	r3, r2
   8701c:	464e      	mov	r6, r9
   8701e:	e611      	b.n	86c44 <_vfiprintf_r+0x724>
   87020:	9806      	ldr	r0, [sp, #24]
   87022:	9902      	ldr	r1, [sp, #8]
   87024:	aa13      	add	r2, sp, #76	; 0x4c
   87026:	f7ff fa3f 	bl	864a8 <__sprint_r.part.0>
   8702a:	2800      	cmp	r0, #0
   8702c:	f47f aecb 	bne.w	86dc6 <_vfiprintf_r+0x8a6>
   87030:	9914      	ldr	r1, [sp, #80]	; 0x50
   87032:	9a15      	ldr	r2, [sp, #84]	; 0x54
   87034:	3101      	adds	r1, #1
   87036:	464e      	mov	r6, r9
   87038:	e639      	b.n	86cae <_vfiprintf_r+0x78e>
   8703a:	f04f 0b2d 	mov.w	fp, #45	; 0x2d
   8703e:	4264      	negs	r4, r4
   87040:	eb65 0545 	sbc.w	r5, r5, r5, lsl #1
   87044:	f88d b047 	strb.w	fp, [sp, #71]	; 0x47
   87048:	f8cd b01c 	str.w	fp, [sp, #28]
   8704c:	f8cd c014 	str.w	ip, [sp, #20]
   87050:	2301      	movs	r3, #1
   87052:	f7ff bb7e 	b.w	86752 <_vfiprintf_r+0x232>
   87056:	f01a 0f10 	tst.w	sl, #16
   8705a:	d11d      	bne.n	87098 <_vfiprintf_r+0xb78>
   8705c:	f01a 0f40 	tst.w	sl, #64	; 0x40
   87060:	d058      	beq.n	87114 <_vfiprintf_r+0xbf4>
   87062:	9d08      	ldr	r5, [sp, #32]
   87064:	f8dd b024 	ldr.w	fp, [sp, #36]	; 0x24
   87068:	682b      	ldr	r3, [r5, #0]
   8706a:	3504      	adds	r5, #4
   8706c:	9508      	str	r5, [sp, #32]
   8706e:	f8a3 b000 	strh.w	fp, [r3]
   87072:	f7ff ba88 	b.w	86586 <_vfiprintf_r+0x66>
   87076:	9806      	ldr	r0, [sp, #24]
   87078:	9902      	ldr	r1, [sp, #8]
   8707a:	aa13      	add	r2, sp, #76	; 0x4c
   8707c:	f8cd c004 	str.w	ip, [sp, #4]
   87080:	f7ff fa12 	bl	864a8 <__sprint_r.part.0>
   87084:	f8dd c004 	ldr.w	ip, [sp, #4]
   87088:	2800      	cmp	r0, #0
   8708a:	f47f ae9c 	bne.w	86dc6 <_vfiprintf_r+0x8a6>
   8708e:	9b14      	ldr	r3, [sp, #80]	; 0x50
   87090:	9a15      	ldr	r2, [sp, #84]	; 0x54
   87092:	1c59      	adds	r1, r3, #1
   87094:	464e      	mov	r6, r9
   87096:	e5b1      	b.n	86bfc <_vfiprintf_r+0x6dc>
   87098:	f8dd b020 	ldr.w	fp, [sp, #32]
   8709c:	9c09      	ldr	r4, [sp, #36]	; 0x24
   8709e:	f8db 3000 	ldr.w	r3, [fp]
   870a2:	f10b 0b04 	add.w	fp, fp, #4
   870a6:	f8cd b020 	str.w	fp, [sp, #32]
   870aa:	601c      	str	r4, [r3, #0]
   870ac:	f7ff ba6b 	b.w	86586 <_vfiprintf_r+0x66>
   870b0:	9408      	str	r4, [sp, #32]
   870b2:	f7fd ff27 	bl	84f04 <strlen>
   870b6:	f89d 4047 	ldrb.w	r4, [sp, #71]	; 0x47
   870ba:	9005      	str	r0, [sp, #20]
   870bc:	9407      	str	r4, [sp, #28]
   870be:	f04f 0c00 	mov.w	ip, #0
   870c2:	f7ff bb61 	b.w	86788 <_vfiprintf_r+0x268>
   870c6:	9806      	ldr	r0, [sp, #24]
   870c8:	9902      	ldr	r1, [sp, #8]
   870ca:	aa13      	add	r2, sp, #76	; 0x4c
   870cc:	f8cd c004 	str.w	ip, [sp, #4]
   870d0:	f7ff f9ea 	bl	864a8 <__sprint_r.part.0>
   870d4:	f8dd c004 	ldr.w	ip, [sp, #4]
   870d8:	2800      	cmp	r0, #0
   870da:	f47f ae74 	bne.w	86dc6 <_vfiprintf_r+0x8a6>
   870de:	9b14      	ldr	r3, [sp, #80]	; 0x50
   870e0:	9a15      	ldr	r2, [sp, #84]	; 0x54
   870e2:	1c59      	adds	r1, r3, #1
   870e4:	464e      	mov	r6, r9
   870e6:	e5ad      	b.n	86c44 <_vfiprintf_r+0x724>
   870e8:	9b14      	ldr	r3, [sp, #80]	; 0x50
   870ea:	9a15      	ldr	r2, [sp, #84]	; 0x54
   870ec:	3301      	adds	r3, #1
   870ee:	4d02      	ldr	r5, [pc, #8]	; (870f8 <_vfiprintf_r+0xbd8>)
   870f0:	f7ff bb9a 	b.w	86828 <_vfiprintf_r+0x308>
   870f4:	0008aae4 	.word	0x0008aae4
   870f8:	0008aaf4 	.word	0x0008aaf4
   870fc:	f1bc 0f06 	cmp.w	ip, #6
   87100:	bf34      	ite	cc
   87102:	4663      	movcc	r3, ip
   87104:	2306      	movcs	r3, #6
   87106:	9408      	str	r4, [sp, #32]
   87108:	ea23 74e3 	bic.w	r4, r3, r3, asr #31
   8710c:	9305      	str	r3, [sp, #20]
   8710e:	9403      	str	r4, [sp, #12]
   87110:	4f16      	ldr	r7, [pc, #88]	; (8716c <_vfiprintf_r+0xc4c>)
   87112:	e472      	b.n	869fa <_vfiprintf_r+0x4da>
   87114:	9c08      	ldr	r4, [sp, #32]
   87116:	9d09      	ldr	r5, [sp, #36]	; 0x24
   87118:	6823      	ldr	r3, [r4, #0]
   8711a:	3404      	adds	r4, #4
   8711c:	9408      	str	r4, [sp, #32]
   8711e:	601d      	str	r5, [r3, #0]
   87120:	f7ff ba31 	b.w	86586 <_vfiprintf_r+0x66>
   87124:	9814      	ldr	r0, [sp, #80]	; 0x50
   87126:	4d12      	ldr	r5, [pc, #72]	; (87170 <_vfiprintf_r+0xc50>)
   87128:	3001      	adds	r0, #1
   8712a:	e5fc      	b.n	86d26 <_vfiprintf_r+0x806>
   8712c:	f89d 5047 	ldrb.w	r5, [sp, #71]	; 0x47
   87130:	f8cd c014 	str.w	ip, [sp, #20]
   87134:	9507      	str	r5, [sp, #28]
   87136:	9408      	str	r4, [sp, #32]
   87138:	4684      	mov	ip, r0
   8713a:	f7ff bb25 	b.w	86788 <_vfiprintf_r+0x268>
   8713e:	4608      	mov	r0, r1
   87140:	e6b1      	b.n	86ea6 <_vfiprintf_r+0x986>
   87142:	46a0      	mov	r8, r4
   87144:	2500      	movs	r5, #0
   87146:	f7ff ba5a 	b.w	865fe <_vfiprintf_r+0xde>
   8714a:	f8dd b020 	ldr.w	fp, [sp, #32]
   8714e:	f898 3001 	ldrb.w	r3, [r8, #1]
   87152:	f8db 5000 	ldr.w	r5, [fp]
   87156:	f10b 0204 	add.w	r2, fp, #4
   8715a:	2d00      	cmp	r5, #0
   8715c:	9208      	str	r2, [sp, #32]
   8715e:	46a0      	mov	r8, r4
   87160:	f6bf aa4b 	bge.w	865fa <_vfiprintf_r+0xda>
   87164:	f04f 35ff 	mov.w	r5, #4294967295
   87168:	f7ff ba47 	b.w	865fa <_vfiprintf_r+0xda>
   8716c:	0008aac8 	.word	0x0008aac8
   87170:	0008aaf4 	.word	0x0008aaf4

00087174 <__sbprintf>:
   87174:	e92d 47f0 	stmdb	sp!, {r4, r5, r6, r7, r8, r9, sl, lr}
   87178:	6e4f      	ldr	r7, [r1, #100]	; 0x64
   8717a:	f5ad 6d8d 	sub.w	sp, sp, #1128	; 0x468
   8717e:	4688      	mov	r8, r1
   87180:	9719      	str	r7, [sp, #100]	; 0x64
   87182:	f8d8 701c 	ldr.w	r7, [r8, #28]
   87186:	f8b1 a00c 	ldrh.w	sl, [r1, #12]
   8718a:	f8b1 900e 	ldrh.w	r9, [r1, #14]
   8718e:	9707      	str	r7, [sp, #28]
   87190:	f8d8 7024 	ldr.w	r7, [r8, #36]	; 0x24
   87194:	ac1a      	add	r4, sp, #104	; 0x68
   87196:	f44f 6580 	mov.w	r5, #1024	; 0x400
   8719a:	f02a 0a02 	bic.w	sl, sl, #2
   8719e:	2600      	movs	r6, #0
   871a0:	4669      	mov	r1, sp
   871a2:	9400      	str	r4, [sp, #0]
   871a4:	9404      	str	r4, [sp, #16]
   871a6:	9502      	str	r5, [sp, #8]
   871a8:	9505      	str	r5, [sp, #20]
   871aa:	f8ad a00c 	strh.w	sl, [sp, #12]
   871ae:	f8ad 900e 	strh.w	r9, [sp, #14]
   871b2:	9709      	str	r7, [sp, #36]	; 0x24
   871b4:	9606      	str	r6, [sp, #24]
   871b6:	4605      	mov	r5, r0
   871b8:	f7ff f9b2 	bl	86520 <_vfiprintf_r>
   871bc:	1e04      	subs	r4, r0, #0
   871be:	db07      	blt.n	871d0 <__sbprintf+0x5c>
   871c0:	4628      	mov	r0, r5
   871c2:	4669      	mov	r1, sp
   871c4:	f001 f8e0 	bl	88388 <_fflush_r>
   871c8:	42b0      	cmp	r0, r6
   871ca:	bf18      	it	ne
   871cc:	f04f 34ff 	movne.w	r4, #4294967295
   871d0:	f8bd 300c 	ldrh.w	r3, [sp, #12]
   871d4:	065b      	lsls	r3, r3, #25
   871d6:	d505      	bpl.n	871e4 <__sbprintf+0x70>
   871d8:	f8b8 300c 	ldrh.w	r3, [r8, #12]
   871dc:	f043 0340 	orr.w	r3, r3, #64	; 0x40
   871e0:	f8a8 300c 	strh.w	r3, [r8, #12]
   871e4:	4620      	mov	r0, r4
   871e6:	f50d 6d8d 	add.w	sp, sp, #1128	; 0x468
   871ea:	e8bd 87f0 	ldmia.w	sp!, {r4, r5, r6, r7, r8, r9, sl, pc}
   871ee:	bf00      	nop

000871f0 <__swsetup_r>:
   871f0:	4b2f      	ldr	r3, [pc, #188]	; (872b0 <__swsetup_r+0xc0>)
   871f2:	b570      	push	{r4, r5, r6, lr}
   871f4:	4606      	mov	r6, r0
   871f6:	6818      	ldr	r0, [r3, #0]
   871f8:	460c      	mov	r4, r1
   871fa:	b110      	cbz	r0, 87202 <__swsetup_r+0x12>
   871fc:	6b82      	ldr	r2, [r0, #56]	; 0x38
   871fe:	2a00      	cmp	r2, #0
   87200:	d036      	beq.n	87270 <__swsetup_r+0x80>
   87202:	89a5      	ldrh	r5, [r4, #12]
   87204:	b2ab      	uxth	r3, r5
   87206:	0719      	lsls	r1, r3, #28
   87208:	d50c      	bpl.n	87224 <__swsetup_r+0x34>
   8720a:	6922      	ldr	r2, [r4, #16]
   8720c:	b1aa      	cbz	r2, 8723a <__swsetup_r+0x4a>
   8720e:	f013 0101 	ands.w	r1, r3, #1
   87212:	d01e      	beq.n	87252 <__swsetup_r+0x62>
   87214:	6963      	ldr	r3, [r4, #20]
   87216:	2100      	movs	r1, #0
   87218:	425b      	negs	r3, r3
   8721a:	61a3      	str	r3, [r4, #24]
   8721c:	60a1      	str	r1, [r4, #8]
   8721e:	b1f2      	cbz	r2, 8725e <__swsetup_r+0x6e>
   87220:	2000      	movs	r0, #0
   87222:	bd70      	pop	{r4, r5, r6, pc}
   87224:	06da      	lsls	r2, r3, #27
   87226:	d53a      	bpl.n	8729e <__swsetup_r+0xae>
   87228:	075b      	lsls	r3, r3, #29
   8722a:	d424      	bmi.n	87276 <__swsetup_r+0x86>
   8722c:	6922      	ldr	r2, [r4, #16]
   8722e:	f045 0308 	orr.w	r3, r5, #8
   87232:	81a3      	strh	r3, [r4, #12]
   87234:	b29b      	uxth	r3, r3
   87236:	2a00      	cmp	r2, #0
   87238:	d1e9      	bne.n	8720e <__swsetup_r+0x1e>
   8723a:	f403 7120 	and.w	r1, r3, #640	; 0x280
   8723e:	f5b1 7f00 	cmp.w	r1, #512	; 0x200
   87242:	d0e4      	beq.n	8720e <__swsetup_r+0x1e>
   87244:	4630      	mov	r0, r6
   87246:	4621      	mov	r1, r4
   87248:	f001 fc88 	bl	88b5c <__smakebuf_r>
   8724c:	89a3      	ldrh	r3, [r4, #12]
   8724e:	6922      	ldr	r2, [r4, #16]
   87250:	e7dd      	b.n	8720e <__swsetup_r+0x1e>
   87252:	0798      	lsls	r0, r3, #30
   87254:	bf58      	it	pl
   87256:	6961      	ldrpl	r1, [r4, #20]
   87258:	60a1      	str	r1, [r4, #8]
   8725a:	2a00      	cmp	r2, #0
   8725c:	d1e0      	bne.n	87220 <__swsetup_r+0x30>
   8725e:	89a3      	ldrh	r3, [r4, #12]
   87260:	061a      	lsls	r2, r3, #24
   87262:	d5dd      	bpl.n	87220 <__swsetup_r+0x30>
   87264:	f043 0340 	orr.w	r3, r3, #64	; 0x40
   87268:	81a3      	strh	r3, [r4, #12]
   8726a:	f04f 30ff 	mov.w	r0, #4294967295
   8726e:	bd70      	pop	{r4, r5, r6, pc}
   87270:	f001 f8a6 	bl	883c0 <__sinit>
   87274:	e7c5      	b.n	87202 <__swsetup_r+0x12>
   87276:	6b21      	ldr	r1, [r4, #48]	; 0x30
   87278:	b149      	cbz	r1, 8728e <__swsetup_r+0x9e>
   8727a:	f104 0340 	add.w	r3, r4, #64	; 0x40
   8727e:	4299      	cmp	r1, r3
   87280:	d003      	beq.n	8728a <__swsetup_r+0x9a>
   87282:	4630      	mov	r0, r6
   87284:	f001 f9e0 	bl	88648 <_free_r>
   87288:	89a5      	ldrh	r5, [r4, #12]
   8728a:	2300      	movs	r3, #0
   8728c:	6323      	str	r3, [r4, #48]	; 0x30
   8728e:	6922      	ldr	r2, [r4, #16]
   87290:	f025 0524 	bic.w	r5, r5, #36	; 0x24
   87294:	2100      	movs	r1, #0
   87296:	b2ad      	uxth	r5, r5
   87298:	6022      	str	r2, [r4, #0]
   8729a:	6061      	str	r1, [r4, #4]
   8729c:	e7c7      	b.n	8722e <__swsetup_r+0x3e>
   8729e:	f045 0540 	orr.w	r5, r5, #64	; 0x40
   872a2:	2309      	movs	r3, #9
   872a4:	6033      	str	r3, [r6, #0]
   872a6:	f04f 30ff 	mov.w	r0, #4294967295
   872aa:	81a5      	strh	r5, [r4, #12]
   872ac:	bd70      	pop	{r4, r5, r6, pc}
   872ae:	bf00      	nop
   872b0:	20070578 	.word	0x20070578

000872b4 <register_fini>:
   872b4:	4b02      	ldr	r3, [pc, #8]	; (872c0 <register_fini+0xc>)
   872b6:	b113      	cbz	r3, 872be <register_fini+0xa>
   872b8:	4802      	ldr	r0, [pc, #8]	; (872c4 <register_fini+0x10>)
   872ba:	f000 b805 	b.w	872c8 <atexit>
   872be:	4770      	bx	lr
   872c0:	00000000 	.word	0x00000000
   872c4:	000884bd 	.word	0x000884bd

000872c8 <atexit>:
   872c8:	4601      	mov	r1, r0
   872ca:	2000      	movs	r0, #0
   872cc:	4602      	mov	r2, r0
   872ce:	4603      	mov	r3, r0
   872d0:	f002 be68 	b.w	89fa4 <__register_exitproc>

000872d4 <quorem>:
   872d4:	e92d 4ff0 	stmdb	sp!, {r4, r5, r6, r7, r8, r9, sl, fp, lr}
   872d8:	6903      	ldr	r3, [r0, #16]
   872da:	690d      	ldr	r5, [r1, #16]
   872dc:	b083      	sub	sp, #12
   872de:	429d      	cmp	r5, r3
   872e0:	4683      	mov	fp, r0
   872e2:	f300 808c 	bgt.w	873fe <quorem+0x12a>
   872e6:	3d01      	subs	r5, #1
   872e8:	f101 0414 	add.w	r4, r1, #20
   872ec:	f100 0a14 	add.w	sl, r0, #20
   872f0:	f854 2025 	ldr.w	r2, [r4, r5, lsl #2]
   872f4:	f85a 3025 	ldr.w	r3, [sl, r5, lsl #2]
   872f8:	3201      	adds	r2, #1
   872fa:	fbb3 f8f2 	udiv	r8, r3, r2
   872fe:	00aa      	lsls	r2, r5, #2
   87300:	4691      	mov	r9, r2
   87302:	9200      	str	r2, [sp, #0]
   87304:	4452      	add	r2, sl
   87306:	44a1      	add	r9, r4
   87308:	9201      	str	r2, [sp, #4]
   8730a:	f1b8 0f00 	cmp.w	r8, #0
   8730e:	d03e      	beq.n	8738e <quorem+0xba>
   87310:	2600      	movs	r6, #0
   87312:	4630      	mov	r0, r6
   87314:	4622      	mov	r2, r4
   87316:	4653      	mov	r3, sl
   87318:	468c      	mov	ip, r1
   8731a:	f852 7b04 	ldr.w	r7, [r2], #4
   8731e:	6819      	ldr	r1, [r3, #0]
   87320:	fa1f fe87 	uxth.w	lr, r7
   87324:	0c3f      	lsrs	r7, r7, #16
   87326:	fb0e 6e08 	mla	lr, lr, r8, r6
   8732a:	fb07 f608 	mul.w	r6, r7, r8
   8732e:	eb06 461e 	add.w	r6, r6, lr, lsr #16
   87332:	fa1f fe8e 	uxth.w	lr, lr
   87336:	ebce 0e00 	rsb	lr, lr, r0
   8733a:	b28f      	uxth	r7, r1
   8733c:	b2b0      	uxth	r0, r6
   8733e:	4477      	add	r7, lr
   87340:	ebc0 4011 	rsb	r0, r0, r1, lsr #16
   87344:	eb00 4027 	add.w	r0, r0, r7, asr #16
   87348:	b2bf      	uxth	r7, r7
   8734a:	ea47 4700 	orr.w	r7, r7, r0, lsl #16
   8734e:	4591      	cmp	r9, r2
   87350:	f843 7b04 	str.w	r7, [r3], #4
   87354:	ea4f 4020 	mov.w	r0, r0, asr #16
   87358:	ea4f 4616 	mov.w	r6, r6, lsr #16
   8735c:	d2dd      	bcs.n	8731a <quorem+0x46>
   8735e:	9a00      	ldr	r2, [sp, #0]
   87360:	4661      	mov	r1, ip
   87362:	f85a 3002 	ldr.w	r3, [sl, r2]
   87366:	b993      	cbnz	r3, 8738e <quorem+0xba>
   87368:	9a01      	ldr	r2, [sp, #4]
   8736a:	1f13      	subs	r3, r2, #4
   8736c:	459a      	cmp	sl, r3
   8736e:	d20c      	bcs.n	8738a <quorem+0xb6>
   87370:	f852 3c04 	ldr.w	r3, [r2, #-4]
   87374:	b94b      	cbnz	r3, 8738a <quorem+0xb6>
   87376:	f1a2 0308 	sub.w	r3, r2, #8
   8737a:	e002      	b.n	87382 <quorem+0xae>
   8737c:	681a      	ldr	r2, [r3, #0]
   8737e:	3b04      	subs	r3, #4
   87380:	b91a      	cbnz	r2, 8738a <quorem+0xb6>
   87382:	459a      	cmp	sl, r3
   87384:	f105 35ff 	add.w	r5, r5, #4294967295
   87388:	d3f8      	bcc.n	8737c <quorem+0xa8>
   8738a:	f8cb 5010 	str.w	r5, [fp, #16]
   8738e:	4658      	mov	r0, fp
   87390:	f002 f9c8 	bl	89724 <__mcmp>
   87394:	2800      	cmp	r0, #0
   87396:	db2e      	blt.n	873f6 <quorem+0x122>
   87398:	f108 0801 	add.w	r8, r8, #1
   8739c:	4653      	mov	r3, sl
   8739e:	2200      	movs	r2, #0
   873a0:	f854 6b04 	ldr.w	r6, [r4], #4
   873a4:	6818      	ldr	r0, [r3, #0]
   873a6:	b2b1      	uxth	r1, r6
   873a8:	1a51      	subs	r1, r2, r1
   873aa:	b287      	uxth	r7, r0
   873ac:	0c36      	lsrs	r6, r6, #16
   873ae:	4439      	add	r1, r7
   873b0:	ebc6 4010 	rsb	r0, r6, r0, lsr #16
   873b4:	eb00 4221 	add.w	r2, r0, r1, asr #16
   873b8:	b289      	uxth	r1, r1
   873ba:	ea41 4102 	orr.w	r1, r1, r2, lsl #16
   873be:	45a1      	cmp	r9, r4
   873c0:	f843 1b04 	str.w	r1, [r3], #4
   873c4:	ea4f 4222 	mov.w	r2, r2, asr #16
   873c8:	d2ea      	bcs.n	873a0 <quorem+0xcc>
   873ca:	f85a 2025 	ldr.w	r2, [sl, r5, lsl #2]
   873ce:	eb0a 0385 	add.w	r3, sl, r5, lsl #2
   873d2:	b982      	cbnz	r2, 873f6 <quorem+0x122>
   873d4:	1f1a      	subs	r2, r3, #4
   873d6:	4592      	cmp	sl, r2
   873d8:	d20b      	bcs.n	873f2 <quorem+0x11e>
   873da:	f853 2c04 	ldr.w	r2, [r3, #-4]
   873de:	b942      	cbnz	r2, 873f2 <quorem+0x11e>
   873e0:	3b08      	subs	r3, #8
   873e2:	e002      	b.n	873ea <quorem+0x116>
   873e4:	681a      	ldr	r2, [r3, #0]
   873e6:	3b04      	subs	r3, #4
   873e8:	b91a      	cbnz	r2, 873f2 <quorem+0x11e>
   873ea:	459a      	cmp	sl, r3
   873ec:	f105 35ff 	add.w	r5, r5, #4294967295
   873f0:	d3f8      	bcc.n	873e4 <quorem+0x110>
   873f2:	f8cb 5010 	str.w	r5, [fp, #16]
   873f6:	4640      	mov	r0, r8
   873f8:	b003      	add	sp, #12
   873fa:	e8bd 8ff0 	ldmia.w	sp!, {r4, r5, r6, r7, r8, r9, sl, fp, pc}
   873fe:	2000      	movs	r0, #0
   87400:	b003      	add	sp, #12
   87402:	e8bd 8ff0 	ldmia.w	sp!, {r4, r5, r6, r7, r8, r9, sl, fp, pc}
   87406:	bf00      	nop

00087408 <_dtoa_r>:
   87408:	e92d 4ff0 	stmdb	sp!, {r4, r5, r6, r7, r8, r9, sl, fp, lr}
   8740c:	6c01      	ldr	r1, [r0, #64]	; 0x40
   8740e:	b09b      	sub	sp, #108	; 0x6c
   87410:	4604      	mov	r4, r0
   87412:	4692      	mov	sl, r2
   87414:	469b      	mov	fp, r3
   87416:	9d27      	ldr	r5, [sp, #156]	; 0x9c
   87418:	b141      	cbz	r1, 8742c <_dtoa_r+0x24>
   8741a:	6c43      	ldr	r3, [r0, #68]	; 0x44
   8741c:	2201      	movs	r2, #1
   8741e:	409a      	lsls	r2, r3
   87420:	604b      	str	r3, [r1, #4]
   87422:	608a      	str	r2, [r1, #8]
   87424:	f001 ff88 	bl	89338 <_Bfree>
   87428:	2300      	movs	r3, #0
   8742a:	6423      	str	r3, [r4, #64]	; 0x40
   8742c:	f1bb 0f00 	cmp.w	fp, #0
   87430:	46d9      	mov	r9, fp
   87432:	db33      	blt.n	8749c <_dtoa_r+0x94>
   87434:	2300      	movs	r3, #0
   87436:	602b      	str	r3, [r5, #0]
   87438:	4ba5      	ldr	r3, [pc, #660]	; (876d0 <_dtoa_r+0x2c8>)
   8743a:	461a      	mov	r2, r3
   8743c:	ea09 0303 	and.w	r3, r9, r3
   87440:	4293      	cmp	r3, r2
   87442:	d014      	beq.n	8746e <_dtoa_r+0x66>
   87444:	4650      	mov	r0, sl
   87446:	4659      	mov	r1, fp
   87448:	2200      	movs	r2, #0
   8744a:	2300      	movs	r3, #0
   8744c:	f7fd f86a 	bl	84524 <__aeabi_dcmpeq>
   87450:	4680      	mov	r8, r0
   87452:	b348      	cbz	r0, 874a8 <_dtoa_r+0xa0>
   87454:	9e26      	ldr	r6, [sp, #152]	; 0x98
   87456:	9d28      	ldr	r5, [sp, #160]	; 0xa0
   87458:	2301      	movs	r3, #1
   8745a:	6033      	str	r3, [r6, #0]
   8745c:	2d00      	cmp	r5, #0
   8745e:	f000 80ca 	beq.w	875f6 <_dtoa_r+0x1ee>
   87462:	489c      	ldr	r0, [pc, #624]	; (876d4 <_dtoa_r+0x2cc>)
   87464:	6028      	str	r0, [r5, #0]
   87466:	3801      	subs	r0, #1
   87468:	b01b      	add	sp, #108	; 0x6c
   8746a:	e8bd 8ff0 	ldmia.w	sp!, {r4, r5, r6, r7, r8, r9, sl, fp, pc}
   8746e:	9d26      	ldr	r5, [sp, #152]	; 0x98
   87470:	f242 730f 	movw	r3, #9999	; 0x270f
   87474:	602b      	str	r3, [r5, #0]
   87476:	f1ba 0f00 	cmp.w	sl, #0
   8747a:	f000 80a5 	beq.w	875c8 <_dtoa_r+0x1c0>
   8747e:	4896      	ldr	r0, [pc, #600]	; (876d8 <_dtoa_r+0x2d0>)
   87480:	9e28      	ldr	r6, [sp, #160]	; 0xa0
   87482:	2e00      	cmp	r6, #0
   87484:	d0f0      	beq.n	87468 <_dtoa_r+0x60>
   87486:	78c3      	ldrb	r3, [r0, #3]
   87488:	2b00      	cmp	r3, #0
   8748a:	f000 80b6 	beq.w	875fa <_dtoa_r+0x1f2>
   8748e:	f100 0308 	add.w	r3, r0, #8
   87492:	9d28      	ldr	r5, [sp, #160]	; 0xa0
   87494:	602b      	str	r3, [r5, #0]
   87496:	b01b      	add	sp, #108	; 0x6c
   87498:	e8bd 8ff0 	ldmia.w	sp!, {r4, r5, r6, r7, r8, r9, sl, fp, pc}
   8749c:	2301      	movs	r3, #1
   8749e:	f02b 4900 	bic.w	r9, fp, #2147483648	; 0x80000000
   874a2:	602b      	str	r3, [r5, #0]
   874a4:	46cb      	mov	fp, r9
   874a6:	e7c7      	b.n	87438 <_dtoa_r+0x30>
   874a8:	aa19      	add	r2, sp, #100	; 0x64
   874aa:	ab18      	add	r3, sp, #96	; 0x60
   874ac:	e88d 000c 	stmia.w	sp, {r2, r3}
   874b0:	4620      	mov	r0, r4
   874b2:	4652      	mov	r2, sl
   874b4:	465b      	mov	r3, fp
   874b6:	f002 f9c5 	bl	89844 <__d2b>
   874ba:	ea5f 5519 	movs.w	r5, r9, lsr #20
   874be:	900a      	str	r0, [sp, #40]	; 0x28
   874c0:	f040 808b 	bne.w	875da <_dtoa_r+0x1d2>
   874c4:	9f18      	ldr	r7, [sp, #96]	; 0x60
   874c6:	9d19      	ldr	r5, [sp, #100]	; 0x64
   874c8:	f46f 6382 	mvn.w	r3, #1040	; 0x410
   874cc:	443d      	add	r5, r7
   874ce:	429d      	cmp	r5, r3
   874d0:	f2c0 8295 	blt.w	879fe <_dtoa_r+0x5f6>
   874d4:	331f      	adds	r3, #31
   874d6:	f205 4212 	addw	r2, r5, #1042	; 0x412
   874da:	1b5b      	subs	r3, r3, r5
   874dc:	fa09 f303 	lsl.w	r3, r9, r3
   874e0:	fa2a f202 	lsr.w	r2, sl, r2
   874e4:	ea43 0002 	orr.w	r0, r3, r2
   874e8:	f7fc fd3e 	bl	83f68 <__aeabi_ui2d>
   874ec:	2601      	movs	r6, #1
   874ee:	3d01      	subs	r5, #1
   874f0:	46b8      	mov	r8, r7
   874f2:	f1a1 71f8 	sub.w	r1, r1, #32505856	; 0x1f00000
   874f6:	9616      	str	r6, [sp, #88]	; 0x58
   874f8:	2200      	movs	r2, #0
   874fa:	4b78      	ldr	r3, [pc, #480]	; (876dc <_dtoa_r+0x2d4>)
   874fc:	f7fc fbf6 	bl	83cec <__aeabi_dsub>
   87500:	a36d      	add	r3, pc, #436	; (adr r3, 876b8 <_dtoa_r+0x2b0>)
   87502:	e9d3 2300 	ldrd	r2, r3, [r3]
   87506:	f7fc fda5 	bl	84054 <__aeabi_dmul>
   8750a:	a36d      	add	r3, pc, #436	; (adr r3, 876c0 <_dtoa_r+0x2b8>)
   8750c:	e9d3 2300 	ldrd	r2, r3, [r3]
   87510:	f7fc fbee 	bl	83cf0 <__adddf3>
   87514:	4606      	mov	r6, r0
   87516:	4628      	mov	r0, r5
   87518:	460f      	mov	r7, r1
   8751a:	f7fc fd35 	bl	83f88 <__aeabi_i2d>
   8751e:	a36a      	add	r3, pc, #424	; (adr r3, 876c8 <_dtoa_r+0x2c0>)
   87520:	e9d3 2300 	ldrd	r2, r3, [r3]
   87524:	f7fc fd96 	bl	84054 <__aeabi_dmul>
   87528:	4602      	mov	r2, r0
   8752a:	460b      	mov	r3, r1
   8752c:	4630      	mov	r0, r6
   8752e:	4639      	mov	r1, r7
   87530:	f7fc fbde 	bl	83cf0 <__adddf3>
   87534:	4606      	mov	r6, r0
   87536:	460f      	mov	r7, r1
   87538:	f7fd f826 	bl	84588 <__aeabi_d2iz>
   8753c:	4639      	mov	r1, r7
   8753e:	9007      	str	r0, [sp, #28]
   87540:	2200      	movs	r2, #0
   87542:	4630      	mov	r0, r6
   87544:	2300      	movs	r3, #0
   87546:	f7fc fff7 	bl	84538 <__aeabi_dcmplt>
   8754a:	2800      	cmp	r0, #0
   8754c:	f040 8229 	bne.w	879a2 <_dtoa_r+0x59a>
   87550:	9e07      	ldr	r6, [sp, #28]
   87552:	2e16      	cmp	r6, #22
   87554:	f200 8222 	bhi.w	8799c <_dtoa_r+0x594>
   87558:	4961      	ldr	r1, [pc, #388]	; (876e0 <_dtoa_r+0x2d8>)
   8755a:	4652      	mov	r2, sl
   8755c:	eb01 01c6 	add.w	r1, r1, r6, lsl #3
   87560:	465b      	mov	r3, fp
   87562:	e9d1 0100 	ldrd	r0, r1, [r1]
   87566:	f7fd f805 	bl	84574 <__aeabi_dcmpgt>
   8756a:	2800      	cmp	r0, #0
   8756c:	f000 824c 	beq.w	87a08 <_dtoa_r+0x600>
   87570:	3e01      	subs	r6, #1
   87572:	9607      	str	r6, [sp, #28]
   87574:	2600      	movs	r6, #0
   87576:	960e      	str	r6, [sp, #56]	; 0x38
   87578:	ebc5 0508 	rsb	r5, r5, r8
   8757c:	3d01      	subs	r5, #1
   8757e:	9506      	str	r5, [sp, #24]
   87580:	f100 8226 	bmi.w	879d0 <_dtoa_r+0x5c8>
   87584:	2500      	movs	r5, #0
   87586:	9508      	str	r5, [sp, #32]
   87588:	9e07      	ldr	r6, [sp, #28]
   8758a:	2e00      	cmp	r6, #0
   8758c:	f2c0 8217 	blt.w	879be <_dtoa_r+0x5b6>
   87590:	9d06      	ldr	r5, [sp, #24]
   87592:	960d      	str	r6, [sp, #52]	; 0x34
   87594:	4435      	add	r5, r6
   87596:	2600      	movs	r6, #0
   87598:	9506      	str	r5, [sp, #24]
   8759a:	960c      	str	r6, [sp, #48]	; 0x30
   8759c:	9d24      	ldr	r5, [sp, #144]	; 0x90
   8759e:	2d09      	cmp	r5, #9
   875a0:	d82d      	bhi.n	875fe <_dtoa_r+0x1f6>
   875a2:	2d05      	cmp	r5, #5
   875a4:	bfc4      	itt	gt
   875a6:	3d04      	subgt	r5, #4
   875a8:	9524      	strgt	r5, [sp, #144]	; 0x90
   875aa:	9e24      	ldr	r6, [sp, #144]	; 0x90
   875ac:	bfc8      	it	gt
   875ae:	2500      	movgt	r5, #0
   875b0:	f1a6 0302 	sub.w	r3, r6, #2
   875b4:	bfd8      	it	le
   875b6:	2501      	movle	r5, #1
   875b8:	2b03      	cmp	r3, #3
   875ba:	d822      	bhi.n	87602 <_dtoa_r+0x1fa>
   875bc:	e8df f013 	tbh	[pc, r3, lsl #1]
   875c0:	029e03b7 	.word	0x029e03b7
   875c4:	049a03c0 	.word	0x049a03c0
   875c8:	4a46      	ldr	r2, [pc, #280]	; (876e4 <_dtoa_r+0x2dc>)
   875ca:	4b43      	ldr	r3, [pc, #268]	; (876d8 <_dtoa_r+0x2d0>)
   875cc:	f3c9 0013 	ubfx	r0, r9, #0, #20
   875d0:	2800      	cmp	r0, #0
   875d2:	bf0c      	ite	eq
   875d4:	4610      	moveq	r0, r2
   875d6:	4618      	movne	r0, r3
   875d8:	e752      	b.n	87480 <_dtoa_r+0x78>
   875da:	f3cb 0313 	ubfx	r3, fp, #0, #20
   875de:	f043 517f 	orr.w	r1, r3, #1069547520	; 0x3fc00000
   875e2:	f8cd 8058 	str.w	r8, [sp, #88]	; 0x58
   875e6:	4650      	mov	r0, sl
   875e8:	f2a5 35ff 	subw	r5, r5, #1023	; 0x3ff
   875ec:	f441 1140 	orr.w	r1, r1, #3145728	; 0x300000
   875f0:	f8dd 8060 	ldr.w	r8, [sp, #96]	; 0x60
   875f4:	e780      	b.n	874f8 <_dtoa_r+0xf0>
   875f6:	483c      	ldr	r0, [pc, #240]	; (876e8 <_dtoa_r+0x2e0>)
   875f8:	e736      	b.n	87468 <_dtoa_r+0x60>
   875fa:	1cc3      	adds	r3, r0, #3
   875fc:	e749      	b.n	87492 <_dtoa_r+0x8a>
   875fe:	2500      	movs	r5, #0
   87600:	9524      	str	r5, [sp, #144]	; 0x90
   87602:	2500      	movs	r5, #0
   87604:	6465      	str	r5, [r4, #68]	; 0x44
   87606:	4629      	mov	r1, r5
   87608:	4620      	mov	r0, r4
   8760a:	f001 fe6f 	bl	892ec <_Balloc>
   8760e:	f04f 39ff 	mov.w	r9, #4294967295
   87612:	2601      	movs	r6, #1
   87614:	9009      	str	r0, [sp, #36]	; 0x24
   87616:	9525      	str	r5, [sp, #148]	; 0x94
   87618:	6420      	str	r0, [r4, #64]	; 0x40
   8761a:	f8cd 903c 	str.w	r9, [sp, #60]	; 0x3c
   8761e:	960b      	str	r6, [sp, #44]	; 0x2c
   87620:	9b19      	ldr	r3, [sp, #100]	; 0x64
   87622:	2b00      	cmp	r3, #0
   87624:	f2c0 80d2 	blt.w	877cc <_dtoa_r+0x3c4>
   87628:	9e07      	ldr	r6, [sp, #28]
   8762a:	2e0e      	cmp	r6, #14
   8762c:	f300 80ce 	bgt.w	877cc <_dtoa_r+0x3c4>
   87630:	4b2b      	ldr	r3, [pc, #172]	; (876e0 <_dtoa_r+0x2d8>)
   87632:	eb03 03c6 	add.w	r3, r3, r6, lsl #3
   87636:	e9d3 0100 	ldrd	r0, r1, [r3]
   8763a:	e9cd 0104 	strd	r0, r1, [sp, #16]
   8763e:	9925      	ldr	r1, [sp, #148]	; 0x94
   87640:	2900      	cmp	r1, #0
   87642:	f2c0 8380 	blt.w	87d46 <_dtoa_r+0x93e>
   87646:	e9dd 2304 	ldrd	r2, r3, [sp, #16]
   8764a:	4659      	mov	r1, fp
   8764c:	4650      	mov	r0, sl
   8764e:	f7fc fe2b 	bl	842a8 <__aeabi_ddiv>
   87652:	f7fc ff99 	bl	84588 <__aeabi_d2iz>
   87656:	4605      	mov	r5, r0
   87658:	f7fc fc96 	bl	83f88 <__aeabi_i2d>
   8765c:	e9dd 2304 	ldrd	r2, r3, [sp, #16]
   87660:	f7fc fcf8 	bl	84054 <__aeabi_dmul>
   87664:	4602      	mov	r2, r0
   87666:	460b      	mov	r3, r1
   87668:	4650      	mov	r0, sl
   8766a:	4659      	mov	r1, fp
   8766c:	f7fc fb3e 	bl	83cec <__aeabi_dsub>
   87670:	9a09      	ldr	r2, [sp, #36]	; 0x24
   87672:	f105 0330 	add.w	r3, r5, #48	; 0x30
   87676:	f1b9 0f01 	cmp.w	r9, #1
   8767a:	4606      	mov	r6, r0
   8767c:	460f      	mov	r7, r1
   8767e:	7013      	strb	r3, [r2, #0]
   87680:	f102 0b01 	add.w	fp, r2, #1
   87684:	d064      	beq.n	87750 <_dtoa_r+0x348>
   87686:	2200      	movs	r2, #0
   87688:	4b18      	ldr	r3, [pc, #96]	; (876ec <_dtoa_r+0x2e4>)
   8768a:	f7fc fce3 	bl	84054 <__aeabi_dmul>
   8768e:	2200      	movs	r2, #0
   87690:	2300      	movs	r3, #0
   87692:	4606      	mov	r6, r0
   87694:	460f      	mov	r7, r1
   87696:	f7fc ff45 	bl	84524 <__aeabi_dcmpeq>
   8769a:	2800      	cmp	r0, #0
   8769c:	f040 8081 	bne.w	877a2 <_dtoa_r+0x39a>
   876a0:	f8dd 8024 	ldr.w	r8, [sp, #36]	; 0x24
   876a4:	9d09      	ldr	r5, [sp, #36]	; 0x24
   876a6:	44c8      	add	r8, r9
   876a8:	e9dd ab04 	ldrd	sl, fp, [sp, #16]
   876ac:	f105 0902 	add.w	r9, r5, #2
   876b0:	9403      	str	r4, [sp, #12]
   876b2:	e028      	b.n	87706 <_dtoa_r+0x2fe>
   876b4:	f3af 8000 	nop.w
   876b8:	636f4361 	.word	0x636f4361
   876bc:	3fd287a7 	.word	0x3fd287a7
   876c0:	8b60c8b3 	.word	0x8b60c8b3
   876c4:	3fc68a28 	.word	0x3fc68a28
   876c8:	509f79fb 	.word	0x509f79fb
   876cc:	3fd34413 	.word	0x3fd34413
   876d0:	7ff00000 	.word	0x7ff00000
   876d4:	0008aad1 	.word	0x0008aad1
   876d8:	0008ab10 	.word	0x0008ab10
   876dc:	3ff80000 	.word	0x3ff80000
   876e0:	0008ab20 	.word	0x0008ab20
   876e4:	0008ab04 	.word	0x0008ab04
   876e8:	0008aad0 	.word	0x0008aad0
   876ec:	40240000 	.word	0x40240000
   876f0:	f7fc fcb0 	bl	84054 <__aeabi_dmul>
   876f4:	2200      	movs	r2, #0
   876f6:	2300      	movs	r3, #0
   876f8:	4606      	mov	r6, r0
   876fa:	460f      	mov	r7, r1
   876fc:	f7fc ff12 	bl	84524 <__aeabi_dcmpeq>
   87700:	2800      	cmp	r0, #0
   87702:	f040 83c1 	bne.w	87e88 <_dtoa_r+0xa80>
   87706:	4652      	mov	r2, sl
   87708:	465b      	mov	r3, fp
   8770a:	4630      	mov	r0, r6
   8770c:	4639      	mov	r1, r7
   8770e:	f7fc fdcb 	bl	842a8 <__aeabi_ddiv>
   87712:	f7fc ff39 	bl	84588 <__aeabi_d2iz>
   87716:	4605      	mov	r5, r0
   87718:	f7fc fc36 	bl	83f88 <__aeabi_i2d>
   8771c:	4652      	mov	r2, sl
   8771e:	465b      	mov	r3, fp
   87720:	f7fc fc98 	bl	84054 <__aeabi_dmul>
   87724:	4602      	mov	r2, r0
   87726:	460b      	mov	r3, r1
   87728:	4630      	mov	r0, r6
   8772a:	4639      	mov	r1, r7
   8772c:	f7fc fade 	bl	83cec <__aeabi_dsub>
   87730:	f105 0e30 	add.w	lr, r5, #48	; 0x30
   87734:	45c1      	cmp	r9, r8
   87736:	f809 ec01 	strb.w	lr, [r9, #-1]
   8773a:	464c      	mov	r4, r9
   8773c:	4606      	mov	r6, r0
   8773e:	460f      	mov	r7, r1
   87740:	f04f 0200 	mov.w	r2, #0
   87744:	4ba7      	ldr	r3, [pc, #668]	; (879e4 <_dtoa_r+0x5dc>)
   87746:	f109 0901 	add.w	r9, r9, #1
   8774a:	d1d1      	bne.n	876f0 <_dtoa_r+0x2e8>
   8774c:	46a3      	mov	fp, r4
   8774e:	9c03      	ldr	r4, [sp, #12]
   87750:	4632      	mov	r2, r6
   87752:	463b      	mov	r3, r7
   87754:	4630      	mov	r0, r6
   87756:	4639      	mov	r1, r7
   87758:	f7fc faca 	bl	83cf0 <__adddf3>
   8775c:	4606      	mov	r6, r0
   8775e:	460f      	mov	r7, r1
   87760:	4632      	mov	r2, r6
   87762:	e9dd 0104 	ldrd	r0, r1, [sp, #16]
   87766:	463b      	mov	r3, r7
   87768:	f7fc fee6 	bl	84538 <__aeabi_dcmplt>
   8776c:	b940      	cbnz	r0, 87780 <_dtoa_r+0x378>
   8776e:	e9dd 0104 	ldrd	r0, r1, [sp, #16]
   87772:	4632      	mov	r2, r6
   87774:	463b      	mov	r3, r7
   87776:	f7fc fed5 	bl	84524 <__aeabi_dcmpeq>
   8777a:	b190      	cbz	r0, 877a2 <_dtoa_r+0x39a>
   8777c:	07eb      	lsls	r3, r5, #31
   8777e:	d510      	bpl.n	877a2 <_dtoa_r+0x39a>
   87780:	f81b 5c01 	ldrb.w	r5, [fp, #-1]
   87784:	9a09      	ldr	r2, [sp, #36]	; 0x24
   87786:	e005      	b.n	87794 <_dtoa_r+0x38c>
   87788:	429a      	cmp	r2, r3
   8778a:	f000 8429 	beq.w	87fe0 <_dtoa_r+0xbd8>
   8778e:	f813 5c01 	ldrb.w	r5, [r3, #-1]
   87792:	469b      	mov	fp, r3
   87794:	2d39      	cmp	r5, #57	; 0x39
   87796:	f10b 33ff 	add.w	r3, fp, #4294967295
   8779a:	d0f5      	beq.n	87788 <_dtoa_r+0x380>
   8779c:	1c6a      	adds	r2, r5, #1
   8779e:	b2d2      	uxtb	r2, r2
   877a0:	701a      	strb	r2, [r3, #0]
   877a2:	4620      	mov	r0, r4
   877a4:	990a      	ldr	r1, [sp, #40]	; 0x28
   877a6:	f001 fdc7 	bl	89338 <_Bfree>
   877aa:	9e07      	ldr	r6, [sp, #28]
   877ac:	9d26      	ldr	r5, [sp, #152]	; 0x98
   877ae:	1c73      	adds	r3, r6, #1
   877b0:	9e28      	ldr	r6, [sp, #160]	; 0xa0
   877b2:	2200      	movs	r2, #0
   877b4:	f88b 2000 	strb.w	r2, [fp]
   877b8:	602b      	str	r3, [r5, #0]
   877ba:	2e00      	cmp	r6, #0
   877bc:	f000 8325 	beq.w	87e0a <_dtoa_r+0xa02>
   877c0:	9809      	ldr	r0, [sp, #36]	; 0x24
   877c2:	f8c6 b000 	str.w	fp, [r6]
   877c6:	b01b      	add	sp, #108	; 0x6c
   877c8:	e8bd 8ff0 	ldmia.w	sp!, {r4, r5, r6, r7, r8, r9, sl, fp, pc}
   877cc:	9d0b      	ldr	r5, [sp, #44]	; 0x2c
   877ce:	2d00      	cmp	r5, #0
   877d0:	f000 8103 	beq.w	879da <_dtoa_r+0x5d2>
   877d4:	9e24      	ldr	r6, [sp, #144]	; 0x90
   877d6:	2e01      	cmp	r6, #1
   877d8:	f340 82dc 	ble.w	87d94 <_dtoa_r+0x98c>
   877dc:	9e0c      	ldr	r6, [sp, #48]	; 0x30
   877de:	f109 37ff 	add.w	r7, r9, #4294967295
   877e2:	42be      	cmp	r6, r7
   877e4:	f2c0 8389 	blt.w	87efa <_dtoa_r+0xaf2>
   877e8:	1bf7      	subs	r7, r6, r7
   877ea:	f1b9 0f00 	cmp.w	r9, #0
   877ee:	f2c0 8487 	blt.w	88100 <_dtoa_r+0xcf8>
   877f2:	9d08      	ldr	r5, [sp, #32]
   877f4:	464b      	mov	r3, r9
   877f6:	9e08      	ldr	r6, [sp, #32]
   877f8:	4620      	mov	r0, r4
   877fa:	441e      	add	r6, r3
   877fc:	9608      	str	r6, [sp, #32]
   877fe:	9e06      	ldr	r6, [sp, #24]
   87800:	2101      	movs	r1, #1
   87802:	441e      	add	r6, r3
   87804:	9606      	str	r6, [sp, #24]
   87806:	f001 fe39 	bl	8947c <__i2b>
   8780a:	4606      	mov	r6, r0
   8780c:	b165      	cbz	r5, 87828 <_dtoa_r+0x420>
   8780e:	9806      	ldr	r0, [sp, #24]
   87810:	2800      	cmp	r0, #0
   87812:	dd09      	ble.n	87828 <_dtoa_r+0x420>
   87814:	4603      	mov	r3, r0
   87816:	9908      	ldr	r1, [sp, #32]
   87818:	42ab      	cmp	r3, r5
   8781a:	bfa8      	it	ge
   8781c:	462b      	movge	r3, r5
   8781e:	1ac9      	subs	r1, r1, r3
   87820:	1ac0      	subs	r0, r0, r3
   87822:	9108      	str	r1, [sp, #32]
   87824:	1aed      	subs	r5, r5, r3
   87826:	9006      	str	r0, [sp, #24]
   87828:	9a0c      	ldr	r2, [sp, #48]	; 0x30
   8782a:	2a00      	cmp	r2, #0
   8782c:	dd1d      	ble.n	8786a <_dtoa_r+0x462>
   8782e:	9b0b      	ldr	r3, [sp, #44]	; 0x2c
   87830:	2b00      	cmp	r3, #0
   87832:	f000 8358 	beq.w	87ee6 <_dtoa_r+0xade>
   87836:	2f00      	cmp	r7, #0
   87838:	dd11      	ble.n	8785e <_dtoa_r+0x456>
   8783a:	4631      	mov	r1, r6
   8783c:	463a      	mov	r2, r7
   8783e:	4620      	mov	r0, r4
   87840:	f001 fec4 	bl	895cc <__pow5mult>
   87844:	4606      	mov	r6, r0
   87846:	4631      	mov	r1, r6
   87848:	9a0a      	ldr	r2, [sp, #40]	; 0x28
   8784a:	4620      	mov	r0, r4
   8784c:	f001 fe20 	bl	89490 <__multiply>
   87850:	990a      	ldr	r1, [sp, #40]	; 0x28
   87852:	4680      	mov	r8, r0
   87854:	4620      	mov	r0, r4
   87856:	f001 fd6f 	bl	89338 <_Bfree>
   8785a:	f8cd 8028 	str.w	r8, [sp, #40]	; 0x28
   8785e:	f8dd e030 	ldr.w	lr, [sp, #48]	; 0x30
   87862:	ebbe 0207 	subs.w	r2, lr, r7
   87866:	f040 828f 	bne.w	87d88 <_dtoa_r+0x980>
   8786a:	4620      	mov	r0, r4
   8786c:	2101      	movs	r1, #1
   8786e:	f001 fe05 	bl	8947c <__i2b>
   87872:	4680      	mov	r8, r0
   87874:	980d      	ldr	r0, [sp, #52]	; 0x34
   87876:	2800      	cmp	r0, #0
   87878:	dd05      	ble.n	87886 <_dtoa_r+0x47e>
   8787a:	4641      	mov	r1, r8
   8787c:	4620      	mov	r0, r4
   8787e:	9a0d      	ldr	r2, [sp, #52]	; 0x34
   87880:	f001 fea4 	bl	895cc <__pow5mult>
   87884:	4680      	mov	r8, r0
   87886:	9924      	ldr	r1, [sp, #144]	; 0x90
   87888:	2901      	cmp	r1, #1
   8788a:	f340 82c1 	ble.w	87e10 <_dtoa_r+0xa08>
   8788e:	2700      	movs	r7, #0
   87890:	980d      	ldr	r0, [sp, #52]	; 0x34
   87892:	2800      	cmp	r0, #0
   87894:	f040 82af 	bne.w	87df6 <_dtoa_r+0x9ee>
   87898:	2001      	movs	r0, #1
   8789a:	9b06      	ldr	r3, [sp, #24]
   8789c:	4403      	add	r3, r0
   8789e:	f013 031f 	ands.w	r3, r3, #31
   878a2:	f000 80a1 	beq.w	879e8 <_dtoa_r+0x5e0>
   878a6:	f1c3 0220 	rsb	r2, r3, #32
   878aa:	2a04      	cmp	r2, #4
   878ac:	f340 84b7 	ble.w	8821e <_dtoa_r+0xe16>
   878b0:	9908      	ldr	r1, [sp, #32]
   878b2:	9a06      	ldr	r2, [sp, #24]
   878b4:	f1c3 031c 	rsb	r3, r3, #28
   878b8:	4419      	add	r1, r3
   878ba:	441a      	add	r2, r3
   878bc:	9108      	str	r1, [sp, #32]
   878be:	441d      	add	r5, r3
   878c0:	9206      	str	r2, [sp, #24]
   878c2:	9908      	ldr	r1, [sp, #32]
   878c4:	2900      	cmp	r1, #0
   878c6:	dd05      	ble.n	878d4 <_dtoa_r+0x4cc>
   878c8:	990a      	ldr	r1, [sp, #40]	; 0x28
   878ca:	9a08      	ldr	r2, [sp, #32]
   878cc:	4620      	mov	r0, r4
   878ce:	f001 fecb 	bl	89668 <__lshift>
   878d2:	900a      	str	r0, [sp, #40]	; 0x28
   878d4:	9a06      	ldr	r2, [sp, #24]
   878d6:	2a00      	cmp	r2, #0
   878d8:	dd04      	ble.n	878e4 <_dtoa_r+0x4dc>
   878da:	4641      	mov	r1, r8
   878dc:	4620      	mov	r0, r4
   878de:	f001 fec3 	bl	89668 <__lshift>
   878e2:	4680      	mov	r8, r0
   878e4:	9b0e      	ldr	r3, [sp, #56]	; 0x38
   878e6:	2b00      	cmp	r3, #0
   878e8:	f040 826a 	bne.w	87dc0 <_dtoa_r+0x9b8>
   878ec:	f1b9 0f00 	cmp.w	r9, #0
   878f0:	f340 82a6 	ble.w	87e40 <_dtoa_r+0xa38>
   878f4:	980b      	ldr	r0, [sp, #44]	; 0x2c
   878f6:	2800      	cmp	r0, #0
   878f8:	f040 8088 	bne.w	87a0c <_dtoa_r+0x604>
   878fc:	9d0b      	ldr	r5, [sp, #44]	; 0x2c
   878fe:	9f0a      	ldr	r7, [sp, #40]	; 0x28
   87900:	f8dd b024 	ldr.w	fp, [sp, #36]	; 0x24
   87904:	e006      	b.n	87914 <_dtoa_r+0x50c>
   87906:	4639      	mov	r1, r7
   87908:	4620      	mov	r0, r4
   8790a:	220a      	movs	r2, #10
   8790c:	2300      	movs	r3, #0
   8790e:	f001 fd1d 	bl	8934c <__multadd>
   87912:	4607      	mov	r7, r0
   87914:	4638      	mov	r0, r7
   87916:	4641      	mov	r1, r8
   87918:	f7ff fcdc 	bl	872d4 <quorem>
   8791c:	3030      	adds	r0, #48	; 0x30
   8791e:	f80b 0005 	strb.w	r0, [fp, r5]
   87922:	3501      	adds	r5, #1
   87924:	45a9      	cmp	r9, r5
   87926:	dcee      	bgt.n	87906 <_dtoa_r+0x4fe>
   87928:	f8dd b024 	ldr.w	fp, [sp, #36]	; 0x24
   8792c:	4682      	mov	sl, r0
   8792e:	970a      	str	r7, [sp, #40]	; 0x28
   87930:	f1b9 0f01 	cmp.w	r9, #1
   87934:	bfac      	ite	ge
   87936:	44cb      	addge	fp, r9
   87938:	f10b 0b01 	addlt.w	fp, fp, #1
   8793c:	2500      	movs	r5, #0
   8793e:	990a      	ldr	r1, [sp, #40]	; 0x28
   87940:	2201      	movs	r2, #1
   87942:	4620      	mov	r0, r4
   87944:	f001 fe90 	bl	89668 <__lshift>
   87948:	4641      	mov	r1, r8
   8794a:	900a      	str	r0, [sp, #40]	; 0x28
   8794c:	f001 feea 	bl	89724 <__mcmp>
   87950:	2800      	cmp	r0, #0
   87952:	f340 8309 	ble.w	87f68 <_dtoa_r+0xb60>
   87956:	f81b 2c01 	ldrb.w	r2, [fp, #-1]
   8795a:	9909      	ldr	r1, [sp, #36]	; 0x24
   8795c:	e005      	b.n	8796a <_dtoa_r+0x562>
   8795e:	4299      	cmp	r1, r3
   87960:	f000 828b 	beq.w	87e7a <_dtoa_r+0xa72>
   87964:	f813 2c01 	ldrb.w	r2, [r3, #-1]
   87968:	469b      	mov	fp, r3
   8796a:	2a39      	cmp	r2, #57	; 0x39
   8796c:	f10b 33ff 	add.w	r3, fp, #4294967295
   87970:	d0f5      	beq.n	8795e <_dtoa_r+0x556>
   87972:	3201      	adds	r2, #1
   87974:	701a      	strb	r2, [r3, #0]
   87976:	4641      	mov	r1, r8
   87978:	4620      	mov	r0, r4
   8797a:	f001 fcdd 	bl	89338 <_Bfree>
   8797e:	2e00      	cmp	r6, #0
   87980:	f43f af0f 	beq.w	877a2 <_dtoa_r+0x39a>
   87984:	b12d      	cbz	r5, 87992 <_dtoa_r+0x58a>
   87986:	42b5      	cmp	r5, r6
   87988:	d003      	beq.n	87992 <_dtoa_r+0x58a>
   8798a:	4629      	mov	r1, r5
   8798c:	4620      	mov	r0, r4
   8798e:	f001 fcd3 	bl	89338 <_Bfree>
   87992:	4631      	mov	r1, r6
   87994:	4620      	mov	r0, r4
   87996:	f001 fccf 	bl	89338 <_Bfree>
   8799a:	e702      	b.n	877a2 <_dtoa_r+0x39a>
   8799c:	2601      	movs	r6, #1
   8799e:	960e      	str	r6, [sp, #56]	; 0x38
   879a0:	e5ea      	b.n	87578 <_dtoa_r+0x170>
   879a2:	9807      	ldr	r0, [sp, #28]
   879a4:	f7fc faf0 	bl	83f88 <__aeabi_i2d>
   879a8:	4632      	mov	r2, r6
   879aa:	463b      	mov	r3, r7
   879ac:	f7fc fdba 	bl	84524 <__aeabi_dcmpeq>
   879b0:	2800      	cmp	r0, #0
   879b2:	f47f adcd 	bne.w	87550 <_dtoa_r+0x148>
   879b6:	9e07      	ldr	r6, [sp, #28]
   879b8:	3e01      	subs	r6, #1
   879ba:	9607      	str	r6, [sp, #28]
   879bc:	e5c8      	b.n	87550 <_dtoa_r+0x148>
   879be:	9e07      	ldr	r6, [sp, #28]
   879c0:	9d08      	ldr	r5, [sp, #32]
   879c2:	1bad      	subs	r5, r5, r6
   879c4:	9508      	str	r5, [sp, #32]
   879c6:	4275      	negs	r5, r6
   879c8:	2600      	movs	r6, #0
   879ca:	950c      	str	r5, [sp, #48]	; 0x30
   879cc:	960d      	str	r6, [sp, #52]	; 0x34
   879ce:	e5e5      	b.n	8759c <_dtoa_r+0x194>
   879d0:	426d      	negs	r5, r5
   879d2:	2600      	movs	r6, #0
   879d4:	9508      	str	r5, [sp, #32]
   879d6:	9606      	str	r6, [sp, #24]
   879d8:	e5d6      	b.n	87588 <_dtoa_r+0x180>
   879da:	9f0c      	ldr	r7, [sp, #48]	; 0x30
   879dc:	9d08      	ldr	r5, [sp, #32]
   879de:	9e0b      	ldr	r6, [sp, #44]	; 0x2c
   879e0:	e714      	b.n	8780c <_dtoa_r+0x404>
   879e2:	bf00      	nop
   879e4:	40240000 	.word	0x40240000
   879e8:	231c      	movs	r3, #28
   879ea:	f8dd e020 	ldr.w	lr, [sp, #32]
   879ee:	9806      	ldr	r0, [sp, #24]
   879f0:	449e      	add	lr, r3
   879f2:	4418      	add	r0, r3
   879f4:	f8cd e020 	str.w	lr, [sp, #32]
   879f8:	441d      	add	r5, r3
   879fa:	9006      	str	r0, [sp, #24]
   879fc:	e761      	b.n	878c2 <_dtoa_r+0x4ba>
   879fe:	48a7      	ldr	r0, [pc, #668]	; (87c9c <_dtoa_r+0x894>)
   87a00:	1b40      	subs	r0, r0, r5
   87a02:	fa0a f000 	lsl.w	r0, sl, r0
   87a06:	e56f      	b.n	874e8 <_dtoa_r+0xe0>
   87a08:	900e      	str	r0, [sp, #56]	; 0x38
   87a0a:	e5b5      	b.n	87578 <_dtoa_r+0x170>
   87a0c:	2d00      	cmp	r5, #0
   87a0e:	dd05      	ble.n	87a1c <_dtoa_r+0x614>
   87a10:	4631      	mov	r1, r6
   87a12:	462a      	mov	r2, r5
   87a14:	4620      	mov	r0, r4
   87a16:	f001 fe27 	bl	89668 <__lshift>
   87a1a:	4606      	mov	r6, r0
   87a1c:	2f00      	cmp	r7, #0
   87a1e:	f040 82e9 	bne.w	87ff4 <_dtoa_r+0xbec>
   87a22:	4637      	mov	r7, r6
   87a24:	9d09      	ldr	r5, [sp, #36]	; 0x24
   87a26:	9809      	ldr	r0, [sp, #36]	; 0x24
   87a28:	444d      	add	r5, r9
   87a2a:	9508      	str	r5, [sp, #32]
   87a2c:	f00a 0501 	and.w	r5, sl, #1
   87a30:	950b      	str	r5, [sp, #44]	; 0x2c
   87a32:	f8dd 9028 	ldr.w	r9, [sp, #40]	; 0x28
   87a36:	1c45      	adds	r5, r0, #1
   87a38:	e00a      	b.n	87a50 <_dtoa_r+0x648>
   87a3a:	f001 fc87 	bl	8934c <__multadd>
   87a3e:	4639      	mov	r1, r7
   87a40:	4606      	mov	r6, r0
   87a42:	220a      	movs	r2, #10
   87a44:	4620      	mov	r0, r4
   87a46:	2300      	movs	r3, #0
   87a48:	f001 fc80 	bl	8934c <__multadd>
   87a4c:	4607      	mov	r7, r0
   87a4e:	3501      	adds	r5, #1
   87a50:	4641      	mov	r1, r8
   87a52:	4648      	mov	r0, r9
   87a54:	f7ff fc3e 	bl	872d4 <quorem>
   87a58:	4631      	mov	r1, r6
   87a5a:	4683      	mov	fp, r0
   87a5c:	4648      	mov	r0, r9
   87a5e:	f001 fe61 	bl	89724 <__mcmp>
   87a62:	4641      	mov	r1, r8
   87a64:	9003      	str	r0, [sp, #12]
   87a66:	463a      	mov	r2, r7
   87a68:	4620      	mov	r0, r4
   87a6a:	f001 fe7f 	bl	8976c <__mdiff>
   87a6e:	68c2      	ldr	r2, [r0, #12]
   87a70:	1e69      	subs	r1, r5, #1
   87a72:	4603      	mov	r3, r0
   87a74:	f10b 0a30 	add.w	sl, fp, #48	; 0x30
   87a78:	9106      	str	r1, [sp, #24]
   87a7a:	2a00      	cmp	r2, #0
   87a7c:	f040 8193 	bne.w	87da6 <_dtoa_r+0x99e>
   87a80:	4619      	mov	r1, r3
   87a82:	4648      	mov	r0, r9
   87a84:	9302      	str	r3, [sp, #8]
   87a86:	f001 fe4d 	bl	89724 <__mcmp>
   87a8a:	9b02      	ldr	r3, [sp, #8]
   87a8c:	4602      	mov	r2, r0
   87a8e:	4619      	mov	r1, r3
   87a90:	4620      	mov	r0, r4
   87a92:	9202      	str	r2, [sp, #8]
   87a94:	f001 fc50 	bl	89338 <_Bfree>
   87a98:	9a02      	ldr	r2, [sp, #8]
   87a9a:	b92a      	cbnz	r2, 87aa8 <_dtoa_r+0x6a0>
   87a9c:	9b24      	ldr	r3, [sp, #144]	; 0x90
   87a9e:	b91b      	cbnz	r3, 87aa8 <_dtoa_r+0x6a0>
   87aa0:	980b      	ldr	r0, [sp, #44]	; 0x2c
   87aa2:	2800      	cmp	r0, #0
   87aa4:	f000 8393 	beq.w	881ce <_dtoa_r+0xdc6>
   87aa8:	9b03      	ldr	r3, [sp, #12]
   87aaa:	2b00      	cmp	r3, #0
   87aac:	f2c0 8234 	blt.w	87f18 <_dtoa_r+0xb10>
   87ab0:	d105      	bne.n	87abe <_dtoa_r+0x6b6>
   87ab2:	9824      	ldr	r0, [sp, #144]	; 0x90
   87ab4:	b918      	cbnz	r0, 87abe <_dtoa_r+0x6b6>
   87ab6:	990b      	ldr	r1, [sp, #44]	; 0x2c
   87ab8:	2900      	cmp	r1, #0
   87aba:	f000 822d 	beq.w	87f18 <_dtoa_r+0xb10>
   87abe:	2a00      	cmp	r2, #0
   87ac0:	f300 82ac 	bgt.w	8801c <_dtoa_r+0xc14>
   87ac4:	f8dd e020 	ldr.w	lr, [sp, #32]
   87ac8:	f805 ac01 	strb.w	sl, [r5, #-1]
   87acc:	4575      	cmp	r5, lr
   87ace:	46ab      	mov	fp, r5
   87ad0:	f000 82b4 	beq.w	8803c <_dtoa_r+0xc34>
   87ad4:	4649      	mov	r1, r9
   87ad6:	220a      	movs	r2, #10
   87ad8:	2300      	movs	r3, #0
   87ada:	4620      	mov	r0, r4
   87adc:	f001 fc36 	bl	8934c <__multadd>
   87ae0:	42be      	cmp	r6, r7
   87ae2:	4681      	mov	r9, r0
   87ae4:	4631      	mov	r1, r6
   87ae6:	4620      	mov	r0, r4
   87ae8:	f04f 020a 	mov.w	r2, #10
   87aec:	f04f 0300 	mov.w	r3, #0
   87af0:	d1a3      	bne.n	87a3a <_dtoa_r+0x632>
   87af2:	f001 fc2b 	bl	8934c <__multadd>
   87af6:	4606      	mov	r6, r0
   87af8:	4607      	mov	r7, r0
   87afa:	e7a8      	b.n	87a4e <_dtoa_r+0x646>
   87afc:	2600      	movs	r6, #0
   87afe:	960b      	str	r6, [sp, #44]	; 0x2c
   87b00:	9e07      	ldr	r6, [sp, #28]
   87b02:	f8dd e094 	ldr.w	lr, [sp, #148]	; 0x94
   87b06:	44b6      	add	lr, r6
   87b08:	f10e 0901 	add.w	r9, lr, #1
   87b0c:	f1b9 0f00 	cmp.w	r9, #0
   87b10:	f8cd e03c 	str.w	lr, [sp, #60]	; 0x3c
   87b14:	464e      	mov	r6, r9
   87b16:	f340 8150 	ble.w	87dba <_dtoa_r+0x9b2>
   87b1a:	2100      	movs	r1, #0
   87b1c:	2e17      	cmp	r6, #23
   87b1e:	6461      	str	r1, [r4, #68]	; 0x44
   87b20:	d90a      	bls.n	87b38 <_dtoa_r+0x730>
   87b22:	2201      	movs	r2, #1
   87b24:	2304      	movs	r3, #4
   87b26:	005b      	lsls	r3, r3, #1
   87b28:	f103 0014 	add.w	r0, r3, #20
   87b2c:	42b0      	cmp	r0, r6
   87b2e:	4611      	mov	r1, r2
   87b30:	f102 0201 	add.w	r2, r2, #1
   87b34:	d9f7      	bls.n	87b26 <_dtoa_r+0x71e>
   87b36:	6461      	str	r1, [r4, #68]	; 0x44
   87b38:	4620      	mov	r0, r4
   87b3a:	f001 fbd7 	bl	892ec <_Balloc>
   87b3e:	2e0e      	cmp	r6, #14
   87b40:	9009      	str	r0, [sp, #36]	; 0x24
   87b42:	6420      	str	r0, [r4, #64]	; 0x40
   87b44:	f63f ad6c 	bhi.w	87620 <_dtoa_r+0x218>
   87b48:	2d00      	cmp	r5, #0
   87b4a:	f43f ad69 	beq.w	87620 <_dtoa_r+0x218>
   87b4e:	9d07      	ldr	r5, [sp, #28]
   87b50:	e9cd ab12 	strd	sl, fp, [sp, #72]	; 0x48
   87b54:	2d00      	cmp	r5, #0
   87b56:	f340 821c 	ble.w	87f92 <_dtoa_r+0xb8a>
   87b5a:	4b51      	ldr	r3, [pc, #324]	; (87ca0 <_dtoa_r+0x898>)
   87b5c:	f005 020f 	and.w	r2, r5, #15
   87b60:	eb03 03c2 	add.w	r3, r3, r2, lsl #3
   87b64:	112d      	asrs	r5, r5, #4
   87b66:	e9d3 6700 	ldrd	r6, r7, [r3]
   87b6a:	06eb      	lsls	r3, r5, #27
   87b6c:	f140 81cd 	bpl.w	87f0a <_dtoa_r+0xb02>
   87b70:	4b4c      	ldr	r3, [pc, #304]	; (87ca4 <_dtoa_r+0x89c>)
   87b72:	4650      	mov	r0, sl
   87b74:	4659      	mov	r1, fp
   87b76:	e9d3 2308 	ldrd	r2, r3, [r3, #32]
   87b7a:	f7fc fb95 	bl	842a8 <__aeabi_ddiv>
   87b7e:	e9cd 0110 	strd	r0, r1, [sp, #64]	; 0x40
   87b82:	f005 050f 	and.w	r5, r5, #15
   87b86:	f04f 0803 	mov.w	r8, #3
   87b8a:	b18d      	cbz	r5, 87bb0 <_dtoa_r+0x7a8>
   87b8c:	f8df a114 	ldr.w	sl, [pc, #276]	; 87ca4 <_dtoa_r+0x89c>
   87b90:	4630      	mov	r0, r6
   87b92:	4639      	mov	r1, r7
   87b94:	07ee      	lsls	r6, r5, #31
   87b96:	d505      	bpl.n	87ba4 <_dtoa_r+0x79c>
   87b98:	e9da 2300 	ldrd	r2, r3, [sl]
   87b9c:	f108 0801 	add.w	r8, r8, #1
   87ba0:	f7fc fa58 	bl	84054 <__aeabi_dmul>
   87ba4:	106d      	asrs	r5, r5, #1
   87ba6:	f10a 0a08 	add.w	sl, sl, #8
   87baa:	d1f3      	bne.n	87b94 <_dtoa_r+0x78c>
   87bac:	4606      	mov	r6, r0
   87bae:	460f      	mov	r7, r1
   87bb0:	e9dd 0110 	ldrd	r0, r1, [sp, #64]	; 0x40
   87bb4:	4632      	mov	r2, r6
   87bb6:	463b      	mov	r3, r7
   87bb8:	f7fc fb76 	bl	842a8 <__aeabi_ddiv>
   87bbc:	4682      	mov	sl, r0
   87bbe:	468b      	mov	fp, r1
   87bc0:	9d0e      	ldr	r5, [sp, #56]	; 0x38
   87bc2:	b145      	cbz	r5, 87bd6 <_dtoa_r+0x7ce>
   87bc4:	4650      	mov	r0, sl
   87bc6:	4659      	mov	r1, fp
   87bc8:	2200      	movs	r2, #0
   87bca:	4b37      	ldr	r3, [pc, #220]	; (87ca8 <_dtoa_r+0x8a0>)
   87bcc:	f7fc fcb4 	bl	84538 <__aeabi_dcmplt>
   87bd0:	2800      	cmp	r0, #0
   87bd2:	f040 82aa 	bne.w	8812a <_dtoa_r+0xd22>
   87bd6:	4640      	mov	r0, r8
   87bd8:	f7fc f9d6 	bl	83f88 <__aeabi_i2d>
   87bdc:	4652      	mov	r2, sl
   87bde:	465b      	mov	r3, fp
   87be0:	f7fc fa38 	bl	84054 <__aeabi_dmul>
   87be4:	2200      	movs	r2, #0
   87be6:	4b31      	ldr	r3, [pc, #196]	; (87cac <_dtoa_r+0x8a4>)
   87be8:	f7fc f882 	bl	83cf0 <__adddf3>
   87bec:	4606      	mov	r6, r0
   87bee:	f1a1 7750 	sub.w	r7, r1, #54525952	; 0x3400000
   87bf2:	f1b9 0f00 	cmp.w	r9, #0
   87bf6:	f000 815a 	beq.w	87eae <_dtoa_r+0xaa6>
   87bfa:	9d07      	ldr	r5, [sp, #28]
   87bfc:	46c8      	mov	r8, r9
   87bfe:	9517      	str	r5, [sp, #92]	; 0x5c
   87c00:	9d0b      	ldr	r5, [sp, #44]	; 0x2c
   87c02:	2d00      	cmp	r5, #0
   87c04:	f000 8223 	beq.w	8804e <_dtoa_r+0xc46>
   87c08:	4b25      	ldr	r3, [pc, #148]	; (87ca0 <_dtoa_r+0x898>)
   87c0a:	2000      	movs	r0, #0
   87c0c:	eb03 03c8 	add.w	r3, r3, r8, lsl #3
   87c10:	e953 2302 	ldrd	r2, r3, [r3, #-8]
   87c14:	4926      	ldr	r1, [pc, #152]	; (87cb0 <_dtoa_r+0x8a8>)
   87c16:	f7fc fb47 	bl	842a8 <__aeabi_ddiv>
   87c1a:	4632      	mov	r2, r6
   87c1c:	463b      	mov	r3, r7
   87c1e:	f7fc f865 	bl	83cec <__aeabi_dsub>
   87c22:	e9cd 0110 	strd	r0, r1, [sp, #64]	; 0x40
   87c26:	4659      	mov	r1, fp
   87c28:	4650      	mov	r0, sl
   87c2a:	f7fc fcad 	bl	84588 <__aeabi_d2iz>
   87c2e:	4605      	mov	r5, r0
   87c30:	f7fc f9aa 	bl	83f88 <__aeabi_i2d>
   87c34:	4602      	mov	r2, r0
   87c36:	460b      	mov	r3, r1
   87c38:	4650      	mov	r0, sl
   87c3a:	4659      	mov	r1, fp
   87c3c:	f7fc f856 	bl	83cec <__aeabi_dsub>
   87c40:	3530      	adds	r5, #48	; 0x30
   87c42:	9e09      	ldr	r6, [sp, #36]	; 0x24
   87c44:	e9cd 0104 	strd	r0, r1, [sp, #16]
   87c48:	e9dd 2304 	ldrd	r2, r3, [sp, #16]
   87c4c:	e9dd 0110 	ldrd	r0, r1, [sp, #64]	; 0x40
   87c50:	b2ed      	uxtb	r5, r5
   87c52:	7035      	strb	r5, [r6, #0]
   87c54:	f106 0b01 	add.w	fp, r6, #1
   87c58:	f7fc fc8c 	bl	84574 <__aeabi_dcmpgt>
   87c5c:	2800      	cmp	r0, #0
   87c5e:	f040 82ab 	bne.w	881b8 <_dtoa_r+0xdb0>
   87c62:	e9dd 2304 	ldrd	r2, r3, [sp, #16]
   87c66:	2000      	movs	r0, #0
   87c68:	490f      	ldr	r1, [pc, #60]	; (87ca8 <_dtoa_r+0x8a0>)
   87c6a:	f7fc f83f 	bl	83cec <__aeabi_dsub>
   87c6e:	4602      	mov	r2, r0
   87c70:	460b      	mov	r3, r1
   87c72:	e9dd 0110 	ldrd	r0, r1, [sp, #64]	; 0x40
   87c76:	f7fc fc7d 	bl	84574 <__aeabi_dcmpgt>
   87c7a:	2800      	cmp	r0, #0
   87c7c:	f040 82a2 	bne.w	881c4 <_dtoa_r+0xdbc>
   87c80:	f1b8 0f01 	cmp.w	r8, #1
   87c84:	f340 8181 	ble.w	87f8a <_dtoa_r+0xb82>
   87c88:	44b0      	add	r8, r6
   87c8a:	f8cd 9050 	str.w	r9, [sp, #80]	; 0x50
   87c8e:	46a2      	mov	sl, r4
   87c90:	46c1      	mov	r9, r8
   87c92:	e9dd 6704 	ldrd	r6, r7, [sp, #16]
   87c96:	e9dd 4510 	ldrd	r4, r5, [sp, #64]	; 0x40
   87c9a:	e019      	b.n	87cd0 <_dtoa_r+0x8c8>
   87c9c:	fffffbee 	.word	0xfffffbee
   87ca0:	0008ab20 	.word	0x0008ab20
   87ca4:	0008abe8 	.word	0x0008abe8
   87ca8:	3ff00000 	.word	0x3ff00000
   87cac:	401c0000 	.word	0x401c0000
   87cb0:	3fe00000 	.word	0x3fe00000
   87cb4:	2000      	movs	r0, #0
   87cb6:	49a8      	ldr	r1, [pc, #672]	; (87f58 <_dtoa_r+0xb50>)
   87cb8:	f7fc f818 	bl	83cec <__aeabi_dsub>
   87cbc:	4622      	mov	r2, r4
   87cbe:	462b      	mov	r3, r5
   87cc0:	f7fc fc3a 	bl	84538 <__aeabi_dcmplt>
   87cc4:	2800      	cmp	r0, #0
   87cc6:	f040 827b 	bne.w	881c0 <_dtoa_r+0xdb8>
   87cca:	45cb      	cmp	fp, r9
   87ccc:	f000 815a 	beq.w	87f84 <_dtoa_r+0xb7c>
   87cd0:	4620      	mov	r0, r4
   87cd2:	4629      	mov	r1, r5
   87cd4:	2200      	movs	r2, #0
   87cd6:	4ba1      	ldr	r3, [pc, #644]	; (87f5c <_dtoa_r+0xb54>)
   87cd8:	f7fc f9bc 	bl	84054 <__aeabi_dmul>
   87cdc:	2200      	movs	r2, #0
   87cde:	4b9f      	ldr	r3, [pc, #636]	; (87f5c <_dtoa_r+0xb54>)
   87ce0:	4604      	mov	r4, r0
   87ce2:	460d      	mov	r5, r1
   87ce4:	4630      	mov	r0, r6
   87ce6:	4639      	mov	r1, r7
   87ce8:	f7fc f9b4 	bl	84054 <__aeabi_dmul>
   87cec:	460f      	mov	r7, r1
   87cee:	4606      	mov	r6, r0
   87cf0:	f7fc fc4a 	bl	84588 <__aeabi_d2iz>
   87cf4:	4680      	mov	r8, r0
   87cf6:	f7fc f947 	bl	83f88 <__aeabi_i2d>
   87cfa:	4602      	mov	r2, r0
   87cfc:	460b      	mov	r3, r1
   87cfe:	4630      	mov	r0, r6
   87d00:	4639      	mov	r1, r7
   87d02:	f7fb fff3 	bl	83cec <__aeabi_dsub>
   87d06:	f108 0830 	add.w	r8, r8, #48	; 0x30
   87d0a:	fa5f f888 	uxtb.w	r8, r8
   87d0e:	4622      	mov	r2, r4
   87d10:	462b      	mov	r3, r5
   87d12:	f80b 8b01 	strb.w	r8, [fp], #1
   87d16:	4606      	mov	r6, r0
   87d18:	460f      	mov	r7, r1
   87d1a:	f7fc fc0d 	bl	84538 <__aeabi_dcmplt>
   87d1e:	4632      	mov	r2, r6
   87d20:	463b      	mov	r3, r7
   87d22:	2800      	cmp	r0, #0
   87d24:	d0c6      	beq.n	87cb4 <_dtoa_r+0x8ac>
   87d26:	9e17      	ldr	r6, [sp, #92]	; 0x5c
   87d28:	4654      	mov	r4, sl
   87d2a:	9607      	str	r6, [sp, #28]
   87d2c:	e539      	b.n	877a2 <_dtoa_r+0x39a>
   87d2e:	2600      	movs	r6, #0
   87d30:	960b      	str	r6, [sp, #44]	; 0x2c
   87d32:	9825      	ldr	r0, [sp, #148]	; 0x94
   87d34:	2800      	cmp	r0, #0
   87d36:	dd3c      	ble.n	87db2 <_dtoa_r+0x9aa>
   87d38:	4606      	mov	r6, r0
   87d3a:	900f      	str	r0, [sp, #60]	; 0x3c
   87d3c:	4681      	mov	r9, r0
   87d3e:	e6ec      	b.n	87b1a <_dtoa_r+0x712>
   87d40:	2601      	movs	r6, #1
   87d42:	960b      	str	r6, [sp, #44]	; 0x2c
   87d44:	e7f5      	b.n	87d32 <_dtoa_r+0x92a>
   87d46:	f1b9 0f00 	cmp.w	r9, #0
   87d4a:	f73f ac7c 	bgt.w	87646 <_dtoa_r+0x23e>
   87d4e:	f040 80c6 	bne.w	87ede <_dtoa_r+0xad6>
   87d52:	e9dd 0104 	ldrd	r0, r1, [sp, #16]
   87d56:	2200      	movs	r2, #0
   87d58:	4b81      	ldr	r3, [pc, #516]	; (87f60 <_dtoa_r+0xb58>)
   87d5a:	f7fc f97b 	bl	84054 <__aeabi_dmul>
   87d5e:	4652      	mov	r2, sl
   87d60:	465b      	mov	r3, fp
   87d62:	f7fc fbfd 	bl	84560 <__aeabi_dcmpge>
   87d66:	46c8      	mov	r8, r9
   87d68:	464e      	mov	r6, r9
   87d6a:	2800      	cmp	r0, #0
   87d6c:	d07c      	beq.n	87e68 <_dtoa_r+0xa60>
   87d6e:	9d25      	ldr	r5, [sp, #148]	; 0x94
   87d70:	f8dd b024 	ldr.w	fp, [sp, #36]	; 0x24
   87d74:	43ed      	mvns	r5, r5
   87d76:	9507      	str	r5, [sp, #28]
   87d78:	4641      	mov	r1, r8
   87d7a:	4620      	mov	r0, r4
   87d7c:	f001 fadc 	bl	89338 <_Bfree>
   87d80:	2e00      	cmp	r6, #0
   87d82:	f47f ae06 	bne.w	87992 <_dtoa_r+0x58a>
   87d86:	e50c      	b.n	877a2 <_dtoa_r+0x39a>
   87d88:	990a      	ldr	r1, [sp, #40]	; 0x28
   87d8a:	4620      	mov	r0, r4
   87d8c:	f001 fc1e 	bl	895cc <__pow5mult>
   87d90:	900a      	str	r0, [sp, #40]	; 0x28
   87d92:	e56a      	b.n	8786a <_dtoa_r+0x462>
   87d94:	9d16      	ldr	r5, [sp, #88]	; 0x58
   87d96:	2d00      	cmp	r5, #0
   87d98:	f000 81b8 	beq.w	8810c <_dtoa_r+0xd04>
   87d9c:	f203 4333 	addw	r3, r3, #1075	; 0x433
   87da0:	9f0c      	ldr	r7, [sp, #48]	; 0x30
   87da2:	9d08      	ldr	r5, [sp, #32]
   87da4:	e527      	b.n	877f6 <_dtoa_r+0x3ee>
   87da6:	4601      	mov	r1, r0
   87da8:	4620      	mov	r0, r4
   87daa:	f001 fac5 	bl	89338 <_Bfree>
   87dae:	2201      	movs	r2, #1
   87db0:	e67a      	b.n	87aa8 <_dtoa_r+0x6a0>
   87db2:	2601      	movs	r6, #1
   87db4:	9625      	str	r6, [sp, #148]	; 0x94
   87db6:	960f      	str	r6, [sp, #60]	; 0x3c
   87db8:	46b1      	mov	r9, r6
   87dba:	2100      	movs	r1, #0
   87dbc:	6461      	str	r1, [r4, #68]	; 0x44
   87dbe:	e6bb      	b.n	87b38 <_dtoa_r+0x730>
   87dc0:	980a      	ldr	r0, [sp, #40]	; 0x28
   87dc2:	4641      	mov	r1, r8
   87dc4:	f001 fcae 	bl	89724 <__mcmp>
   87dc8:	2800      	cmp	r0, #0
   87dca:	f6bf ad8f 	bge.w	878ec <_dtoa_r+0x4e4>
   87dce:	f8dd e01c 	ldr.w	lr, [sp, #28]
   87dd2:	990a      	ldr	r1, [sp, #40]	; 0x28
   87dd4:	f10e 3eff 	add.w	lr, lr, #4294967295
   87dd8:	4620      	mov	r0, r4
   87dda:	220a      	movs	r2, #10
   87ddc:	2300      	movs	r3, #0
   87dde:	f8cd e01c 	str.w	lr, [sp, #28]
   87de2:	f001 fab3 	bl	8934c <__multadd>
   87de6:	900a      	str	r0, [sp, #40]	; 0x28
   87de8:	980b      	ldr	r0, [sp, #44]	; 0x2c
   87dea:	2800      	cmp	r0, #0
   87dec:	f040 8209 	bne.w	88202 <_dtoa_r+0xdfa>
   87df0:	f8dd 903c 	ldr.w	r9, [sp, #60]	; 0x3c
   87df4:	e57a      	b.n	878ec <_dtoa_r+0x4e4>
   87df6:	f8d8 3010 	ldr.w	r3, [r8, #16]
   87dfa:	eb08 0383 	add.w	r3, r8, r3, lsl #2
   87dfe:	6918      	ldr	r0, [r3, #16]
   87e00:	f001 faee 	bl	893e0 <__hi0bits>
   87e04:	f1c0 0020 	rsb	r0, r0, #32
   87e08:	e547      	b.n	8789a <_dtoa_r+0x492>
   87e0a:	9809      	ldr	r0, [sp, #36]	; 0x24
   87e0c:	f7ff bb2c 	b.w	87468 <_dtoa_r+0x60>
   87e10:	f1ba 0f00 	cmp.w	sl, #0
   87e14:	f47f ad3b 	bne.w	8788e <_dtoa_r+0x486>
   87e18:	f3cb 0313 	ubfx	r3, fp, #0, #20
   87e1c:	2b00      	cmp	r3, #0
   87e1e:	f040 817c 	bne.w	8811a <_dtoa_r+0xd12>
   87e22:	f02b 4700 	bic.w	r7, fp, #2147483648	; 0x80000000
   87e26:	0d3f      	lsrs	r7, r7, #20
   87e28:	053f      	lsls	r7, r7, #20
   87e2a:	2f00      	cmp	r7, #0
   87e2c:	f43f ad30 	beq.w	87890 <_dtoa_r+0x488>
   87e30:	9a08      	ldr	r2, [sp, #32]
   87e32:	9b06      	ldr	r3, [sp, #24]
   87e34:	3201      	adds	r2, #1
   87e36:	3301      	adds	r3, #1
   87e38:	9208      	str	r2, [sp, #32]
   87e3a:	9306      	str	r3, [sp, #24]
   87e3c:	2701      	movs	r7, #1
   87e3e:	e527      	b.n	87890 <_dtoa_r+0x488>
   87e40:	9924      	ldr	r1, [sp, #144]	; 0x90
   87e42:	2902      	cmp	r1, #2
   87e44:	f77f ad56 	ble.w	878f4 <_dtoa_r+0x4ec>
   87e48:	f1b9 0f00 	cmp.w	r9, #0
   87e4c:	d18f      	bne.n	87d6e <_dtoa_r+0x966>
   87e4e:	4641      	mov	r1, r8
   87e50:	464b      	mov	r3, r9
   87e52:	2205      	movs	r2, #5
   87e54:	4620      	mov	r0, r4
   87e56:	f001 fa79 	bl	8934c <__multadd>
   87e5a:	4680      	mov	r8, r0
   87e5c:	4641      	mov	r1, r8
   87e5e:	980a      	ldr	r0, [sp, #40]	; 0x28
   87e60:	f001 fc60 	bl	89724 <__mcmp>
   87e64:	2800      	cmp	r0, #0
   87e66:	dd82      	ble.n	87d6e <_dtoa_r+0x966>
   87e68:	9d07      	ldr	r5, [sp, #28]
   87e6a:	2331      	movs	r3, #49	; 0x31
   87e6c:	3501      	adds	r5, #1
   87e6e:	9507      	str	r5, [sp, #28]
   87e70:	9d09      	ldr	r5, [sp, #36]	; 0x24
   87e72:	702b      	strb	r3, [r5, #0]
   87e74:	f105 0b01 	add.w	fp, r5, #1
   87e78:	e77e      	b.n	87d78 <_dtoa_r+0x970>
   87e7a:	9807      	ldr	r0, [sp, #28]
   87e7c:	9909      	ldr	r1, [sp, #36]	; 0x24
   87e7e:	2331      	movs	r3, #49	; 0x31
   87e80:	3001      	adds	r0, #1
   87e82:	9007      	str	r0, [sp, #28]
   87e84:	700b      	strb	r3, [r1, #0]
   87e86:	e576      	b.n	87976 <_dtoa_r+0x56e>
   87e88:	46a3      	mov	fp, r4
   87e8a:	9c03      	ldr	r4, [sp, #12]
   87e8c:	e489      	b.n	877a2 <_dtoa_r+0x39a>
   87e8e:	4640      	mov	r0, r8
   87e90:	f7fc f87a 	bl	83f88 <__aeabi_i2d>
   87e94:	4602      	mov	r2, r0
   87e96:	460b      	mov	r3, r1
   87e98:	4650      	mov	r0, sl
   87e9a:	4659      	mov	r1, fp
   87e9c:	f7fc f8da 	bl	84054 <__aeabi_dmul>
   87ea0:	2200      	movs	r2, #0
   87ea2:	4b30      	ldr	r3, [pc, #192]	; (87f64 <_dtoa_r+0xb5c>)
   87ea4:	f7fb ff24 	bl	83cf0 <__adddf3>
   87ea8:	4606      	mov	r6, r0
   87eaa:	f1a1 7750 	sub.w	r7, r1, #54525952	; 0x3400000
   87eae:	4650      	mov	r0, sl
   87eb0:	4659      	mov	r1, fp
   87eb2:	2200      	movs	r2, #0
   87eb4:	4b2a      	ldr	r3, [pc, #168]	; (87f60 <_dtoa_r+0xb58>)
   87eb6:	f7fb ff19 	bl	83cec <__aeabi_dsub>
   87eba:	4632      	mov	r2, r6
   87ebc:	463b      	mov	r3, r7
   87ebe:	4682      	mov	sl, r0
   87ec0:	468b      	mov	fp, r1
   87ec2:	f7fc fb57 	bl	84574 <__aeabi_dcmpgt>
   87ec6:	2800      	cmp	r0, #0
   87ec8:	f040 80bd 	bne.w	88046 <_dtoa_r+0xc3e>
   87ecc:	4632      	mov	r2, r6
   87ece:	f107 4300 	add.w	r3, r7, #2147483648	; 0x80000000
   87ed2:	4650      	mov	r0, sl
   87ed4:	4659      	mov	r1, fp
   87ed6:	f7fc fb2f 	bl	84538 <__aeabi_dcmplt>
   87eda:	2800      	cmp	r0, #0
   87edc:	d055      	beq.n	87f8a <_dtoa_r+0xb82>
   87ede:	f04f 0800 	mov.w	r8, #0
   87ee2:	4646      	mov	r6, r8
   87ee4:	e743      	b.n	87d6e <_dtoa_r+0x966>
   87ee6:	990a      	ldr	r1, [sp, #40]	; 0x28
   87ee8:	9a0c      	ldr	r2, [sp, #48]	; 0x30
   87eea:	4620      	mov	r0, r4
   87eec:	f001 fb6e 	bl	895cc <__pow5mult>
   87ef0:	900a      	str	r0, [sp, #40]	; 0x28
   87ef2:	e4ba      	b.n	8786a <_dtoa_r+0x462>
   87ef4:	2601      	movs	r6, #1
   87ef6:	960b      	str	r6, [sp, #44]	; 0x2c
   87ef8:	e602      	b.n	87b00 <_dtoa_r+0x6f8>
   87efa:	9d0c      	ldr	r5, [sp, #48]	; 0x30
   87efc:	9e0d      	ldr	r6, [sp, #52]	; 0x34
   87efe:	1b7b      	subs	r3, r7, r5
   87f00:	441e      	add	r6, r3
   87f02:	970c      	str	r7, [sp, #48]	; 0x30
   87f04:	960d      	str	r6, [sp, #52]	; 0x34
   87f06:	2700      	movs	r7, #0
   87f08:	e46f      	b.n	877ea <_dtoa_r+0x3e2>
   87f0a:	e9dd 0112 	ldrd	r0, r1, [sp, #72]	; 0x48
   87f0e:	f04f 0802 	mov.w	r8, #2
   87f12:	e9cd 0110 	strd	r0, r1, [sp, #64]	; 0x40
   87f16:	e638      	b.n	87b8a <_dtoa_r+0x782>
   87f18:	2a00      	cmp	r2, #0
   87f1a:	f8cd 9028 	str.w	r9, [sp, #40]	; 0x28
   87f1e:	46d9      	mov	r9, fp
   87f20:	dd11      	ble.n	87f46 <_dtoa_r+0xb3e>
   87f22:	990a      	ldr	r1, [sp, #40]	; 0x28
   87f24:	2201      	movs	r2, #1
   87f26:	4620      	mov	r0, r4
   87f28:	f001 fb9e 	bl	89668 <__lshift>
   87f2c:	4641      	mov	r1, r8
   87f2e:	900a      	str	r0, [sp, #40]	; 0x28
   87f30:	f001 fbf8 	bl	89724 <__mcmp>
   87f34:	2800      	cmp	r0, #0
   87f36:	f340 815d 	ble.w	881f4 <_dtoa_r+0xdec>
   87f3a:	f1ba 0f39 	cmp.w	sl, #57	; 0x39
   87f3e:	f000 811b 	beq.w	88178 <_dtoa_r+0xd70>
   87f42:	f109 0a31 	add.w	sl, r9, #49	; 0x31
   87f46:	9b06      	ldr	r3, [sp, #24]
   87f48:	4635      	mov	r5, r6
   87f4a:	f883 a000 	strb.w	sl, [r3]
   87f4e:	f103 0b01 	add.w	fp, r3, #1
   87f52:	463e      	mov	r6, r7
   87f54:	e50f      	b.n	87976 <_dtoa_r+0x56e>
   87f56:	bf00      	nop
   87f58:	3ff00000 	.word	0x3ff00000
   87f5c:	40240000 	.word	0x40240000
   87f60:	40140000 	.word	0x40140000
   87f64:	401c0000 	.word	0x401c0000
   87f68:	d103      	bne.n	87f72 <_dtoa_r+0xb6a>
   87f6a:	f01a 0f01 	tst.w	sl, #1
   87f6e:	f47f acf2 	bne.w	87956 <_dtoa_r+0x54e>
   87f72:	465b      	mov	r3, fp
   87f74:	f813 2c01 	ldrb.w	r2, [r3, #-1]
   87f78:	469b      	mov	fp, r3
   87f7a:	2a30      	cmp	r2, #48	; 0x30
   87f7c:	f103 33ff 	add.w	r3, r3, #4294967295
   87f80:	d0f8      	beq.n	87f74 <_dtoa_r+0xb6c>
   87f82:	e4f8      	b.n	87976 <_dtoa_r+0x56e>
   87f84:	f8dd 9050 	ldr.w	r9, [sp, #80]	; 0x50
   87f88:	4654      	mov	r4, sl
   87f8a:	e9dd ab12 	ldrd	sl, fp, [sp, #72]	; 0x48
   87f8e:	f7ff bb47 	b.w	87620 <_dtoa_r+0x218>
   87f92:	9e07      	ldr	r6, [sp, #28]
   87f94:	4275      	negs	r5, r6
   87f96:	2d00      	cmp	r5, #0
   87f98:	f000 80c2 	beq.w	88120 <_dtoa_r+0xd18>
   87f9c:	4ba3      	ldr	r3, [pc, #652]	; (8822c <_dtoa_r+0xe24>)
   87f9e:	f005 020f 	and.w	r2, r5, #15
   87fa2:	eb03 03c2 	add.w	r3, r3, r2, lsl #3
   87fa6:	e9d3 2300 	ldrd	r2, r3, [r3]
   87faa:	e9dd 0112 	ldrd	r0, r1, [sp, #72]	; 0x48
   87fae:	f7fc f851 	bl	84054 <__aeabi_dmul>
   87fb2:	112d      	asrs	r5, r5, #4
   87fb4:	4682      	mov	sl, r0
   87fb6:	468b      	mov	fp, r1
   87fb8:	f000 812e 	beq.w	88218 <_dtoa_r+0xe10>
   87fbc:	4e9c      	ldr	r6, [pc, #624]	; (88230 <_dtoa_r+0xe28>)
   87fbe:	f04f 0802 	mov.w	r8, #2
   87fc2:	07ea      	lsls	r2, r5, #31
   87fc4:	d505      	bpl.n	87fd2 <_dtoa_r+0xbca>
   87fc6:	e9d6 2300 	ldrd	r2, r3, [r6]
   87fca:	f108 0801 	add.w	r8, r8, #1
   87fce:	f7fc f841 	bl	84054 <__aeabi_dmul>
   87fd2:	106d      	asrs	r5, r5, #1
   87fd4:	f106 0608 	add.w	r6, r6, #8
   87fd8:	d1f3      	bne.n	87fc2 <_dtoa_r+0xbba>
   87fda:	4682      	mov	sl, r0
   87fdc:	468b      	mov	fp, r1
   87fde:	e5ef      	b.n	87bc0 <_dtoa_r+0x7b8>
   87fe0:	9e07      	ldr	r6, [sp, #28]
   87fe2:	9d09      	ldr	r5, [sp, #36]	; 0x24
   87fe4:	2230      	movs	r2, #48	; 0x30
   87fe6:	702a      	strb	r2, [r5, #0]
   87fe8:	3601      	adds	r6, #1
   87fea:	2231      	movs	r2, #49	; 0x31
   87fec:	9607      	str	r6, [sp, #28]
   87fee:	701a      	strb	r2, [r3, #0]
   87ff0:	f7ff bbd7 	b.w	877a2 <_dtoa_r+0x39a>
   87ff4:	6871      	ldr	r1, [r6, #4]
   87ff6:	4620      	mov	r0, r4
   87ff8:	f001 f978 	bl	892ec <_Balloc>
   87ffc:	6933      	ldr	r3, [r6, #16]
   87ffe:	4605      	mov	r5, r0
   88000:	1c9a      	adds	r2, r3, #2
   88002:	0092      	lsls	r2, r2, #2
   88004:	f106 010c 	add.w	r1, r6, #12
   88008:	300c      	adds	r0, #12
   8800a:	f7fc fdd5 	bl	84bb8 <memcpy>
   8800e:	4620      	mov	r0, r4
   88010:	4629      	mov	r1, r5
   88012:	2201      	movs	r2, #1
   88014:	f001 fb28 	bl	89668 <__lshift>
   88018:	4607      	mov	r7, r0
   8801a:	e503      	b.n	87a24 <_dtoa_r+0x61c>
   8801c:	f1ba 0f39 	cmp.w	sl, #57	; 0x39
   88020:	f8cd 9028 	str.w	r9, [sp, #40]	; 0x28
   88024:	f000 80a8 	beq.w	88178 <_dtoa_r+0xd70>
   88028:	9d06      	ldr	r5, [sp, #24]
   8802a:	f10a 0301 	add.w	r3, sl, #1
   8802e:	702b      	strb	r3, [r5, #0]
   88030:	4635      	mov	r5, r6
   88032:	9e06      	ldr	r6, [sp, #24]
   88034:	f106 0b01 	add.w	fp, r6, #1
   88038:	463e      	mov	r6, r7
   8803a:	e49c      	b.n	87976 <_dtoa_r+0x56e>
   8803c:	4635      	mov	r5, r6
   8803e:	f8cd 9028 	str.w	r9, [sp, #40]	; 0x28
   88042:	463e      	mov	r6, r7
   88044:	e47b      	b.n	8793e <_dtoa_r+0x536>
   88046:	f04f 0800 	mov.w	r8, #0
   8804a:	4646      	mov	r6, r8
   8804c:	e70c      	b.n	87e68 <_dtoa_r+0xa60>
   8804e:	4977      	ldr	r1, [pc, #476]	; (8822c <_dtoa_r+0xe24>)
   88050:	f108 35ff 	add.w	r5, r8, #4294967295
   88054:	eb01 01c5 	add.w	r1, r1, r5, lsl #3
   88058:	4632      	mov	r2, r6
   8805a:	463b      	mov	r3, r7
   8805c:	e9d1 0100 	ldrd	r0, r1, [r1]
   88060:	9510      	str	r5, [sp, #64]	; 0x40
   88062:	f7fb fff7 	bl	84054 <__aeabi_dmul>
   88066:	e9cd 0114 	strd	r0, r1, [sp, #80]	; 0x50
   8806a:	4659      	mov	r1, fp
   8806c:	4650      	mov	r0, sl
   8806e:	f7fc fa8b 	bl	84588 <__aeabi_d2iz>
   88072:	4605      	mov	r5, r0
   88074:	f7fb ff88 	bl	83f88 <__aeabi_i2d>
   88078:	4602      	mov	r2, r0
   8807a:	460b      	mov	r3, r1
   8807c:	4650      	mov	r0, sl
   8807e:	4659      	mov	r1, fp
   88080:	f7fb fe34 	bl	83cec <__aeabi_dsub>
   88084:	f8dd e024 	ldr.w	lr, [sp, #36]	; 0x24
   88088:	3530      	adds	r5, #48	; 0x30
   8808a:	f1b8 0f01 	cmp.w	r8, #1
   8808e:	4606      	mov	r6, r0
   88090:	460f      	mov	r7, r1
   88092:	f88e 5000 	strb.w	r5, [lr]
   88096:	f10e 0b01 	add.w	fp, lr, #1
   8809a:	d01e      	beq.n	880da <_dtoa_r+0xcd2>
   8809c:	9d09      	ldr	r5, [sp, #36]	; 0x24
   8809e:	1e6b      	subs	r3, r5, #1
   880a0:	eb03 0a08 	add.w	sl, r3, r8
   880a4:	2200      	movs	r2, #0
   880a6:	4b63      	ldr	r3, [pc, #396]	; (88234 <_dtoa_r+0xe2c>)
   880a8:	f7fb ffd4 	bl	84054 <__aeabi_dmul>
   880ac:	460f      	mov	r7, r1
   880ae:	4606      	mov	r6, r0
   880b0:	f7fc fa6a 	bl	84588 <__aeabi_d2iz>
   880b4:	4680      	mov	r8, r0
   880b6:	f7fb ff67 	bl	83f88 <__aeabi_i2d>
   880ba:	f108 0830 	add.w	r8, r8, #48	; 0x30
   880be:	4602      	mov	r2, r0
   880c0:	460b      	mov	r3, r1
   880c2:	4630      	mov	r0, r6
   880c4:	4639      	mov	r1, r7
   880c6:	f7fb fe11 	bl	83cec <__aeabi_dsub>
   880ca:	f805 8f01 	strb.w	r8, [r5, #1]!
   880ce:	4555      	cmp	r5, sl
   880d0:	d1e8      	bne.n	880a4 <_dtoa_r+0xc9c>
   880d2:	9d10      	ldr	r5, [sp, #64]	; 0x40
   880d4:	4606      	mov	r6, r0
   880d6:	460f      	mov	r7, r1
   880d8:	44ab      	add	fp, r5
   880da:	2200      	movs	r2, #0
   880dc:	4b56      	ldr	r3, [pc, #344]	; (88238 <_dtoa_r+0xe30>)
   880de:	e9dd 0114 	ldrd	r0, r1, [sp, #80]	; 0x50
   880e2:	f7fb fe05 	bl	83cf0 <__adddf3>
   880e6:	4632      	mov	r2, r6
   880e8:	463b      	mov	r3, r7
   880ea:	f7fc fa25 	bl	84538 <__aeabi_dcmplt>
   880ee:	2800      	cmp	r0, #0
   880f0:	d04d      	beq.n	8818e <_dtoa_r+0xd86>
   880f2:	9e17      	ldr	r6, [sp, #92]	; 0x5c
   880f4:	9a09      	ldr	r2, [sp, #36]	; 0x24
   880f6:	9607      	str	r6, [sp, #28]
   880f8:	f81b 5c01 	ldrb.w	r5, [fp, #-1]
   880fc:	f7ff bb4a 	b.w	87794 <_dtoa_r+0x38c>
   88100:	9e08      	ldr	r6, [sp, #32]
   88102:	2300      	movs	r3, #0
   88104:	ebc9 0506 	rsb	r5, r9, r6
   88108:	f7ff bb75 	b.w	877f6 <_dtoa_r+0x3ee>
   8810c:	9b18      	ldr	r3, [sp, #96]	; 0x60
   8810e:	9f0c      	ldr	r7, [sp, #48]	; 0x30
   88110:	f1c3 0336 	rsb	r3, r3, #54	; 0x36
   88114:	9d08      	ldr	r5, [sp, #32]
   88116:	f7ff bb6e 	b.w	877f6 <_dtoa_r+0x3ee>
   8811a:	4657      	mov	r7, sl
   8811c:	f7ff bbb8 	b.w	87890 <_dtoa_r+0x488>
   88120:	e9dd ab12 	ldrd	sl, fp, [sp, #72]	; 0x48
   88124:	f04f 0802 	mov.w	r8, #2
   88128:	e54a      	b.n	87bc0 <_dtoa_r+0x7b8>
   8812a:	f1b9 0f00 	cmp.w	r9, #0
   8812e:	f43f aeae 	beq.w	87e8e <_dtoa_r+0xa86>
   88132:	9e0f      	ldr	r6, [sp, #60]	; 0x3c
   88134:	2e00      	cmp	r6, #0
   88136:	f77f af28 	ble.w	87f8a <_dtoa_r+0xb82>
   8813a:	2200      	movs	r2, #0
   8813c:	4b3d      	ldr	r3, [pc, #244]	; (88234 <_dtoa_r+0xe2c>)
   8813e:	4650      	mov	r0, sl
   88140:	4659      	mov	r1, fp
   88142:	f7fb ff87 	bl	84054 <__aeabi_dmul>
   88146:	4682      	mov	sl, r0
   88148:	f108 0001 	add.w	r0, r8, #1
   8814c:	468b      	mov	fp, r1
   8814e:	f7fb ff1b 	bl	83f88 <__aeabi_i2d>
   88152:	4602      	mov	r2, r0
   88154:	460b      	mov	r3, r1
   88156:	4650      	mov	r0, sl
   88158:	4659      	mov	r1, fp
   8815a:	f7fb ff7b 	bl	84054 <__aeabi_dmul>
   8815e:	2200      	movs	r2, #0
   88160:	4b36      	ldr	r3, [pc, #216]	; (8823c <_dtoa_r+0xe34>)
   88162:	f7fb fdc5 	bl	83cf0 <__adddf3>
   88166:	9d07      	ldr	r5, [sp, #28]
   88168:	4606      	mov	r6, r0
   8816a:	3d01      	subs	r5, #1
   8816c:	f1a1 7750 	sub.w	r7, r1, #54525952	; 0x3400000
   88170:	9517      	str	r5, [sp, #92]	; 0x5c
   88172:	f8dd 803c 	ldr.w	r8, [sp, #60]	; 0x3c
   88176:	e543      	b.n	87c00 <_dtoa_r+0x7f8>
   88178:	4635      	mov	r5, r6
   8817a:	9b06      	ldr	r3, [sp, #24]
   8817c:	9e06      	ldr	r6, [sp, #24]
   8817e:	2239      	movs	r2, #57	; 0x39
   88180:	7032      	strb	r2, [r6, #0]
   88182:	f103 0b01 	add.w	fp, r3, #1
   88186:	463e      	mov	r6, r7
   88188:	9909      	ldr	r1, [sp, #36]	; 0x24
   8818a:	f7ff bbee 	b.w	8796a <_dtoa_r+0x562>
   8818e:	e9dd 2314 	ldrd	r2, r3, [sp, #80]	; 0x50
   88192:	2000      	movs	r0, #0
   88194:	4928      	ldr	r1, [pc, #160]	; (88238 <_dtoa_r+0xe30>)
   88196:	f7fb fda9 	bl	83cec <__aeabi_dsub>
   8819a:	4632      	mov	r2, r6
   8819c:	463b      	mov	r3, r7
   8819e:	f7fc f9e9 	bl	84574 <__aeabi_dcmpgt>
   881a2:	2800      	cmp	r0, #0
   881a4:	f43f aef1 	beq.w	87f8a <_dtoa_r+0xb82>
   881a8:	465b      	mov	r3, fp
   881aa:	f813 2c01 	ldrb.w	r2, [r3, #-1]
   881ae:	469b      	mov	fp, r3
   881b0:	2a30      	cmp	r2, #48	; 0x30
   881b2:	f103 33ff 	add.w	r3, r3, #4294967295
   881b6:	d0f8      	beq.n	881aa <_dtoa_r+0xda2>
   881b8:	9d17      	ldr	r5, [sp, #92]	; 0x5c
   881ba:	9507      	str	r5, [sp, #28]
   881bc:	f7ff baf1 	b.w	877a2 <_dtoa_r+0x39a>
   881c0:	4645      	mov	r5, r8
   881c2:	4654      	mov	r4, sl
   881c4:	9e17      	ldr	r6, [sp, #92]	; 0x5c
   881c6:	9a09      	ldr	r2, [sp, #36]	; 0x24
   881c8:	9607      	str	r6, [sp, #28]
   881ca:	f7ff bae3 	b.w	87794 <_dtoa_r+0x38c>
   881ce:	f1ba 0f39 	cmp.w	sl, #57	; 0x39
   881d2:	f8cd 9028 	str.w	r9, [sp, #40]	; 0x28
   881d6:	d0cf      	beq.n	88178 <_dtoa_r+0xd70>
   881d8:	9b03      	ldr	r3, [sp, #12]
   881da:	4635      	mov	r5, r6
   881dc:	2b00      	cmp	r3, #0
   881de:	9e06      	ldr	r6, [sp, #24]
   881e0:	bfc8      	it	gt
   881e2:	f10b 0a31 	addgt.w	sl, fp, #49	; 0x31
   881e6:	f886 a000 	strb.w	sl, [r6]
   881ea:	f106 0b01 	add.w	fp, r6, #1
   881ee:	463e      	mov	r6, r7
   881f0:	f7ff bbc1 	b.w	87976 <_dtoa_r+0x56e>
   881f4:	f47f aea7 	bne.w	87f46 <_dtoa_r+0xb3e>
   881f8:	f01a 0f01 	tst.w	sl, #1
   881fc:	f43f aea3 	beq.w	87f46 <_dtoa_r+0xb3e>
   88200:	e69b      	b.n	87f3a <_dtoa_r+0xb32>
   88202:	4631      	mov	r1, r6
   88204:	4620      	mov	r0, r4
   88206:	220a      	movs	r2, #10
   88208:	2300      	movs	r3, #0
   8820a:	f8dd 903c 	ldr.w	r9, [sp, #60]	; 0x3c
   8820e:	f001 f89d 	bl	8934c <__multadd>
   88212:	4606      	mov	r6, r0
   88214:	f7ff bb6a 	b.w	878ec <_dtoa_r+0x4e4>
   88218:	f04f 0802 	mov.w	r8, #2
   8821c:	e4d0      	b.n	87bc0 <_dtoa_r+0x7b8>
   8821e:	f43f ab50 	beq.w	878c2 <_dtoa_r+0x4ba>
   88222:	f1c3 033c 	rsb	r3, r3, #60	; 0x3c
   88226:	f7ff bbe0 	b.w	879ea <_dtoa_r+0x5e2>
   8822a:	bf00      	nop
   8822c:	0008ab20 	.word	0x0008ab20
   88230:	0008abe8 	.word	0x0008abe8
   88234:	40240000 	.word	0x40240000
   88238:	3fe00000 	.word	0x3fe00000
   8823c:	401c0000 	.word	0x401c0000

00088240 <__sflush_r>:
   88240:	898b      	ldrh	r3, [r1, #12]
   88242:	e92d 41f0 	stmdb	sp!, {r4, r5, r6, r7, r8, lr}
   88246:	b29a      	uxth	r2, r3
   88248:	460d      	mov	r5, r1
   8824a:	0711      	lsls	r1, r2, #28
   8824c:	4680      	mov	r8, r0
   8824e:	d43c      	bmi.n	882ca <__sflush_r+0x8a>
   88250:	686a      	ldr	r2, [r5, #4]
   88252:	f443 6300 	orr.w	r3, r3, #2048	; 0x800
   88256:	2a00      	cmp	r2, #0
   88258:	81ab      	strh	r3, [r5, #12]
   8825a:	dd59      	ble.n	88310 <__sflush_r+0xd0>
   8825c:	6aac      	ldr	r4, [r5, #40]	; 0x28
   8825e:	2c00      	cmp	r4, #0
   88260:	d04b      	beq.n	882fa <__sflush_r+0xba>
   88262:	b29b      	uxth	r3, r3
   88264:	f403 5280 	and.w	r2, r3, #4096	; 0x1000
   88268:	2100      	movs	r1, #0
   8826a:	b292      	uxth	r2, r2
   8826c:	f8d8 6000 	ldr.w	r6, [r8]
   88270:	f8c8 1000 	str.w	r1, [r8]
   88274:	2a00      	cmp	r2, #0
   88276:	d04f      	beq.n	88318 <__sflush_r+0xd8>
   88278:	6d2a      	ldr	r2, [r5, #80]	; 0x50
   8827a:	075f      	lsls	r7, r3, #29
   8827c:	d505      	bpl.n	8828a <__sflush_r+0x4a>
   8827e:	6869      	ldr	r1, [r5, #4]
   88280:	6b2b      	ldr	r3, [r5, #48]	; 0x30
   88282:	1a52      	subs	r2, r2, r1
   88284:	b10b      	cbz	r3, 8828a <__sflush_r+0x4a>
   88286:	6beb      	ldr	r3, [r5, #60]	; 0x3c
   88288:	1ad2      	subs	r2, r2, r3
   8828a:	4640      	mov	r0, r8
   8828c:	69e9      	ldr	r1, [r5, #28]
   8828e:	2300      	movs	r3, #0
   88290:	47a0      	blx	r4
   88292:	1c44      	adds	r4, r0, #1
   88294:	d04a      	beq.n	8832c <__sflush_r+0xec>
   88296:	89ab      	ldrh	r3, [r5, #12]
   88298:	692a      	ldr	r2, [r5, #16]
   8829a:	f423 6300 	bic.w	r3, r3, #2048	; 0x800
   8829e:	b29b      	uxth	r3, r3
   882a0:	2100      	movs	r1, #0
   882a2:	602a      	str	r2, [r5, #0]
   882a4:	04da      	lsls	r2, r3, #19
   882a6:	81ab      	strh	r3, [r5, #12]
   882a8:	6069      	str	r1, [r5, #4]
   882aa:	d44c      	bmi.n	88346 <__sflush_r+0x106>
   882ac:	6b29      	ldr	r1, [r5, #48]	; 0x30
   882ae:	f8c8 6000 	str.w	r6, [r8]
   882b2:	b311      	cbz	r1, 882fa <__sflush_r+0xba>
   882b4:	f105 0340 	add.w	r3, r5, #64	; 0x40
   882b8:	4299      	cmp	r1, r3
   882ba:	d002      	beq.n	882c2 <__sflush_r+0x82>
   882bc:	4640      	mov	r0, r8
   882be:	f000 f9c3 	bl	88648 <_free_r>
   882c2:	2000      	movs	r0, #0
   882c4:	6328      	str	r0, [r5, #48]	; 0x30
   882c6:	e8bd 81f0 	ldmia.w	sp!, {r4, r5, r6, r7, r8, pc}
   882ca:	692e      	ldr	r6, [r5, #16]
   882cc:	b1ae      	cbz	r6, 882fa <__sflush_r+0xba>
   882ce:	0791      	lsls	r1, r2, #30
   882d0:	682c      	ldr	r4, [r5, #0]
   882d2:	bf0c      	ite	eq
   882d4:	696b      	ldreq	r3, [r5, #20]
   882d6:	2300      	movne	r3, #0
   882d8:	602e      	str	r6, [r5, #0]
   882da:	1ba4      	subs	r4, r4, r6
   882dc:	60ab      	str	r3, [r5, #8]
   882de:	e00a      	b.n	882f6 <__sflush_r+0xb6>
   882e0:	4632      	mov	r2, r6
   882e2:	4623      	mov	r3, r4
   882e4:	6a6f      	ldr	r7, [r5, #36]	; 0x24
   882e6:	4640      	mov	r0, r8
   882e8:	69e9      	ldr	r1, [r5, #28]
   882ea:	47b8      	blx	r7
   882ec:	2800      	cmp	r0, #0
   882ee:	ebc0 0404 	rsb	r4, r0, r4
   882f2:	4406      	add	r6, r0
   882f4:	dd04      	ble.n	88300 <__sflush_r+0xc0>
   882f6:	2c00      	cmp	r4, #0
   882f8:	dcf2      	bgt.n	882e0 <__sflush_r+0xa0>
   882fa:	2000      	movs	r0, #0
   882fc:	e8bd 81f0 	ldmia.w	sp!, {r4, r5, r6, r7, r8, pc}
   88300:	89ab      	ldrh	r3, [r5, #12]
   88302:	f04f 30ff 	mov.w	r0, #4294967295
   88306:	f043 0340 	orr.w	r3, r3, #64	; 0x40
   8830a:	81ab      	strh	r3, [r5, #12]
   8830c:	e8bd 81f0 	ldmia.w	sp!, {r4, r5, r6, r7, r8, pc}
   88310:	6bea      	ldr	r2, [r5, #60]	; 0x3c
   88312:	2a00      	cmp	r2, #0
   88314:	dca2      	bgt.n	8825c <__sflush_r+0x1c>
   88316:	e7f0      	b.n	882fa <__sflush_r+0xba>
   88318:	2301      	movs	r3, #1
   8831a:	4640      	mov	r0, r8
   8831c:	69e9      	ldr	r1, [r5, #28]
   8831e:	47a0      	blx	r4
   88320:	1c43      	adds	r3, r0, #1
   88322:	4602      	mov	r2, r0
   88324:	d01e      	beq.n	88364 <__sflush_r+0x124>
   88326:	89ab      	ldrh	r3, [r5, #12]
   88328:	6aac      	ldr	r4, [r5, #40]	; 0x28
   8832a:	e7a6      	b.n	8827a <__sflush_r+0x3a>
   8832c:	f8d8 3000 	ldr.w	r3, [r8]
   88330:	b95b      	cbnz	r3, 8834a <__sflush_r+0x10a>
   88332:	89aa      	ldrh	r2, [r5, #12]
   88334:	6929      	ldr	r1, [r5, #16]
   88336:	f422 6200 	bic.w	r2, r2, #2048	; 0x800
   8833a:	b292      	uxth	r2, r2
   8833c:	606b      	str	r3, [r5, #4]
   8833e:	04d3      	lsls	r3, r2, #19
   88340:	81aa      	strh	r2, [r5, #12]
   88342:	6029      	str	r1, [r5, #0]
   88344:	d5b2      	bpl.n	882ac <__sflush_r+0x6c>
   88346:	6528      	str	r0, [r5, #80]	; 0x50
   88348:	e7b0      	b.n	882ac <__sflush_r+0x6c>
   8834a:	2b1d      	cmp	r3, #29
   8834c:	d001      	beq.n	88352 <__sflush_r+0x112>
   8834e:	2b16      	cmp	r3, #22
   88350:	d113      	bne.n	8837a <__sflush_r+0x13a>
   88352:	89a9      	ldrh	r1, [r5, #12]
   88354:	692b      	ldr	r3, [r5, #16]
   88356:	f421 6100 	bic.w	r1, r1, #2048	; 0x800
   8835a:	2200      	movs	r2, #0
   8835c:	81a9      	strh	r1, [r5, #12]
   8835e:	602b      	str	r3, [r5, #0]
   88360:	606a      	str	r2, [r5, #4]
   88362:	e7a3      	b.n	882ac <__sflush_r+0x6c>
   88364:	f8d8 3000 	ldr.w	r3, [r8]
   88368:	2b00      	cmp	r3, #0
   8836a:	d0dc      	beq.n	88326 <__sflush_r+0xe6>
   8836c:	2b1d      	cmp	r3, #29
   8836e:	d001      	beq.n	88374 <__sflush_r+0x134>
   88370:	2b16      	cmp	r3, #22
   88372:	d1c5      	bne.n	88300 <__sflush_r+0xc0>
   88374:	f8c8 6000 	str.w	r6, [r8]
   88378:	e7bf      	b.n	882fa <__sflush_r+0xba>
   8837a:	89ab      	ldrh	r3, [r5, #12]
   8837c:	f043 0340 	orr.w	r3, r3, #64	; 0x40
   88380:	81ab      	strh	r3, [r5, #12]
   88382:	e8bd 81f0 	ldmia.w	sp!, {r4, r5, r6, r7, r8, pc}
   88386:	bf00      	nop

00088388 <_fflush_r>:
   88388:	b510      	push	{r4, lr}
   8838a:	4604      	mov	r4, r0
   8838c:	b082      	sub	sp, #8
   8838e:	b108      	cbz	r0, 88394 <_fflush_r+0xc>
   88390:	6b83      	ldr	r3, [r0, #56]	; 0x38
   88392:	b153      	cbz	r3, 883aa <_fflush_r+0x22>
   88394:	f9b1 000c 	ldrsh.w	r0, [r1, #12]
   88398:	b908      	cbnz	r0, 8839e <_fflush_r+0x16>
   8839a:	b002      	add	sp, #8
   8839c:	bd10      	pop	{r4, pc}
   8839e:	4620      	mov	r0, r4
   883a0:	b002      	add	sp, #8
   883a2:	e8bd 4010 	ldmia.w	sp!, {r4, lr}
   883a6:	f7ff bf4b 	b.w	88240 <__sflush_r>
   883aa:	9101      	str	r1, [sp, #4]
   883ac:	f000 f808 	bl	883c0 <__sinit>
   883b0:	9901      	ldr	r1, [sp, #4]
   883b2:	e7ef      	b.n	88394 <_fflush_r+0xc>

000883b4 <_cleanup_r>:
   883b4:	4901      	ldr	r1, [pc, #4]	; (883bc <_cleanup_r+0x8>)
   883b6:	f000 bb9f 	b.w	88af8 <_fwalk>
   883ba:	bf00      	nop
   883bc:	0008a151 	.word	0x0008a151

000883c0 <__sinit>:
   883c0:	e92d 4ff0 	stmdb	sp!, {r4, r5, r6, r7, r8, r9, sl, fp, lr}
   883c4:	6b84      	ldr	r4, [r0, #56]	; 0x38
   883c6:	b083      	sub	sp, #12
   883c8:	4607      	mov	r7, r0
   883ca:	2c00      	cmp	r4, #0
   883cc:	d165      	bne.n	8849a <__sinit+0xda>
   883ce:	687d      	ldr	r5, [r7, #4]
   883d0:	4833      	ldr	r0, [pc, #204]	; (884a0 <__sinit+0xe0>)
   883d2:	2304      	movs	r3, #4
   883d4:	2103      	movs	r1, #3
   883d6:	f507 723b 	add.w	r2, r7, #748	; 0x2ec
   883da:	63f8      	str	r0, [r7, #60]	; 0x3c
   883dc:	f8c7 12e4 	str.w	r1, [r7, #740]	; 0x2e4
   883e0:	f8c7 22e8 	str.w	r2, [r7, #744]	; 0x2e8
   883e4:	f8c7 42e0 	str.w	r4, [r7, #736]	; 0x2e0
   883e8:	f105 005c 	add.w	r0, r5, #92	; 0x5c
   883ec:	81ab      	strh	r3, [r5, #12]
   883ee:	602c      	str	r4, [r5, #0]
   883f0:	606c      	str	r4, [r5, #4]
   883f2:	60ac      	str	r4, [r5, #8]
   883f4:	666c      	str	r4, [r5, #100]	; 0x64
   883f6:	81ec      	strh	r4, [r5, #14]
   883f8:	612c      	str	r4, [r5, #16]
   883fa:	616c      	str	r4, [r5, #20]
   883fc:	61ac      	str	r4, [r5, #24]
   883fe:	4621      	mov	r1, r4
   88400:	2208      	movs	r2, #8
   88402:	f7fc fc4f 	bl	84ca4 <memset>
   88406:	f8df b09c 	ldr.w	fp, [pc, #156]	; 884a4 <__sinit+0xe4>
   8840a:	68be      	ldr	r6, [r7, #8]
   8840c:	f8df a098 	ldr.w	sl, [pc, #152]	; 884a8 <__sinit+0xe8>
   88410:	f8df 9098 	ldr.w	r9, [pc, #152]	; 884ac <__sinit+0xec>
   88414:	f8df 8098 	ldr.w	r8, [pc, #152]	; 884b0 <__sinit+0xf0>
   88418:	2301      	movs	r3, #1
   8841a:	2209      	movs	r2, #9
   8841c:	61ed      	str	r5, [r5, #28]
   8841e:	f8c5 b020 	str.w	fp, [r5, #32]
   88422:	f8c5 a024 	str.w	sl, [r5, #36]	; 0x24
   88426:	f8c5 9028 	str.w	r9, [r5, #40]	; 0x28
   8842a:	f8c5 802c 	str.w	r8, [r5, #44]	; 0x2c
   8842e:	4621      	mov	r1, r4
   88430:	81f3      	strh	r3, [r6, #14]
   88432:	81b2      	strh	r2, [r6, #12]
   88434:	6034      	str	r4, [r6, #0]
   88436:	6074      	str	r4, [r6, #4]
   88438:	60b4      	str	r4, [r6, #8]
   8843a:	6674      	str	r4, [r6, #100]	; 0x64
   8843c:	6134      	str	r4, [r6, #16]
   8843e:	6174      	str	r4, [r6, #20]
   88440:	61b4      	str	r4, [r6, #24]
   88442:	2208      	movs	r2, #8
   88444:	f106 005c 	add.w	r0, r6, #92	; 0x5c
   88448:	9301      	str	r3, [sp, #4]
   8844a:	f7fc fc2b 	bl	84ca4 <memset>
   8844e:	68fd      	ldr	r5, [r7, #12]
   88450:	2012      	movs	r0, #18
   88452:	2202      	movs	r2, #2
   88454:	61f6      	str	r6, [r6, #28]
   88456:	f8c6 b020 	str.w	fp, [r6, #32]
   8845a:	f8c6 a024 	str.w	sl, [r6, #36]	; 0x24
   8845e:	f8c6 9028 	str.w	r9, [r6, #40]	; 0x28
   88462:	f8c6 802c 	str.w	r8, [r6, #44]	; 0x2c
   88466:	4621      	mov	r1, r4
   88468:	81a8      	strh	r0, [r5, #12]
   8846a:	81ea      	strh	r2, [r5, #14]
   8846c:	602c      	str	r4, [r5, #0]
   8846e:	606c      	str	r4, [r5, #4]
   88470:	60ac      	str	r4, [r5, #8]
   88472:	666c      	str	r4, [r5, #100]	; 0x64
   88474:	612c      	str	r4, [r5, #16]
   88476:	616c      	str	r4, [r5, #20]
   88478:	61ac      	str	r4, [r5, #24]
   8847a:	f105 005c 	add.w	r0, r5, #92	; 0x5c
   8847e:	2208      	movs	r2, #8
   88480:	f7fc fc10 	bl	84ca4 <memset>
   88484:	9b01      	ldr	r3, [sp, #4]
   88486:	61ed      	str	r5, [r5, #28]
   88488:	f8c5 b020 	str.w	fp, [r5, #32]
   8848c:	f8c5 a024 	str.w	sl, [r5, #36]	; 0x24
   88490:	f8c5 9028 	str.w	r9, [r5, #40]	; 0x28
   88494:	f8c5 802c 	str.w	r8, [r5, #44]	; 0x2c
   88498:	63bb      	str	r3, [r7, #56]	; 0x38
   8849a:	b003      	add	sp, #12
   8849c:	e8bd 8ff0 	ldmia.w	sp!, {r4, r5, r6, r7, r8, r9, sl, fp, pc}
   884a0:	000883b5 	.word	0x000883b5
   884a4:	00089ce5 	.word	0x00089ce5
   884a8:	00089d09 	.word	0x00089d09
   884ac:	00089d41 	.word	0x00089d41
   884b0:	00089d61 	.word	0x00089d61

000884b4 <__sfp_lock_acquire>:
   884b4:	4770      	bx	lr
   884b6:	bf00      	nop

000884b8 <__sfp_lock_release>:
   884b8:	4770      	bx	lr
   884ba:	bf00      	nop

000884bc <__libc_fini_array>:
   884bc:	b538      	push	{r3, r4, r5, lr}
   884be:	4d09      	ldr	r5, [pc, #36]	; (884e4 <__libc_fini_array+0x28>)
   884c0:	4c09      	ldr	r4, [pc, #36]	; (884e8 <__libc_fini_array+0x2c>)
   884c2:	1b64      	subs	r4, r4, r5
   884c4:	10a4      	asrs	r4, r4, #2
   884c6:	bf18      	it	ne
   884c8:	eb05 0584 	addne.w	r5, r5, r4, lsl #2
   884cc:	d005      	beq.n	884da <__libc_fini_array+0x1e>
   884ce:	3c01      	subs	r4, #1
   884d0:	f855 3d04 	ldr.w	r3, [r5, #-4]!
   884d4:	4798      	blx	r3
   884d6:	2c00      	cmp	r4, #0
   884d8:	d1f9      	bne.n	884ce <__libc_fini_array+0x12>
   884da:	e8bd 4038 	ldmia.w	sp!, {r3, r4, r5, lr}
   884de:	f002 bba7 	b.w	8ac30 <_fini>
   884e2:	bf00      	nop
   884e4:	0008ac3c 	.word	0x0008ac3c
   884e8:	0008ac40 	.word	0x0008ac40

000884ec <_fputwc_r>:
   884ec:	e92d 41f0 	stmdb	sp!, {r4, r5, r6, r7, r8, lr}
   884f0:	8993      	ldrh	r3, [r2, #12]
   884f2:	460f      	mov	r7, r1
   884f4:	0499      	lsls	r1, r3, #18
   884f6:	b082      	sub	sp, #8
   884f8:	4614      	mov	r4, r2
   884fa:	4680      	mov	r8, r0
   884fc:	d406      	bmi.n	8850c <_fputwc_r+0x20>
   884fe:	6e52      	ldr	r2, [r2, #100]	; 0x64
   88500:	f443 5300 	orr.w	r3, r3, #8192	; 0x2000
   88504:	f442 5200 	orr.w	r2, r2, #8192	; 0x2000
   88508:	81a3      	strh	r3, [r4, #12]
   8850a:	6662      	str	r2, [r4, #100]	; 0x64
   8850c:	f000 fb1c 	bl	88b48 <__locale_mb_cur_max>
   88510:	2801      	cmp	r0, #1
   88512:	d03e      	beq.n	88592 <_fputwc_r+0xa6>
   88514:	463a      	mov	r2, r7
   88516:	4640      	mov	r0, r8
   88518:	a901      	add	r1, sp, #4
   8851a:	f104 035c 	add.w	r3, r4, #92	; 0x5c
   8851e:	f001 fcf7 	bl	89f10 <_wcrtomb_r>
   88522:	1c42      	adds	r2, r0, #1
   88524:	4606      	mov	r6, r0
   88526:	d02d      	beq.n	88584 <_fputwc_r+0x98>
   88528:	2800      	cmp	r0, #0
   8852a:	d03a      	beq.n	885a2 <_fputwc_r+0xb6>
   8852c:	f89d 1004 	ldrb.w	r1, [sp, #4]
   88530:	2500      	movs	r5, #0
   88532:	e009      	b.n	88548 <_fputwc_r+0x5c>
   88534:	6823      	ldr	r3, [r4, #0]
   88536:	7019      	strb	r1, [r3, #0]
   88538:	6823      	ldr	r3, [r4, #0]
   8853a:	3301      	adds	r3, #1
   8853c:	6023      	str	r3, [r4, #0]
   8853e:	3501      	adds	r5, #1
   88540:	42b5      	cmp	r5, r6
   88542:	d22e      	bcs.n	885a2 <_fputwc_r+0xb6>
   88544:	ab01      	add	r3, sp, #4
   88546:	5ce9      	ldrb	r1, [r5, r3]
   88548:	68a3      	ldr	r3, [r4, #8]
   8854a:	3b01      	subs	r3, #1
   8854c:	2b00      	cmp	r3, #0
   8854e:	60a3      	str	r3, [r4, #8]
   88550:	daf0      	bge.n	88534 <_fputwc_r+0x48>
   88552:	69a2      	ldr	r2, [r4, #24]
   88554:	4293      	cmp	r3, r2
   88556:	db06      	blt.n	88566 <_fputwc_r+0x7a>
   88558:	6823      	ldr	r3, [r4, #0]
   8855a:	7019      	strb	r1, [r3, #0]
   8855c:	6823      	ldr	r3, [r4, #0]
   8855e:	7819      	ldrb	r1, [r3, #0]
   88560:	3301      	adds	r3, #1
   88562:	290a      	cmp	r1, #10
   88564:	d1ea      	bne.n	8853c <_fputwc_r+0x50>
   88566:	4640      	mov	r0, r8
   88568:	4622      	mov	r2, r4
   8856a:	f001 fc7d 	bl	89e68 <__swbuf_r>
   8856e:	f1b0 33ff 	subs.w	r3, r0, #4294967295
   88572:	4258      	negs	r0, r3
   88574:	4158      	adcs	r0, r3
   88576:	2800      	cmp	r0, #0
   88578:	d0e1      	beq.n	8853e <_fputwc_r+0x52>
   8857a:	f04f 30ff 	mov.w	r0, #4294967295
   8857e:	b002      	add	sp, #8
   88580:	e8bd 81f0 	ldmia.w	sp!, {r4, r5, r6, r7, r8, pc}
   88584:	89a3      	ldrh	r3, [r4, #12]
   88586:	f043 0340 	orr.w	r3, r3, #64	; 0x40
   8858a:	81a3      	strh	r3, [r4, #12]
   8858c:	b002      	add	sp, #8
   8858e:	e8bd 81f0 	ldmia.w	sp!, {r4, r5, r6, r7, r8, pc}
   88592:	1e7b      	subs	r3, r7, #1
   88594:	2bfe      	cmp	r3, #254	; 0xfe
   88596:	d8bd      	bhi.n	88514 <_fputwc_r+0x28>
   88598:	b2f9      	uxtb	r1, r7
   8859a:	4606      	mov	r6, r0
   8859c:	f88d 1004 	strb.w	r1, [sp, #4]
   885a0:	e7c6      	b.n	88530 <_fputwc_r+0x44>
   885a2:	4638      	mov	r0, r7
   885a4:	b002      	add	sp, #8
   885a6:	e8bd 81f0 	ldmia.w	sp!, {r4, r5, r6, r7, r8, pc}
   885aa:	bf00      	nop

000885ac <_malloc_trim_r>:
   885ac:	b5f8      	push	{r3, r4, r5, r6, r7, lr}
   885ae:	4d23      	ldr	r5, [pc, #140]	; (8863c <_malloc_trim_r+0x90>)
   885b0:	460f      	mov	r7, r1
   885b2:	4604      	mov	r4, r0
   885b4:	f000 fe96 	bl	892e4 <__malloc_lock>
   885b8:	68ab      	ldr	r3, [r5, #8]
   885ba:	685e      	ldr	r6, [r3, #4]
   885bc:	f026 0603 	bic.w	r6, r6, #3
   885c0:	1bf1      	subs	r1, r6, r7
   885c2:	f601 71ef 	addw	r1, r1, #4079	; 0xfef
   885c6:	f421 617f 	bic.w	r1, r1, #4080	; 0xff0
   885ca:	f021 010f 	bic.w	r1, r1, #15
   885ce:	f5a1 5780 	sub.w	r7, r1, #4096	; 0x1000
   885d2:	f5b7 5f80 	cmp.w	r7, #4096	; 0x1000
   885d6:	db07      	blt.n	885e8 <_malloc_trim_r+0x3c>
   885d8:	4620      	mov	r0, r4
   885da:	2100      	movs	r1, #0
   885dc:	f001 fb70 	bl	89cc0 <_sbrk_r>
   885e0:	68ab      	ldr	r3, [r5, #8]
   885e2:	4433      	add	r3, r6
   885e4:	4298      	cmp	r0, r3
   885e6:	d004      	beq.n	885f2 <_malloc_trim_r+0x46>
   885e8:	4620      	mov	r0, r4
   885ea:	f000 fe7d 	bl	892e8 <__malloc_unlock>
   885ee:	2000      	movs	r0, #0
   885f0:	bdf8      	pop	{r3, r4, r5, r6, r7, pc}
   885f2:	4620      	mov	r0, r4
   885f4:	4279      	negs	r1, r7
   885f6:	f001 fb63 	bl	89cc0 <_sbrk_r>
   885fa:	3001      	adds	r0, #1
   885fc:	d00d      	beq.n	8861a <_malloc_trim_r+0x6e>
   885fe:	4b10      	ldr	r3, [pc, #64]	; (88640 <_malloc_trim_r+0x94>)
   88600:	68aa      	ldr	r2, [r5, #8]
   88602:	6819      	ldr	r1, [r3, #0]
   88604:	1bf6      	subs	r6, r6, r7
   88606:	f046 0601 	orr.w	r6, r6, #1
   8860a:	4620      	mov	r0, r4
   8860c:	1bc9      	subs	r1, r1, r7
   8860e:	6056      	str	r6, [r2, #4]
   88610:	6019      	str	r1, [r3, #0]
   88612:	f000 fe69 	bl	892e8 <__malloc_unlock>
   88616:	2001      	movs	r0, #1
   88618:	bdf8      	pop	{r3, r4, r5, r6, r7, pc}
   8861a:	4620      	mov	r0, r4
   8861c:	2100      	movs	r1, #0
   8861e:	f001 fb4f 	bl	89cc0 <_sbrk_r>
   88622:	68ab      	ldr	r3, [r5, #8]
   88624:	1ac2      	subs	r2, r0, r3
   88626:	2a0f      	cmp	r2, #15
   88628:	ddde      	ble.n	885e8 <_malloc_trim_r+0x3c>
   8862a:	4d06      	ldr	r5, [pc, #24]	; (88644 <_malloc_trim_r+0x98>)
   8862c:	4904      	ldr	r1, [pc, #16]	; (88640 <_malloc_trim_r+0x94>)
   8862e:	682d      	ldr	r5, [r5, #0]
   88630:	f042 0201 	orr.w	r2, r2, #1
   88634:	1b40      	subs	r0, r0, r5
   88636:	605a      	str	r2, [r3, #4]
   88638:	6008      	str	r0, [r1, #0]
   8863a:	e7d5      	b.n	885e8 <_malloc_trim_r+0x3c>
   8863c:	200705d8 	.word	0x200705d8
   88640:	20078c3c 	.word	0x20078c3c
   88644:	200709e4 	.word	0x200709e4

00088648 <_free_r>:
   88648:	e92d 41f0 	stmdb	sp!, {r4, r5, r6, r7, r8, lr}
   8864c:	460d      	mov	r5, r1
   8864e:	4606      	mov	r6, r0
   88650:	2900      	cmp	r1, #0
   88652:	d055      	beq.n	88700 <_free_r+0xb8>
   88654:	f000 fe46 	bl	892e4 <__malloc_lock>
   88658:	f855 1c04 	ldr.w	r1, [r5, #-4]
   8865c:	f8df c170 	ldr.w	ip, [pc, #368]	; 887d0 <_free_r+0x188>
   88660:	f1a5 0408 	sub.w	r4, r5, #8
   88664:	f021 0301 	bic.w	r3, r1, #1
   88668:	18e2      	adds	r2, r4, r3
   8866a:	f8dc 0008 	ldr.w	r0, [ip, #8]
   8866e:	6857      	ldr	r7, [r2, #4]
   88670:	4290      	cmp	r0, r2
   88672:	f027 0703 	bic.w	r7, r7, #3
   88676:	d068      	beq.n	8874a <_free_r+0x102>
   88678:	f011 0101 	ands.w	r1, r1, #1
   8867c:	6057      	str	r7, [r2, #4]
   8867e:	d032      	beq.n	886e6 <_free_r+0x9e>
   88680:	2100      	movs	r1, #0
   88682:	19d0      	adds	r0, r2, r7
   88684:	6840      	ldr	r0, [r0, #4]
   88686:	07c0      	lsls	r0, r0, #31
   88688:	d406      	bmi.n	88698 <_free_r+0x50>
   8868a:	443b      	add	r3, r7
   8868c:	6890      	ldr	r0, [r2, #8]
   8868e:	2900      	cmp	r1, #0
   88690:	d04d      	beq.n	8872e <_free_r+0xe6>
   88692:	68d2      	ldr	r2, [r2, #12]
   88694:	60c2      	str	r2, [r0, #12]
   88696:	6090      	str	r0, [r2, #8]
   88698:	f043 0201 	orr.w	r2, r3, #1
   8869c:	6062      	str	r2, [r4, #4]
   8869e:	50e3      	str	r3, [r4, r3]
   886a0:	b9e1      	cbnz	r1, 886dc <_free_r+0x94>
   886a2:	f5b3 7f00 	cmp.w	r3, #512	; 0x200
   886a6:	d32d      	bcc.n	88704 <_free_r+0xbc>
   886a8:	0a5a      	lsrs	r2, r3, #9
   886aa:	2a04      	cmp	r2, #4
   886ac:	d869      	bhi.n	88782 <_free_r+0x13a>
   886ae:	0998      	lsrs	r0, r3, #6
   886b0:	3038      	adds	r0, #56	; 0x38
   886b2:	0041      	lsls	r1, r0, #1
   886b4:	eb0c 0c81 	add.w	ip, ip, r1, lsl #2
   886b8:	f8dc 2008 	ldr.w	r2, [ip, #8]
   886bc:	4944      	ldr	r1, [pc, #272]	; (887d0 <_free_r+0x188>)
   886be:	4562      	cmp	r2, ip
   886c0:	d065      	beq.n	8878e <_free_r+0x146>
   886c2:	6851      	ldr	r1, [r2, #4]
   886c4:	f021 0103 	bic.w	r1, r1, #3
   886c8:	428b      	cmp	r3, r1
   886ca:	d202      	bcs.n	886d2 <_free_r+0x8a>
   886cc:	6892      	ldr	r2, [r2, #8]
   886ce:	4594      	cmp	ip, r2
   886d0:	d1f7      	bne.n	886c2 <_free_r+0x7a>
   886d2:	68d3      	ldr	r3, [r2, #12]
   886d4:	60e3      	str	r3, [r4, #12]
   886d6:	60a2      	str	r2, [r4, #8]
   886d8:	609c      	str	r4, [r3, #8]
   886da:	60d4      	str	r4, [r2, #12]
   886dc:	4630      	mov	r0, r6
   886de:	e8bd 41f0 	ldmia.w	sp!, {r4, r5, r6, r7, r8, lr}
   886e2:	f000 be01 	b.w	892e8 <__malloc_unlock>
   886e6:	f855 5c08 	ldr.w	r5, [r5, #-8]
   886ea:	f10c 0808 	add.w	r8, ip, #8
   886ee:	1b64      	subs	r4, r4, r5
   886f0:	68a0      	ldr	r0, [r4, #8]
   886f2:	442b      	add	r3, r5
   886f4:	4540      	cmp	r0, r8
   886f6:	d042      	beq.n	8877e <_free_r+0x136>
   886f8:	68e5      	ldr	r5, [r4, #12]
   886fa:	60c5      	str	r5, [r0, #12]
   886fc:	60a8      	str	r0, [r5, #8]
   886fe:	e7c0      	b.n	88682 <_free_r+0x3a>
   88700:	e8bd 81f0 	ldmia.w	sp!, {r4, r5, r6, r7, r8, pc}
   88704:	08db      	lsrs	r3, r3, #3
   88706:	109a      	asrs	r2, r3, #2
   88708:	2001      	movs	r0, #1
   8870a:	4090      	lsls	r0, r2
   8870c:	f8dc 1004 	ldr.w	r1, [ip, #4]
   88710:	eb0c 03c3 	add.w	r3, ip, r3, lsl #3
   88714:	689a      	ldr	r2, [r3, #8]
   88716:	4301      	orrs	r1, r0
   88718:	60a2      	str	r2, [r4, #8]
   8871a:	60e3      	str	r3, [r4, #12]
   8871c:	f8cc 1004 	str.w	r1, [ip, #4]
   88720:	4630      	mov	r0, r6
   88722:	609c      	str	r4, [r3, #8]
   88724:	60d4      	str	r4, [r2, #12]
   88726:	e8bd 41f0 	ldmia.w	sp!, {r4, r5, r6, r7, r8, lr}
   8872a:	f000 bddd 	b.w	892e8 <__malloc_unlock>
   8872e:	4d29      	ldr	r5, [pc, #164]	; (887d4 <_free_r+0x18c>)
   88730:	42a8      	cmp	r0, r5
   88732:	d1ae      	bne.n	88692 <_free_r+0x4a>
   88734:	f043 0201 	orr.w	r2, r3, #1
   88738:	f8cc 4014 	str.w	r4, [ip, #20]
   8873c:	f8cc 4010 	str.w	r4, [ip, #16]
   88740:	60e0      	str	r0, [r4, #12]
   88742:	60a0      	str	r0, [r4, #8]
   88744:	6062      	str	r2, [r4, #4]
   88746:	50e3      	str	r3, [r4, r3]
   88748:	e7c8      	b.n	886dc <_free_r+0x94>
   8874a:	441f      	add	r7, r3
   8874c:	07cb      	lsls	r3, r1, #31
   8874e:	d407      	bmi.n	88760 <_free_r+0x118>
   88750:	f855 1c08 	ldr.w	r1, [r5, #-8]
   88754:	1a64      	subs	r4, r4, r1
   88756:	68e3      	ldr	r3, [r4, #12]
   88758:	68a2      	ldr	r2, [r4, #8]
   8875a:	440f      	add	r7, r1
   8875c:	60d3      	str	r3, [r2, #12]
   8875e:	609a      	str	r2, [r3, #8]
   88760:	4b1d      	ldr	r3, [pc, #116]	; (887d8 <_free_r+0x190>)
   88762:	f047 0201 	orr.w	r2, r7, #1
   88766:	681b      	ldr	r3, [r3, #0]
   88768:	6062      	str	r2, [r4, #4]
   8876a:	429f      	cmp	r7, r3
   8876c:	f8cc 4008 	str.w	r4, [ip, #8]
   88770:	d3b4      	bcc.n	886dc <_free_r+0x94>
   88772:	4b1a      	ldr	r3, [pc, #104]	; (887dc <_free_r+0x194>)
   88774:	4630      	mov	r0, r6
   88776:	6819      	ldr	r1, [r3, #0]
   88778:	f7ff ff18 	bl	885ac <_malloc_trim_r>
   8877c:	e7ae      	b.n	886dc <_free_r+0x94>
   8877e:	2101      	movs	r1, #1
   88780:	e77f      	b.n	88682 <_free_r+0x3a>
   88782:	2a14      	cmp	r2, #20
   88784:	d80b      	bhi.n	8879e <_free_r+0x156>
   88786:	f102 005b 	add.w	r0, r2, #91	; 0x5b
   8878a:	0041      	lsls	r1, r0, #1
   8878c:	e792      	b.n	886b4 <_free_r+0x6c>
   8878e:	1080      	asrs	r0, r0, #2
   88790:	2501      	movs	r5, #1
   88792:	4085      	lsls	r5, r0
   88794:	6848      	ldr	r0, [r1, #4]
   88796:	4613      	mov	r3, r2
   88798:	4328      	orrs	r0, r5
   8879a:	6048      	str	r0, [r1, #4]
   8879c:	e79a      	b.n	886d4 <_free_r+0x8c>
   8879e:	2a54      	cmp	r2, #84	; 0x54
   887a0:	d803      	bhi.n	887aa <_free_r+0x162>
   887a2:	0b18      	lsrs	r0, r3, #12
   887a4:	306e      	adds	r0, #110	; 0x6e
   887a6:	0041      	lsls	r1, r0, #1
   887a8:	e784      	b.n	886b4 <_free_r+0x6c>
   887aa:	f5b2 7faa 	cmp.w	r2, #340	; 0x154
   887ae:	d803      	bhi.n	887b8 <_free_r+0x170>
   887b0:	0bd8      	lsrs	r0, r3, #15
   887b2:	3077      	adds	r0, #119	; 0x77
   887b4:	0041      	lsls	r1, r0, #1
   887b6:	e77d      	b.n	886b4 <_free_r+0x6c>
   887b8:	f240 5154 	movw	r1, #1364	; 0x554
   887bc:	428a      	cmp	r2, r1
   887be:	d803      	bhi.n	887c8 <_free_r+0x180>
   887c0:	0c98      	lsrs	r0, r3, #18
   887c2:	307c      	adds	r0, #124	; 0x7c
   887c4:	0041      	lsls	r1, r0, #1
   887c6:	e775      	b.n	886b4 <_free_r+0x6c>
   887c8:	21fc      	movs	r1, #252	; 0xfc
   887ca:	207e      	movs	r0, #126	; 0x7e
   887cc:	e772      	b.n	886b4 <_free_r+0x6c>
   887ce:	bf00      	nop
   887d0:	200705d8 	.word	0x200705d8
   887d4:	200705e0 	.word	0x200705e0
   887d8:	200709e0 	.word	0x200709e0
   887dc:	20078c38 	.word	0x20078c38

000887e0 <__sfvwrite_r>:
   887e0:	e92d 4ff0 	stmdb	sp!, {r4, r5, r6, r7, r8, r9, sl, fp, lr}
   887e4:	6893      	ldr	r3, [r2, #8]
   887e6:	b083      	sub	sp, #12
   887e8:	4616      	mov	r6, r2
   887ea:	4681      	mov	r9, r0
   887ec:	460c      	mov	r4, r1
   887ee:	b32b      	cbz	r3, 8883c <__sfvwrite_r+0x5c>
   887f0:	898b      	ldrh	r3, [r1, #12]
   887f2:	0719      	lsls	r1, r3, #28
   887f4:	d526      	bpl.n	88844 <__sfvwrite_r+0x64>
   887f6:	6922      	ldr	r2, [r4, #16]
   887f8:	b322      	cbz	r2, 88844 <__sfvwrite_r+0x64>
   887fa:	f003 0202 	and.w	r2, r3, #2
   887fe:	b292      	uxth	r2, r2
   88800:	6835      	ldr	r5, [r6, #0]
   88802:	2a00      	cmp	r2, #0
   88804:	d02c      	beq.n	88860 <__sfvwrite_r+0x80>
   88806:	f04f 0a00 	mov.w	sl, #0
   8880a:	f8df b2e8 	ldr.w	fp, [pc, #744]	; 88af4 <__sfvwrite_r+0x314>
   8880e:	46d0      	mov	r8, sl
   88810:	45d8      	cmp	r8, fp
   88812:	bf34      	ite	cc
   88814:	4643      	movcc	r3, r8
   88816:	465b      	movcs	r3, fp
   88818:	4652      	mov	r2, sl
   8881a:	4648      	mov	r0, r9
   8881c:	f1b8 0f00 	cmp.w	r8, #0
   88820:	d04f      	beq.n	888c2 <__sfvwrite_r+0xe2>
   88822:	69e1      	ldr	r1, [r4, #28]
   88824:	6a67      	ldr	r7, [r4, #36]	; 0x24
   88826:	47b8      	blx	r7
   88828:	2800      	cmp	r0, #0
   8882a:	dd56      	ble.n	888da <__sfvwrite_r+0xfa>
   8882c:	68b3      	ldr	r3, [r6, #8]
   8882e:	4482      	add	sl, r0
   88830:	1a1b      	subs	r3, r3, r0
   88832:	ebc0 0808 	rsb	r8, r0, r8
   88836:	60b3      	str	r3, [r6, #8]
   88838:	2b00      	cmp	r3, #0
   8883a:	d1e9      	bne.n	88810 <__sfvwrite_r+0x30>
   8883c:	2000      	movs	r0, #0
   8883e:	b003      	add	sp, #12
   88840:	e8bd 8ff0 	ldmia.w	sp!, {r4, r5, r6, r7, r8, r9, sl, fp, pc}
   88844:	4648      	mov	r0, r9
   88846:	4621      	mov	r1, r4
   88848:	f7fe fcd2 	bl	871f0 <__swsetup_r>
   8884c:	2800      	cmp	r0, #0
   8884e:	f040 8148 	bne.w	88ae2 <__sfvwrite_r+0x302>
   88852:	89a3      	ldrh	r3, [r4, #12]
   88854:	6835      	ldr	r5, [r6, #0]
   88856:	f003 0202 	and.w	r2, r3, #2
   8885a:	b292      	uxth	r2, r2
   8885c:	2a00      	cmp	r2, #0
   8885e:	d1d2      	bne.n	88806 <__sfvwrite_r+0x26>
   88860:	f013 0a01 	ands.w	sl, r3, #1
   88864:	d142      	bne.n	888ec <__sfvwrite_r+0x10c>
   88866:	46d0      	mov	r8, sl
   88868:	f1b8 0f00 	cmp.w	r8, #0
   8886c:	d023      	beq.n	888b6 <__sfvwrite_r+0xd6>
   8886e:	059a      	lsls	r2, r3, #22
   88870:	68a7      	ldr	r7, [r4, #8]
   88872:	d576      	bpl.n	88962 <__sfvwrite_r+0x182>
   88874:	45b8      	cmp	r8, r7
   88876:	f0c0 80a4 	bcc.w	889c2 <__sfvwrite_r+0x1e2>
   8887a:	f413 6f90 	tst.w	r3, #1152	; 0x480
   8887e:	f040 80b2 	bne.w	889e6 <__sfvwrite_r+0x206>
   88882:	6820      	ldr	r0, [r4, #0]
   88884:	46bb      	mov	fp, r7
   88886:	4651      	mov	r1, sl
   88888:	465a      	mov	r2, fp
   8888a:	f000 fcc5 	bl	89218 <memmove>
   8888e:	68a2      	ldr	r2, [r4, #8]
   88890:	6821      	ldr	r1, [r4, #0]
   88892:	1bd2      	subs	r2, r2, r7
   88894:	eb01 030b 	add.w	r3, r1, fp
   88898:	60a2      	str	r2, [r4, #8]
   8889a:	6023      	str	r3, [r4, #0]
   8889c:	4642      	mov	r2, r8
   8889e:	68b3      	ldr	r3, [r6, #8]
   888a0:	4492      	add	sl, r2
   888a2:	1a9b      	subs	r3, r3, r2
   888a4:	ebc2 0808 	rsb	r8, r2, r8
   888a8:	60b3      	str	r3, [r6, #8]
   888aa:	2b00      	cmp	r3, #0
   888ac:	d0c6      	beq.n	8883c <__sfvwrite_r+0x5c>
   888ae:	89a3      	ldrh	r3, [r4, #12]
   888b0:	f1b8 0f00 	cmp.w	r8, #0
   888b4:	d1db      	bne.n	8886e <__sfvwrite_r+0x8e>
   888b6:	f8d5 a000 	ldr.w	sl, [r5]
   888ba:	f8d5 8004 	ldr.w	r8, [r5, #4]
   888be:	3508      	adds	r5, #8
   888c0:	e7d2      	b.n	88868 <__sfvwrite_r+0x88>
   888c2:	f8d5 a000 	ldr.w	sl, [r5]
   888c6:	f8d5 8004 	ldr.w	r8, [r5, #4]
   888ca:	3508      	adds	r5, #8
   888cc:	e7a0      	b.n	88810 <__sfvwrite_r+0x30>
   888ce:	4648      	mov	r0, r9
   888d0:	4621      	mov	r1, r4
   888d2:	f7ff fd59 	bl	88388 <_fflush_r>
   888d6:	2800      	cmp	r0, #0
   888d8:	d059      	beq.n	8898e <__sfvwrite_r+0x1ae>
   888da:	89a3      	ldrh	r3, [r4, #12]
   888dc:	f043 0340 	orr.w	r3, r3, #64	; 0x40
   888e0:	f04f 30ff 	mov.w	r0, #4294967295
   888e4:	81a3      	strh	r3, [r4, #12]
   888e6:	b003      	add	sp, #12
   888e8:	e8bd 8ff0 	ldmia.w	sp!, {r4, r5, r6, r7, r8, r9, sl, fp, pc}
   888ec:	4692      	mov	sl, r2
   888ee:	9201      	str	r2, [sp, #4]
   888f0:	4693      	mov	fp, r2
   888f2:	4690      	mov	r8, r2
   888f4:	f1b8 0f00 	cmp.w	r8, #0
   888f8:	d02b      	beq.n	88952 <__sfvwrite_r+0x172>
   888fa:	9f01      	ldr	r7, [sp, #4]
   888fc:	2f00      	cmp	r7, #0
   888fe:	d064      	beq.n	889ca <__sfvwrite_r+0x1ea>
   88900:	6820      	ldr	r0, [r4, #0]
   88902:	6921      	ldr	r1, [r4, #16]
   88904:	45c2      	cmp	sl, r8
   88906:	bf34      	ite	cc
   88908:	4653      	movcc	r3, sl
   8890a:	4643      	movcs	r3, r8
   8890c:	4288      	cmp	r0, r1
   8890e:	461f      	mov	r7, r3
   88910:	f8d4 c008 	ldr.w	ip, [r4, #8]
   88914:	6962      	ldr	r2, [r4, #20]
   88916:	d903      	bls.n	88920 <__sfvwrite_r+0x140>
   88918:	4494      	add	ip, r2
   8891a:	4563      	cmp	r3, ip
   8891c:	f300 80ae 	bgt.w	88a7c <__sfvwrite_r+0x29c>
   88920:	4293      	cmp	r3, r2
   88922:	db36      	blt.n	88992 <__sfvwrite_r+0x1b2>
   88924:	4613      	mov	r3, r2
   88926:	6a67      	ldr	r7, [r4, #36]	; 0x24
   88928:	4648      	mov	r0, r9
   8892a:	69e1      	ldr	r1, [r4, #28]
   8892c:	465a      	mov	r2, fp
   8892e:	47b8      	blx	r7
   88930:	1e07      	subs	r7, r0, #0
   88932:	ddd2      	ble.n	888da <__sfvwrite_r+0xfa>
   88934:	ebba 0a07 	subs.w	sl, sl, r7
   88938:	d03a      	beq.n	889b0 <__sfvwrite_r+0x1d0>
   8893a:	68b3      	ldr	r3, [r6, #8]
   8893c:	44bb      	add	fp, r7
   8893e:	1bdb      	subs	r3, r3, r7
   88940:	ebc7 0808 	rsb	r8, r7, r8
   88944:	60b3      	str	r3, [r6, #8]
   88946:	2b00      	cmp	r3, #0
   88948:	f43f af78 	beq.w	8883c <__sfvwrite_r+0x5c>
   8894c:	f1b8 0f00 	cmp.w	r8, #0
   88950:	d1d3      	bne.n	888fa <__sfvwrite_r+0x11a>
   88952:	2700      	movs	r7, #0
   88954:	f8d5 b000 	ldr.w	fp, [r5]
   88958:	f8d5 8004 	ldr.w	r8, [r5, #4]
   8895c:	9701      	str	r7, [sp, #4]
   8895e:	3508      	adds	r5, #8
   88960:	e7c8      	b.n	888f4 <__sfvwrite_r+0x114>
   88962:	6820      	ldr	r0, [r4, #0]
   88964:	6923      	ldr	r3, [r4, #16]
   88966:	4298      	cmp	r0, r3
   88968:	d802      	bhi.n	88970 <__sfvwrite_r+0x190>
   8896a:	6963      	ldr	r3, [r4, #20]
   8896c:	4598      	cmp	r8, r3
   8896e:	d272      	bcs.n	88a56 <__sfvwrite_r+0x276>
   88970:	45b8      	cmp	r8, r7
   88972:	bf38      	it	cc
   88974:	4647      	movcc	r7, r8
   88976:	463a      	mov	r2, r7
   88978:	4651      	mov	r1, sl
   8897a:	f000 fc4d 	bl	89218 <memmove>
   8897e:	68a3      	ldr	r3, [r4, #8]
   88980:	6822      	ldr	r2, [r4, #0]
   88982:	1bdb      	subs	r3, r3, r7
   88984:	443a      	add	r2, r7
   88986:	60a3      	str	r3, [r4, #8]
   88988:	6022      	str	r2, [r4, #0]
   8898a:	2b00      	cmp	r3, #0
   8898c:	d09f      	beq.n	888ce <__sfvwrite_r+0xee>
   8898e:	463a      	mov	r2, r7
   88990:	e785      	b.n	8889e <__sfvwrite_r+0xbe>
   88992:	461a      	mov	r2, r3
   88994:	4659      	mov	r1, fp
   88996:	9300      	str	r3, [sp, #0]
   88998:	f000 fc3e 	bl	89218 <memmove>
   8899c:	9b00      	ldr	r3, [sp, #0]
   8899e:	68a1      	ldr	r1, [r4, #8]
   889a0:	6822      	ldr	r2, [r4, #0]
   889a2:	1ac9      	subs	r1, r1, r3
   889a4:	ebba 0a07 	subs.w	sl, sl, r7
   889a8:	4413      	add	r3, r2
   889aa:	60a1      	str	r1, [r4, #8]
   889ac:	6023      	str	r3, [r4, #0]
   889ae:	d1c4      	bne.n	8893a <__sfvwrite_r+0x15a>
   889b0:	4648      	mov	r0, r9
   889b2:	4621      	mov	r1, r4
   889b4:	f7ff fce8 	bl	88388 <_fflush_r>
   889b8:	2800      	cmp	r0, #0
   889ba:	d18e      	bne.n	888da <__sfvwrite_r+0xfa>
   889bc:	f8cd a004 	str.w	sl, [sp, #4]
   889c0:	e7bb      	b.n	8893a <__sfvwrite_r+0x15a>
   889c2:	6820      	ldr	r0, [r4, #0]
   889c4:	4647      	mov	r7, r8
   889c6:	46c3      	mov	fp, r8
   889c8:	e75d      	b.n	88886 <__sfvwrite_r+0xa6>
   889ca:	4658      	mov	r0, fp
   889cc:	210a      	movs	r1, #10
   889ce:	4642      	mov	r2, r8
   889d0:	f000 fbd8 	bl	89184 <memchr>
   889d4:	2800      	cmp	r0, #0
   889d6:	d07f      	beq.n	88ad8 <__sfvwrite_r+0x2f8>
   889d8:	f100 0a01 	add.w	sl, r0, #1
   889dc:	2701      	movs	r7, #1
   889de:	ebcb 0a0a 	rsb	sl, fp, sl
   889e2:	9701      	str	r7, [sp, #4]
   889e4:	e78c      	b.n	88900 <__sfvwrite_r+0x120>
   889e6:	6822      	ldr	r2, [r4, #0]
   889e8:	6921      	ldr	r1, [r4, #16]
   889ea:	6967      	ldr	r7, [r4, #20]
   889ec:	ebc1 0c02 	rsb	ip, r1, r2
   889f0:	eb07 0747 	add.w	r7, r7, r7, lsl #1
   889f4:	f10c 0201 	add.w	r2, ip, #1
   889f8:	eb07 77d7 	add.w	r7, r7, r7, lsr #31
   889fc:	4442      	add	r2, r8
   889fe:	107f      	asrs	r7, r7, #1
   88a00:	4297      	cmp	r7, r2
   88a02:	bf34      	ite	cc
   88a04:	4617      	movcc	r7, r2
   88a06:	463a      	movcs	r2, r7
   88a08:	055b      	lsls	r3, r3, #21
   88a0a:	d54f      	bpl.n	88aac <__sfvwrite_r+0x2cc>
   88a0c:	4611      	mov	r1, r2
   88a0e:	4648      	mov	r0, r9
   88a10:	f8cd c000 	str.w	ip, [sp]
   88a14:	f000 f91a 	bl	88c4c <_malloc_r>
   88a18:	f8dd c000 	ldr.w	ip, [sp]
   88a1c:	4683      	mov	fp, r0
   88a1e:	2800      	cmp	r0, #0
   88a20:	d062      	beq.n	88ae8 <__sfvwrite_r+0x308>
   88a22:	4662      	mov	r2, ip
   88a24:	6921      	ldr	r1, [r4, #16]
   88a26:	f8cd c000 	str.w	ip, [sp]
   88a2a:	f7fc f8c5 	bl	84bb8 <memcpy>
   88a2e:	89a2      	ldrh	r2, [r4, #12]
   88a30:	f8dd c000 	ldr.w	ip, [sp]
   88a34:	f422 6290 	bic.w	r2, r2, #1152	; 0x480
   88a38:	f042 0280 	orr.w	r2, r2, #128	; 0x80
   88a3c:	81a2      	strh	r2, [r4, #12]
   88a3e:	eb0b 000c 	add.w	r0, fp, ip
   88a42:	ebcc 0207 	rsb	r2, ip, r7
   88a46:	f8c4 b010 	str.w	fp, [r4, #16]
   88a4a:	6167      	str	r7, [r4, #20]
   88a4c:	6020      	str	r0, [r4, #0]
   88a4e:	60a2      	str	r2, [r4, #8]
   88a50:	4647      	mov	r7, r8
   88a52:	46c3      	mov	fp, r8
   88a54:	e717      	b.n	88886 <__sfvwrite_r+0xa6>
   88a56:	f06f 4200 	mvn.w	r2, #2147483648	; 0x80000000
   88a5a:	4590      	cmp	r8, r2
   88a5c:	bf38      	it	cc
   88a5e:	4642      	movcc	r2, r8
   88a60:	fb92 f2f3 	sdiv	r2, r2, r3
   88a64:	fb02 f303 	mul.w	r3, r2, r3
   88a68:	6a67      	ldr	r7, [r4, #36]	; 0x24
   88a6a:	4648      	mov	r0, r9
   88a6c:	69e1      	ldr	r1, [r4, #28]
   88a6e:	4652      	mov	r2, sl
   88a70:	47b8      	blx	r7
   88a72:	2800      	cmp	r0, #0
   88a74:	f77f af31 	ble.w	888da <__sfvwrite_r+0xfa>
   88a78:	4602      	mov	r2, r0
   88a7a:	e710      	b.n	8889e <__sfvwrite_r+0xbe>
   88a7c:	4662      	mov	r2, ip
   88a7e:	4659      	mov	r1, fp
   88a80:	f8cd c000 	str.w	ip, [sp]
   88a84:	f000 fbc8 	bl	89218 <memmove>
   88a88:	f8dd c000 	ldr.w	ip, [sp]
   88a8c:	6823      	ldr	r3, [r4, #0]
   88a8e:	4648      	mov	r0, r9
   88a90:	4463      	add	r3, ip
   88a92:	6023      	str	r3, [r4, #0]
   88a94:	4621      	mov	r1, r4
   88a96:	f8cd c000 	str.w	ip, [sp]
   88a9a:	f7ff fc75 	bl	88388 <_fflush_r>
   88a9e:	f8dd c000 	ldr.w	ip, [sp]
   88aa2:	2800      	cmp	r0, #0
   88aa4:	f47f af19 	bne.w	888da <__sfvwrite_r+0xfa>
   88aa8:	4667      	mov	r7, ip
   88aaa:	e743      	b.n	88934 <__sfvwrite_r+0x154>
   88aac:	4648      	mov	r0, r9
   88aae:	f8cd c000 	str.w	ip, [sp]
   88ab2:	f000 ff25 	bl	89900 <_realloc_r>
   88ab6:	f8dd c000 	ldr.w	ip, [sp]
   88aba:	4683      	mov	fp, r0
   88abc:	2800      	cmp	r0, #0
   88abe:	d1be      	bne.n	88a3e <__sfvwrite_r+0x25e>
   88ac0:	4648      	mov	r0, r9
   88ac2:	6921      	ldr	r1, [r4, #16]
   88ac4:	f7ff fdc0 	bl	88648 <_free_r>
   88ac8:	89a3      	ldrh	r3, [r4, #12]
   88aca:	220c      	movs	r2, #12
   88acc:	f023 0380 	bic.w	r3, r3, #128	; 0x80
   88ad0:	b29b      	uxth	r3, r3
   88ad2:	f8c9 2000 	str.w	r2, [r9]
   88ad6:	e701      	b.n	888dc <__sfvwrite_r+0xfc>
   88ad8:	2701      	movs	r7, #1
   88ada:	f108 0a01 	add.w	sl, r8, #1
   88ade:	9701      	str	r7, [sp, #4]
   88ae0:	e70e      	b.n	88900 <__sfvwrite_r+0x120>
   88ae2:	f04f 30ff 	mov.w	r0, #4294967295
   88ae6:	e6aa      	b.n	8883e <__sfvwrite_r+0x5e>
   88ae8:	230c      	movs	r3, #12
   88aea:	f8c9 3000 	str.w	r3, [r9]
   88aee:	89a3      	ldrh	r3, [r4, #12]
   88af0:	e6f4      	b.n	888dc <__sfvwrite_r+0xfc>
   88af2:	bf00      	nop
   88af4:	7ffffc00 	.word	0x7ffffc00

00088af8 <_fwalk>:
   88af8:	e92d 41f0 	stmdb	sp!, {r4, r5, r6, r7, r8, lr}
   88afc:	f510 7738 	adds.w	r7, r0, #736	; 0x2e0
   88b00:	4688      	mov	r8, r1
   88b02:	d019      	beq.n	88b38 <_fwalk+0x40>
   88b04:	2600      	movs	r6, #0
   88b06:	687d      	ldr	r5, [r7, #4]
   88b08:	68bc      	ldr	r4, [r7, #8]
   88b0a:	3d01      	subs	r5, #1
   88b0c:	d40e      	bmi.n	88b2c <_fwalk+0x34>
   88b0e:	89a3      	ldrh	r3, [r4, #12]
   88b10:	3d01      	subs	r5, #1
   88b12:	2b01      	cmp	r3, #1
   88b14:	d906      	bls.n	88b24 <_fwalk+0x2c>
   88b16:	f9b4 300e 	ldrsh.w	r3, [r4, #14]
   88b1a:	4620      	mov	r0, r4
   88b1c:	3301      	adds	r3, #1
   88b1e:	d001      	beq.n	88b24 <_fwalk+0x2c>
   88b20:	47c0      	blx	r8
   88b22:	4306      	orrs	r6, r0
   88b24:	1c6b      	adds	r3, r5, #1
   88b26:	f104 0468 	add.w	r4, r4, #104	; 0x68
   88b2a:	d1f0      	bne.n	88b0e <_fwalk+0x16>
   88b2c:	683f      	ldr	r7, [r7, #0]
   88b2e:	2f00      	cmp	r7, #0
   88b30:	d1e9      	bne.n	88b06 <_fwalk+0xe>
   88b32:	4630      	mov	r0, r6
   88b34:	e8bd 81f0 	ldmia.w	sp!, {r4, r5, r6, r7, r8, pc}
   88b38:	463e      	mov	r6, r7
   88b3a:	4630      	mov	r0, r6
   88b3c:	e8bd 81f0 	ldmia.w	sp!, {r4, r5, r6, r7, r8, pc}

00088b40 <__locale_charset>:
   88b40:	4800      	ldr	r0, [pc, #0]	; (88b44 <__locale_charset+0x4>)
   88b42:	4770      	bx	lr
   88b44:	200705b4 	.word	0x200705b4

00088b48 <__locale_mb_cur_max>:
   88b48:	4b01      	ldr	r3, [pc, #4]	; (88b50 <__locale_mb_cur_max+0x8>)
   88b4a:	6818      	ldr	r0, [r3, #0]
   88b4c:	4770      	bx	lr
   88b4e:	bf00      	nop
   88b50:	200705d4 	.word	0x200705d4

00088b54 <_localeconv_r>:
   88b54:	4800      	ldr	r0, [pc, #0]	; (88b58 <_localeconv_r+0x4>)
   88b56:	4770      	bx	lr
   88b58:	2007057c 	.word	0x2007057c

00088b5c <__smakebuf_r>:
   88b5c:	b5f0      	push	{r4, r5, r6, r7, lr}
   88b5e:	898b      	ldrh	r3, [r1, #12]
   88b60:	b091      	sub	sp, #68	; 0x44
   88b62:	b29a      	uxth	r2, r3
   88b64:	0796      	lsls	r6, r2, #30
   88b66:	460c      	mov	r4, r1
   88b68:	4605      	mov	r5, r0
   88b6a:	d437      	bmi.n	88bdc <__smakebuf_r+0x80>
   88b6c:	f9b1 100e 	ldrsh.w	r1, [r1, #14]
   88b70:	2900      	cmp	r1, #0
   88b72:	db17      	blt.n	88ba4 <__smakebuf_r+0x48>
   88b74:	aa01      	add	r2, sp, #4
   88b76:	f001 faf3 	bl	8a160 <_fstat_r>
   88b7a:	2800      	cmp	r0, #0
   88b7c:	db10      	blt.n	88ba0 <__smakebuf_r+0x44>
   88b7e:	9b02      	ldr	r3, [sp, #8]
   88b80:	f403 4370 	and.w	r3, r3, #61440	; 0xf000
   88b84:	f5b3 5100 	subs.w	r1, r3, #8192	; 0x2000
   88b88:	424f      	negs	r7, r1
   88b8a:	414f      	adcs	r7, r1
   88b8c:	f5b3 4f00 	cmp.w	r3, #32768	; 0x8000
   88b90:	d02c      	beq.n	88bec <__smakebuf_r+0x90>
   88b92:	89a3      	ldrh	r3, [r4, #12]
   88b94:	f44f 6680 	mov.w	r6, #1024	; 0x400
   88b98:	f443 6300 	orr.w	r3, r3, #2048	; 0x800
   88b9c:	81a3      	strh	r3, [r4, #12]
   88b9e:	e00b      	b.n	88bb8 <__smakebuf_r+0x5c>
   88ba0:	89a3      	ldrh	r3, [r4, #12]
   88ba2:	b29a      	uxth	r2, r3
   88ba4:	f012 0f80 	tst.w	r2, #128	; 0x80
   88ba8:	f443 6300 	orr.w	r3, r3, #2048	; 0x800
   88bac:	81a3      	strh	r3, [r4, #12]
   88bae:	bf14      	ite	ne
   88bb0:	2640      	movne	r6, #64	; 0x40
   88bb2:	f44f 6680 	moveq.w	r6, #1024	; 0x400
   88bb6:	2700      	movs	r7, #0
   88bb8:	4628      	mov	r0, r5
   88bba:	4631      	mov	r1, r6
   88bbc:	f000 f846 	bl	88c4c <_malloc_r>
   88bc0:	89a3      	ldrh	r3, [r4, #12]
   88bc2:	2800      	cmp	r0, #0
   88bc4:	d029      	beq.n	88c1a <__smakebuf_r+0xbe>
   88bc6:	4a1b      	ldr	r2, [pc, #108]	; (88c34 <__smakebuf_r+0xd8>)
   88bc8:	f043 0380 	orr.w	r3, r3, #128	; 0x80
   88bcc:	63ea      	str	r2, [r5, #60]	; 0x3c
   88bce:	81a3      	strh	r3, [r4, #12]
   88bd0:	6020      	str	r0, [r4, #0]
   88bd2:	6120      	str	r0, [r4, #16]
   88bd4:	6166      	str	r6, [r4, #20]
   88bd6:	b9a7      	cbnz	r7, 88c02 <__smakebuf_r+0xa6>
   88bd8:	b011      	add	sp, #68	; 0x44
   88bda:	bdf0      	pop	{r4, r5, r6, r7, pc}
   88bdc:	f101 0343 	add.w	r3, r1, #67	; 0x43
   88be0:	2201      	movs	r2, #1
   88be2:	600b      	str	r3, [r1, #0]
   88be4:	610b      	str	r3, [r1, #16]
   88be6:	614a      	str	r2, [r1, #20]
   88be8:	b011      	add	sp, #68	; 0x44
   88bea:	bdf0      	pop	{r4, r5, r6, r7, pc}
   88bec:	4a12      	ldr	r2, [pc, #72]	; (88c38 <__smakebuf_r+0xdc>)
   88bee:	6aa3      	ldr	r3, [r4, #40]	; 0x28
   88bf0:	4293      	cmp	r3, r2
   88bf2:	d1ce      	bne.n	88b92 <__smakebuf_r+0x36>
   88bf4:	89a3      	ldrh	r3, [r4, #12]
   88bf6:	f44f 6680 	mov.w	r6, #1024	; 0x400
   88bfa:	4333      	orrs	r3, r6
   88bfc:	81a3      	strh	r3, [r4, #12]
   88bfe:	64e6      	str	r6, [r4, #76]	; 0x4c
   88c00:	e7da      	b.n	88bb8 <__smakebuf_r+0x5c>
   88c02:	4628      	mov	r0, r5
   88c04:	f9b4 100e 	ldrsh.w	r1, [r4, #14]
   88c08:	f001 fabe 	bl	8a188 <_isatty_r>
   88c0c:	2800      	cmp	r0, #0
   88c0e:	d0e3      	beq.n	88bd8 <__smakebuf_r+0x7c>
   88c10:	89a3      	ldrh	r3, [r4, #12]
   88c12:	f043 0301 	orr.w	r3, r3, #1
   88c16:	81a3      	strh	r3, [r4, #12]
   88c18:	e7de      	b.n	88bd8 <__smakebuf_r+0x7c>
   88c1a:	059a      	lsls	r2, r3, #22
   88c1c:	d4dc      	bmi.n	88bd8 <__smakebuf_r+0x7c>
   88c1e:	f104 0243 	add.w	r2, r4, #67	; 0x43
   88c22:	f043 0302 	orr.w	r3, r3, #2
   88c26:	2101      	movs	r1, #1
   88c28:	81a3      	strh	r3, [r4, #12]
   88c2a:	6022      	str	r2, [r4, #0]
   88c2c:	6122      	str	r2, [r4, #16]
   88c2e:	6161      	str	r1, [r4, #20]
   88c30:	e7d2      	b.n	88bd8 <__smakebuf_r+0x7c>
   88c32:	bf00      	nop
   88c34:	000883b5 	.word	0x000883b5
   88c38:	00089d41 	.word	0x00089d41

00088c3c <malloc>:
   88c3c:	4b02      	ldr	r3, [pc, #8]	; (88c48 <malloc+0xc>)
   88c3e:	4601      	mov	r1, r0
   88c40:	6818      	ldr	r0, [r3, #0]
   88c42:	f000 b803 	b.w	88c4c <_malloc_r>
   88c46:	bf00      	nop
   88c48:	20070578 	.word	0x20070578

00088c4c <_malloc_r>:
   88c4c:	e92d 4ff0 	stmdb	sp!, {r4, r5, r6, r7, r8, r9, sl, fp, lr}
   88c50:	f101 050b 	add.w	r5, r1, #11
   88c54:	2d16      	cmp	r5, #22
   88c56:	b083      	sub	sp, #12
   88c58:	4606      	mov	r6, r0
   88c5a:	d927      	bls.n	88cac <_malloc_r+0x60>
   88c5c:	f035 0507 	bics.w	r5, r5, #7
   88c60:	d427      	bmi.n	88cb2 <_malloc_r+0x66>
   88c62:	42a9      	cmp	r1, r5
   88c64:	d825      	bhi.n	88cb2 <_malloc_r+0x66>
   88c66:	4630      	mov	r0, r6
   88c68:	f000 fb3c 	bl	892e4 <__malloc_lock>
   88c6c:	f5b5 7ffc 	cmp.w	r5, #504	; 0x1f8
   88c70:	d226      	bcs.n	88cc0 <_malloc_r+0x74>
   88c72:	4fc1      	ldr	r7, [pc, #772]	; (88f78 <_malloc_r+0x32c>)
   88c74:	ea4f 0cd5 	mov.w	ip, r5, lsr #3
   88c78:	eb07 03cc 	add.w	r3, r7, ip, lsl #3
   88c7c:	68dc      	ldr	r4, [r3, #12]
   88c7e:	429c      	cmp	r4, r3
   88c80:	f000 81d2 	beq.w	89028 <_malloc_r+0x3dc>
   88c84:	6863      	ldr	r3, [r4, #4]
   88c86:	68e2      	ldr	r2, [r4, #12]
   88c88:	f023 0303 	bic.w	r3, r3, #3
   88c8c:	4423      	add	r3, r4
   88c8e:	6858      	ldr	r0, [r3, #4]
   88c90:	68a1      	ldr	r1, [r4, #8]
   88c92:	f040 0501 	orr.w	r5, r0, #1
   88c96:	60ca      	str	r2, [r1, #12]
   88c98:	4630      	mov	r0, r6
   88c9a:	6091      	str	r1, [r2, #8]
   88c9c:	605d      	str	r5, [r3, #4]
   88c9e:	f000 fb23 	bl	892e8 <__malloc_unlock>
   88ca2:	3408      	adds	r4, #8
   88ca4:	4620      	mov	r0, r4
   88ca6:	b003      	add	sp, #12
   88ca8:	e8bd 8ff0 	ldmia.w	sp!, {r4, r5, r6, r7, r8, r9, sl, fp, pc}
   88cac:	2510      	movs	r5, #16
   88cae:	42a9      	cmp	r1, r5
   88cb0:	d9d9      	bls.n	88c66 <_malloc_r+0x1a>
   88cb2:	2400      	movs	r4, #0
   88cb4:	230c      	movs	r3, #12
   88cb6:	4620      	mov	r0, r4
   88cb8:	6033      	str	r3, [r6, #0]
   88cba:	b003      	add	sp, #12
   88cbc:	e8bd 8ff0 	ldmia.w	sp!, {r4, r5, r6, r7, r8, r9, sl, fp, pc}
   88cc0:	ea5f 2c55 	movs.w	ip, r5, lsr #9
   88cc4:	f000 8089 	beq.w	88dda <_malloc_r+0x18e>
   88cc8:	f1bc 0f04 	cmp.w	ip, #4
   88ccc:	f200 8160 	bhi.w	88f90 <_malloc_r+0x344>
   88cd0:	ea4f 1c95 	mov.w	ip, r5, lsr #6
   88cd4:	f10c 0c38 	add.w	ip, ip, #56	; 0x38
   88cd8:	ea4f 014c 	mov.w	r1, ip, lsl #1
   88cdc:	4fa6      	ldr	r7, [pc, #664]	; (88f78 <_malloc_r+0x32c>)
   88cde:	eb07 0181 	add.w	r1, r7, r1, lsl #2
   88ce2:	68cc      	ldr	r4, [r1, #12]
   88ce4:	42a1      	cmp	r1, r4
   88ce6:	d105      	bne.n	88cf4 <_malloc_r+0xa8>
   88ce8:	e00c      	b.n	88d04 <_malloc_r+0xb8>
   88cea:	2b00      	cmp	r3, #0
   88cec:	da79      	bge.n	88de2 <_malloc_r+0x196>
   88cee:	68e4      	ldr	r4, [r4, #12]
   88cf0:	42a1      	cmp	r1, r4
   88cf2:	d007      	beq.n	88d04 <_malloc_r+0xb8>
   88cf4:	6862      	ldr	r2, [r4, #4]
   88cf6:	f022 0203 	bic.w	r2, r2, #3
   88cfa:	1b53      	subs	r3, r2, r5
   88cfc:	2b0f      	cmp	r3, #15
   88cfe:	ddf4      	ble.n	88cea <_malloc_r+0x9e>
   88d00:	f10c 3cff 	add.w	ip, ip, #4294967295
   88d04:	f10c 0c01 	add.w	ip, ip, #1
   88d08:	4b9b      	ldr	r3, [pc, #620]	; (88f78 <_malloc_r+0x32c>)
   88d0a:	693c      	ldr	r4, [r7, #16]
   88d0c:	f103 0e08 	add.w	lr, r3, #8
   88d10:	4574      	cmp	r4, lr
   88d12:	f000 817e 	beq.w	89012 <_malloc_r+0x3c6>
   88d16:	6861      	ldr	r1, [r4, #4]
   88d18:	f021 0103 	bic.w	r1, r1, #3
   88d1c:	1b4a      	subs	r2, r1, r5
   88d1e:	2a0f      	cmp	r2, #15
   88d20:	f300 8164 	bgt.w	88fec <_malloc_r+0x3a0>
   88d24:	2a00      	cmp	r2, #0
   88d26:	f8c3 e014 	str.w	lr, [r3, #20]
   88d2a:	f8c3 e010 	str.w	lr, [r3, #16]
   88d2e:	da69      	bge.n	88e04 <_malloc_r+0x1b8>
   88d30:	f5b1 7f00 	cmp.w	r1, #512	; 0x200
   88d34:	f080 813a 	bcs.w	88fac <_malloc_r+0x360>
   88d38:	08c9      	lsrs	r1, r1, #3
   88d3a:	108a      	asrs	r2, r1, #2
   88d3c:	f04f 0801 	mov.w	r8, #1
   88d40:	fa08 f802 	lsl.w	r8, r8, r2
   88d44:	eb03 01c1 	add.w	r1, r3, r1, lsl #3
   88d48:	685a      	ldr	r2, [r3, #4]
   88d4a:	6888      	ldr	r0, [r1, #8]
   88d4c:	ea48 0202 	orr.w	r2, r8, r2
   88d50:	60a0      	str	r0, [r4, #8]
   88d52:	60e1      	str	r1, [r4, #12]
   88d54:	605a      	str	r2, [r3, #4]
   88d56:	608c      	str	r4, [r1, #8]
   88d58:	60c4      	str	r4, [r0, #12]
   88d5a:	ea4f 03ac 	mov.w	r3, ip, asr #2
   88d5e:	2001      	movs	r0, #1
   88d60:	4098      	lsls	r0, r3
   88d62:	4290      	cmp	r0, r2
   88d64:	d85b      	bhi.n	88e1e <_malloc_r+0x1d2>
   88d66:	4202      	tst	r2, r0
   88d68:	d106      	bne.n	88d78 <_malloc_r+0x12c>
   88d6a:	f02c 0c03 	bic.w	ip, ip, #3
   88d6e:	0040      	lsls	r0, r0, #1
   88d70:	4202      	tst	r2, r0
   88d72:	f10c 0c04 	add.w	ip, ip, #4
   88d76:	d0fa      	beq.n	88d6e <_malloc_r+0x122>
   88d78:	eb07 08cc 	add.w	r8, r7, ip, lsl #3
   88d7c:	4644      	mov	r4, r8
   88d7e:	46e1      	mov	r9, ip
   88d80:	68e3      	ldr	r3, [r4, #12]
   88d82:	429c      	cmp	r4, r3
   88d84:	d107      	bne.n	88d96 <_malloc_r+0x14a>
   88d86:	e146      	b.n	89016 <_malloc_r+0x3ca>
   88d88:	2a00      	cmp	r2, #0
   88d8a:	f280 8157 	bge.w	8903c <_malloc_r+0x3f0>
   88d8e:	68db      	ldr	r3, [r3, #12]
   88d90:	429c      	cmp	r4, r3
   88d92:	f000 8140 	beq.w	89016 <_malloc_r+0x3ca>
   88d96:	6859      	ldr	r1, [r3, #4]
   88d98:	f021 0103 	bic.w	r1, r1, #3
   88d9c:	1b4a      	subs	r2, r1, r5
   88d9e:	2a0f      	cmp	r2, #15
   88da0:	ddf2      	ble.n	88d88 <_malloc_r+0x13c>
   88da2:	461c      	mov	r4, r3
   88da4:	f854 cf08 	ldr.w	ip, [r4, #8]!
   88da8:	68d9      	ldr	r1, [r3, #12]
   88daa:	f045 0901 	orr.w	r9, r5, #1
   88dae:	f042 0801 	orr.w	r8, r2, #1
   88db2:	441d      	add	r5, r3
   88db4:	f8c3 9004 	str.w	r9, [r3, #4]
   88db8:	4630      	mov	r0, r6
   88dba:	f8cc 100c 	str.w	r1, [ip, #12]
   88dbe:	f8c1 c008 	str.w	ip, [r1, #8]
   88dc2:	617d      	str	r5, [r7, #20]
   88dc4:	613d      	str	r5, [r7, #16]
   88dc6:	f8c5 e00c 	str.w	lr, [r5, #12]
   88dca:	f8c5 e008 	str.w	lr, [r5, #8]
   88dce:	f8c5 8004 	str.w	r8, [r5, #4]
   88dd2:	50aa      	str	r2, [r5, r2]
   88dd4:	f000 fa88 	bl	892e8 <__malloc_unlock>
   88dd8:	e764      	b.n	88ca4 <_malloc_r+0x58>
   88dda:	217e      	movs	r1, #126	; 0x7e
   88ddc:	f04f 0c3f 	mov.w	ip, #63	; 0x3f
   88de0:	e77c      	b.n	88cdc <_malloc_r+0x90>
   88de2:	4422      	add	r2, r4
   88de4:	6850      	ldr	r0, [r2, #4]
   88de6:	68e3      	ldr	r3, [r4, #12]
   88de8:	68a1      	ldr	r1, [r4, #8]
   88dea:	f040 0501 	orr.w	r5, r0, #1
   88dee:	60cb      	str	r3, [r1, #12]
   88df0:	4630      	mov	r0, r6
   88df2:	6099      	str	r1, [r3, #8]
   88df4:	6055      	str	r5, [r2, #4]
   88df6:	f000 fa77 	bl	892e8 <__malloc_unlock>
   88dfa:	3408      	adds	r4, #8
   88dfc:	4620      	mov	r0, r4
   88dfe:	b003      	add	sp, #12
   88e00:	e8bd 8ff0 	ldmia.w	sp!, {r4, r5, r6, r7, r8, r9, sl, fp, pc}
   88e04:	4421      	add	r1, r4
   88e06:	684b      	ldr	r3, [r1, #4]
   88e08:	4630      	mov	r0, r6
   88e0a:	f043 0301 	orr.w	r3, r3, #1
   88e0e:	604b      	str	r3, [r1, #4]
   88e10:	f000 fa6a 	bl	892e8 <__malloc_unlock>
   88e14:	3408      	adds	r4, #8
   88e16:	4620      	mov	r0, r4
   88e18:	b003      	add	sp, #12
   88e1a:	e8bd 8ff0 	ldmia.w	sp!, {r4, r5, r6, r7, r8, r9, sl, fp, pc}
   88e1e:	68bc      	ldr	r4, [r7, #8]
   88e20:	6863      	ldr	r3, [r4, #4]
   88e22:	f023 0903 	bic.w	r9, r3, #3
   88e26:	45a9      	cmp	r9, r5
   88e28:	d304      	bcc.n	88e34 <_malloc_r+0x1e8>
   88e2a:	ebc5 0309 	rsb	r3, r5, r9
   88e2e:	2b0f      	cmp	r3, #15
   88e30:	f300 8091 	bgt.w	88f56 <_malloc_r+0x30a>
   88e34:	4b51      	ldr	r3, [pc, #324]	; (88f7c <_malloc_r+0x330>)
   88e36:	4a52      	ldr	r2, [pc, #328]	; (88f80 <_malloc_r+0x334>)
   88e38:	6819      	ldr	r1, [r3, #0]
   88e3a:	6813      	ldr	r3, [r2, #0]
   88e3c:	eb05 0a01 	add.w	sl, r5, r1
   88e40:	3301      	adds	r3, #1
   88e42:	eb04 0b09 	add.w	fp, r4, r9
   88e46:	f000 8161 	beq.w	8910c <_malloc_r+0x4c0>
   88e4a:	f50a 5a80 	add.w	sl, sl, #4096	; 0x1000
   88e4e:	f10a 0a0f 	add.w	sl, sl, #15
   88e52:	f42a 6a7f 	bic.w	sl, sl, #4080	; 0xff0
   88e56:	f02a 0a0f 	bic.w	sl, sl, #15
   88e5a:	4630      	mov	r0, r6
   88e5c:	4651      	mov	r1, sl
   88e5e:	9201      	str	r2, [sp, #4]
   88e60:	f000 ff2e 	bl	89cc0 <_sbrk_r>
   88e64:	f1b0 3fff 	cmp.w	r0, #4294967295
   88e68:	4680      	mov	r8, r0
   88e6a:	9a01      	ldr	r2, [sp, #4]
   88e6c:	f000 8101 	beq.w	89072 <_malloc_r+0x426>
   88e70:	4583      	cmp	fp, r0
   88e72:	f200 80fb 	bhi.w	8906c <_malloc_r+0x420>
   88e76:	f8df c114 	ldr.w	ip, [pc, #276]	; 88f8c <_malloc_r+0x340>
   88e7a:	45c3      	cmp	fp, r8
   88e7c:	f8dc 3000 	ldr.w	r3, [ip]
   88e80:	4453      	add	r3, sl
   88e82:	f8cc 3000 	str.w	r3, [ip]
   88e86:	f000 814a 	beq.w	8911e <_malloc_r+0x4d2>
   88e8a:	6812      	ldr	r2, [r2, #0]
   88e8c:	493c      	ldr	r1, [pc, #240]	; (88f80 <_malloc_r+0x334>)
   88e8e:	3201      	adds	r2, #1
   88e90:	bf1b      	ittet	ne
   88e92:	ebcb 0b08 	rsbne	fp, fp, r8
   88e96:	445b      	addne	r3, fp
   88e98:	f8c1 8000 	streq.w	r8, [r1]
   88e9c:	f8cc 3000 	strne.w	r3, [ip]
   88ea0:	f018 0307 	ands.w	r3, r8, #7
   88ea4:	f000 8114 	beq.w	890d0 <_malloc_r+0x484>
   88ea8:	f1c3 0208 	rsb	r2, r3, #8
   88eac:	f5c3 5380 	rsb	r3, r3, #4096	; 0x1000
   88eb0:	4490      	add	r8, r2
   88eb2:	3308      	adds	r3, #8
   88eb4:	44c2      	add	sl, r8
   88eb6:	f3ca 0a0b 	ubfx	sl, sl, #0, #12
   88eba:	ebca 0a03 	rsb	sl, sl, r3
   88ebe:	4651      	mov	r1, sl
   88ec0:	4630      	mov	r0, r6
   88ec2:	f8cd c004 	str.w	ip, [sp, #4]
   88ec6:	f000 fefb 	bl	89cc0 <_sbrk_r>
   88eca:	1c43      	adds	r3, r0, #1
   88ecc:	f8dd c004 	ldr.w	ip, [sp, #4]
   88ed0:	f000 8135 	beq.w	8913e <_malloc_r+0x4f2>
   88ed4:	ebc8 0200 	rsb	r2, r8, r0
   88ed8:	4452      	add	r2, sl
   88eda:	f042 0201 	orr.w	r2, r2, #1
   88ede:	f8dc 3000 	ldr.w	r3, [ip]
   88ee2:	42bc      	cmp	r4, r7
   88ee4:	4453      	add	r3, sl
   88ee6:	f8c7 8008 	str.w	r8, [r7, #8]
   88eea:	f8cc 3000 	str.w	r3, [ip]
   88eee:	f8c8 2004 	str.w	r2, [r8, #4]
   88ef2:	f8df a098 	ldr.w	sl, [pc, #152]	; 88f8c <_malloc_r+0x340>
   88ef6:	d015      	beq.n	88f24 <_malloc_r+0x2d8>
   88ef8:	f1b9 0f0f 	cmp.w	r9, #15
   88efc:	f240 80eb 	bls.w	890d6 <_malloc_r+0x48a>
   88f00:	6861      	ldr	r1, [r4, #4]
   88f02:	f1a9 020c 	sub.w	r2, r9, #12
   88f06:	f022 0207 	bic.w	r2, r2, #7
   88f0a:	f001 0101 	and.w	r1, r1, #1
   88f0e:	ea42 0e01 	orr.w	lr, r2, r1
   88f12:	2005      	movs	r0, #5
   88f14:	18a1      	adds	r1, r4, r2
   88f16:	2a0f      	cmp	r2, #15
   88f18:	f8c4 e004 	str.w	lr, [r4, #4]
   88f1c:	6048      	str	r0, [r1, #4]
   88f1e:	6088      	str	r0, [r1, #8]
   88f20:	f200 8111 	bhi.w	89146 <_malloc_r+0x4fa>
   88f24:	4a17      	ldr	r2, [pc, #92]	; (88f84 <_malloc_r+0x338>)
   88f26:	68bc      	ldr	r4, [r7, #8]
   88f28:	6811      	ldr	r1, [r2, #0]
   88f2a:	428b      	cmp	r3, r1
   88f2c:	bf88      	it	hi
   88f2e:	6013      	strhi	r3, [r2, #0]
   88f30:	4a15      	ldr	r2, [pc, #84]	; (88f88 <_malloc_r+0x33c>)
   88f32:	6811      	ldr	r1, [r2, #0]
   88f34:	428b      	cmp	r3, r1
   88f36:	bf88      	it	hi
   88f38:	6013      	strhi	r3, [r2, #0]
   88f3a:	6862      	ldr	r2, [r4, #4]
   88f3c:	f022 0203 	bic.w	r2, r2, #3
   88f40:	4295      	cmp	r5, r2
   88f42:	ebc5 0302 	rsb	r3, r5, r2
   88f46:	d801      	bhi.n	88f4c <_malloc_r+0x300>
   88f48:	2b0f      	cmp	r3, #15
   88f4a:	dc04      	bgt.n	88f56 <_malloc_r+0x30a>
   88f4c:	4630      	mov	r0, r6
   88f4e:	f000 f9cb 	bl	892e8 <__malloc_unlock>
   88f52:	2400      	movs	r4, #0
   88f54:	e6a6      	b.n	88ca4 <_malloc_r+0x58>
   88f56:	f045 0201 	orr.w	r2, r5, #1
   88f5a:	f043 0301 	orr.w	r3, r3, #1
   88f5e:	4425      	add	r5, r4
   88f60:	6062      	str	r2, [r4, #4]
   88f62:	4630      	mov	r0, r6
   88f64:	60bd      	str	r5, [r7, #8]
   88f66:	606b      	str	r3, [r5, #4]
   88f68:	f000 f9be 	bl	892e8 <__malloc_unlock>
   88f6c:	3408      	adds	r4, #8
   88f6e:	4620      	mov	r0, r4
   88f70:	b003      	add	sp, #12
   88f72:	e8bd 8ff0 	ldmia.w	sp!, {r4, r5, r6, r7, r8, r9, sl, fp, pc}
   88f76:	bf00      	nop
   88f78:	200705d8 	.word	0x200705d8
   88f7c:	20078c38 	.word	0x20078c38
   88f80:	200709e4 	.word	0x200709e4
   88f84:	20078c34 	.word	0x20078c34
   88f88:	20078c30 	.word	0x20078c30
   88f8c:	20078c3c 	.word	0x20078c3c
   88f90:	f1bc 0f14 	cmp.w	ip, #20
   88f94:	d961      	bls.n	8905a <_malloc_r+0x40e>
   88f96:	f1bc 0f54 	cmp.w	ip, #84	; 0x54
   88f9a:	f200 808f 	bhi.w	890bc <_malloc_r+0x470>
   88f9e:	ea4f 3c15 	mov.w	ip, r5, lsr #12
   88fa2:	f10c 0c6e 	add.w	ip, ip, #110	; 0x6e
   88fa6:	ea4f 014c 	mov.w	r1, ip, lsl #1
   88faa:	e697      	b.n	88cdc <_malloc_r+0x90>
   88fac:	0a4b      	lsrs	r3, r1, #9
   88fae:	2b04      	cmp	r3, #4
   88fb0:	d958      	bls.n	89064 <_malloc_r+0x418>
   88fb2:	2b14      	cmp	r3, #20
   88fb4:	f200 80ad 	bhi.w	89112 <_malloc_r+0x4c6>
   88fb8:	f103 025b 	add.w	r2, r3, #91	; 0x5b
   88fbc:	0050      	lsls	r0, r2, #1
   88fbe:	eb07 0080 	add.w	r0, r7, r0, lsl #2
   88fc2:	6883      	ldr	r3, [r0, #8]
   88fc4:	f8df 81b8 	ldr.w	r8, [pc, #440]	; 89180 <_malloc_r+0x534>
   88fc8:	4283      	cmp	r3, r0
   88fca:	f000 808a 	beq.w	890e2 <_malloc_r+0x496>
   88fce:	685a      	ldr	r2, [r3, #4]
   88fd0:	f022 0203 	bic.w	r2, r2, #3
   88fd4:	4291      	cmp	r1, r2
   88fd6:	d202      	bcs.n	88fde <_malloc_r+0x392>
   88fd8:	689b      	ldr	r3, [r3, #8]
   88fda:	4298      	cmp	r0, r3
   88fdc:	d1f7      	bne.n	88fce <_malloc_r+0x382>
   88fde:	68d9      	ldr	r1, [r3, #12]
   88fe0:	687a      	ldr	r2, [r7, #4]
   88fe2:	60e1      	str	r1, [r4, #12]
   88fe4:	60a3      	str	r3, [r4, #8]
   88fe6:	608c      	str	r4, [r1, #8]
   88fe8:	60dc      	str	r4, [r3, #12]
   88fea:	e6b6      	b.n	88d5a <_malloc_r+0x10e>
   88fec:	f045 0701 	orr.w	r7, r5, #1
   88ff0:	f042 0101 	orr.w	r1, r2, #1
   88ff4:	4425      	add	r5, r4
   88ff6:	6067      	str	r7, [r4, #4]
   88ff8:	4630      	mov	r0, r6
   88ffa:	615d      	str	r5, [r3, #20]
   88ffc:	611d      	str	r5, [r3, #16]
   88ffe:	f8c5 e00c 	str.w	lr, [r5, #12]
   89002:	f8c5 e008 	str.w	lr, [r5, #8]
   89006:	6069      	str	r1, [r5, #4]
   89008:	50aa      	str	r2, [r5, r2]
   8900a:	3408      	adds	r4, #8
   8900c:	f000 f96c 	bl	892e8 <__malloc_unlock>
   89010:	e648      	b.n	88ca4 <_malloc_r+0x58>
   89012:	685a      	ldr	r2, [r3, #4]
   89014:	e6a1      	b.n	88d5a <_malloc_r+0x10e>
   89016:	f109 0901 	add.w	r9, r9, #1
   8901a:	f019 0f03 	tst.w	r9, #3
   8901e:	f104 0408 	add.w	r4, r4, #8
   89022:	f47f aead 	bne.w	88d80 <_malloc_r+0x134>
   89026:	e02d      	b.n	89084 <_malloc_r+0x438>
   89028:	f104 0308 	add.w	r3, r4, #8
   8902c:	6964      	ldr	r4, [r4, #20]
   8902e:	42a3      	cmp	r3, r4
   89030:	bf08      	it	eq
   89032:	f10c 0c02 	addeq.w	ip, ip, #2
   89036:	f43f ae67 	beq.w	88d08 <_malloc_r+0xbc>
   8903a:	e623      	b.n	88c84 <_malloc_r+0x38>
   8903c:	4419      	add	r1, r3
   8903e:	6848      	ldr	r0, [r1, #4]
   89040:	461c      	mov	r4, r3
   89042:	f854 2f08 	ldr.w	r2, [r4, #8]!
   89046:	68db      	ldr	r3, [r3, #12]
   89048:	f040 0501 	orr.w	r5, r0, #1
   8904c:	604d      	str	r5, [r1, #4]
   8904e:	4630      	mov	r0, r6
   89050:	60d3      	str	r3, [r2, #12]
   89052:	609a      	str	r2, [r3, #8]
   89054:	f000 f948 	bl	892e8 <__malloc_unlock>
   89058:	e624      	b.n	88ca4 <_malloc_r+0x58>
   8905a:	f10c 0c5b 	add.w	ip, ip, #91	; 0x5b
   8905e:	ea4f 014c 	mov.w	r1, ip, lsl #1
   89062:	e63b      	b.n	88cdc <_malloc_r+0x90>
   89064:	098a      	lsrs	r2, r1, #6
   89066:	3238      	adds	r2, #56	; 0x38
   89068:	0050      	lsls	r0, r2, #1
   8906a:	e7a8      	b.n	88fbe <_malloc_r+0x372>
   8906c:	42bc      	cmp	r4, r7
   8906e:	f43f af02 	beq.w	88e76 <_malloc_r+0x22a>
   89072:	68bc      	ldr	r4, [r7, #8]
   89074:	6862      	ldr	r2, [r4, #4]
   89076:	f022 0203 	bic.w	r2, r2, #3
   8907a:	e761      	b.n	88f40 <_malloc_r+0x2f4>
   8907c:	f8d8 8000 	ldr.w	r8, [r8]
   89080:	4598      	cmp	r8, r3
   89082:	d17a      	bne.n	8917a <_malloc_r+0x52e>
   89084:	f01c 0f03 	tst.w	ip, #3
   89088:	f1a8 0308 	sub.w	r3, r8, #8
   8908c:	f10c 3cff 	add.w	ip, ip, #4294967295
   89090:	d1f4      	bne.n	8907c <_malloc_r+0x430>
   89092:	687b      	ldr	r3, [r7, #4]
   89094:	ea23 0300 	bic.w	r3, r3, r0
   89098:	607b      	str	r3, [r7, #4]
   8909a:	0040      	lsls	r0, r0, #1
   8909c:	4298      	cmp	r0, r3
   8909e:	f63f aebe 	bhi.w	88e1e <_malloc_r+0x1d2>
   890a2:	2800      	cmp	r0, #0
   890a4:	f43f aebb 	beq.w	88e1e <_malloc_r+0x1d2>
   890a8:	4203      	tst	r3, r0
   890aa:	46cc      	mov	ip, r9
   890ac:	f47f ae64 	bne.w	88d78 <_malloc_r+0x12c>
   890b0:	0040      	lsls	r0, r0, #1
   890b2:	4203      	tst	r3, r0
   890b4:	f10c 0c04 	add.w	ip, ip, #4
   890b8:	d0fa      	beq.n	890b0 <_malloc_r+0x464>
   890ba:	e65d      	b.n	88d78 <_malloc_r+0x12c>
   890bc:	f5bc 7faa 	cmp.w	ip, #340	; 0x154
   890c0:	d819      	bhi.n	890f6 <_malloc_r+0x4aa>
   890c2:	ea4f 3cd5 	mov.w	ip, r5, lsr #15
   890c6:	f10c 0c77 	add.w	ip, ip, #119	; 0x77
   890ca:	ea4f 014c 	mov.w	r1, ip, lsl #1
   890ce:	e605      	b.n	88cdc <_malloc_r+0x90>
   890d0:	f44f 5380 	mov.w	r3, #4096	; 0x1000
   890d4:	e6ee      	b.n	88eb4 <_malloc_r+0x268>
   890d6:	2301      	movs	r3, #1
   890d8:	f8c8 3004 	str.w	r3, [r8, #4]
   890dc:	4644      	mov	r4, r8
   890de:	2200      	movs	r2, #0
   890e0:	e72e      	b.n	88f40 <_malloc_r+0x2f4>
   890e2:	1092      	asrs	r2, r2, #2
   890e4:	2001      	movs	r0, #1
   890e6:	4090      	lsls	r0, r2
   890e8:	f8d8 2004 	ldr.w	r2, [r8, #4]
   890ec:	4619      	mov	r1, r3
   890ee:	4302      	orrs	r2, r0
   890f0:	f8c8 2004 	str.w	r2, [r8, #4]
   890f4:	e775      	b.n	88fe2 <_malloc_r+0x396>
   890f6:	f240 5354 	movw	r3, #1364	; 0x554
   890fa:	459c      	cmp	ip, r3
   890fc:	d81b      	bhi.n	89136 <_malloc_r+0x4ea>
   890fe:	ea4f 4c95 	mov.w	ip, r5, lsr #18
   89102:	f10c 0c7c 	add.w	ip, ip, #124	; 0x7c
   89106:	ea4f 014c 	mov.w	r1, ip, lsl #1
   8910a:	e5e7      	b.n	88cdc <_malloc_r+0x90>
   8910c:	f10a 0a10 	add.w	sl, sl, #16
   89110:	e6a3      	b.n	88e5a <_malloc_r+0x20e>
   89112:	2b54      	cmp	r3, #84	; 0x54
   89114:	d81f      	bhi.n	89156 <_malloc_r+0x50a>
   89116:	0b0a      	lsrs	r2, r1, #12
   89118:	326e      	adds	r2, #110	; 0x6e
   8911a:	0050      	lsls	r0, r2, #1
   8911c:	e74f      	b.n	88fbe <_malloc_r+0x372>
   8911e:	f3cb 010b 	ubfx	r1, fp, #0, #12
   89122:	2900      	cmp	r1, #0
   89124:	f47f aeb1 	bne.w	88e8a <_malloc_r+0x23e>
   89128:	eb0a 0109 	add.w	r1, sl, r9
   8912c:	68ba      	ldr	r2, [r7, #8]
   8912e:	f041 0101 	orr.w	r1, r1, #1
   89132:	6051      	str	r1, [r2, #4]
   89134:	e6f6      	b.n	88f24 <_malloc_r+0x2d8>
   89136:	21fc      	movs	r1, #252	; 0xfc
   89138:	f04f 0c7e 	mov.w	ip, #126	; 0x7e
   8913c:	e5ce      	b.n	88cdc <_malloc_r+0x90>
   8913e:	2201      	movs	r2, #1
   89140:	f04f 0a00 	mov.w	sl, #0
   89144:	e6cb      	b.n	88ede <_malloc_r+0x292>
   89146:	f104 0108 	add.w	r1, r4, #8
   8914a:	4630      	mov	r0, r6
   8914c:	f7ff fa7c 	bl	88648 <_free_r>
   89150:	f8da 3000 	ldr.w	r3, [sl]
   89154:	e6e6      	b.n	88f24 <_malloc_r+0x2d8>
   89156:	f5b3 7faa 	cmp.w	r3, #340	; 0x154
   8915a:	d803      	bhi.n	89164 <_malloc_r+0x518>
   8915c:	0bca      	lsrs	r2, r1, #15
   8915e:	3277      	adds	r2, #119	; 0x77
   89160:	0050      	lsls	r0, r2, #1
   89162:	e72c      	b.n	88fbe <_malloc_r+0x372>
   89164:	f240 5254 	movw	r2, #1364	; 0x554
   89168:	4293      	cmp	r3, r2
   8916a:	d803      	bhi.n	89174 <_malloc_r+0x528>
   8916c:	0c8a      	lsrs	r2, r1, #18
   8916e:	327c      	adds	r2, #124	; 0x7c
   89170:	0050      	lsls	r0, r2, #1
   89172:	e724      	b.n	88fbe <_malloc_r+0x372>
   89174:	20fc      	movs	r0, #252	; 0xfc
   89176:	227e      	movs	r2, #126	; 0x7e
   89178:	e721      	b.n	88fbe <_malloc_r+0x372>
   8917a:	687b      	ldr	r3, [r7, #4]
   8917c:	e78d      	b.n	8909a <_malloc_r+0x44e>
   8917e:	bf00      	nop
   89180:	200705d8 	.word	0x200705d8

00089184 <memchr>:
   89184:	0783      	lsls	r3, r0, #30
   89186:	b470      	push	{r4, r5, r6}
   89188:	b2c9      	uxtb	r1, r1
   8918a:	d040      	beq.n	8920e <memchr+0x8a>
   8918c:	1e54      	subs	r4, r2, #1
   8918e:	b32a      	cbz	r2, 891dc <memchr+0x58>
   89190:	7803      	ldrb	r3, [r0, #0]
   89192:	428b      	cmp	r3, r1
   89194:	d023      	beq.n	891de <memchr+0x5a>
   89196:	1c43      	adds	r3, r0, #1
   89198:	e004      	b.n	891a4 <memchr+0x20>
   8919a:	b1fc      	cbz	r4, 891dc <memchr+0x58>
   8919c:	7805      	ldrb	r5, [r0, #0]
   8919e:	4614      	mov	r4, r2
   891a0:	428d      	cmp	r5, r1
   891a2:	d01c      	beq.n	891de <memchr+0x5a>
   891a4:	f013 0f03 	tst.w	r3, #3
   891a8:	4618      	mov	r0, r3
   891aa:	f104 32ff 	add.w	r2, r4, #4294967295
   891ae:	f103 0301 	add.w	r3, r3, #1
   891b2:	d1f2      	bne.n	8919a <memchr+0x16>
   891b4:	2c03      	cmp	r4, #3
   891b6:	d814      	bhi.n	891e2 <memchr+0x5e>
   891b8:	1e65      	subs	r5, r4, #1
   891ba:	b354      	cbz	r4, 89212 <memchr+0x8e>
   891bc:	7803      	ldrb	r3, [r0, #0]
   891be:	428b      	cmp	r3, r1
   891c0:	d00d      	beq.n	891de <memchr+0x5a>
   891c2:	1c42      	adds	r2, r0, #1
   891c4:	2300      	movs	r3, #0
   891c6:	e002      	b.n	891ce <memchr+0x4a>
   891c8:	7804      	ldrb	r4, [r0, #0]
   891ca:	428c      	cmp	r4, r1
   891cc:	d007      	beq.n	891de <memchr+0x5a>
   891ce:	42ab      	cmp	r3, r5
   891d0:	4610      	mov	r0, r2
   891d2:	f103 0301 	add.w	r3, r3, #1
   891d6:	f102 0201 	add.w	r2, r2, #1
   891da:	d1f5      	bne.n	891c8 <memchr+0x44>
   891dc:	2000      	movs	r0, #0
   891de:	bc70      	pop	{r4, r5, r6}
   891e0:	4770      	bx	lr
   891e2:	ea41 2601 	orr.w	r6, r1, r1, lsl #8
   891e6:	4603      	mov	r3, r0
   891e8:	ea46 4606 	orr.w	r6, r6, r6, lsl #16
   891ec:	681a      	ldr	r2, [r3, #0]
   891ee:	4618      	mov	r0, r3
   891f0:	4072      	eors	r2, r6
   891f2:	f1a2 3501 	sub.w	r5, r2, #16843009	; 0x1010101
   891f6:	ea25 0202 	bic.w	r2, r5, r2
   891fa:	f012 3f80 	tst.w	r2, #2155905152	; 0x80808080
   891fe:	f103 0304 	add.w	r3, r3, #4
   89202:	d1d9      	bne.n	891b8 <memchr+0x34>
   89204:	3c04      	subs	r4, #4
   89206:	2c03      	cmp	r4, #3
   89208:	4618      	mov	r0, r3
   8920a:	d8ef      	bhi.n	891ec <memchr+0x68>
   8920c:	e7d4      	b.n	891b8 <memchr+0x34>
   8920e:	4614      	mov	r4, r2
   89210:	e7d0      	b.n	891b4 <memchr+0x30>
   89212:	4620      	mov	r0, r4
   89214:	e7e3      	b.n	891de <memchr+0x5a>
   89216:	bf00      	nop

00089218 <memmove>:
   89218:	4288      	cmp	r0, r1
   8921a:	b4f0      	push	{r4, r5, r6, r7}
   8921c:	d910      	bls.n	89240 <memmove+0x28>
   8921e:	188c      	adds	r4, r1, r2
   89220:	42a0      	cmp	r0, r4
   89222:	d20d      	bcs.n	89240 <memmove+0x28>
   89224:	1885      	adds	r5, r0, r2
   89226:	1e53      	subs	r3, r2, #1
   89228:	b142      	cbz	r2, 8923c <memmove+0x24>
   8922a:	4621      	mov	r1, r4
   8922c:	462a      	mov	r2, r5
   8922e:	f811 4d01 	ldrb.w	r4, [r1, #-1]!
   89232:	3b01      	subs	r3, #1
   89234:	f802 4d01 	strb.w	r4, [r2, #-1]!
   89238:	1c5c      	adds	r4, r3, #1
   8923a:	d1f8      	bne.n	8922e <memmove+0x16>
   8923c:	bcf0      	pop	{r4, r5, r6, r7}
   8923e:	4770      	bx	lr
   89240:	2a0f      	cmp	r2, #15
   89242:	d944      	bls.n	892ce <memmove+0xb6>
   89244:	ea40 0301 	orr.w	r3, r0, r1
   89248:	079b      	lsls	r3, r3, #30
   8924a:	d144      	bne.n	892d6 <memmove+0xbe>
   8924c:	f1a2 0710 	sub.w	r7, r2, #16
   89250:	093f      	lsrs	r7, r7, #4
   89252:	eb00 1607 	add.w	r6, r0, r7, lsl #4
   89256:	3610      	adds	r6, #16
   89258:	460c      	mov	r4, r1
   8925a:	4603      	mov	r3, r0
   8925c:	6825      	ldr	r5, [r4, #0]
   8925e:	3310      	adds	r3, #16
   89260:	f843 5c10 	str.w	r5, [r3, #-16]
   89264:	6865      	ldr	r5, [r4, #4]
   89266:	3410      	adds	r4, #16
   89268:	f843 5c0c 	str.w	r5, [r3, #-12]
   8926c:	f854 5c08 	ldr.w	r5, [r4, #-8]
   89270:	f843 5c08 	str.w	r5, [r3, #-8]
   89274:	f854 5c04 	ldr.w	r5, [r4, #-4]
   89278:	f843 5c04 	str.w	r5, [r3, #-4]
   8927c:	42b3      	cmp	r3, r6
   8927e:	d1ed      	bne.n	8925c <memmove+0x44>
   89280:	1c7b      	adds	r3, r7, #1
   89282:	f002 0c0f 	and.w	ip, r2, #15
   89286:	011b      	lsls	r3, r3, #4
   89288:	f1bc 0f03 	cmp.w	ip, #3
   8928c:	4419      	add	r1, r3
   8928e:	4403      	add	r3, r0
   89290:	d923      	bls.n	892da <memmove+0xc2>
   89292:	460e      	mov	r6, r1
   89294:	461d      	mov	r5, r3
   89296:	4664      	mov	r4, ip
   89298:	f856 7b04 	ldr.w	r7, [r6], #4
   8929c:	3c04      	subs	r4, #4
   8929e:	2c03      	cmp	r4, #3
   892a0:	f845 7b04 	str.w	r7, [r5], #4
   892a4:	d8f8      	bhi.n	89298 <memmove+0x80>
   892a6:	f1ac 0404 	sub.w	r4, ip, #4
   892aa:	f024 0403 	bic.w	r4, r4, #3
   892ae:	3404      	adds	r4, #4
   892b0:	f002 0203 	and.w	r2, r2, #3
   892b4:	4423      	add	r3, r4
   892b6:	4421      	add	r1, r4
   892b8:	2a00      	cmp	r2, #0
   892ba:	d0bf      	beq.n	8923c <memmove+0x24>
   892bc:	441a      	add	r2, r3
   892be:	f811 4b01 	ldrb.w	r4, [r1], #1
   892c2:	f803 4b01 	strb.w	r4, [r3], #1
   892c6:	4293      	cmp	r3, r2
   892c8:	d1f9      	bne.n	892be <memmove+0xa6>
   892ca:	bcf0      	pop	{r4, r5, r6, r7}
   892cc:	4770      	bx	lr
   892ce:	4603      	mov	r3, r0
   892d0:	2a00      	cmp	r2, #0
   892d2:	d1f3      	bne.n	892bc <memmove+0xa4>
   892d4:	e7b2      	b.n	8923c <memmove+0x24>
   892d6:	4603      	mov	r3, r0
   892d8:	e7f0      	b.n	892bc <memmove+0xa4>
   892da:	4662      	mov	r2, ip
   892dc:	2a00      	cmp	r2, #0
   892de:	d1ed      	bne.n	892bc <memmove+0xa4>
   892e0:	e7ac      	b.n	8923c <memmove+0x24>
   892e2:	bf00      	nop

000892e4 <__malloc_lock>:
   892e4:	4770      	bx	lr
   892e6:	bf00      	nop

000892e8 <__malloc_unlock>:
   892e8:	4770      	bx	lr
   892ea:	bf00      	nop

000892ec <_Balloc>:
   892ec:	6cc2      	ldr	r2, [r0, #76]	; 0x4c
   892ee:	b570      	push	{r4, r5, r6, lr}
   892f0:	4605      	mov	r5, r0
   892f2:	460c      	mov	r4, r1
   892f4:	b14a      	cbz	r2, 8930a <_Balloc+0x1e>
   892f6:	f852 0024 	ldr.w	r0, [r2, r4, lsl #2]
   892fa:	b180      	cbz	r0, 8931e <_Balloc+0x32>
   892fc:	6801      	ldr	r1, [r0, #0]
   892fe:	f842 1024 	str.w	r1, [r2, r4, lsl #2]
   89302:	2200      	movs	r2, #0
   89304:	6102      	str	r2, [r0, #16]
   89306:	60c2      	str	r2, [r0, #12]
   89308:	bd70      	pop	{r4, r5, r6, pc}
   8930a:	2221      	movs	r2, #33	; 0x21
   8930c:	2104      	movs	r1, #4
   8930e:	f000 fe9d 	bl	8a04c <_calloc_r>
   89312:	64e8      	str	r0, [r5, #76]	; 0x4c
   89314:	4602      	mov	r2, r0
   89316:	2800      	cmp	r0, #0
   89318:	d1ed      	bne.n	892f6 <_Balloc+0xa>
   8931a:	2000      	movs	r0, #0
   8931c:	bd70      	pop	{r4, r5, r6, pc}
   8931e:	2101      	movs	r1, #1
   89320:	fa01 f604 	lsl.w	r6, r1, r4
   89324:	1d72      	adds	r2, r6, #5
   89326:	4628      	mov	r0, r5
   89328:	0092      	lsls	r2, r2, #2
   8932a:	f000 fe8f 	bl	8a04c <_calloc_r>
   8932e:	2800      	cmp	r0, #0
   89330:	d0f3      	beq.n	8931a <_Balloc+0x2e>
   89332:	6044      	str	r4, [r0, #4]
   89334:	6086      	str	r6, [r0, #8]
   89336:	e7e4      	b.n	89302 <_Balloc+0x16>

00089338 <_Bfree>:
   89338:	b131      	cbz	r1, 89348 <_Bfree+0x10>
   8933a:	6cc3      	ldr	r3, [r0, #76]	; 0x4c
   8933c:	684a      	ldr	r2, [r1, #4]
   8933e:	f853 0022 	ldr.w	r0, [r3, r2, lsl #2]
   89342:	6008      	str	r0, [r1, #0]
   89344:	f843 1022 	str.w	r1, [r3, r2, lsl #2]
   89348:	4770      	bx	lr
   8934a:	bf00      	nop

0008934c <__multadd>:
   8934c:	e92d 43f0 	stmdb	sp!, {r4, r5, r6, r7, r8, r9, lr}
   89350:	690f      	ldr	r7, [r1, #16]
   89352:	b083      	sub	sp, #12
   89354:	4688      	mov	r8, r1
   89356:	4681      	mov	r9, r0
   89358:	f101 0514 	add.w	r5, r1, #20
   8935c:	2400      	movs	r4, #0
   8935e:	682e      	ldr	r6, [r5, #0]
   89360:	3401      	adds	r4, #1
   89362:	b2b1      	uxth	r1, r6
   89364:	0c36      	lsrs	r6, r6, #16
   89366:	fb02 3301 	mla	r3, r2, r1, r3
   8936a:	fb02 f606 	mul.w	r6, r2, r6
   8936e:	b299      	uxth	r1, r3
   89370:	eb06 4313 	add.w	r3, r6, r3, lsr #16
   89374:	eb01 4103 	add.w	r1, r1, r3, lsl #16
   89378:	42a7      	cmp	r7, r4
   8937a:	f845 1b04 	str.w	r1, [r5], #4
   8937e:	ea4f 4313 	mov.w	r3, r3, lsr #16
   89382:	dcec      	bgt.n	8935e <__multadd+0x12>
   89384:	b14b      	cbz	r3, 8939a <__multadd+0x4e>
   89386:	f8d8 2008 	ldr.w	r2, [r8, #8]
   8938a:	4297      	cmp	r7, r2
   8938c:	da09      	bge.n	893a2 <__multadd+0x56>
   8938e:	eb08 0287 	add.w	r2, r8, r7, lsl #2
   89392:	3701      	adds	r7, #1
   89394:	6153      	str	r3, [r2, #20]
   89396:	f8c8 7010 	str.w	r7, [r8, #16]
   8939a:	4640      	mov	r0, r8
   8939c:	b003      	add	sp, #12
   8939e:	e8bd 83f0 	ldmia.w	sp!, {r4, r5, r6, r7, r8, r9, pc}
   893a2:	f8d8 1004 	ldr.w	r1, [r8, #4]
   893a6:	4648      	mov	r0, r9
   893a8:	3101      	adds	r1, #1
   893aa:	9301      	str	r3, [sp, #4]
   893ac:	f7ff ff9e 	bl	892ec <_Balloc>
   893b0:	f8d8 2010 	ldr.w	r2, [r8, #16]
   893b4:	f108 010c 	add.w	r1, r8, #12
   893b8:	3202      	adds	r2, #2
   893ba:	4604      	mov	r4, r0
   893bc:	0092      	lsls	r2, r2, #2
   893be:	300c      	adds	r0, #12
   893c0:	f7fb fbfa 	bl	84bb8 <memcpy>
   893c4:	f8d9 204c 	ldr.w	r2, [r9, #76]	; 0x4c
   893c8:	f8d8 1004 	ldr.w	r1, [r8, #4]
   893cc:	9b01      	ldr	r3, [sp, #4]
   893ce:	f852 0021 	ldr.w	r0, [r2, r1, lsl #2]
   893d2:	f8c8 0000 	str.w	r0, [r8]
   893d6:	f842 8021 	str.w	r8, [r2, r1, lsl #2]
   893da:	46a0      	mov	r8, r4
   893dc:	e7d7      	b.n	8938e <__multadd+0x42>
   893de:	bf00      	nop

000893e0 <__hi0bits>:
   893e0:	0c03      	lsrs	r3, r0, #16
   893e2:	041b      	lsls	r3, r3, #16
   893e4:	b9b3      	cbnz	r3, 89414 <__hi0bits+0x34>
   893e6:	0400      	lsls	r0, r0, #16
   893e8:	2310      	movs	r3, #16
   893ea:	f010 4f7f 	tst.w	r0, #4278190080	; 0xff000000
   893ee:	bf04      	itt	eq
   893f0:	0200      	lsleq	r0, r0, #8
   893f2:	3308      	addeq	r3, #8
   893f4:	f010 4f70 	tst.w	r0, #4026531840	; 0xf0000000
   893f8:	bf04      	itt	eq
   893fa:	0100      	lsleq	r0, r0, #4
   893fc:	3304      	addeq	r3, #4
   893fe:	f010 4f40 	tst.w	r0, #3221225472	; 0xc0000000
   89402:	bf04      	itt	eq
   89404:	0080      	lsleq	r0, r0, #2
   89406:	3302      	addeq	r3, #2
   89408:	2800      	cmp	r0, #0
   8940a:	db07      	blt.n	8941c <__hi0bits+0x3c>
   8940c:	0042      	lsls	r2, r0, #1
   8940e:	d403      	bmi.n	89418 <__hi0bits+0x38>
   89410:	2020      	movs	r0, #32
   89412:	4770      	bx	lr
   89414:	2300      	movs	r3, #0
   89416:	e7e8      	b.n	893ea <__hi0bits+0xa>
   89418:	1c58      	adds	r0, r3, #1
   8941a:	4770      	bx	lr
   8941c:	4618      	mov	r0, r3
   8941e:	4770      	bx	lr

00089420 <__lo0bits>:
   89420:	6803      	ldr	r3, [r0, #0]
   89422:	f013 0207 	ands.w	r2, r3, #7
   89426:	d007      	beq.n	89438 <__lo0bits+0x18>
   89428:	07d9      	lsls	r1, r3, #31
   8942a:	d420      	bmi.n	8946e <__lo0bits+0x4e>
   8942c:	079a      	lsls	r2, r3, #30
   8942e:	d420      	bmi.n	89472 <__lo0bits+0x52>
   89430:	089b      	lsrs	r3, r3, #2
   89432:	6003      	str	r3, [r0, #0]
   89434:	2002      	movs	r0, #2
   89436:	4770      	bx	lr
   89438:	b299      	uxth	r1, r3
   8943a:	b909      	cbnz	r1, 89440 <__lo0bits+0x20>
   8943c:	0c1b      	lsrs	r3, r3, #16
   8943e:	2210      	movs	r2, #16
   89440:	f013 0fff 	tst.w	r3, #255	; 0xff
   89444:	bf04      	itt	eq
   89446:	0a1b      	lsreq	r3, r3, #8
   89448:	3208      	addeq	r2, #8
   8944a:	0719      	lsls	r1, r3, #28
   8944c:	bf04      	itt	eq
   8944e:	091b      	lsreq	r3, r3, #4
   89450:	3204      	addeq	r2, #4
   89452:	0799      	lsls	r1, r3, #30
   89454:	bf04      	itt	eq
   89456:	089b      	lsreq	r3, r3, #2
   89458:	3202      	addeq	r2, #2
   8945a:	07d9      	lsls	r1, r3, #31
   8945c:	d404      	bmi.n	89468 <__lo0bits+0x48>
   8945e:	085b      	lsrs	r3, r3, #1
   89460:	d101      	bne.n	89466 <__lo0bits+0x46>
   89462:	2020      	movs	r0, #32
   89464:	4770      	bx	lr
   89466:	3201      	adds	r2, #1
   89468:	6003      	str	r3, [r0, #0]
   8946a:	4610      	mov	r0, r2
   8946c:	4770      	bx	lr
   8946e:	2000      	movs	r0, #0
   89470:	4770      	bx	lr
   89472:	085b      	lsrs	r3, r3, #1
   89474:	6003      	str	r3, [r0, #0]
   89476:	2001      	movs	r0, #1
   89478:	4770      	bx	lr
   8947a:	bf00      	nop

0008947c <__i2b>:
   8947c:	b510      	push	{r4, lr}
   8947e:	460c      	mov	r4, r1
   89480:	2101      	movs	r1, #1
   89482:	f7ff ff33 	bl	892ec <_Balloc>
   89486:	2201      	movs	r2, #1
   89488:	6144      	str	r4, [r0, #20]
   8948a:	6102      	str	r2, [r0, #16]
   8948c:	bd10      	pop	{r4, pc}
   8948e:	bf00      	nop

00089490 <__multiply>:
   89490:	e92d 4ff0 	stmdb	sp!, {r4, r5, r6, r7, r8, r9, sl, fp, lr}
   89494:	690d      	ldr	r5, [r1, #16]
   89496:	f8d2 9010 	ldr.w	r9, [r2, #16]
   8949a:	b085      	sub	sp, #20
   8949c:	454d      	cmp	r5, r9
   8949e:	460c      	mov	r4, r1
   894a0:	4692      	mov	sl, r2
   894a2:	da04      	bge.n	894ae <__multiply+0x1e>
   894a4:	462a      	mov	r2, r5
   894a6:	4654      	mov	r4, sl
   894a8:	464d      	mov	r5, r9
   894aa:	468a      	mov	sl, r1
   894ac:	4691      	mov	r9, r2
   894ae:	68a3      	ldr	r3, [r4, #8]
   894b0:	eb05 0709 	add.w	r7, r5, r9
   894b4:	6861      	ldr	r1, [r4, #4]
   894b6:	429f      	cmp	r7, r3
   894b8:	bfc8      	it	gt
   894ba:	3101      	addgt	r1, #1
   894bc:	f7ff ff16 	bl	892ec <_Balloc>
   894c0:	f100 0614 	add.w	r6, r0, #20
   894c4:	eb06 0887 	add.w	r8, r6, r7, lsl #2
   894c8:	4546      	cmp	r6, r8
   894ca:	9001      	str	r0, [sp, #4]
   894cc:	d205      	bcs.n	894da <__multiply+0x4a>
   894ce:	4633      	mov	r3, r6
   894d0:	2000      	movs	r0, #0
   894d2:	f843 0b04 	str.w	r0, [r3], #4
   894d6:	4598      	cmp	r8, r3
   894d8:	d8fb      	bhi.n	894d2 <__multiply+0x42>
   894da:	f10a 0c14 	add.w	ip, sl, #20
   894de:	eb0c 0989 	add.w	r9, ip, r9, lsl #2
   894e2:	3414      	adds	r4, #20
   894e4:	45cc      	cmp	ip, r9
   894e6:	9400      	str	r4, [sp, #0]
   894e8:	eb04 0585 	add.w	r5, r4, r5, lsl #2
   894ec:	d25b      	bcs.n	895a6 <__multiply+0x116>
   894ee:	f8cd 8008 	str.w	r8, [sp, #8]
   894f2:	9703      	str	r7, [sp, #12]
   894f4:	46c8      	mov	r8, r9
   894f6:	f85c 3b04 	ldr.w	r3, [ip], #4
   894fa:	b29c      	uxth	r4, r3
   894fc:	b324      	cbz	r4, 89548 <__multiply+0xb8>
   894fe:	9a00      	ldr	r2, [sp, #0]
   89500:	4633      	mov	r3, r6
   89502:	f04f 0900 	mov.w	r9, #0
   89506:	e000      	b.n	8950a <__multiply+0x7a>
   89508:	460b      	mov	r3, r1
   8950a:	f852 7b04 	ldr.w	r7, [r2], #4
   8950e:	6819      	ldr	r1, [r3, #0]
   89510:	fa1f fb87 	uxth.w	fp, r7
   89514:	fa1f fa81 	uxth.w	sl, r1
   89518:	0c38      	lsrs	r0, r7, #16
   8951a:	0c09      	lsrs	r1, r1, #16
   8951c:	fb04 aa0b 	mla	sl, r4, fp, sl
   89520:	fb04 1000 	mla	r0, r4, r0, r1
   89524:	44d1      	add	r9, sl
   89526:	eb00 4019 	add.w	r0, r0, r9, lsr #16
   8952a:	fa1f f989 	uxth.w	r9, r9
   8952e:	ea49 4700 	orr.w	r7, r9, r0, lsl #16
   89532:	4619      	mov	r1, r3
   89534:	4295      	cmp	r5, r2
   89536:	ea4f 4910 	mov.w	r9, r0, lsr #16
   8953a:	f841 7b04 	str.w	r7, [r1], #4
   8953e:	d8e3      	bhi.n	89508 <__multiply+0x78>
   89540:	f8c3 9004 	str.w	r9, [r3, #4]
   89544:	f85c 3c04 	ldr.w	r3, [ip, #-4]
   89548:	ea5f 4913 	movs.w	r9, r3, lsr #16
   8954c:	d024      	beq.n	89598 <__multiply+0x108>
   8954e:	f8d6 a000 	ldr.w	sl, [r6]
   89552:	9b00      	ldr	r3, [sp, #0]
   89554:	4650      	mov	r0, sl
   89556:	4631      	mov	r1, r6
   89558:	f04f 0b00 	mov.w	fp, #0
   8955c:	e000      	b.n	89560 <__multiply+0xd0>
   8955e:	4611      	mov	r1, r2
   89560:	881a      	ldrh	r2, [r3, #0]
   89562:	0c00      	lsrs	r0, r0, #16
   89564:	fb09 0002 	mla	r0, r9, r2, r0
   89568:	fa1f fa8a 	uxth.w	sl, sl
   8956c:	4483      	add	fp, r0
   8956e:	ea4a 400b 	orr.w	r0, sl, fp, lsl #16
   89572:	460a      	mov	r2, r1
   89574:	f842 0b04 	str.w	r0, [r2], #4
   89578:	f853 7b04 	ldr.w	r7, [r3], #4
   8957c:	6848      	ldr	r0, [r1, #4]
   8957e:	ea4f 4a17 	mov.w	sl, r7, lsr #16
   89582:	b284      	uxth	r4, r0
   89584:	fb09 4a0a 	mla	sl, r9, sl, r4
   89588:	429d      	cmp	r5, r3
   8958a:	eb0a 4a1b 	add.w	sl, sl, fp, lsr #16
   8958e:	ea4f 4b1a 	mov.w	fp, sl, lsr #16
   89592:	d8e4      	bhi.n	8955e <__multiply+0xce>
   89594:	f8c1 a004 	str.w	sl, [r1, #4]
   89598:	45e0      	cmp	r8, ip
   8959a:	f106 0604 	add.w	r6, r6, #4
   8959e:	d8aa      	bhi.n	894f6 <__multiply+0x66>
   895a0:	f8dd 8008 	ldr.w	r8, [sp, #8]
   895a4:	9f03      	ldr	r7, [sp, #12]
   895a6:	2f00      	cmp	r7, #0
   895a8:	dd0a      	ble.n	895c0 <__multiply+0x130>
   895aa:	f858 3c04 	ldr.w	r3, [r8, #-4]
   895ae:	f1a8 0804 	sub.w	r8, r8, #4
   895b2:	b11b      	cbz	r3, 895bc <__multiply+0x12c>
   895b4:	e004      	b.n	895c0 <__multiply+0x130>
   895b6:	f858 3d04 	ldr.w	r3, [r8, #-4]!
   895ba:	b90b      	cbnz	r3, 895c0 <__multiply+0x130>
   895bc:	3f01      	subs	r7, #1
   895be:	d1fa      	bne.n	895b6 <__multiply+0x126>
   895c0:	9b01      	ldr	r3, [sp, #4]
   895c2:	4618      	mov	r0, r3
   895c4:	611f      	str	r7, [r3, #16]
   895c6:	b005      	add	sp, #20
   895c8:	e8bd 8ff0 	ldmia.w	sp!, {r4, r5, r6, r7, r8, r9, sl, fp, pc}

000895cc <__pow5mult>:
   895cc:	f012 0303 	ands.w	r3, r2, #3
   895d0:	e92d 41f0 	stmdb	sp!, {r4, r5, r6, r7, r8, lr}
   895d4:	4614      	mov	r4, r2
   895d6:	4607      	mov	r7, r0
   895d8:	460e      	mov	r6, r1
   895da:	d12c      	bne.n	89636 <__pow5mult+0x6a>
   895dc:	10a4      	asrs	r4, r4, #2
   895de:	d01c      	beq.n	8961a <__pow5mult+0x4e>
   895e0:	6cbd      	ldr	r5, [r7, #72]	; 0x48
   895e2:	2d00      	cmp	r5, #0
   895e4:	d030      	beq.n	89648 <__pow5mult+0x7c>
   895e6:	f04f 0800 	mov.w	r8, #0
   895ea:	e004      	b.n	895f6 <__pow5mult+0x2a>
   895ec:	1064      	asrs	r4, r4, #1
   895ee:	d014      	beq.n	8961a <__pow5mult+0x4e>
   895f0:	6828      	ldr	r0, [r5, #0]
   895f2:	b1a8      	cbz	r0, 89620 <__pow5mult+0x54>
   895f4:	4605      	mov	r5, r0
   895f6:	07e3      	lsls	r3, r4, #31
   895f8:	d5f8      	bpl.n	895ec <__pow5mult+0x20>
   895fa:	4638      	mov	r0, r7
   895fc:	4631      	mov	r1, r6
   895fe:	462a      	mov	r2, r5
   89600:	f7ff ff46 	bl	89490 <__multiply>
   89604:	b1ae      	cbz	r6, 89632 <__pow5mult+0x66>
   89606:	6872      	ldr	r2, [r6, #4]
   89608:	6cfb      	ldr	r3, [r7, #76]	; 0x4c
   8960a:	1064      	asrs	r4, r4, #1
   8960c:	f853 1022 	ldr.w	r1, [r3, r2, lsl #2]
   89610:	6031      	str	r1, [r6, #0]
   89612:	f843 6022 	str.w	r6, [r3, r2, lsl #2]
   89616:	4606      	mov	r6, r0
   89618:	d1ea      	bne.n	895f0 <__pow5mult+0x24>
   8961a:	4630      	mov	r0, r6
   8961c:	e8bd 81f0 	ldmia.w	sp!, {r4, r5, r6, r7, r8, pc}
   89620:	4638      	mov	r0, r7
   89622:	4629      	mov	r1, r5
   89624:	462a      	mov	r2, r5
   89626:	f7ff ff33 	bl	89490 <__multiply>
   8962a:	6028      	str	r0, [r5, #0]
   8962c:	f8c0 8000 	str.w	r8, [r0]
   89630:	e7e0      	b.n	895f4 <__pow5mult+0x28>
   89632:	4606      	mov	r6, r0
   89634:	e7da      	b.n	895ec <__pow5mult+0x20>
   89636:	4a0b      	ldr	r2, [pc, #44]	; (89664 <__pow5mult+0x98>)
   89638:	3b01      	subs	r3, #1
   8963a:	f852 2023 	ldr.w	r2, [r2, r3, lsl #2]
   8963e:	2300      	movs	r3, #0
   89640:	f7ff fe84 	bl	8934c <__multadd>
   89644:	4606      	mov	r6, r0
   89646:	e7c9      	b.n	895dc <__pow5mult+0x10>
   89648:	2101      	movs	r1, #1
   8964a:	4638      	mov	r0, r7
   8964c:	f7ff fe4e 	bl	892ec <_Balloc>
   89650:	f240 2171 	movw	r1, #625	; 0x271
   89654:	2201      	movs	r2, #1
   89656:	2300      	movs	r3, #0
   89658:	6141      	str	r1, [r0, #20]
   8965a:	6102      	str	r2, [r0, #16]
   8965c:	4605      	mov	r5, r0
   8965e:	64b8      	str	r0, [r7, #72]	; 0x48
   89660:	6003      	str	r3, [r0, #0]
   89662:	e7c0      	b.n	895e6 <__pow5mult+0x1a>
   89664:	0008ac10 	.word	0x0008ac10

00089668 <__lshift>:
   89668:	e92d 4ff8 	stmdb	sp!, {r3, r4, r5, r6, r7, r8, r9, sl, fp, lr}
   8966c:	690b      	ldr	r3, [r1, #16]
   8966e:	ea4f 1a62 	mov.w	sl, r2, asr #5
   89672:	eb0a 0903 	add.w	r9, sl, r3
   89676:	688b      	ldr	r3, [r1, #8]
   89678:	f109 0601 	add.w	r6, r9, #1
   8967c:	429e      	cmp	r6, r3
   8967e:	460f      	mov	r7, r1
   89680:	4693      	mov	fp, r2
   89682:	4680      	mov	r8, r0
   89684:	6849      	ldr	r1, [r1, #4]
   89686:	dd04      	ble.n	89692 <__lshift+0x2a>
   89688:	005b      	lsls	r3, r3, #1
   8968a:	429e      	cmp	r6, r3
   8968c:	f101 0101 	add.w	r1, r1, #1
   89690:	dcfa      	bgt.n	89688 <__lshift+0x20>
   89692:	4640      	mov	r0, r8
   89694:	f7ff fe2a 	bl	892ec <_Balloc>
   89698:	f1ba 0f00 	cmp.w	sl, #0
   8969c:	f100 0414 	add.w	r4, r0, #20
   896a0:	dd09      	ble.n	896b6 <__lshift+0x4e>
   896a2:	2300      	movs	r3, #0
   896a4:	461a      	mov	r2, r3
   896a6:	4625      	mov	r5, r4
   896a8:	3301      	adds	r3, #1
   896aa:	4553      	cmp	r3, sl
   896ac:	f845 2b04 	str.w	r2, [r5], #4
   896b0:	d1fa      	bne.n	896a8 <__lshift+0x40>
   896b2:	eb04 0483 	add.w	r4, r4, r3, lsl #2
   896b6:	693a      	ldr	r2, [r7, #16]
   896b8:	f107 0314 	add.w	r3, r7, #20
   896bc:	f01b 0b1f 	ands.w	fp, fp, #31
   896c0:	eb03 0c82 	add.w	ip, r3, r2, lsl #2
   896c4:	d021      	beq.n	8970a <__lshift+0xa2>
   896c6:	f1cb 0a20 	rsb	sl, fp, #32
   896ca:	2200      	movs	r2, #0
   896cc:	e000      	b.n	896d0 <__lshift+0x68>
   896ce:	462c      	mov	r4, r5
   896d0:	6819      	ldr	r1, [r3, #0]
   896d2:	4625      	mov	r5, r4
   896d4:	fa01 f10b 	lsl.w	r1, r1, fp
   896d8:	430a      	orrs	r2, r1
   896da:	f845 2b04 	str.w	r2, [r5], #4
   896de:	f853 2b04 	ldr.w	r2, [r3], #4
   896e2:	4563      	cmp	r3, ip
   896e4:	fa22 f20a 	lsr.w	r2, r2, sl
   896e8:	d3f1      	bcc.n	896ce <__lshift+0x66>
   896ea:	6062      	str	r2, [r4, #4]
   896ec:	b10a      	cbz	r2, 896f2 <__lshift+0x8a>
   896ee:	f109 0602 	add.w	r6, r9, #2
   896f2:	f8d8 304c 	ldr.w	r3, [r8, #76]	; 0x4c
   896f6:	687a      	ldr	r2, [r7, #4]
   896f8:	3e01      	subs	r6, #1
   896fa:	f853 1022 	ldr.w	r1, [r3, r2, lsl #2]
   896fe:	6106      	str	r6, [r0, #16]
   89700:	6039      	str	r1, [r7, #0]
   89702:	f843 7022 	str.w	r7, [r3, r2, lsl #2]
   89706:	e8bd 8ff8 	ldmia.w	sp!, {r3, r4, r5, r6, r7, r8, r9, sl, fp, pc}
   8970a:	f853 2b04 	ldr.w	r2, [r3], #4
   8970e:	459c      	cmp	ip, r3
   89710:	f844 2b04 	str.w	r2, [r4], #4
   89714:	d9ed      	bls.n	896f2 <__lshift+0x8a>
   89716:	f853 2b04 	ldr.w	r2, [r3], #4
   8971a:	459c      	cmp	ip, r3
   8971c:	f844 2b04 	str.w	r2, [r4], #4
   89720:	d8f3      	bhi.n	8970a <__lshift+0xa2>
   89722:	e7e6      	b.n	896f2 <__lshift+0x8a>

00089724 <__mcmp>:
   89724:	6902      	ldr	r2, [r0, #16]
   89726:	690b      	ldr	r3, [r1, #16]
   89728:	b410      	push	{r4}
   8972a:	1ad2      	subs	r2, r2, r3
   8972c:	d115      	bne.n	8975a <__mcmp+0x36>
   8972e:	009b      	lsls	r3, r3, #2
   89730:	3014      	adds	r0, #20
   89732:	3114      	adds	r1, #20
   89734:	4419      	add	r1, r3
   89736:	4403      	add	r3, r0
   89738:	e001      	b.n	8973e <__mcmp+0x1a>
   8973a:	4298      	cmp	r0, r3
   8973c:	d211      	bcs.n	89762 <__mcmp+0x3e>
   8973e:	f853 2d04 	ldr.w	r2, [r3, #-4]!
   89742:	f851 4d04 	ldr.w	r4, [r1, #-4]!
   89746:	42a2      	cmp	r2, r4
   89748:	d0f7      	beq.n	8973a <__mcmp+0x16>
   8974a:	4294      	cmp	r4, r2
   8974c:	bf94      	ite	ls
   8974e:	2001      	movls	r0, #1
   89750:	f04f 30ff 	movhi.w	r0, #4294967295
   89754:	f85d 4b04 	ldr.w	r4, [sp], #4
   89758:	4770      	bx	lr
   8975a:	4610      	mov	r0, r2
   8975c:	f85d 4b04 	ldr.w	r4, [sp], #4
   89760:	4770      	bx	lr
   89762:	2000      	movs	r0, #0
   89764:	f85d 4b04 	ldr.w	r4, [sp], #4
   89768:	4770      	bx	lr
   8976a:	bf00      	nop

0008976c <__mdiff>:
   8976c:	e92d 47f0 	stmdb	sp!, {r4, r5, r6, r7, r8, r9, sl, lr}
   89770:	460d      	mov	r5, r1
   89772:	4604      	mov	r4, r0
   89774:	4611      	mov	r1, r2
   89776:	4628      	mov	r0, r5
   89778:	4616      	mov	r6, r2
   8977a:	f7ff ffd3 	bl	89724 <__mcmp>
   8977e:	1e07      	subs	r7, r0, #0
   89780:	d056      	beq.n	89830 <__mdiff+0xc4>
   89782:	db4f      	blt.n	89824 <__mdiff+0xb8>
   89784:	f04f 0900 	mov.w	r9, #0
   89788:	6869      	ldr	r1, [r5, #4]
   8978a:	4620      	mov	r0, r4
   8978c:	f7ff fdae 	bl	892ec <_Balloc>
   89790:	692f      	ldr	r7, [r5, #16]
   89792:	6932      	ldr	r2, [r6, #16]
   89794:	3514      	adds	r5, #20
   89796:	3614      	adds	r6, #20
   89798:	f8c0 900c 	str.w	r9, [r0, #12]
   8979c:	f100 0314 	add.w	r3, r0, #20
   897a0:	eb05 0c87 	add.w	ip, r5, r7, lsl #2
   897a4:	eb06 0882 	add.w	r8, r6, r2, lsl #2
   897a8:	2100      	movs	r1, #0
   897aa:	f855 4b04 	ldr.w	r4, [r5], #4
   897ae:	f856 2b04 	ldr.w	r2, [r6], #4
   897b2:	fa1f fa84 	uxth.w	sl, r4
   897b6:	448a      	add	sl, r1
   897b8:	fa1f f982 	uxth.w	r9, r2
   897bc:	0c11      	lsrs	r1, r2, #16
   897be:	ebc1 4114 	rsb	r1, r1, r4, lsr #16
   897c2:	ebc9 020a 	rsb	r2, r9, sl
   897c6:	eb01 4122 	add.w	r1, r1, r2, asr #16
   897ca:	b292      	uxth	r2, r2
   897cc:	ea42 4201 	orr.w	r2, r2, r1, lsl #16
   897d0:	45b0      	cmp	r8, r6
   897d2:	f843 2b04 	str.w	r2, [r3], #4
   897d6:	ea4f 4121 	mov.w	r1, r1, asr #16
   897da:	462c      	mov	r4, r5
   897dc:	d8e5      	bhi.n	897aa <__mdiff+0x3e>
   897de:	45ac      	cmp	ip, r5
   897e0:	4698      	mov	r8, r3
   897e2:	d915      	bls.n	89810 <__mdiff+0xa4>
   897e4:	f854 6b04 	ldr.w	r6, [r4], #4
   897e8:	b2b2      	uxth	r2, r6
   897ea:	4411      	add	r1, r2
   897ec:	0c36      	lsrs	r6, r6, #16
   897ee:	eb06 4621 	add.w	r6, r6, r1, asr #16
   897f2:	b289      	uxth	r1, r1
   897f4:	ea41 4206 	orr.w	r2, r1, r6, lsl #16
   897f8:	45a4      	cmp	ip, r4
   897fa:	f843 2b04 	str.w	r2, [r3], #4
   897fe:	ea4f 4126 	mov.w	r1, r6, asr #16
   89802:	d8ef      	bhi.n	897e4 <__mdiff+0x78>
   89804:	43eb      	mvns	r3, r5
   89806:	4463      	add	r3, ip
   89808:	f023 0303 	bic.w	r3, r3, #3
   8980c:	3304      	adds	r3, #4
   8980e:	4443      	add	r3, r8
   89810:	3b04      	subs	r3, #4
   89812:	b922      	cbnz	r2, 8981e <__mdiff+0xb2>
   89814:	f853 2d04 	ldr.w	r2, [r3, #-4]!
   89818:	3f01      	subs	r7, #1
   8981a:	2a00      	cmp	r2, #0
   8981c:	d0fa      	beq.n	89814 <__mdiff+0xa8>
   8981e:	6107      	str	r7, [r0, #16]
   89820:	e8bd 87f0 	ldmia.w	sp!, {r4, r5, r6, r7, r8, r9, sl, pc}
   89824:	462b      	mov	r3, r5
   89826:	f04f 0901 	mov.w	r9, #1
   8982a:	4635      	mov	r5, r6
   8982c:	461e      	mov	r6, r3
   8982e:	e7ab      	b.n	89788 <__mdiff+0x1c>
   89830:	4620      	mov	r0, r4
   89832:	4639      	mov	r1, r7
   89834:	f7ff fd5a 	bl	892ec <_Balloc>
   89838:	2301      	movs	r3, #1
   8983a:	6147      	str	r7, [r0, #20]
   8983c:	6103      	str	r3, [r0, #16]
   8983e:	e8bd 87f0 	ldmia.w	sp!, {r4, r5, r6, r7, r8, r9, sl, pc}
   89842:	bf00      	nop

00089844 <__d2b>:
   89844:	e92d 43f0 	stmdb	sp!, {r4, r5, r6, r7, r8, r9, lr}
   89848:	2101      	movs	r1, #1
   8984a:	b083      	sub	sp, #12
   8984c:	461d      	mov	r5, r3
   8984e:	f3c3 560a 	ubfx	r6, r3, #20, #11
   89852:	4614      	mov	r4, r2
   89854:	9f0a      	ldr	r7, [sp, #40]	; 0x28
   89856:	f7ff fd49 	bl	892ec <_Balloc>
   8985a:	f3c5 0313 	ubfx	r3, r5, #0, #20
   8985e:	4680      	mov	r8, r0
   89860:	b10e      	cbz	r6, 89866 <__d2b+0x22>
   89862:	f443 1380 	orr.w	r3, r3, #1048576	; 0x100000
   89866:	9301      	str	r3, [sp, #4]
   89868:	b324      	cbz	r4, 898b4 <__d2b+0x70>
   8986a:	a802      	add	r0, sp, #8
   8986c:	f840 4d08 	str.w	r4, [r0, #-8]!
   89870:	4668      	mov	r0, sp
   89872:	f7ff fdd5 	bl	89420 <__lo0bits>
   89876:	2800      	cmp	r0, #0
   89878:	d135      	bne.n	898e6 <__d2b+0xa2>
   8987a:	e89d 000c 	ldmia.w	sp, {r2, r3}
   8987e:	f8c8 2014 	str.w	r2, [r8, #20]
   89882:	2b00      	cmp	r3, #0
   89884:	bf0c      	ite	eq
   89886:	2401      	moveq	r4, #1
   89888:	2402      	movne	r4, #2
   8988a:	f8c8 3018 	str.w	r3, [r8, #24]
   8988e:	f8c8 4010 	str.w	r4, [r8, #16]
   89892:	b9de      	cbnz	r6, 898cc <__d2b+0x88>
   89894:	eb08 0384 	add.w	r3, r8, r4, lsl #2
   89898:	f2a0 4032 	subw	r0, r0, #1074	; 0x432
   8989c:	6038      	str	r0, [r7, #0]
   8989e:	6918      	ldr	r0, [r3, #16]
   898a0:	f7ff fd9e 	bl	893e0 <__hi0bits>
   898a4:	9b0b      	ldr	r3, [sp, #44]	; 0x2c
   898a6:	ebc0 1044 	rsb	r0, r0, r4, lsl #5
   898aa:	6018      	str	r0, [r3, #0]
   898ac:	4640      	mov	r0, r8
   898ae:	b003      	add	sp, #12
   898b0:	e8bd 83f0 	ldmia.w	sp!, {r4, r5, r6, r7, r8, r9, pc}
   898b4:	a801      	add	r0, sp, #4
   898b6:	f7ff fdb3 	bl	89420 <__lo0bits>
   898ba:	9b01      	ldr	r3, [sp, #4]
   898bc:	2401      	movs	r4, #1
   898be:	3020      	adds	r0, #32
   898c0:	f8c8 3014 	str.w	r3, [r8, #20]
   898c4:	f8c8 4010 	str.w	r4, [r8, #16]
   898c8:	2e00      	cmp	r6, #0
   898ca:	d0e3      	beq.n	89894 <__d2b+0x50>
   898cc:	f2a6 4933 	subw	r9, r6, #1075	; 0x433
   898d0:	eb09 0300 	add.w	r3, r9, r0
   898d4:	603b      	str	r3, [r7, #0]
   898d6:	9b0b      	ldr	r3, [sp, #44]	; 0x2c
   898d8:	f1c0 0035 	rsb	r0, r0, #53	; 0x35
   898dc:	6018      	str	r0, [r3, #0]
   898de:	4640      	mov	r0, r8
   898e0:	b003      	add	sp, #12
   898e2:	e8bd 83f0 	ldmia.w	sp!, {r4, r5, r6, r7, r8, r9, pc}
   898e6:	9b01      	ldr	r3, [sp, #4]
   898e8:	f1c0 0120 	rsb	r1, r0, #32
   898ec:	fa03 f101 	lsl.w	r1, r3, r1
   898f0:	40c3      	lsrs	r3, r0
   898f2:	9a00      	ldr	r2, [sp, #0]
   898f4:	9301      	str	r3, [sp, #4]
   898f6:	430a      	orrs	r2, r1
   898f8:	f8c8 2014 	str.w	r2, [r8, #20]
   898fc:	e7c1      	b.n	89882 <__d2b+0x3e>
   898fe:	bf00      	nop

00089900 <_realloc_r>:
   89900:	e92d 4ff0 	stmdb	sp!, {r4, r5, r6, r7, r8, r9, sl, fp, lr}
   89904:	460c      	mov	r4, r1
   89906:	b083      	sub	sp, #12
   89908:	4690      	mov	r8, r2
   8990a:	4681      	mov	r9, r0
   8990c:	2900      	cmp	r1, #0
   8990e:	f000 80ba 	beq.w	89a86 <_realloc_r+0x186>
   89912:	f7ff fce7 	bl	892e4 <__malloc_lock>
   89916:	f108 060b 	add.w	r6, r8, #11
   8991a:	f854 3c04 	ldr.w	r3, [r4, #-4]
   8991e:	2e16      	cmp	r6, #22
   89920:	f023 0503 	bic.w	r5, r3, #3
   89924:	f1a4 0708 	sub.w	r7, r4, #8
   89928:	d84b      	bhi.n	899c2 <_realloc_r+0xc2>
   8992a:	2110      	movs	r1, #16
   8992c:	460e      	mov	r6, r1
   8992e:	45b0      	cmp	r8, r6
   89930:	d84c      	bhi.n	899cc <_realloc_r+0xcc>
   89932:	428d      	cmp	r5, r1
   89934:	da51      	bge.n	899da <_realloc_r+0xda>
   89936:	f8df b384 	ldr.w	fp, [pc, #900]	; 89cbc <_realloc_r+0x3bc>
   8993a:	1978      	adds	r0, r7, r5
   8993c:	f8db e008 	ldr.w	lr, [fp, #8]
   89940:	4586      	cmp	lr, r0
   89942:	f000 80a6 	beq.w	89a92 <_realloc_r+0x192>
   89946:	6842      	ldr	r2, [r0, #4]
   89948:	f022 0c01 	bic.w	ip, r2, #1
   8994c:	4484      	add	ip, r0
   8994e:	f8dc c004 	ldr.w	ip, [ip, #4]
   89952:	f01c 0f01 	tst.w	ip, #1
   89956:	d054      	beq.n	89a02 <_realloc_r+0x102>
   89958:	2200      	movs	r2, #0
   8995a:	4610      	mov	r0, r2
   8995c:	07db      	lsls	r3, r3, #31
   8995e:	d46f      	bmi.n	89a40 <_realloc_r+0x140>
   89960:	f854 3c08 	ldr.w	r3, [r4, #-8]
   89964:	ebc3 0a07 	rsb	sl, r3, r7
   89968:	f8da 3004 	ldr.w	r3, [sl, #4]
   8996c:	f023 0303 	bic.w	r3, r3, #3
   89970:	442b      	add	r3, r5
   89972:	2800      	cmp	r0, #0
   89974:	d062      	beq.n	89a3c <_realloc_r+0x13c>
   89976:	4570      	cmp	r0, lr
   89978:	f000 80e9 	beq.w	89b4e <_realloc_r+0x24e>
   8997c:	eb02 0e03 	add.w	lr, r2, r3
   89980:	458e      	cmp	lr, r1
   89982:	db5b      	blt.n	89a3c <_realloc_r+0x13c>
   89984:	68c3      	ldr	r3, [r0, #12]
   89986:	6882      	ldr	r2, [r0, #8]
   89988:	46d0      	mov	r8, sl
   8998a:	60d3      	str	r3, [r2, #12]
   8998c:	609a      	str	r2, [r3, #8]
   8998e:	f858 1f08 	ldr.w	r1, [r8, #8]!
   89992:	f8da 300c 	ldr.w	r3, [sl, #12]
   89996:	1f2a      	subs	r2, r5, #4
   89998:	2a24      	cmp	r2, #36	; 0x24
   8999a:	60cb      	str	r3, [r1, #12]
   8999c:	6099      	str	r1, [r3, #8]
   8999e:	f200 8123 	bhi.w	89be8 <_realloc_r+0x2e8>
   899a2:	2a13      	cmp	r2, #19
   899a4:	f240 80b0 	bls.w	89b08 <_realloc_r+0x208>
   899a8:	6823      	ldr	r3, [r4, #0]
   899aa:	2a1b      	cmp	r2, #27
   899ac:	f8ca 3008 	str.w	r3, [sl, #8]
   899b0:	6863      	ldr	r3, [r4, #4]
   899b2:	f8ca 300c 	str.w	r3, [sl, #12]
   899b6:	f200 812b 	bhi.w	89c10 <_realloc_r+0x310>
   899ba:	3408      	adds	r4, #8
   899bc:	f10a 0310 	add.w	r3, sl, #16
   899c0:	e0a3      	b.n	89b0a <_realloc_r+0x20a>
   899c2:	f026 0607 	bic.w	r6, r6, #7
   899c6:	2e00      	cmp	r6, #0
   899c8:	4631      	mov	r1, r6
   899ca:	dab0      	bge.n	8992e <_realloc_r+0x2e>
   899cc:	230c      	movs	r3, #12
   899ce:	2000      	movs	r0, #0
   899d0:	f8c9 3000 	str.w	r3, [r9]
   899d4:	b003      	add	sp, #12
   899d6:	e8bd 8ff0 	ldmia.w	sp!, {r4, r5, r6, r7, r8, r9, sl, fp, pc}
   899da:	46a0      	mov	r8, r4
   899dc:	1baa      	subs	r2, r5, r6
   899de:	2a0f      	cmp	r2, #15
   899e0:	f003 0301 	and.w	r3, r3, #1
   899e4:	d81a      	bhi.n	89a1c <_realloc_r+0x11c>
   899e6:	432b      	orrs	r3, r5
   899e8:	607b      	str	r3, [r7, #4]
   899ea:	443d      	add	r5, r7
   899ec:	686b      	ldr	r3, [r5, #4]
   899ee:	f043 0301 	orr.w	r3, r3, #1
   899f2:	606b      	str	r3, [r5, #4]
   899f4:	4648      	mov	r0, r9
   899f6:	f7ff fc77 	bl	892e8 <__malloc_unlock>
   899fa:	4640      	mov	r0, r8
   899fc:	b003      	add	sp, #12
   899fe:	e8bd 8ff0 	ldmia.w	sp!, {r4, r5, r6, r7, r8, r9, sl, fp, pc}
   89a02:	f022 0203 	bic.w	r2, r2, #3
   89a06:	eb02 0c05 	add.w	ip, r2, r5
   89a0a:	458c      	cmp	ip, r1
   89a0c:	dba6      	blt.n	8995c <_realloc_r+0x5c>
   89a0e:	68c2      	ldr	r2, [r0, #12]
   89a10:	6881      	ldr	r1, [r0, #8]
   89a12:	46a0      	mov	r8, r4
   89a14:	60ca      	str	r2, [r1, #12]
   89a16:	4665      	mov	r5, ip
   89a18:	6091      	str	r1, [r2, #8]
   89a1a:	e7df      	b.n	899dc <_realloc_r+0xdc>
   89a1c:	19b9      	adds	r1, r7, r6
   89a1e:	4333      	orrs	r3, r6
   89a20:	f042 0001 	orr.w	r0, r2, #1
   89a24:	607b      	str	r3, [r7, #4]
   89a26:	440a      	add	r2, r1
   89a28:	6048      	str	r0, [r1, #4]
   89a2a:	6853      	ldr	r3, [r2, #4]
   89a2c:	3108      	adds	r1, #8
   89a2e:	f043 0301 	orr.w	r3, r3, #1
   89a32:	6053      	str	r3, [r2, #4]
   89a34:	4648      	mov	r0, r9
   89a36:	f7fe fe07 	bl	88648 <_free_r>
   89a3a:	e7db      	b.n	899f4 <_realloc_r+0xf4>
   89a3c:	428b      	cmp	r3, r1
   89a3e:	da33      	bge.n	89aa8 <_realloc_r+0x1a8>
   89a40:	4641      	mov	r1, r8
   89a42:	4648      	mov	r0, r9
   89a44:	f7ff f902 	bl	88c4c <_malloc_r>
   89a48:	4680      	mov	r8, r0
   89a4a:	2800      	cmp	r0, #0
   89a4c:	d0d2      	beq.n	899f4 <_realloc_r+0xf4>
   89a4e:	f854 3c04 	ldr.w	r3, [r4, #-4]
   89a52:	f1a0 0108 	sub.w	r1, r0, #8
   89a56:	f023 0201 	bic.w	r2, r3, #1
   89a5a:	443a      	add	r2, r7
   89a5c:	4291      	cmp	r1, r2
   89a5e:	f000 80bc 	beq.w	89bda <_realloc_r+0x2da>
   89a62:	1f2a      	subs	r2, r5, #4
   89a64:	2a24      	cmp	r2, #36	; 0x24
   89a66:	d86e      	bhi.n	89b46 <_realloc_r+0x246>
   89a68:	2a13      	cmp	r2, #19
   89a6a:	d842      	bhi.n	89af2 <_realloc_r+0x1f2>
   89a6c:	4603      	mov	r3, r0
   89a6e:	4622      	mov	r2, r4
   89a70:	6811      	ldr	r1, [r2, #0]
   89a72:	6019      	str	r1, [r3, #0]
   89a74:	6851      	ldr	r1, [r2, #4]
   89a76:	6059      	str	r1, [r3, #4]
   89a78:	6892      	ldr	r2, [r2, #8]
   89a7a:	609a      	str	r2, [r3, #8]
   89a7c:	4621      	mov	r1, r4
   89a7e:	4648      	mov	r0, r9
   89a80:	f7fe fde2 	bl	88648 <_free_r>
   89a84:	e7b6      	b.n	899f4 <_realloc_r+0xf4>
   89a86:	4611      	mov	r1, r2
   89a88:	b003      	add	sp, #12
   89a8a:	e8bd 4ff0 	ldmia.w	sp!, {r4, r5, r6, r7, r8, r9, sl, fp, lr}
   89a8e:	f7ff b8dd 	b.w	88c4c <_malloc_r>
   89a92:	f8de 2004 	ldr.w	r2, [lr, #4]
   89a96:	f106 0c10 	add.w	ip, r6, #16
   89a9a:	f022 0203 	bic.w	r2, r2, #3
   89a9e:	1950      	adds	r0, r2, r5
   89aa0:	4560      	cmp	r0, ip
   89aa2:	da3d      	bge.n	89b20 <_realloc_r+0x220>
   89aa4:	4670      	mov	r0, lr
   89aa6:	e759      	b.n	8995c <_realloc_r+0x5c>
   89aa8:	46d0      	mov	r8, sl
   89aaa:	f858 0f08 	ldr.w	r0, [r8, #8]!
   89aae:	f8da 100c 	ldr.w	r1, [sl, #12]
   89ab2:	1f2a      	subs	r2, r5, #4
   89ab4:	2a24      	cmp	r2, #36	; 0x24
   89ab6:	60c1      	str	r1, [r0, #12]
   89ab8:	6088      	str	r0, [r1, #8]
   89aba:	f200 80a0 	bhi.w	89bfe <_realloc_r+0x2fe>
   89abe:	2a13      	cmp	r2, #19
   89ac0:	f240 809b 	bls.w	89bfa <_realloc_r+0x2fa>
   89ac4:	6821      	ldr	r1, [r4, #0]
   89ac6:	2a1b      	cmp	r2, #27
   89ac8:	f8ca 1008 	str.w	r1, [sl, #8]
   89acc:	6861      	ldr	r1, [r4, #4]
   89ace:	f8ca 100c 	str.w	r1, [sl, #12]
   89ad2:	f200 80b2 	bhi.w	89c3a <_realloc_r+0x33a>
   89ad6:	3408      	adds	r4, #8
   89ad8:	f10a 0210 	add.w	r2, sl, #16
   89adc:	6821      	ldr	r1, [r4, #0]
   89ade:	461d      	mov	r5, r3
   89ae0:	6011      	str	r1, [r2, #0]
   89ae2:	6861      	ldr	r1, [r4, #4]
   89ae4:	4657      	mov	r7, sl
   89ae6:	6051      	str	r1, [r2, #4]
   89ae8:	68a3      	ldr	r3, [r4, #8]
   89aea:	6093      	str	r3, [r2, #8]
   89aec:	f8da 3004 	ldr.w	r3, [sl, #4]
   89af0:	e774      	b.n	899dc <_realloc_r+0xdc>
   89af2:	6823      	ldr	r3, [r4, #0]
   89af4:	2a1b      	cmp	r2, #27
   89af6:	6003      	str	r3, [r0, #0]
   89af8:	6863      	ldr	r3, [r4, #4]
   89afa:	6043      	str	r3, [r0, #4]
   89afc:	d862      	bhi.n	89bc4 <_realloc_r+0x2c4>
   89afe:	f100 0308 	add.w	r3, r0, #8
   89b02:	f104 0208 	add.w	r2, r4, #8
   89b06:	e7b3      	b.n	89a70 <_realloc_r+0x170>
   89b08:	4643      	mov	r3, r8
   89b0a:	6822      	ldr	r2, [r4, #0]
   89b0c:	4675      	mov	r5, lr
   89b0e:	601a      	str	r2, [r3, #0]
   89b10:	6862      	ldr	r2, [r4, #4]
   89b12:	4657      	mov	r7, sl
   89b14:	605a      	str	r2, [r3, #4]
   89b16:	68a2      	ldr	r2, [r4, #8]
   89b18:	609a      	str	r2, [r3, #8]
   89b1a:	f8da 3004 	ldr.w	r3, [sl, #4]
   89b1e:	e75d      	b.n	899dc <_realloc_r+0xdc>
   89b20:	1b83      	subs	r3, r0, r6
   89b22:	4437      	add	r7, r6
   89b24:	f043 0301 	orr.w	r3, r3, #1
   89b28:	f8cb 7008 	str.w	r7, [fp, #8]
   89b2c:	607b      	str	r3, [r7, #4]
   89b2e:	f854 3c04 	ldr.w	r3, [r4, #-4]
   89b32:	4648      	mov	r0, r9
   89b34:	f003 0301 	and.w	r3, r3, #1
   89b38:	431e      	orrs	r6, r3
   89b3a:	f844 6c04 	str.w	r6, [r4, #-4]
   89b3e:	f7ff fbd3 	bl	892e8 <__malloc_unlock>
   89b42:	4620      	mov	r0, r4
   89b44:	e75a      	b.n	899fc <_realloc_r+0xfc>
   89b46:	4621      	mov	r1, r4
   89b48:	f7ff fb66 	bl	89218 <memmove>
   89b4c:	e796      	b.n	89a7c <_realloc_r+0x17c>
   89b4e:	eb02 0c03 	add.w	ip, r2, r3
   89b52:	f106 0210 	add.w	r2, r6, #16
   89b56:	4594      	cmp	ip, r2
   89b58:	f6ff af70 	blt.w	89a3c <_realloc_r+0x13c>
   89b5c:	4657      	mov	r7, sl
   89b5e:	f857 1f08 	ldr.w	r1, [r7, #8]!
   89b62:	f8da 300c 	ldr.w	r3, [sl, #12]
   89b66:	1f2a      	subs	r2, r5, #4
   89b68:	2a24      	cmp	r2, #36	; 0x24
   89b6a:	60cb      	str	r3, [r1, #12]
   89b6c:	6099      	str	r1, [r3, #8]
   89b6e:	f200 8086 	bhi.w	89c7e <_realloc_r+0x37e>
   89b72:	2a13      	cmp	r2, #19
   89b74:	d977      	bls.n	89c66 <_realloc_r+0x366>
   89b76:	6823      	ldr	r3, [r4, #0]
   89b78:	2a1b      	cmp	r2, #27
   89b7a:	f8ca 3008 	str.w	r3, [sl, #8]
   89b7e:	6863      	ldr	r3, [r4, #4]
   89b80:	f8ca 300c 	str.w	r3, [sl, #12]
   89b84:	f200 8084 	bhi.w	89c90 <_realloc_r+0x390>
   89b88:	3408      	adds	r4, #8
   89b8a:	f10a 0310 	add.w	r3, sl, #16
   89b8e:	6822      	ldr	r2, [r4, #0]
   89b90:	601a      	str	r2, [r3, #0]
   89b92:	6862      	ldr	r2, [r4, #4]
   89b94:	605a      	str	r2, [r3, #4]
   89b96:	68a2      	ldr	r2, [r4, #8]
   89b98:	609a      	str	r2, [r3, #8]
   89b9a:	ebc6 020c 	rsb	r2, r6, ip
   89b9e:	eb0a 0306 	add.w	r3, sl, r6
   89ba2:	f042 0201 	orr.w	r2, r2, #1
   89ba6:	f8cb 3008 	str.w	r3, [fp, #8]
   89baa:	605a      	str	r2, [r3, #4]
   89bac:	f8da 3004 	ldr.w	r3, [sl, #4]
   89bb0:	4648      	mov	r0, r9
   89bb2:	f003 0301 	and.w	r3, r3, #1
   89bb6:	431e      	orrs	r6, r3
   89bb8:	f8ca 6004 	str.w	r6, [sl, #4]
   89bbc:	f7ff fb94 	bl	892e8 <__malloc_unlock>
   89bc0:	4638      	mov	r0, r7
   89bc2:	e71b      	b.n	899fc <_realloc_r+0xfc>
   89bc4:	68a3      	ldr	r3, [r4, #8]
   89bc6:	2a24      	cmp	r2, #36	; 0x24
   89bc8:	6083      	str	r3, [r0, #8]
   89bca:	68e3      	ldr	r3, [r4, #12]
   89bcc:	60c3      	str	r3, [r0, #12]
   89bce:	d02b      	beq.n	89c28 <_realloc_r+0x328>
   89bd0:	f100 0310 	add.w	r3, r0, #16
   89bd4:	f104 0210 	add.w	r2, r4, #16
   89bd8:	e74a      	b.n	89a70 <_realloc_r+0x170>
   89bda:	f850 2c04 	ldr.w	r2, [r0, #-4]
   89bde:	46a0      	mov	r8, r4
   89be0:	f022 0203 	bic.w	r2, r2, #3
   89be4:	4415      	add	r5, r2
   89be6:	e6f9      	b.n	899dc <_realloc_r+0xdc>
   89be8:	4621      	mov	r1, r4
   89bea:	4640      	mov	r0, r8
   89bec:	4675      	mov	r5, lr
   89bee:	4657      	mov	r7, sl
   89bf0:	f7ff fb12 	bl	89218 <memmove>
   89bf4:	f8da 3004 	ldr.w	r3, [sl, #4]
   89bf8:	e6f0      	b.n	899dc <_realloc_r+0xdc>
   89bfa:	4642      	mov	r2, r8
   89bfc:	e76e      	b.n	89adc <_realloc_r+0x1dc>
   89bfe:	4621      	mov	r1, r4
   89c00:	4640      	mov	r0, r8
   89c02:	461d      	mov	r5, r3
   89c04:	4657      	mov	r7, sl
   89c06:	f7ff fb07 	bl	89218 <memmove>
   89c0a:	f8da 3004 	ldr.w	r3, [sl, #4]
   89c0e:	e6e5      	b.n	899dc <_realloc_r+0xdc>
   89c10:	68a3      	ldr	r3, [r4, #8]
   89c12:	2a24      	cmp	r2, #36	; 0x24
   89c14:	f8ca 3010 	str.w	r3, [sl, #16]
   89c18:	68e3      	ldr	r3, [r4, #12]
   89c1a:	f8ca 3014 	str.w	r3, [sl, #20]
   89c1e:	d018      	beq.n	89c52 <_realloc_r+0x352>
   89c20:	3410      	adds	r4, #16
   89c22:	f10a 0318 	add.w	r3, sl, #24
   89c26:	e770      	b.n	89b0a <_realloc_r+0x20a>
   89c28:	6922      	ldr	r2, [r4, #16]
   89c2a:	f100 0318 	add.w	r3, r0, #24
   89c2e:	6102      	str	r2, [r0, #16]
   89c30:	6961      	ldr	r1, [r4, #20]
   89c32:	f104 0218 	add.w	r2, r4, #24
   89c36:	6141      	str	r1, [r0, #20]
   89c38:	e71a      	b.n	89a70 <_realloc_r+0x170>
   89c3a:	68a1      	ldr	r1, [r4, #8]
   89c3c:	2a24      	cmp	r2, #36	; 0x24
   89c3e:	f8ca 1010 	str.w	r1, [sl, #16]
   89c42:	68e1      	ldr	r1, [r4, #12]
   89c44:	f8ca 1014 	str.w	r1, [sl, #20]
   89c48:	d00f      	beq.n	89c6a <_realloc_r+0x36a>
   89c4a:	3410      	adds	r4, #16
   89c4c:	f10a 0218 	add.w	r2, sl, #24
   89c50:	e744      	b.n	89adc <_realloc_r+0x1dc>
   89c52:	6922      	ldr	r2, [r4, #16]
   89c54:	f10a 0320 	add.w	r3, sl, #32
   89c58:	f8ca 2018 	str.w	r2, [sl, #24]
   89c5c:	6962      	ldr	r2, [r4, #20]
   89c5e:	3418      	adds	r4, #24
   89c60:	f8ca 201c 	str.w	r2, [sl, #28]
   89c64:	e751      	b.n	89b0a <_realloc_r+0x20a>
   89c66:	463b      	mov	r3, r7
   89c68:	e791      	b.n	89b8e <_realloc_r+0x28e>
   89c6a:	6921      	ldr	r1, [r4, #16]
   89c6c:	f10a 0220 	add.w	r2, sl, #32
   89c70:	f8ca 1018 	str.w	r1, [sl, #24]
   89c74:	6961      	ldr	r1, [r4, #20]
   89c76:	3418      	adds	r4, #24
   89c78:	f8ca 101c 	str.w	r1, [sl, #28]
   89c7c:	e72e      	b.n	89adc <_realloc_r+0x1dc>
   89c7e:	4621      	mov	r1, r4
   89c80:	4638      	mov	r0, r7
   89c82:	f8cd c004 	str.w	ip, [sp, #4]
   89c86:	f7ff fac7 	bl	89218 <memmove>
   89c8a:	f8dd c004 	ldr.w	ip, [sp, #4]
   89c8e:	e784      	b.n	89b9a <_realloc_r+0x29a>
   89c90:	68a3      	ldr	r3, [r4, #8]
   89c92:	2a24      	cmp	r2, #36	; 0x24
   89c94:	f8ca 3010 	str.w	r3, [sl, #16]
   89c98:	68e3      	ldr	r3, [r4, #12]
   89c9a:	f8ca 3014 	str.w	r3, [sl, #20]
   89c9e:	d003      	beq.n	89ca8 <_realloc_r+0x3a8>
   89ca0:	3410      	adds	r4, #16
   89ca2:	f10a 0318 	add.w	r3, sl, #24
   89ca6:	e772      	b.n	89b8e <_realloc_r+0x28e>
   89ca8:	6922      	ldr	r2, [r4, #16]
   89caa:	f10a 0320 	add.w	r3, sl, #32
   89cae:	f8ca 2018 	str.w	r2, [sl, #24]
   89cb2:	6962      	ldr	r2, [r4, #20]
   89cb4:	3418      	adds	r4, #24
   89cb6:	f8ca 201c 	str.w	r2, [sl, #28]
   89cba:	e768      	b.n	89b8e <_realloc_r+0x28e>
   89cbc:	200705d8 	.word	0x200705d8

00089cc0 <_sbrk_r>:
   89cc0:	b538      	push	{r3, r4, r5, lr}
   89cc2:	4c07      	ldr	r4, [pc, #28]	; (89ce0 <_sbrk_r+0x20>)
   89cc4:	2300      	movs	r3, #0
   89cc6:	4605      	mov	r5, r0
   89cc8:	4608      	mov	r0, r1
   89cca:	6023      	str	r3, [r4, #0]
   89ccc:	f7f7 f9aa 	bl	81024 <_sbrk>
   89cd0:	1c43      	adds	r3, r0, #1
   89cd2:	d000      	beq.n	89cd6 <_sbrk_r+0x16>
   89cd4:	bd38      	pop	{r3, r4, r5, pc}
   89cd6:	6823      	ldr	r3, [r4, #0]
   89cd8:	2b00      	cmp	r3, #0
   89cda:	d0fb      	beq.n	89cd4 <_sbrk_r+0x14>
   89cdc:	602b      	str	r3, [r5, #0]
   89cde:	bd38      	pop	{r3, r4, r5, pc}
   89ce0:	20078c74 	.word	0x20078c74

00089ce4 <__sread>:
   89ce4:	b510      	push	{r4, lr}
   89ce6:	460c      	mov	r4, r1
   89ce8:	f9b1 100e 	ldrsh.w	r1, [r1, #14]
   89cec:	f000 fa72 	bl	8a1d4 <_read_r>
   89cf0:	2800      	cmp	r0, #0
   89cf2:	db03      	blt.n	89cfc <__sread+0x18>
   89cf4:	6d23      	ldr	r3, [r4, #80]	; 0x50
   89cf6:	4403      	add	r3, r0
   89cf8:	6523      	str	r3, [r4, #80]	; 0x50
   89cfa:	bd10      	pop	{r4, pc}
   89cfc:	89a3      	ldrh	r3, [r4, #12]
   89cfe:	f423 5380 	bic.w	r3, r3, #4096	; 0x1000
   89d02:	81a3      	strh	r3, [r4, #12]
   89d04:	bd10      	pop	{r4, pc}
   89d06:	bf00      	nop

00089d08 <__swrite>:
   89d08:	e92d 41f0 	stmdb	sp!, {r4, r5, r6, r7, r8, lr}
   89d0c:	460c      	mov	r4, r1
   89d0e:	8989      	ldrh	r1, [r1, #12]
   89d10:	461d      	mov	r5, r3
   89d12:	05cb      	lsls	r3, r1, #23
   89d14:	4616      	mov	r6, r2
   89d16:	4607      	mov	r7, r0
   89d18:	d506      	bpl.n	89d28 <__swrite+0x20>
   89d1a:	f9b4 100e 	ldrsh.w	r1, [r4, #14]
   89d1e:	2200      	movs	r2, #0
   89d20:	2302      	movs	r3, #2
   89d22:	f000 fa43 	bl	8a1ac <_lseek_r>
   89d26:	89a1      	ldrh	r1, [r4, #12]
   89d28:	f421 5180 	bic.w	r1, r1, #4096	; 0x1000
   89d2c:	81a1      	strh	r1, [r4, #12]
   89d2e:	4638      	mov	r0, r7
   89d30:	f9b4 100e 	ldrsh.w	r1, [r4, #14]
   89d34:	4632      	mov	r2, r6
   89d36:	462b      	mov	r3, r5
   89d38:	e8bd 41f0 	ldmia.w	sp!, {r4, r5, r6, r7, r8, lr}
   89d3c:	f000 b91e 	b.w	89f7c <_write_r>

00089d40 <__sseek>:
   89d40:	b510      	push	{r4, lr}
   89d42:	460c      	mov	r4, r1
   89d44:	f9b1 100e 	ldrsh.w	r1, [r1, #14]
   89d48:	f000 fa30 	bl	8a1ac <_lseek_r>
   89d4c:	89a3      	ldrh	r3, [r4, #12]
   89d4e:	1c42      	adds	r2, r0, #1
   89d50:	bf0e      	itee	eq
   89d52:	f423 5380 	biceq.w	r3, r3, #4096	; 0x1000
   89d56:	f443 5380 	orrne.w	r3, r3, #4096	; 0x1000
   89d5a:	6520      	strne	r0, [r4, #80]	; 0x50
   89d5c:	81a3      	strh	r3, [r4, #12]
   89d5e:	bd10      	pop	{r4, pc}

00089d60 <__sclose>:
   89d60:	f9b1 100e 	ldrsh.w	r1, [r1, #14]
   89d64:	f000 b9a2 	b.w	8a0ac <_close_r>

00089d68 <__ssprint_r>:
   89d68:	e92d 4ff0 	stmdb	sp!, {r4, r5, r6, r7, r8, r9, sl, fp, lr}
   89d6c:	6894      	ldr	r4, [r2, #8]
   89d6e:	b083      	sub	sp, #12
   89d70:	4692      	mov	sl, r2
   89d72:	4680      	mov	r8, r0
   89d74:	460d      	mov	r5, r1
   89d76:	6816      	ldr	r6, [r2, #0]
   89d78:	2c00      	cmp	r4, #0
   89d7a:	d06f      	beq.n	89e5c <__ssprint_r+0xf4>
   89d7c:	f04f 0b00 	mov.w	fp, #0
   89d80:	6808      	ldr	r0, [r1, #0]
   89d82:	688b      	ldr	r3, [r1, #8]
   89d84:	465c      	mov	r4, fp
   89d86:	2c00      	cmp	r4, #0
   89d88:	d043      	beq.n	89e12 <__ssprint_r+0xaa>
   89d8a:	429c      	cmp	r4, r3
   89d8c:	461f      	mov	r7, r3
   89d8e:	d345      	bcc.n	89e1c <__ssprint_r+0xb4>
   89d90:	89ab      	ldrh	r3, [r5, #12]
   89d92:	f413 6f90 	tst.w	r3, #1152	; 0x480
   89d96:	d044      	beq.n	89e22 <__ssprint_r+0xba>
   89d98:	696f      	ldr	r7, [r5, #20]
   89d9a:	6929      	ldr	r1, [r5, #16]
   89d9c:	eb07 0747 	add.w	r7, r7, r7, lsl #1
   89da0:	eb07 77d7 	add.w	r7, r7, r7, lsr #31
   89da4:	ebc1 0900 	rsb	r9, r1, r0
   89da8:	1c62      	adds	r2, r4, #1
   89daa:	107f      	asrs	r7, r7, #1
   89dac:	444a      	add	r2, r9
   89dae:	4297      	cmp	r7, r2
   89db0:	bf34      	ite	cc
   89db2:	4617      	movcc	r7, r2
   89db4:	463a      	movcs	r2, r7
   89db6:	055b      	lsls	r3, r3, #21
   89db8:	d535      	bpl.n	89e26 <__ssprint_r+0xbe>
   89dba:	4611      	mov	r1, r2
   89dbc:	4640      	mov	r0, r8
   89dbe:	f7fe ff45 	bl	88c4c <_malloc_r>
   89dc2:	2800      	cmp	r0, #0
   89dc4:	d039      	beq.n	89e3a <__ssprint_r+0xd2>
   89dc6:	6929      	ldr	r1, [r5, #16]
   89dc8:	464a      	mov	r2, r9
   89dca:	9001      	str	r0, [sp, #4]
   89dcc:	f7fa fef4 	bl	84bb8 <memcpy>
   89dd0:	89aa      	ldrh	r2, [r5, #12]
   89dd2:	9b01      	ldr	r3, [sp, #4]
   89dd4:	f422 6290 	bic.w	r2, r2, #1152	; 0x480
   89dd8:	f042 0280 	orr.w	r2, r2, #128	; 0x80
   89ddc:	81aa      	strh	r2, [r5, #12]
   89dde:	ebc9 0207 	rsb	r2, r9, r7
   89de2:	eb03 0009 	add.w	r0, r3, r9
   89de6:	616f      	str	r7, [r5, #20]
   89de8:	612b      	str	r3, [r5, #16]
   89dea:	6028      	str	r0, [r5, #0]
   89dec:	60aa      	str	r2, [r5, #8]
   89dee:	4627      	mov	r7, r4
   89df0:	46a1      	mov	r9, r4
   89df2:	464a      	mov	r2, r9
   89df4:	4659      	mov	r1, fp
   89df6:	f7ff fa0f 	bl	89218 <memmove>
   89dfa:	f8da 2008 	ldr.w	r2, [sl, #8]
   89dfe:	68ab      	ldr	r3, [r5, #8]
   89e00:	6828      	ldr	r0, [r5, #0]
   89e02:	1bdb      	subs	r3, r3, r7
   89e04:	4448      	add	r0, r9
   89e06:	1b14      	subs	r4, r2, r4
   89e08:	60ab      	str	r3, [r5, #8]
   89e0a:	6028      	str	r0, [r5, #0]
   89e0c:	f8ca 4008 	str.w	r4, [sl, #8]
   89e10:	b324      	cbz	r4, 89e5c <__ssprint_r+0xf4>
   89e12:	f8d6 b000 	ldr.w	fp, [r6]
   89e16:	6874      	ldr	r4, [r6, #4]
   89e18:	3608      	adds	r6, #8
   89e1a:	e7b4      	b.n	89d86 <__ssprint_r+0x1e>
   89e1c:	4627      	mov	r7, r4
   89e1e:	46a1      	mov	r9, r4
   89e20:	e7e7      	b.n	89df2 <__ssprint_r+0x8a>
   89e22:	46b9      	mov	r9, r7
   89e24:	e7e5      	b.n	89df2 <__ssprint_r+0x8a>
   89e26:	4640      	mov	r0, r8
   89e28:	f7ff fd6a 	bl	89900 <_realloc_r>
   89e2c:	4603      	mov	r3, r0
   89e2e:	2800      	cmp	r0, #0
   89e30:	d1d5      	bne.n	89dde <__ssprint_r+0x76>
   89e32:	4640      	mov	r0, r8
   89e34:	6929      	ldr	r1, [r5, #16]
   89e36:	f7fe fc07 	bl	88648 <_free_r>
   89e3a:	89aa      	ldrh	r2, [r5, #12]
   89e3c:	230c      	movs	r3, #12
   89e3e:	f8c8 3000 	str.w	r3, [r8]
   89e42:	f042 0240 	orr.w	r2, r2, #64	; 0x40
   89e46:	2300      	movs	r3, #0
   89e48:	f04f 30ff 	mov.w	r0, #4294967295
   89e4c:	81aa      	strh	r2, [r5, #12]
   89e4e:	f8ca 3008 	str.w	r3, [sl, #8]
   89e52:	f8ca 3004 	str.w	r3, [sl, #4]
   89e56:	b003      	add	sp, #12
   89e58:	e8bd 8ff0 	ldmia.w	sp!, {r4, r5, r6, r7, r8, r9, sl, fp, pc}
   89e5c:	4620      	mov	r0, r4
   89e5e:	f8ca 4004 	str.w	r4, [sl, #4]
   89e62:	b003      	add	sp, #12
   89e64:	e8bd 8ff0 	ldmia.w	sp!, {r4, r5, r6, r7, r8, r9, sl, fp, pc}

00089e68 <__swbuf_r>:
   89e68:	b5f8      	push	{r3, r4, r5, r6, r7, lr}
   89e6a:	460d      	mov	r5, r1
   89e6c:	4614      	mov	r4, r2
   89e6e:	4607      	mov	r7, r0
   89e70:	b110      	cbz	r0, 89e78 <__swbuf_r+0x10>
   89e72:	6b83      	ldr	r3, [r0, #56]	; 0x38
   89e74:	2b00      	cmp	r3, #0
   89e76:	d048      	beq.n	89f0a <__swbuf_r+0xa2>
   89e78:	89a2      	ldrh	r2, [r4, #12]
   89e7a:	69a0      	ldr	r0, [r4, #24]
   89e7c:	b293      	uxth	r3, r2
   89e7e:	60a0      	str	r0, [r4, #8]
   89e80:	0718      	lsls	r0, r3, #28
   89e82:	d538      	bpl.n	89ef6 <__swbuf_r+0x8e>
   89e84:	6926      	ldr	r6, [r4, #16]
   89e86:	2e00      	cmp	r6, #0
   89e88:	d035      	beq.n	89ef6 <__swbuf_r+0x8e>
   89e8a:	0499      	lsls	r1, r3, #18
   89e8c:	b2ed      	uxtb	r5, r5
   89e8e:	d515      	bpl.n	89ebc <__swbuf_r+0x54>
   89e90:	6823      	ldr	r3, [r4, #0]
   89e92:	6962      	ldr	r2, [r4, #20]
   89e94:	1b9e      	subs	r6, r3, r6
   89e96:	4296      	cmp	r6, r2
   89e98:	da1c      	bge.n	89ed4 <__swbuf_r+0x6c>
   89e9a:	3601      	adds	r6, #1
   89e9c:	68a2      	ldr	r2, [r4, #8]
   89e9e:	1c59      	adds	r1, r3, #1
   89ea0:	3a01      	subs	r2, #1
   89ea2:	60a2      	str	r2, [r4, #8]
   89ea4:	6021      	str	r1, [r4, #0]
   89ea6:	701d      	strb	r5, [r3, #0]
   89ea8:	6963      	ldr	r3, [r4, #20]
   89eaa:	42b3      	cmp	r3, r6
   89eac:	d01a      	beq.n	89ee4 <__swbuf_r+0x7c>
   89eae:	89a3      	ldrh	r3, [r4, #12]
   89eb0:	07db      	lsls	r3, r3, #31
   89eb2:	d501      	bpl.n	89eb8 <__swbuf_r+0x50>
   89eb4:	2d0a      	cmp	r5, #10
   89eb6:	d015      	beq.n	89ee4 <__swbuf_r+0x7c>
   89eb8:	4628      	mov	r0, r5
   89eba:	bdf8      	pop	{r3, r4, r5, r6, r7, pc}
   89ebc:	6e63      	ldr	r3, [r4, #100]	; 0x64
   89ebe:	f442 5200 	orr.w	r2, r2, #8192	; 0x2000
   89ec2:	f423 5300 	bic.w	r3, r3, #8192	; 0x2000
   89ec6:	6663      	str	r3, [r4, #100]	; 0x64
   89ec8:	6823      	ldr	r3, [r4, #0]
   89eca:	81a2      	strh	r2, [r4, #12]
   89ecc:	6962      	ldr	r2, [r4, #20]
   89ece:	1b9e      	subs	r6, r3, r6
   89ed0:	4296      	cmp	r6, r2
   89ed2:	dbe2      	blt.n	89e9a <__swbuf_r+0x32>
   89ed4:	4638      	mov	r0, r7
   89ed6:	4621      	mov	r1, r4
   89ed8:	f7fe fa56 	bl	88388 <_fflush_r>
   89edc:	b940      	cbnz	r0, 89ef0 <__swbuf_r+0x88>
   89ede:	6823      	ldr	r3, [r4, #0]
   89ee0:	2601      	movs	r6, #1
   89ee2:	e7db      	b.n	89e9c <__swbuf_r+0x34>
   89ee4:	4638      	mov	r0, r7
   89ee6:	4621      	mov	r1, r4
   89ee8:	f7fe fa4e 	bl	88388 <_fflush_r>
   89eec:	2800      	cmp	r0, #0
   89eee:	d0e3      	beq.n	89eb8 <__swbuf_r+0x50>
   89ef0:	f04f 30ff 	mov.w	r0, #4294967295
   89ef4:	bdf8      	pop	{r3, r4, r5, r6, r7, pc}
   89ef6:	4638      	mov	r0, r7
   89ef8:	4621      	mov	r1, r4
   89efa:	f7fd f979 	bl	871f0 <__swsetup_r>
   89efe:	2800      	cmp	r0, #0
   89f00:	d1f6      	bne.n	89ef0 <__swbuf_r+0x88>
   89f02:	89a2      	ldrh	r2, [r4, #12]
   89f04:	6926      	ldr	r6, [r4, #16]
   89f06:	b293      	uxth	r3, r2
   89f08:	e7bf      	b.n	89e8a <__swbuf_r+0x22>
   89f0a:	f7fe fa59 	bl	883c0 <__sinit>
   89f0e:	e7b3      	b.n	89e78 <__swbuf_r+0x10>

00089f10 <_wcrtomb_r>:
   89f10:	e92d 41f0 	stmdb	sp!, {r4, r5, r6, r7, r8, lr}
   89f14:	461e      	mov	r6, r3
   89f16:	b086      	sub	sp, #24
   89f18:	460c      	mov	r4, r1
   89f1a:	4605      	mov	r5, r0
   89f1c:	4617      	mov	r7, r2
   89f1e:	4b0f      	ldr	r3, [pc, #60]	; (89f5c <_wcrtomb_r+0x4c>)
   89f20:	b191      	cbz	r1, 89f48 <_wcrtomb_r+0x38>
   89f22:	f8d3 8000 	ldr.w	r8, [r3]
   89f26:	f7fe fe0b 	bl	88b40 <__locale_charset>
   89f2a:	9600      	str	r6, [sp, #0]
   89f2c:	4603      	mov	r3, r0
   89f2e:	4621      	mov	r1, r4
   89f30:	463a      	mov	r2, r7
   89f32:	4628      	mov	r0, r5
   89f34:	47c0      	blx	r8
   89f36:	1c43      	adds	r3, r0, #1
   89f38:	d103      	bne.n	89f42 <_wcrtomb_r+0x32>
   89f3a:	2200      	movs	r2, #0
   89f3c:	238a      	movs	r3, #138	; 0x8a
   89f3e:	6032      	str	r2, [r6, #0]
   89f40:	602b      	str	r3, [r5, #0]
   89f42:	b006      	add	sp, #24
   89f44:	e8bd 81f0 	ldmia.w	sp!, {r4, r5, r6, r7, r8, pc}
   89f48:	681f      	ldr	r7, [r3, #0]
   89f4a:	f7fe fdf9 	bl	88b40 <__locale_charset>
   89f4e:	9600      	str	r6, [sp, #0]
   89f50:	4603      	mov	r3, r0
   89f52:	4622      	mov	r2, r4
   89f54:	4628      	mov	r0, r5
   89f56:	a903      	add	r1, sp, #12
   89f58:	47b8      	blx	r7
   89f5a:	e7ec      	b.n	89f36 <_wcrtomb_r+0x26>
   89f5c:	200709e8 	.word	0x200709e8

00089f60 <__ascii_wctomb>:
   89f60:	b121      	cbz	r1, 89f6c <__ascii_wctomb+0xc>
   89f62:	2aff      	cmp	r2, #255	; 0xff
   89f64:	d804      	bhi.n	89f70 <__ascii_wctomb+0x10>
   89f66:	700a      	strb	r2, [r1, #0]
   89f68:	2001      	movs	r0, #1
   89f6a:	4770      	bx	lr
   89f6c:	4608      	mov	r0, r1
   89f6e:	4770      	bx	lr
   89f70:	238a      	movs	r3, #138	; 0x8a
   89f72:	6003      	str	r3, [r0, #0]
   89f74:	f04f 30ff 	mov.w	r0, #4294967295
   89f78:	4770      	bx	lr
   89f7a:	bf00      	nop

00089f7c <_write_r>:
   89f7c:	b570      	push	{r4, r5, r6, lr}
   89f7e:	4c08      	ldr	r4, [pc, #32]	; (89fa0 <_write_r+0x24>)
   89f80:	4606      	mov	r6, r0
   89f82:	2500      	movs	r5, #0
   89f84:	4608      	mov	r0, r1
   89f86:	4611      	mov	r1, r2
   89f88:	461a      	mov	r2, r3
   89f8a:	6025      	str	r5, [r4, #0]
   89f8c:	f7f6 fc58 	bl	80840 <_write>
   89f90:	1c43      	adds	r3, r0, #1
   89f92:	d000      	beq.n	89f96 <_write_r+0x1a>
   89f94:	bd70      	pop	{r4, r5, r6, pc}
   89f96:	6823      	ldr	r3, [r4, #0]
   89f98:	2b00      	cmp	r3, #0
   89f9a:	d0fb      	beq.n	89f94 <_write_r+0x18>
   89f9c:	6033      	str	r3, [r6, #0]
   89f9e:	bd70      	pop	{r4, r5, r6, pc}
   89fa0:	20078c74 	.word	0x20078c74

00089fa4 <__register_exitproc>:
   89fa4:	b5f0      	push	{r4, r5, r6, r7, lr}
   89fa6:	4c27      	ldr	r4, [pc, #156]	; (8a044 <__register_exitproc+0xa0>)
   89fa8:	b085      	sub	sp, #20
   89faa:	6826      	ldr	r6, [r4, #0]
   89fac:	4607      	mov	r7, r0
   89fae:	f8d6 4148 	ldr.w	r4, [r6, #328]	; 0x148
   89fb2:	2c00      	cmp	r4, #0
   89fb4:	d040      	beq.n	8a038 <__register_exitproc+0x94>
   89fb6:	6865      	ldr	r5, [r4, #4]
   89fb8:	2d1f      	cmp	r5, #31
   89fba:	dd1e      	ble.n	89ffa <__register_exitproc+0x56>
   89fbc:	4822      	ldr	r0, [pc, #136]	; (8a048 <__register_exitproc+0xa4>)
   89fbe:	b918      	cbnz	r0, 89fc8 <__register_exitproc+0x24>
   89fc0:	f04f 30ff 	mov.w	r0, #4294967295
   89fc4:	b005      	add	sp, #20
   89fc6:	bdf0      	pop	{r4, r5, r6, r7, pc}
   89fc8:	f44f 70c8 	mov.w	r0, #400	; 0x190
   89fcc:	9103      	str	r1, [sp, #12]
   89fce:	9202      	str	r2, [sp, #8]
   89fd0:	9301      	str	r3, [sp, #4]
   89fd2:	f7fe fe33 	bl	88c3c <malloc>
   89fd6:	9903      	ldr	r1, [sp, #12]
   89fd8:	4604      	mov	r4, r0
   89fda:	9a02      	ldr	r2, [sp, #8]
   89fdc:	9b01      	ldr	r3, [sp, #4]
   89fde:	2800      	cmp	r0, #0
   89fe0:	d0ee      	beq.n	89fc0 <__register_exitproc+0x1c>
   89fe2:	f8d6 5148 	ldr.w	r5, [r6, #328]	; 0x148
   89fe6:	2000      	movs	r0, #0
   89fe8:	6025      	str	r5, [r4, #0]
   89fea:	6060      	str	r0, [r4, #4]
   89fec:	4605      	mov	r5, r0
   89fee:	f8c6 4148 	str.w	r4, [r6, #328]	; 0x148
   89ff2:	f8c4 0188 	str.w	r0, [r4, #392]	; 0x188
   89ff6:	f8c4 018c 	str.w	r0, [r4, #396]	; 0x18c
   89ffa:	b93f      	cbnz	r7, 8a00c <__register_exitproc+0x68>
   89ffc:	1c6b      	adds	r3, r5, #1
   89ffe:	2000      	movs	r0, #0
   8a000:	3502      	adds	r5, #2
   8a002:	6063      	str	r3, [r4, #4]
   8a004:	f844 1025 	str.w	r1, [r4, r5, lsl #2]
   8a008:	b005      	add	sp, #20
   8a00a:	bdf0      	pop	{r4, r5, r6, r7, pc}
   8a00c:	2601      	movs	r6, #1
   8a00e:	40ae      	lsls	r6, r5
   8a010:	eb04 0085 	add.w	r0, r4, r5, lsl #2
   8a014:	f8c0 2088 	str.w	r2, [r0, #136]	; 0x88
   8a018:	f8d4 2188 	ldr.w	r2, [r4, #392]	; 0x188
   8a01c:	2f02      	cmp	r7, #2
   8a01e:	ea42 0206 	orr.w	r2, r2, r6
   8a022:	f8c4 2188 	str.w	r2, [r4, #392]	; 0x188
   8a026:	f8c0 3108 	str.w	r3, [r0, #264]	; 0x108
   8a02a:	d1e7      	bne.n	89ffc <__register_exitproc+0x58>
   8a02c:	f8d4 318c 	ldr.w	r3, [r4, #396]	; 0x18c
   8a030:	431e      	orrs	r6, r3
   8a032:	f8c4 618c 	str.w	r6, [r4, #396]	; 0x18c
   8a036:	e7e1      	b.n	89ffc <__register_exitproc+0x58>
   8a038:	f506 74a6 	add.w	r4, r6, #332	; 0x14c
   8a03c:	f8c6 4148 	str.w	r4, [r6, #328]	; 0x148
   8a040:	e7b9      	b.n	89fb6 <__register_exitproc+0x12>
   8a042:	bf00      	nop
   8a044:	0008aa7c 	.word	0x0008aa7c
   8a048:	00088c3d 	.word	0x00088c3d

0008a04c <_calloc_r>:
   8a04c:	b510      	push	{r4, lr}
   8a04e:	fb02 f101 	mul.w	r1, r2, r1
   8a052:	f7fe fdfb 	bl	88c4c <_malloc_r>
   8a056:	4604      	mov	r4, r0
   8a058:	b168      	cbz	r0, 8a076 <_calloc_r+0x2a>
   8a05a:	f850 2c04 	ldr.w	r2, [r0, #-4]
   8a05e:	f022 0203 	bic.w	r2, r2, #3
   8a062:	3a04      	subs	r2, #4
   8a064:	2a24      	cmp	r2, #36	; 0x24
   8a066:	d818      	bhi.n	8a09a <_calloc_r+0x4e>
   8a068:	2a13      	cmp	r2, #19
   8a06a:	d806      	bhi.n	8a07a <_calloc_r+0x2e>
   8a06c:	4603      	mov	r3, r0
   8a06e:	2200      	movs	r2, #0
   8a070:	601a      	str	r2, [r3, #0]
   8a072:	605a      	str	r2, [r3, #4]
   8a074:	609a      	str	r2, [r3, #8]
   8a076:	4620      	mov	r0, r4
   8a078:	bd10      	pop	{r4, pc}
   8a07a:	2300      	movs	r3, #0
   8a07c:	2a1b      	cmp	r2, #27
   8a07e:	6003      	str	r3, [r0, #0]
   8a080:	6043      	str	r3, [r0, #4]
   8a082:	d90f      	bls.n	8a0a4 <_calloc_r+0x58>
   8a084:	2a24      	cmp	r2, #36	; 0x24
   8a086:	6083      	str	r3, [r0, #8]
   8a088:	60c3      	str	r3, [r0, #12]
   8a08a:	bf05      	ittet	eq
   8a08c:	6103      	streq	r3, [r0, #16]
   8a08e:	6143      	streq	r3, [r0, #20]
   8a090:	f100 0310 	addne.w	r3, r0, #16
   8a094:	f100 0318 	addeq.w	r3, r0, #24
   8a098:	e7e9      	b.n	8a06e <_calloc_r+0x22>
   8a09a:	2100      	movs	r1, #0
   8a09c:	f7fa fe02 	bl	84ca4 <memset>
   8a0a0:	4620      	mov	r0, r4
   8a0a2:	bd10      	pop	{r4, pc}
   8a0a4:	f100 0308 	add.w	r3, r0, #8
   8a0a8:	e7e1      	b.n	8a06e <_calloc_r+0x22>
   8a0aa:	bf00      	nop

0008a0ac <_close_r>:
   8a0ac:	b538      	push	{r3, r4, r5, lr}
   8a0ae:	4c07      	ldr	r4, [pc, #28]	; (8a0cc <_close_r+0x20>)
   8a0b0:	2300      	movs	r3, #0
   8a0b2:	4605      	mov	r5, r0
   8a0b4:	4608      	mov	r0, r1
   8a0b6:	6023      	str	r3, [r4, #0]
   8a0b8:	f7f6 ffce 	bl	81058 <_close>
   8a0bc:	1c43      	adds	r3, r0, #1
   8a0be:	d000      	beq.n	8a0c2 <_close_r+0x16>
   8a0c0:	bd38      	pop	{r3, r4, r5, pc}
   8a0c2:	6823      	ldr	r3, [r4, #0]
   8a0c4:	2b00      	cmp	r3, #0
   8a0c6:	d0fb      	beq.n	8a0c0 <_close_r+0x14>
   8a0c8:	602b      	str	r3, [r5, #0]
   8a0ca:	bd38      	pop	{r3, r4, r5, pc}
   8a0cc:	20078c74 	.word	0x20078c74

0008a0d0 <_fclose_r>:
   8a0d0:	b570      	push	{r4, r5, r6, lr}
   8a0d2:	460c      	mov	r4, r1
   8a0d4:	4605      	mov	r5, r0
   8a0d6:	b131      	cbz	r1, 8a0e6 <_fclose_r+0x16>
   8a0d8:	b110      	cbz	r0, 8a0e0 <_fclose_r+0x10>
   8a0da:	6b83      	ldr	r3, [r0, #56]	; 0x38
   8a0dc:	2b00      	cmp	r3, #0
   8a0de:	d02f      	beq.n	8a140 <_fclose_r+0x70>
   8a0e0:	f9b4 300c 	ldrsh.w	r3, [r4, #12]
   8a0e4:	b90b      	cbnz	r3, 8a0ea <_fclose_r+0x1a>
   8a0e6:	2000      	movs	r0, #0
   8a0e8:	bd70      	pop	{r4, r5, r6, pc}
   8a0ea:	4628      	mov	r0, r5
   8a0ec:	4621      	mov	r1, r4
   8a0ee:	f7fe f94b 	bl	88388 <_fflush_r>
   8a0f2:	6ae3      	ldr	r3, [r4, #44]	; 0x2c
   8a0f4:	4606      	mov	r6, r0
   8a0f6:	b133      	cbz	r3, 8a106 <_fclose_r+0x36>
   8a0f8:	4628      	mov	r0, r5
   8a0fa:	69e1      	ldr	r1, [r4, #28]
   8a0fc:	4798      	blx	r3
   8a0fe:	2800      	cmp	r0, #0
   8a100:	bfb8      	it	lt
   8a102:	f04f 36ff 	movlt.w	r6, #4294967295
   8a106:	89a3      	ldrh	r3, [r4, #12]
   8a108:	061b      	lsls	r3, r3, #24
   8a10a:	d41c      	bmi.n	8a146 <_fclose_r+0x76>
   8a10c:	6b21      	ldr	r1, [r4, #48]	; 0x30
   8a10e:	b141      	cbz	r1, 8a122 <_fclose_r+0x52>
   8a110:	f104 0340 	add.w	r3, r4, #64	; 0x40
   8a114:	4299      	cmp	r1, r3
   8a116:	d002      	beq.n	8a11e <_fclose_r+0x4e>
   8a118:	4628      	mov	r0, r5
   8a11a:	f7fe fa95 	bl	88648 <_free_r>
   8a11e:	2300      	movs	r3, #0
   8a120:	6323      	str	r3, [r4, #48]	; 0x30
   8a122:	6c61      	ldr	r1, [r4, #68]	; 0x44
   8a124:	b121      	cbz	r1, 8a130 <_fclose_r+0x60>
   8a126:	4628      	mov	r0, r5
   8a128:	f7fe fa8e 	bl	88648 <_free_r>
   8a12c:	2300      	movs	r3, #0
   8a12e:	6463      	str	r3, [r4, #68]	; 0x44
   8a130:	f7fe f9c0 	bl	884b4 <__sfp_lock_acquire>
   8a134:	2300      	movs	r3, #0
   8a136:	81a3      	strh	r3, [r4, #12]
   8a138:	f7fe f9be 	bl	884b8 <__sfp_lock_release>
   8a13c:	4630      	mov	r0, r6
   8a13e:	bd70      	pop	{r4, r5, r6, pc}
   8a140:	f7fe f93e 	bl	883c0 <__sinit>
   8a144:	e7cc      	b.n	8a0e0 <_fclose_r+0x10>
   8a146:	4628      	mov	r0, r5
   8a148:	6921      	ldr	r1, [r4, #16]
   8a14a:	f7fe fa7d 	bl	88648 <_free_r>
   8a14e:	e7dd      	b.n	8a10c <_fclose_r+0x3c>

0008a150 <fclose>:
   8a150:	4b02      	ldr	r3, [pc, #8]	; (8a15c <fclose+0xc>)
   8a152:	4601      	mov	r1, r0
   8a154:	6818      	ldr	r0, [r3, #0]
   8a156:	f7ff bfbb 	b.w	8a0d0 <_fclose_r>
   8a15a:	bf00      	nop
   8a15c:	20070578 	.word	0x20070578

0008a160 <_fstat_r>:
   8a160:	b538      	push	{r3, r4, r5, lr}
   8a162:	4c08      	ldr	r4, [pc, #32]	; (8a184 <_fstat_r+0x24>)
   8a164:	2300      	movs	r3, #0
   8a166:	4605      	mov	r5, r0
   8a168:	4608      	mov	r0, r1
   8a16a:	4611      	mov	r1, r2
   8a16c:	6023      	str	r3, [r4, #0]
   8a16e:	f7f6 ff77 	bl	81060 <_fstat>
   8a172:	1c43      	adds	r3, r0, #1
   8a174:	d000      	beq.n	8a178 <_fstat_r+0x18>
   8a176:	bd38      	pop	{r3, r4, r5, pc}
   8a178:	6823      	ldr	r3, [r4, #0]
   8a17a:	2b00      	cmp	r3, #0
   8a17c:	d0fb      	beq.n	8a176 <_fstat_r+0x16>
   8a17e:	602b      	str	r3, [r5, #0]
   8a180:	bd38      	pop	{r3, r4, r5, pc}
   8a182:	bf00      	nop
   8a184:	20078c74 	.word	0x20078c74

0008a188 <_isatty_r>:
   8a188:	b538      	push	{r3, r4, r5, lr}
   8a18a:	4c07      	ldr	r4, [pc, #28]	; (8a1a8 <_isatty_r+0x20>)
   8a18c:	2300      	movs	r3, #0
   8a18e:	4605      	mov	r5, r0
   8a190:	4608      	mov	r0, r1
   8a192:	6023      	str	r3, [r4, #0]
   8a194:	f7f6 ff6a 	bl	8106c <_isatty>
   8a198:	1c43      	adds	r3, r0, #1
   8a19a:	d000      	beq.n	8a19e <_isatty_r+0x16>
   8a19c:	bd38      	pop	{r3, r4, r5, pc}
   8a19e:	6823      	ldr	r3, [r4, #0]
   8a1a0:	2b00      	cmp	r3, #0
   8a1a2:	d0fb      	beq.n	8a19c <_isatty_r+0x14>
   8a1a4:	602b      	str	r3, [r5, #0]
   8a1a6:	bd38      	pop	{r3, r4, r5, pc}
   8a1a8:	20078c74 	.word	0x20078c74

0008a1ac <_lseek_r>:
   8a1ac:	b570      	push	{r4, r5, r6, lr}
   8a1ae:	4c08      	ldr	r4, [pc, #32]	; (8a1d0 <_lseek_r+0x24>)
   8a1b0:	4606      	mov	r6, r0
   8a1b2:	2500      	movs	r5, #0
   8a1b4:	4608      	mov	r0, r1
   8a1b6:	4611      	mov	r1, r2
   8a1b8:	461a      	mov	r2, r3
   8a1ba:	6025      	str	r5, [r4, #0]
   8a1bc:	f7f6 ff58 	bl	81070 <_lseek>
   8a1c0:	1c43      	adds	r3, r0, #1
   8a1c2:	d000      	beq.n	8a1c6 <_lseek_r+0x1a>
   8a1c4:	bd70      	pop	{r4, r5, r6, pc}
   8a1c6:	6823      	ldr	r3, [r4, #0]
   8a1c8:	2b00      	cmp	r3, #0
   8a1ca:	d0fb      	beq.n	8a1c4 <_lseek_r+0x18>
   8a1cc:	6033      	str	r3, [r6, #0]
   8a1ce:	bd70      	pop	{r4, r5, r6, pc}
   8a1d0:	20078c74 	.word	0x20078c74

0008a1d4 <_read_r>:
   8a1d4:	b570      	push	{r4, r5, r6, lr}
   8a1d6:	4c08      	ldr	r4, [pc, #32]	; (8a1f8 <_read_r+0x24>)
   8a1d8:	4606      	mov	r6, r0
   8a1da:	2500      	movs	r5, #0
   8a1dc:	4608      	mov	r0, r1
   8a1de:	4611      	mov	r1, r2
   8a1e0:	461a      	mov	r2, r3
   8a1e2:	6025      	str	r5, [r4, #0]
   8a1e4:	f7f6 fb0c 	bl	80800 <_read>
   8a1e8:	1c43      	adds	r3, r0, #1
   8a1ea:	d000      	beq.n	8a1ee <_read_r+0x1a>
   8a1ec:	bd70      	pop	{r4, r5, r6, pc}
   8a1ee:	6823      	ldr	r3, [r4, #0]
   8a1f0:	2b00      	cmp	r3, #0
   8a1f2:	d0fb      	beq.n	8a1ec <_read_r+0x18>
   8a1f4:	6033      	str	r3, [r6, #0]
   8a1f6:	bd70      	pop	{r4, r5, r6, pc}
   8a1f8:	20078c74 	.word	0x20078c74

0008a1fc <__aeabi_uldivmod>:
   8a1fc:	b94b      	cbnz	r3, 8a212 <__aeabi_uldivmod+0x16>
   8a1fe:	b942      	cbnz	r2, 8a212 <__aeabi_uldivmod+0x16>
   8a200:	2900      	cmp	r1, #0
   8a202:	bf08      	it	eq
   8a204:	2800      	cmpeq	r0, #0
   8a206:	d002      	beq.n	8a20e <__aeabi_uldivmod+0x12>
   8a208:	f04f 31ff 	mov.w	r1, #4294967295
   8a20c:	4608      	mov	r0, r1
   8a20e:	f000 b83b 	b.w	8a288 <__aeabi_idiv0>
   8a212:	b082      	sub	sp, #8
   8a214:	46ec      	mov	ip, sp
   8a216:	e92d 5000 	stmdb	sp!, {ip, lr}
   8a21a:	f000 f81d 	bl	8a258 <__gnu_uldivmod_helper>
   8a21e:	f8dd e004 	ldr.w	lr, [sp, #4]
   8a222:	b002      	add	sp, #8
   8a224:	bc0c      	pop	{r2, r3}
   8a226:	4770      	bx	lr

0008a228 <__gnu_ldivmod_helper>:
   8a228:	e92d 4f70 	stmdb	sp!, {r4, r5, r6, r8, r9, sl, fp, lr}
   8a22c:	9e08      	ldr	r6, [sp, #32]
   8a22e:	4614      	mov	r4, r2
   8a230:	461d      	mov	r5, r3
   8a232:	4680      	mov	r8, r0
   8a234:	4689      	mov	r9, r1
   8a236:	f000 f829 	bl	8a28c <__divdi3>
   8a23a:	fb04 f301 	mul.w	r3, r4, r1
   8a23e:	fba4 ab00 	umull	sl, fp, r4, r0
   8a242:	fb00 3205 	mla	r2, r0, r5, r3
   8a246:	4493      	add	fp, r2
   8a248:	ebb8 080a 	subs.w	r8, r8, sl
   8a24c:	eb69 090b 	sbc.w	r9, r9, fp
   8a250:	e9c6 8900 	strd	r8, r9, [r6]
   8a254:	e8bd 8f70 	ldmia.w	sp!, {r4, r5, r6, r8, r9, sl, fp, pc}

0008a258 <__gnu_uldivmod_helper>:
   8a258:	e92d 4f70 	stmdb	sp!, {r4, r5, r6, r8, r9, sl, fp, lr}
   8a25c:	9e08      	ldr	r6, [sp, #32]
   8a25e:	4614      	mov	r4, r2
   8a260:	461d      	mov	r5, r3
   8a262:	4680      	mov	r8, r0
   8a264:	4689      	mov	r9, r1
   8a266:	f000 f961 	bl	8a52c <__udivdi3>
   8a26a:	fb00 f505 	mul.w	r5, r0, r5
   8a26e:	fba0 ab04 	umull	sl, fp, r0, r4
   8a272:	fb04 5401 	mla	r4, r4, r1, r5
   8a276:	44a3      	add	fp, r4
   8a278:	ebb8 080a 	subs.w	r8, r8, sl
   8a27c:	eb69 090b 	sbc.w	r9, r9, fp
   8a280:	e9c6 8900 	strd	r8, r9, [r6]
   8a284:	e8bd 8f70 	ldmia.w	sp!, {r4, r5, r6, r8, r9, sl, fp, pc}

0008a288 <__aeabi_idiv0>:
   8a288:	4770      	bx	lr
   8a28a:	bf00      	nop

0008a28c <__divdi3>:
   8a28c:	2900      	cmp	r1, #0
   8a28e:	e92d 0ff0 	stmdb	sp!, {r4, r5, r6, r7, r8, r9, sl, fp}
   8a292:	f2c0 80a1 	blt.w	8a3d8 <__divdi3+0x14c>
   8a296:	2400      	movs	r4, #0
   8a298:	2b00      	cmp	r3, #0
   8a29a:	f2c0 8098 	blt.w	8a3ce <__divdi3+0x142>
   8a29e:	4615      	mov	r5, r2
   8a2a0:	4606      	mov	r6, r0
   8a2a2:	460f      	mov	r7, r1
   8a2a4:	2b00      	cmp	r3, #0
   8a2a6:	d13f      	bne.n	8a328 <__divdi3+0x9c>
   8a2a8:	428a      	cmp	r2, r1
   8a2aa:	d958      	bls.n	8a35e <__divdi3+0xd2>
   8a2ac:	fab2 f382 	clz	r3, r2
   8a2b0:	b14b      	cbz	r3, 8a2c6 <__divdi3+0x3a>
   8a2b2:	f1c3 0220 	rsb	r2, r3, #32
   8a2b6:	fa01 f703 	lsl.w	r7, r1, r3
   8a2ba:	fa20 f202 	lsr.w	r2, r0, r2
   8a2be:	409d      	lsls	r5, r3
   8a2c0:	fa00 f603 	lsl.w	r6, r0, r3
   8a2c4:	4317      	orrs	r7, r2
   8a2c6:	0c29      	lsrs	r1, r5, #16
   8a2c8:	fbb7 f2f1 	udiv	r2, r7, r1
   8a2cc:	fb01 7712 	mls	r7, r1, r2, r7
   8a2d0:	b2a8      	uxth	r0, r5
   8a2d2:	fb00 f302 	mul.w	r3, r0, r2
   8a2d6:	ea4f 4c16 	mov.w	ip, r6, lsr #16
   8a2da:	ea4c 4707 	orr.w	r7, ip, r7, lsl #16
   8a2de:	42bb      	cmp	r3, r7
   8a2e0:	d909      	bls.n	8a2f6 <__divdi3+0x6a>
   8a2e2:	197f      	adds	r7, r7, r5
   8a2e4:	f102 3cff 	add.w	ip, r2, #4294967295
   8a2e8:	f080 8105 	bcs.w	8a4f6 <__divdi3+0x26a>
   8a2ec:	42bb      	cmp	r3, r7
   8a2ee:	f240 8102 	bls.w	8a4f6 <__divdi3+0x26a>
   8a2f2:	3a02      	subs	r2, #2
   8a2f4:	442f      	add	r7, r5
   8a2f6:	1aff      	subs	r7, r7, r3
   8a2f8:	fbb7 f3f1 	udiv	r3, r7, r1
   8a2fc:	fb01 7113 	mls	r1, r1, r3, r7
   8a300:	fb00 f003 	mul.w	r0, r0, r3
   8a304:	b2b6      	uxth	r6, r6
   8a306:	ea46 4101 	orr.w	r1, r6, r1, lsl #16
   8a30a:	4288      	cmp	r0, r1
   8a30c:	d908      	bls.n	8a320 <__divdi3+0x94>
   8a30e:	1949      	adds	r1, r1, r5
   8a310:	f103 37ff 	add.w	r7, r3, #4294967295
   8a314:	f080 80f1 	bcs.w	8a4fa <__divdi3+0x26e>
   8a318:	4288      	cmp	r0, r1
   8a31a:	f240 80ee 	bls.w	8a4fa <__divdi3+0x26e>
   8a31e:	3b02      	subs	r3, #2
   8a320:	ea43 4202 	orr.w	r2, r3, r2, lsl #16
   8a324:	2300      	movs	r3, #0
   8a326:	e003      	b.n	8a330 <__divdi3+0xa4>
   8a328:	428b      	cmp	r3, r1
   8a32a:	d90a      	bls.n	8a342 <__divdi3+0xb6>
   8a32c:	2300      	movs	r3, #0
   8a32e:	461a      	mov	r2, r3
   8a330:	4610      	mov	r0, r2
   8a332:	4619      	mov	r1, r3
   8a334:	b114      	cbz	r4, 8a33c <__divdi3+0xb0>
   8a336:	4240      	negs	r0, r0
   8a338:	eb61 0141 	sbc.w	r1, r1, r1, lsl #1
   8a33c:	e8bd 0ff0 	ldmia.w	sp!, {r4, r5, r6, r7, r8, r9, sl, fp}
   8a340:	4770      	bx	lr
   8a342:	fab3 f883 	clz	r8, r3
   8a346:	f1b8 0f00 	cmp.w	r8, #0
   8a34a:	f040 8088 	bne.w	8a45e <__divdi3+0x1d2>
   8a34e:	428b      	cmp	r3, r1
   8a350:	d302      	bcc.n	8a358 <__divdi3+0xcc>
   8a352:	4282      	cmp	r2, r0
   8a354:	f200 80e2 	bhi.w	8a51c <__divdi3+0x290>
   8a358:	2300      	movs	r3, #0
   8a35a:	2201      	movs	r2, #1
   8a35c:	e7e8      	b.n	8a330 <__divdi3+0xa4>
   8a35e:	b912      	cbnz	r2, 8a366 <__divdi3+0xda>
   8a360:	2301      	movs	r3, #1
   8a362:	fbb3 f5f2 	udiv	r5, r3, r2
   8a366:	fab5 f285 	clz	r2, r5
   8a36a:	2a00      	cmp	r2, #0
   8a36c:	d13a      	bne.n	8a3e4 <__divdi3+0x158>
   8a36e:	1b7f      	subs	r7, r7, r5
   8a370:	0c28      	lsrs	r0, r5, #16
   8a372:	fa1f fc85 	uxth.w	ip, r5
   8a376:	2301      	movs	r3, #1
   8a378:	fbb7 f1f0 	udiv	r1, r7, r0
   8a37c:	fb00 7711 	mls	r7, r0, r1, r7
   8a380:	fb0c f201 	mul.w	r2, ip, r1
   8a384:	ea4f 4816 	mov.w	r8, r6, lsr #16
   8a388:	ea48 4707 	orr.w	r7, r8, r7, lsl #16
   8a38c:	42ba      	cmp	r2, r7
   8a38e:	d907      	bls.n	8a3a0 <__divdi3+0x114>
   8a390:	197f      	adds	r7, r7, r5
   8a392:	f101 38ff 	add.w	r8, r1, #4294967295
   8a396:	d202      	bcs.n	8a39e <__divdi3+0x112>
   8a398:	42ba      	cmp	r2, r7
   8a39a:	f200 80c4 	bhi.w	8a526 <__divdi3+0x29a>
   8a39e:	4641      	mov	r1, r8
   8a3a0:	1abf      	subs	r7, r7, r2
   8a3a2:	fbb7 f2f0 	udiv	r2, r7, r0
   8a3a6:	fb00 7012 	mls	r0, r0, r2, r7
   8a3aa:	fb0c fc02 	mul.w	ip, ip, r2
   8a3ae:	b2b6      	uxth	r6, r6
   8a3b0:	ea46 4000 	orr.w	r0, r6, r0, lsl #16
   8a3b4:	4584      	cmp	ip, r0
   8a3b6:	d907      	bls.n	8a3c8 <__divdi3+0x13c>
   8a3b8:	1940      	adds	r0, r0, r5
   8a3ba:	f102 37ff 	add.w	r7, r2, #4294967295
   8a3be:	d202      	bcs.n	8a3c6 <__divdi3+0x13a>
   8a3c0:	4584      	cmp	ip, r0
   8a3c2:	f200 80ae 	bhi.w	8a522 <__divdi3+0x296>
   8a3c6:	463a      	mov	r2, r7
   8a3c8:	ea42 4201 	orr.w	r2, r2, r1, lsl #16
   8a3cc:	e7b0      	b.n	8a330 <__divdi3+0xa4>
   8a3ce:	43e4      	mvns	r4, r4
   8a3d0:	4252      	negs	r2, r2
   8a3d2:	eb63 0343 	sbc.w	r3, r3, r3, lsl #1
   8a3d6:	e762      	b.n	8a29e <__divdi3+0x12>
   8a3d8:	4240      	negs	r0, r0
   8a3da:	eb61 0141 	sbc.w	r1, r1, r1, lsl #1
   8a3de:	f04f 34ff 	mov.w	r4, #4294967295
   8a3e2:	e759      	b.n	8a298 <__divdi3+0xc>
   8a3e4:	4095      	lsls	r5, r2
   8a3e6:	f1c2 0920 	rsb	r9, r2, #32
   8a3ea:	fa27 f109 	lsr.w	r1, r7, r9
   8a3ee:	fa26 f909 	lsr.w	r9, r6, r9
   8a3f2:	4097      	lsls	r7, r2
   8a3f4:	0c28      	lsrs	r0, r5, #16
   8a3f6:	fbb1 f8f0 	udiv	r8, r1, r0
   8a3fa:	fb00 1118 	mls	r1, r0, r8, r1
   8a3fe:	fa1f fc85 	uxth.w	ip, r5
   8a402:	fb0c f308 	mul.w	r3, ip, r8
   8a406:	ea49 0907 	orr.w	r9, r9, r7
   8a40a:	ea4f 4719 	mov.w	r7, r9, lsr #16
   8a40e:	ea47 4101 	orr.w	r1, r7, r1, lsl #16
   8a412:	428b      	cmp	r3, r1
   8a414:	fa06 f602 	lsl.w	r6, r6, r2
   8a418:	d908      	bls.n	8a42c <__divdi3+0x1a0>
   8a41a:	1949      	adds	r1, r1, r5
   8a41c:	f108 32ff 	add.w	r2, r8, #4294967295
   8a420:	d27a      	bcs.n	8a518 <__divdi3+0x28c>
   8a422:	428b      	cmp	r3, r1
   8a424:	d978      	bls.n	8a518 <__divdi3+0x28c>
   8a426:	f1a8 0802 	sub.w	r8, r8, #2
   8a42a:	4429      	add	r1, r5
   8a42c:	1ac9      	subs	r1, r1, r3
   8a42e:	fbb1 f3f0 	udiv	r3, r1, r0
   8a432:	fb00 1713 	mls	r7, r0, r3, r1
   8a436:	fb0c f203 	mul.w	r2, ip, r3
   8a43a:	fa1f f989 	uxth.w	r9, r9
   8a43e:	ea49 4707 	orr.w	r7, r9, r7, lsl #16
   8a442:	42ba      	cmp	r2, r7
   8a444:	d907      	bls.n	8a456 <__divdi3+0x1ca>
   8a446:	197f      	adds	r7, r7, r5
   8a448:	f103 31ff 	add.w	r1, r3, #4294967295
   8a44c:	d260      	bcs.n	8a510 <__divdi3+0x284>
   8a44e:	42ba      	cmp	r2, r7
   8a450:	d95e      	bls.n	8a510 <__divdi3+0x284>
   8a452:	3b02      	subs	r3, #2
   8a454:	442f      	add	r7, r5
   8a456:	1abf      	subs	r7, r7, r2
   8a458:	ea43 4308 	orr.w	r3, r3, r8, lsl #16
   8a45c:	e78c      	b.n	8a378 <__divdi3+0xec>
   8a45e:	f1c8 0220 	rsb	r2, r8, #32
   8a462:	fa25 f102 	lsr.w	r1, r5, r2
   8a466:	fa03 fc08 	lsl.w	ip, r3, r8
   8a46a:	fa27 f302 	lsr.w	r3, r7, r2
   8a46e:	fa20 f202 	lsr.w	r2, r0, r2
   8a472:	fa07 f708 	lsl.w	r7, r7, r8
   8a476:	ea41 0c0c 	orr.w	ip, r1, ip
   8a47a:	ea4f 491c 	mov.w	r9, ip, lsr #16
   8a47e:	fbb3 f1f9 	udiv	r1, r3, r9
   8a482:	fb09 3311 	mls	r3, r9, r1, r3
   8a486:	fa1f fa8c 	uxth.w	sl, ip
   8a48a:	fb0a fb01 	mul.w	fp, sl, r1
   8a48e:	4317      	orrs	r7, r2
   8a490:	0c3a      	lsrs	r2, r7, #16
   8a492:	ea42 4303 	orr.w	r3, r2, r3, lsl #16
   8a496:	459b      	cmp	fp, r3
   8a498:	fa05 f008 	lsl.w	r0, r5, r8
   8a49c:	d908      	bls.n	8a4b0 <__divdi3+0x224>
   8a49e:	eb13 030c 	adds.w	r3, r3, ip
   8a4a2:	f101 32ff 	add.w	r2, r1, #4294967295
   8a4a6:	d235      	bcs.n	8a514 <__divdi3+0x288>
   8a4a8:	459b      	cmp	fp, r3
   8a4aa:	d933      	bls.n	8a514 <__divdi3+0x288>
   8a4ac:	3902      	subs	r1, #2
   8a4ae:	4463      	add	r3, ip
   8a4b0:	ebcb 0303 	rsb	r3, fp, r3
   8a4b4:	fbb3 f2f9 	udiv	r2, r3, r9
   8a4b8:	fb09 3312 	mls	r3, r9, r2, r3
   8a4bc:	fb0a fa02 	mul.w	sl, sl, r2
   8a4c0:	b2bf      	uxth	r7, r7
   8a4c2:	ea47 4703 	orr.w	r7, r7, r3, lsl #16
   8a4c6:	45ba      	cmp	sl, r7
   8a4c8:	d908      	bls.n	8a4dc <__divdi3+0x250>
   8a4ca:	eb17 070c 	adds.w	r7, r7, ip
   8a4ce:	f102 33ff 	add.w	r3, r2, #4294967295
   8a4d2:	d21b      	bcs.n	8a50c <__divdi3+0x280>
   8a4d4:	45ba      	cmp	sl, r7
   8a4d6:	d919      	bls.n	8a50c <__divdi3+0x280>
   8a4d8:	3a02      	subs	r2, #2
   8a4da:	4467      	add	r7, ip
   8a4dc:	ea42 4501 	orr.w	r5, r2, r1, lsl #16
   8a4e0:	fba5 0100 	umull	r0, r1, r5, r0
   8a4e4:	ebca 0707 	rsb	r7, sl, r7
   8a4e8:	428f      	cmp	r7, r1
   8a4ea:	f04f 0300 	mov.w	r3, #0
   8a4ee:	d30a      	bcc.n	8a506 <__divdi3+0x27a>
   8a4f0:	d005      	beq.n	8a4fe <__divdi3+0x272>
   8a4f2:	462a      	mov	r2, r5
   8a4f4:	e71c      	b.n	8a330 <__divdi3+0xa4>
   8a4f6:	4662      	mov	r2, ip
   8a4f8:	e6fd      	b.n	8a2f6 <__divdi3+0x6a>
   8a4fa:	463b      	mov	r3, r7
   8a4fc:	e710      	b.n	8a320 <__divdi3+0x94>
   8a4fe:	fa06 f608 	lsl.w	r6, r6, r8
   8a502:	4286      	cmp	r6, r0
   8a504:	d2f5      	bcs.n	8a4f2 <__divdi3+0x266>
   8a506:	1e6a      	subs	r2, r5, #1
   8a508:	2300      	movs	r3, #0
   8a50a:	e711      	b.n	8a330 <__divdi3+0xa4>
   8a50c:	461a      	mov	r2, r3
   8a50e:	e7e5      	b.n	8a4dc <__divdi3+0x250>
   8a510:	460b      	mov	r3, r1
   8a512:	e7a0      	b.n	8a456 <__divdi3+0x1ca>
   8a514:	4611      	mov	r1, r2
   8a516:	e7cb      	b.n	8a4b0 <__divdi3+0x224>
   8a518:	4690      	mov	r8, r2
   8a51a:	e787      	b.n	8a42c <__divdi3+0x1a0>
   8a51c:	4643      	mov	r3, r8
   8a51e:	4642      	mov	r2, r8
   8a520:	e706      	b.n	8a330 <__divdi3+0xa4>
   8a522:	3a02      	subs	r2, #2
   8a524:	e750      	b.n	8a3c8 <__divdi3+0x13c>
   8a526:	3902      	subs	r1, #2
   8a528:	442f      	add	r7, r5
   8a52a:	e739      	b.n	8a3a0 <__divdi3+0x114>

0008a52c <__udivdi3>:
   8a52c:	e92d 0ff0 	stmdb	sp!, {r4, r5, r6, r7, r8, r9, sl, fp}
   8a530:	4614      	mov	r4, r2
   8a532:	4605      	mov	r5, r0
   8a534:	460e      	mov	r6, r1
   8a536:	2b00      	cmp	r3, #0
   8a538:	d143      	bne.n	8a5c2 <__udivdi3+0x96>
   8a53a:	428a      	cmp	r2, r1
   8a53c:	d953      	bls.n	8a5e6 <__udivdi3+0xba>
   8a53e:	fab2 f782 	clz	r7, r2
   8a542:	b157      	cbz	r7, 8a55a <__udivdi3+0x2e>
   8a544:	f1c7 0620 	rsb	r6, r7, #32
   8a548:	fa20 f606 	lsr.w	r6, r0, r6
   8a54c:	fa01 f307 	lsl.w	r3, r1, r7
   8a550:	fa02 f407 	lsl.w	r4, r2, r7
   8a554:	fa00 f507 	lsl.w	r5, r0, r7
   8a558:	431e      	orrs	r6, r3
   8a55a:	0c21      	lsrs	r1, r4, #16
   8a55c:	fbb6 f2f1 	udiv	r2, r6, r1
   8a560:	fb01 6612 	mls	r6, r1, r2, r6
   8a564:	b2a0      	uxth	r0, r4
   8a566:	fb00 f302 	mul.w	r3, r0, r2
   8a56a:	0c2f      	lsrs	r7, r5, #16
   8a56c:	ea47 4606 	orr.w	r6, r7, r6, lsl #16
   8a570:	42b3      	cmp	r3, r6
   8a572:	d909      	bls.n	8a588 <__udivdi3+0x5c>
   8a574:	1936      	adds	r6, r6, r4
   8a576:	f102 37ff 	add.w	r7, r2, #4294967295
   8a57a:	f080 80fd 	bcs.w	8a778 <__udivdi3+0x24c>
   8a57e:	42b3      	cmp	r3, r6
   8a580:	f240 80fa 	bls.w	8a778 <__udivdi3+0x24c>
   8a584:	3a02      	subs	r2, #2
   8a586:	4426      	add	r6, r4
   8a588:	1af6      	subs	r6, r6, r3
   8a58a:	fbb6 f3f1 	udiv	r3, r6, r1
   8a58e:	fb01 6113 	mls	r1, r1, r3, r6
   8a592:	fb00 f003 	mul.w	r0, r0, r3
   8a596:	b2ad      	uxth	r5, r5
   8a598:	ea45 4101 	orr.w	r1, r5, r1, lsl #16
   8a59c:	4288      	cmp	r0, r1
   8a59e:	d908      	bls.n	8a5b2 <__udivdi3+0x86>
   8a5a0:	1909      	adds	r1, r1, r4
   8a5a2:	f103 36ff 	add.w	r6, r3, #4294967295
   8a5a6:	f080 80e9 	bcs.w	8a77c <__udivdi3+0x250>
   8a5aa:	4288      	cmp	r0, r1
   8a5ac:	f240 80e6 	bls.w	8a77c <__udivdi3+0x250>
   8a5b0:	3b02      	subs	r3, #2
   8a5b2:	ea43 4202 	orr.w	r2, r3, r2, lsl #16
   8a5b6:	2300      	movs	r3, #0
   8a5b8:	4610      	mov	r0, r2
   8a5ba:	4619      	mov	r1, r3
   8a5bc:	e8bd 0ff0 	ldmia.w	sp!, {r4, r5, r6, r7, r8, r9, sl, fp}
   8a5c0:	4770      	bx	lr
   8a5c2:	428b      	cmp	r3, r1
   8a5c4:	d84c      	bhi.n	8a660 <__udivdi3+0x134>
   8a5c6:	fab3 f683 	clz	r6, r3
   8a5ca:	2e00      	cmp	r6, #0
   8a5cc:	d14f      	bne.n	8a66e <__udivdi3+0x142>
   8a5ce:	428b      	cmp	r3, r1
   8a5d0:	d302      	bcc.n	8a5d8 <__udivdi3+0xac>
   8a5d2:	4282      	cmp	r2, r0
   8a5d4:	f200 80dd 	bhi.w	8a792 <__udivdi3+0x266>
   8a5d8:	e8bd 0ff0 	ldmia.w	sp!, {r4, r5, r6, r7, r8, r9, sl, fp}
   8a5dc:	2300      	movs	r3, #0
   8a5de:	2201      	movs	r2, #1
   8a5e0:	4610      	mov	r0, r2
   8a5e2:	4619      	mov	r1, r3
   8a5e4:	4770      	bx	lr
   8a5e6:	b912      	cbnz	r2, 8a5ee <__udivdi3+0xc2>
   8a5e8:	2401      	movs	r4, #1
   8a5ea:	fbb4 f4f2 	udiv	r4, r4, r2
   8a5ee:	fab4 f284 	clz	r2, r4
   8a5f2:	2a00      	cmp	r2, #0
   8a5f4:	f040 8082 	bne.w	8a6fc <__udivdi3+0x1d0>
   8a5f8:	1b09      	subs	r1, r1, r4
   8a5fa:	0c26      	lsrs	r6, r4, #16
   8a5fc:	b2a7      	uxth	r7, r4
   8a5fe:	2301      	movs	r3, #1
   8a600:	fbb1 f0f6 	udiv	r0, r1, r6
   8a604:	fb06 1110 	mls	r1, r6, r0, r1
   8a608:	fb07 f200 	mul.w	r2, r7, r0
   8a60c:	ea4f 4c15 	mov.w	ip, r5, lsr #16
   8a610:	ea4c 4101 	orr.w	r1, ip, r1, lsl #16
   8a614:	428a      	cmp	r2, r1
   8a616:	d907      	bls.n	8a628 <__udivdi3+0xfc>
   8a618:	1909      	adds	r1, r1, r4
   8a61a:	f100 3cff 	add.w	ip, r0, #4294967295
   8a61e:	d202      	bcs.n	8a626 <__udivdi3+0xfa>
   8a620:	428a      	cmp	r2, r1
   8a622:	f200 80c8 	bhi.w	8a7b6 <__udivdi3+0x28a>
   8a626:	4660      	mov	r0, ip
   8a628:	1a89      	subs	r1, r1, r2
   8a62a:	fbb1 f2f6 	udiv	r2, r1, r6
   8a62e:	fb06 1112 	mls	r1, r6, r2, r1
   8a632:	fb07 f702 	mul.w	r7, r7, r2
   8a636:	b2ad      	uxth	r5, r5
   8a638:	ea45 4501 	orr.w	r5, r5, r1, lsl #16
   8a63c:	42af      	cmp	r7, r5
   8a63e:	d908      	bls.n	8a652 <__udivdi3+0x126>
   8a640:	192c      	adds	r4, r5, r4
   8a642:	f102 31ff 	add.w	r1, r2, #4294967295
   8a646:	f080 809b 	bcs.w	8a780 <__udivdi3+0x254>
   8a64a:	42a7      	cmp	r7, r4
   8a64c:	f240 8098 	bls.w	8a780 <__udivdi3+0x254>
   8a650:	3a02      	subs	r2, #2
   8a652:	ea42 4200 	orr.w	r2, r2, r0, lsl #16
   8a656:	4610      	mov	r0, r2
   8a658:	4619      	mov	r1, r3
   8a65a:	e8bd 0ff0 	ldmia.w	sp!, {r4, r5, r6, r7, r8, r9, sl, fp}
   8a65e:	4770      	bx	lr
   8a660:	2300      	movs	r3, #0
   8a662:	461a      	mov	r2, r3
   8a664:	4610      	mov	r0, r2
   8a666:	4619      	mov	r1, r3
   8a668:	e8bd 0ff0 	ldmia.w	sp!, {r4, r5, r6, r7, r8, r9, sl, fp}
   8a66c:	4770      	bx	lr
   8a66e:	f1c6 0520 	rsb	r5, r6, #32
   8a672:	fa22 f705 	lsr.w	r7, r2, r5
   8a676:	fa03 f406 	lsl.w	r4, r3, r6
   8a67a:	fa21 f305 	lsr.w	r3, r1, r5
   8a67e:	fa01 fb06 	lsl.w	fp, r1, r6
   8a682:	fa20 f505 	lsr.w	r5, r0, r5
   8a686:	433c      	orrs	r4, r7
   8a688:	ea4f 4814 	mov.w	r8, r4, lsr #16
   8a68c:	fbb3 fcf8 	udiv	ip, r3, r8
   8a690:	fb08 331c 	mls	r3, r8, ip, r3
   8a694:	fa1f f984 	uxth.w	r9, r4
   8a698:	fb09 fa0c 	mul.w	sl, r9, ip
   8a69c:	ea45 0b0b 	orr.w	fp, r5, fp
   8a6a0:	ea4f 451b 	mov.w	r5, fp, lsr #16
   8a6a4:	ea45 4303 	orr.w	r3, r5, r3, lsl #16
   8a6a8:	459a      	cmp	sl, r3
   8a6aa:	fa02 f206 	lsl.w	r2, r2, r6
   8a6ae:	d904      	bls.n	8a6ba <__udivdi3+0x18e>
   8a6b0:	191b      	adds	r3, r3, r4
   8a6b2:	f10c 35ff 	add.w	r5, ip, #4294967295
   8a6b6:	d36f      	bcc.n	8a798 <__udivdi3+0x26c>
   8a6b8:	46ac      	mov	ip, r5
   8a6ba:	ebca 0303 	rsb	r3, sl, r3
   8a6be:	fbb3 f5f8 	udiv	r5, r3, r8
   8a6c2:	fb08 3315 	mls	r3, r8, r5, r3
   8a6c6:	fb09 f905 	mul.w	r9, r9, r5
   8a6ca:	fa1f fb8b 	uxth.w	fp, fp
   8a6ce:	ea4b 4703 	orr.w	r7, fp, r3, lsl #16
   8a6d2:	45b9      	cmp	r9, r7
   8a6d4:	d904      	bls.n	8a6e0 <__udivdi3+0x1b4>
   8a6d6:	193f      	adds	r7, r7, r4
   8a6d8:	f105 33ff 	add.w	r3, r5, #4294967295
   8a6dc:	d362      	bcc.n	8a7a4 <__udivdi3+0x278>
   8a6de:	461d      	mov	r5, r3
   8a6e0:	ea45 4c0c 	orr.w	ip, r5, ip, lsl #16
   8a6e4:	fbac 2302 	umull	r2, r3, ip, r2
   8a6e8:	ebc9 0707 	rsb	r7, r9, r7
   8a6ec:	429f      	cmp	r7, r3
   8a6ee:	f04f 0500 	mov.w	r5, #0
   8a6f2:	d34a      	bcc.n	8a78a <__udivdi3+0x25e>
   8a6f4:	d046      	beq.n	8a784 <__udivdi3+0x258>
   8a6f6:	4662      	mov	r2, ip
   8a6f8:	462b      	mov	r3, r5
   8a6fa:	e75d      	b.n	8a5b8 <__udivdi3+0x8c>
   8a6fc:	4094      	lsls	r4, r2
   8a6fe:	f1c2 0920 	rsb	r9, r2, #32
   8a702:	fa21 fc09 	lsr.w	ip, r1, r9
   8a706:	4091      	lsls	r1, r2
   8a708:	fa20 f909 	lsr.w	r9, r0, r9
   8a70c:	0c26      	lsrs	r6, r4, #16
   8a70e:	fbbc f8f6 	udiv	r8, ip, r6
   8a712:	fb06 cc18 	mls	ip, r6, r8, ip
   8a716:	b2a7      	uxth	r7, r4
   8a718:	fb07 f308 	mul.w	r3, r7, r8
   8a71c:	ea49 0901 	orr.w	r9, r9, r1
   8a720:	ea4f 4119 	mov.w	r1, r9, lsr #16
   8a724:	ea41 4c0c 	orr.w	ip, r1, ip, lsl #16
   8a728:	4563      	cmp	r3, ip
   8a72a:	fa00 f502 	lsl.w	r5, r0, r2
   8a72e:	d909      	bls.n	8a744 <__udivdi3+0x218>
   8a730:	eb1c 0c04 	adds.w	ip, ip, r4
   8a734:	f108 32ff 	add.w	r2, r8, #4294967295
   8a738:	d23b      	bcs.n	8a7b2 <__udivdi3+0x286>
   8a73a:	4563      	cmp	r3, ip
   8a73c:	d939      	bls.n	8a7b2 <__udivdi3+0x286>
   8a73e:	f1a8 0802 	sub.w	r8, r8, #2
   8a742:	44a4      	add	ip, r4
   8a744:	ebc3 0c0c 	rsb	ip, r3, ip
   8a748:	fbbc f3f6 	udiv	r3, ip, r6
   8a74c:	fb06 c113 	mls	r1, r6, r3, ip
   8a750:	fb07 f203 	mul.w	r2, r7, r3
   8a754:	fa1f f989 	uxth.w	r9, r9
   8a758:	ea49 4101 	orr.w	r1, r9, r1, lsl #16
   8a75c:	428a      	cmp	r2, r1
   8a75e:	d907      	bls.n	8a770 <__udivdi3+0x244>
   8a760:	1909      	adds	r1, r1, r4
   8a762:	f103 30ff 	add.w	r0, r3, #4294967295
   8a766:	d222      	bcs.n	8a7ae <__udivdi3+0x282>
   8a768:	428a      	cmp	r2, r1
   8a76a:	d920      	bls.n	8a7ae <__udivdi3+0x282>
   8a76c:	3b02      	subs	r3, #2
   8a76e:	4421      	add	r1, r4
   8a770:	1a89      	subs	r1, r1, r2
   8a772:	ea43 4308 	orr.w	r3, r3, r8, lsl #16
   8a776:	e743      	b.n	8a600 <__udivdi3+0xd4>
   8a778:	463a      	mov	r2, r7
   8a77a:	e705      	b.n	8a588 <__udivdi3+0x5c>
   8a77c:	4633      	mov	r3, r6
   8a77e:	e718      	b.n	8a5b2 <__udivdi3+0x86>
   8a780:	460a      	mov	r2, r1
   8a782:	e766      	b.n	8a652 <__udivdi3+0x126>
   8a784:	40b0      	lsls	r0, r6
   8a786:	4290      	cmp	r0, r2
   8a788:	d2b5      	bcs.n	8a6f6 <__udivdi3+0x1ca>
   8a78a:	f10c 32ff 	add.w	r2, ip, #4294967295
   8a78e:	2300      	movs	r3, #0
   8a790:	e712      	b.n	8a5b8 <__udivdi3+0x8c>
   8a792:	4633      	mov	r3, r6
   8a794:	4632      	mov	r2, r6
   8a796:	e70f      	b.n	8a5b8 <__udivdi3+0x8c>
   8a798:	459a      	cmp	sl, r3
   8a79a:	d98d      	bls.n	8a6b8 <__udivdi3+0x18c>
   8a79c:	f1ac 0c02 	sub.w	ip, ip, #2
   8a7a0:	4423      	add	r3, r4
   8a7a2:	e78a      	b.n	8a6ba <__udivdi3+0x18e>
   8a7a4:	45b9      	cmp	r9, r7
   8a7a6:	d99a      	bls.n	8a6de <__udivdi3+0x1b2>
   8a7a8:	3d02      	subs	r5, #2
   8a7aa:	4427      	add	r7, r4
   8a7ac:	e798      	b.n	8a6e0 <__udivdi3+0x1b4>
   8a7ae:	4603      	mov	r3, r0
   8a7b0:	e7de      	b.n	8a770 <__udivdi3+0x244>
   8a7b2:	4690      	mov	r8, r2
   8a7b4:	e7c6      	b.n	8a744 <__udivdi3+0x218>
   8a7b6:	3802      	subs	r0, #2
   8a7b8:	4421      	add	r1, r4
   8a7ba:	e735      	b.n	8a628 <__udivdi3+0xfc>
   8a7bc:	736e6f4b 	.word	0x736e6f4b
   8a7c0:	6e656c6f 	.word	0x6e656c6f
   8a7c4:	61657220 	.word	0x61657220
   8a7c8:	000a6f64 	.word	0x000a6f64
   8a7cc:	3d3d3d3d 	.word	0x3d3d3d3d
   8a7d0:	3d3d3d3d 	.word	0x3d3d3d3d
   8a7d4:	3d3d3d3d 	.word	0x3d3d3d3d
   8a7d8:	0a3d3d3d 	.word	0x0a3d3d3d
   8a7dc:	00000000 	.word	0x00000000
   8a7e0:	25202d2d 	.word	0x25202d2d
   8a7e4:	000d0a73 	.word	0x000d0a73
   8a7e8:	75647241 	.word	0x75647241
   8a7ec:	206f6e69 	.word	0x206f6e69
   8a7f0:	2f657544 	.word	0x2f657544
   8a7f4:	00000058 	.word	0x00000058
   8a7f8:	43202d2d 	.word	0x43202d2d
   8a7fc:	69706d6f 	.word	0x69706d6f
   8a800:	3a64656c 	.word	0x3a64656c
   8a804:	20732520 	.word	0x20732520
   8a808:	2d207325 	.word	0x2d207325
   8a80c:	000d0a2d 	.word	0x000d0a2d
   8a810:	2079614d 	.word	0x2079614d
   8a814:	32203031 	.word	0x32203031
   8a818:	00373130 	.word	0x00373130
   8a81c:	303a3731 	.word	0x303a3731
   8a820:	32323a36 	.word	0x32323a36
   8a824:	00000000 	.word	0x00000000
   8a828:	74736964 	.word	0x74736964
   8a82c:	3a736e61 	.word	0x3a736e61
   8a830:	0a662520 	.word	0x0a662520
   8a834:	00000000 	.word	0x00000000
   8a838:	006a6568 	.word	0x006a6568
   8a83c:	6d6f646f 	.word	0x6d6f646f
   8a840:	79727465 	.word	0x79727465
   8a844:	6625203a 	.word	0x6625203a
   8a848:	0000000a 	.word	0x0000000a
   8a84c:	6c6c6568 	.word	0x6c6c6568
   8a850:	7469206f 	.word	0x7469206f
   8a854:	656d2073 	.word	0x656d2073
   8a858:	00000000 	.word	0x00000000
   8a85c:	50414e4b 	.word	0x50414e4b
   8a860:	00000050 	.word	0x00000050
   8a864:	31333231 	.word	0x31333231
   8a868:	31323332 	.word	0x31323332
   8a86c:	00000033 	.word	0x00000033
   8a870:	09097325 	.word	0x09097325
   8a874:	25096325 	.word	0x25096325
   8a878:	75250975 	.word	0x75250975
   8a87c:	0d752509 	.word	0x0d752509
   8a880:	0000000a 	.word	0x0000000a
   8a884:	454c4449 	.word	0x454c4449
   8a888:	00000000 	.word	0x00000000
   8a88c:	00000a0d 	.word	0x00000a0d
   8a890:	20726d54 	.word	0x20726d54
   8a894:	00637653 	.word	0x00637653
   8a898:	74727173 	.word	0x74727173
   8a89c:	00000000 	.word	0x00000000

0008a8a0 <npio2_hw>:
   8a8a0:	3ff921fb 400921fb 4012d97c 401921fb     .!.?.!.@|..@.!.@
   8a8b0:	401f6a7a 4022d97c 4025fdbb 402921fb     zj.@|."@..%@.!)@
   8a8c0:	402c463a 402f6a7a 4031475c 4032d97c     :F,@zj/@\G1@|.2@
   8a8d0:	40346b9c 4035fdbb 40378fdb 403921fb     .k4@..5@..7@.!9@
   8a8e0:	403ab41b 403c463a 403dd85a 403f6a7a     ..:@:F<@Z.=@zj?@
   8a8f0:	40407e4c 4041475c 4042106c 4042d97c     L~@@\GA@l.B@|.B@
   8a900:	4043a28c 40446b9c 404534ac 4045fdbb     ..C@.kD@.4E@..E@
   8a910:	4046c6cb 40478fdb 404858eb 404921fb     ..F@..G@.XH@.!I@

0008a920 <two_over_pi>:
   8a920:	00a2f983 006e4e44 001529fc 002757d1     ....DNn..)...W'.
   8a930:	00f534dd 00c0db62 0095993c 00439041     .4..b...<...A.C.
   8a940:	00fe5163 00abdebb 00c561b7 00246e3a     cQ.......a..:n$.
   8a950:	00424dd2 00e00649 002eea09 00d1921c     .MB.I...........
   8a960:	00fe1deb 001cb129 00a73ee8 008235f5     ....)....>...5..
   8a970:	002ebb44 0084e99c 007026b4 005f7e41     D........&p.A~_.
   8a980:	003991d6 00398353 0039f49c 00845f8b     ..9.S.9...9.._..
   8a990:	00bdf928 003b1ff8 0097ffde 0005980f     (.....;.........
   8a9a0:	00ef2f11 008b5a0a 006d1f6d 00367ecf     ./...Z..m.m..~6.
   8a9b0:	0027cb09 00b74f46 003f669e 005fea2d     ..'.FO...f?.-._.
   8a9c0:	007527ba 00c7ebe5 00f17b3d 000739f7     .'u.....={...9..
   8a9d0:	008a5292 00ea6bfb 005fb11f 008d5d08     .R...k...._..]..
   8a9e0:	00560330 0046fc7b 006babf0 00cfbc20     0.V.{.F...k. ...
   8a9f0:	009af436 001da9e3 0091615e 00e61b08     6.......^a......
   8aa00:	00659985 005f14a0 0068408d 00ffd880     ..e..._..@h.....
   8aa10:	004d7327 00310606 001556ca 0073a8c9     'sM...1..V....s.
   8aa20:	0060e27b 00c08c6b                       {.`.k...

0008aa28 <init_jk>:
   8aa28:	00000002 00000003 00000004 00000006     ................

0008aa38 <PIo2>:
   8aa38:	40000000 3ff921fb 00000000 3e74442d     ...@.!.?....-Dt>
   8aa48:	80000000 3cf84698 60000000 3b78cc51     .....F.<...`Q.x;
   8aa58:	80000000 39f01b83 40000000 387a2520     .......9...@ %z8
   8aa68:	80000000 36e38222 00000000 3569f31d     ...."..6......i5
   8aa78:	00000043                                C...

0008aa7c <_global_impure_ptr>:
   8aa7c:	20070150                                P.. 

0008aa80 <zeroes.6763>:
   8aa80:	30303030 30303030 30303030 30303030     0000000000000000
   8aa90:	00464e49 00666e69 004e414e 006e616e     INF.inf.NAN.nan.
   8aaa0:	33323130 37363534 42413938 46454443     0123456789ABCDEF
   8aab0:	00000000 33323130 37363534 62613938     ....0123456789ab
   8aac0:	66656463 00000000 6c756e28 0000296c     cdef....(null)..
   8aad0:	00000030                                0...

0008aad4 <blanks.6762>:
   8aad4:	20202020 20202020 20202020 20202020                     

0008aae4 <zeroes.6721>:
   8aae4:	30303030 30303030 30303030 30303030     0000000000000000

0008aaf4 <blanks.6720>:
   8aaf4:	20202020 20202020 20202020 20202020                     
   8ab04:	69666e49 7974696e 00000000 004e614e     Infinity....NaN.
   8ab14:	49534f50 00000058 0000002e              POSIX.......

0008ab20 <__mprec_tens>:
   8ab20:	00000000 3ff00000 00000000 40240000     .......?......$@
   8ab30:	00000000 40590000 00000000 408f4000     ......Y@.....@.@
   8ab40:	00000000 40c38800 00000000 40f86a00     .......@.....j.@
   8ab50:	00000000 412e8480 00000000 416312d0     .......A......cA
   8ab60:	00000000 4197d784 00000000 41cdcd65     .......A....e..A
   8ab70:	20000000 4202a05f e8000000 42374876     ... _..B....vH7B
   8ab80:	a2000000 426d1a94 e5400000 42a2309c     ......mB..@..0.B
   8ab90:	1e900000 42d6bcc4 26340000 430c6bf5     .......B..4&.k.C
   8aba0:	37e08000 4341c379 85d8a000 43763457     ...7y.AC....W4vC
   8abb0:	674ec800 43abc16d 60913d00 43e158e4     ..Ngm..C.=.`.X.C
   8abc0:	78b58c40 4415af1d d6e2ef50 444b1ae4     @..x...DP.....KD
   8abd0:	064dd592 4480f0cf c7e14af6 44b52d02     ..M....D.J...-.D
   8abe0:	79d99db4 44ea7843                       ...yCx.D

0008abe8 <__mprec_bigtens>:
   8abe8:	37e08000 4341c379 b5056e17 4693b8b5     ...7y.AC.n.....F
   8abf8:	e93ff9f5 4d384f03 f9301d32 5a827748     ..?..O8M2.0.Hw.Z
   8ac08:	7f73bf3c 75154fdd                       <.s..O.u

0008ac10 <p05.5269>:
   8ac10:	00000005 00000019 0000007d              ........}...

0008ac1c <_init>:
   8ac1c:	b5f8      	push	{r3, r4, r5, r6, r7, lr}
   8ac1e:	bf00      	nop
   8ac20:	bcf8      	pop	{r3, r4, r5, r6, r7}
   8ac22:	bc08      	pop	{r3}
   8ac24:	469e      	mov	lr, r3
   8ac26:	4770      	bx	lr

0008ac28 <__init_array_start>:
   8ac28:	000872b5 	.word	0x000872b5

0008ac2c <__frame_dummy_init_array_entry>:
   8ac2c:	00080119                                ....

0008ac30 <_fini>:
   8ac30:	b5f8      	push	{r3, r4, r5, r6, r7, lr}
   8ac32:	bf00      	nop
   8ac34:	bcf8      	pop	{r3, r4, r5, r6, r7}
   8ac36:	bc08      	pop	{r3}
   8ac38:	469e      	mov	lr, r3
   8ac3a:	4770      	bx	lr

0008ac3c <__fini_array_start>:
   8ac3c:	000800f5 	.word	0x000800f5

Disassembly of section .relocate:

20070000 <SystemInit>:
20070000:	f44f 6380 	mov.w	r3, #1024	; 0x400
20070004:	4a20      	ldr	r2, [pc, #128]	; (20070088 <SystemInit+0x88>)
20070006:	6013      	str	r3, [r2, #0]
20070008:	f502 7200 	add.w	r2, r2, #512	; 0x200
2007000c:	6013      	str	r3, [r2, #0]
2007000e:	4b1f      	ldr	r3, [pc, #124]	; (2007008c <SystemInit+0x8c>)
20070010:	6a1b      	ldr	r3, [r3, #32]
20070012:	f013 7f80 	tst.w	r3, #16777216	; 0x1000000
20070016:	d107      	bne.n	20070028 <SystemInit+0x28>
20070018:	4a1d      	ldr	r2, [pc, #116]	; (20070090 <SystemInit+0x90>)
2007001a:	4b1c      	ldr	r3, [pc, #112]	; (2007008c <SystemInit+0x8c>)
2007001c:	621a      	str	r2, [r3, #32]
2007001e:	461a      	mov	r2, r3
20070020:	6e93      	ldr	r3, [r2, #104]	; 0x68
20070022:	f013 0f01 	tst.w	r3, #1
20070026:	d0fb      	beq.n	20070020 <SystemInit+0x20>
20070028:	4a1a      	ldr	r2, [pc, #104]	; (20070094 <SystemInit+0x94>)
2007002a:	4b18      	ldr	r3, [pc, #96]	; (2007008c <SystemInit+0x8c>)
2007002c:	621a      	str	r2, [r3, #32]
2007002e:	461a      	mov	r2, r3
20070030:	6e93      	ldr	r3, [r2, #104]	; 0x68
20070032:	f413 3f80 	tst.w	r3, #65536	; 0x10000
20070036:	d0fb      	beq.n	20070030 <SystemInit+0x30>
20070038:	4b14      	ldr	r3, [pc, #80]	; (2007008c <SystemInit+0x8c>)
2007003a:	6b1a      	ldr	r2, [r3, #48]	; 0x30
2007003c:	f022 0203 	bic.w	r2, r2, #3
20070040:	f042 0201 	orr.w	r2, r2, #1
20070044:	631a      	str	r2, [r3, #48]	; 0x30
20070046:	461a      	mov	r2, r3
20070048:	6e93      	ldr	r3, [r2, #104]	; 0x68
2007004a:	f013 0f08 	tst.w	r3, #8
2007004e:	d0fb      	beq.n	20070048 <SystemInit+0x48>
20070050:	4a11      	ldr	r2, [pc, #68]	; (20070098 <SystemInit+0x98>)
20070052:	4b0e      	ldr	r3, [pc, #56]	; (2007008c <SystemInit+0x8c>)
20070054:	629a      	str	r2, [r3, #40]	; 0x28
20070056:	461a      	mov	r2, r3
20070058:	6e93      	ldr	r3, [r2, #104]	; 0x68
2007005a:	f013 0f02 	tst.w	r3, #2
2007005e:	d0fb      	beq.n	20070058 <SystemInit+0x58>
20070060:	2211      	movs	r2, #17
20070062:	4b0a      	ldr	r3, [pc, #40]	; (2007008c <SystemInit+0x8c>)
20070064:	631a      	str	r2, [r3, #48]	; 0x30
20070066:	461a      	mov	r2, r3
20070068:	6e93      	ldr	r3, [r2, #104]	; 0x68
2007006a:	f013 0f08 	tst.w	r3, #8
2007006e:	d0fb      	beq.n	20070068 <SystemInit+0x68>
20070070:	2212      	movs	r2, #18
20070072:	4b06      	ldr	r3, [pc, #24]	; (2007008c <SystemInit+0x8c>)
20070074:	631a      	str	r2, [r3, #48]	; 0x30
20070076:	461a      	mov	r2, r3
20070078:	6e93      	ldr	r3, [r2, #104]	; 0x68
2007007a:	f013 0f08 	tst.w	r3, #8
2007007e:	d0fb      	beq.n	20070078 <SystemInit+0x78>
20070080:	4a06      	ldr	r2, [pc, #24]	; (2007009c <SystemInit+0x9c>)
20070082:	4b07      	ldr	r3, [pc, #28]	; (200700a0 <SystemInit+0xa0>)
20070084:	601a      	str	r2, [r3, #0]
20070086:	4770      	bx	lr
20070088:	400e0a00 	.word	0x400e0a00
2007008c:	400e0600 	.word	0x400e0600
20070090:	00370809 	.word	0x00370809
20070094:	01370809 	.word	0x01370809
20070098:	200d3f01 	.word	0x200d3f01
2007009c:	0501bd00 	.word	0x0501bd00
200700a0:	2007013c 	.word	0x2007013c

200700a4 <system_init_flash>:
200700a4:	4b1b      	ldr	r3, [pc, #108]	; (20070114 <system_init_flash+0x70>)
200700a6:	4298      	cmp	r0, r3
200700a8:	d806      	bhi.n	200700b8 <system_init_flash+0x14>
200700aa:	2300      	movs	r3, #0
200700ac:	4a1a      	ldr	r2, [pc, #104]	; (20070118 <system_init_flash+0x74>)
200700ae:	6013      	str	r3, [r2, #0]
200700b0:	f502 7200 	add.w	r2, r2, #512	; 0x200
200700b4:	6013      	str	r3, [r2, #0]
200700b6:	4770      	bx	lr
200700b8:	4b18      	ldr	r3, [pc, #96]	; (2007011c <system_init_flash+0x78>)
200700ba:	4298      	cmp	r0, r3
200700bc:	d807      	bhi.n	200700ce <system_init_flash+0x2a>
200700be:	f44f 7380 	mov.w	r3, #256	; 0x100
200700c2:	4a15      	ldr	r2, [pc, #84]	; (20070118 <system_init_flash+0x74>)
200700c4:	6013      	str	r3, [r2, #0]
200700c6:	f502 7200 	add.w	r2, r2, #512	; 0x200
200700ca:	6013      	str	r3, [r2, #0]
200700cc:	4770      	bx	lr
200700ce:	4b14      	ldr	r3, [pc, #80]	; (20070120 <system_init_flash+0x7c>)
200700d0:	4298      	cmp	r0, r3
200700d2:	d807      	bhi.n	200700e4 <system_init_flash+0x40>
200700d4:	f44f 7300 	mov.w	r3, #512	; 0x200
200700d8:	4a0f      	ldr	r2, [pc, #60]	; (20070118 <system_init_flash+0x74>)
200700da:	6013      	str	r3, [r2, #0]
200700dc:	f502 7200 	add.w	r2, r2, #512	; 0x200
200700e0:	6013      	str	r3, [r2, #0]
200700e2:	4770      	bx	lr
200700e4:	4b0f      	ldr	r3, [pc, #60]	; (20070124 <system_init_flash+0x80>)
200700e6:	4298      	cmp	r0, r3
200700e8:	d807      	bhi.n	200700fa <system_init_flash+0x56>
200700ea:	f44f 7340 	mov.w	r3, #768	; 0x300
200700ee:	4a0a      	ldr	r2, [pc, #40]	; (20070118 <system_init_flash+0x74>)
200700f0:	6013      	str	r3, [r2, #0]
200700f2:	f502 7200 	add.w	r2, r2, #512	; 0x200
200700f6:	6013      	str	r3, [r2, #0]
200700f8:	4770      	bx	lr
200700fa:	4b0b      	ldr	r3, [pc, #44]	; (20070128 <system_init_flash+0x84>)
200700fc:	4298      	cmp	r0, r3
200700fe:	bf94      	ite	ls
20070100:	f44f 6380 	movls.w	r3, #1024	; 0x400
20070104:	f44f 63a0 	movhi.w	r3, #1280	; 0x500
20070108:	4a03      	ldr	r2, [pc, #12]	; (20070118 <system_init_flash+0x74>)
2007010a:	6013      	str	r3, [r2, #0]
2007010c:	f502 7200 	add.w	r2, r2, #512	; 0x200
20070110:	6013      	str	r3, [r2, #0]
20070112:	4770      	bx	lr
20070114:	0121eabf 	.word	0x0121eabf
20070118:	400e0a00 	.word	0x400e0a00
2007011c:	02faf07f 	.word	0x02faf07f
20070120:	03d08fff 	.word	0x03d08fff
20070124:	04c4b3ff 	.word	0x04c4b3ff
20070128:	055d4a7f 	.word	0x055d4a7f

2007012c <a>:
2007012c:	40e00000                                ...@

20070130 <b>:
20070130:	41200000                                .. A

20070134 <c>:
20070134:	40a00000                                ...@

20070138 <d>:
20070138:	40c00000                                ...@

2007013c <SystemCoreClock>:
2007013c:	003d0900                                ..=.

20070140 <uxCriticalNesting>:
20070140:	aaaaaaaa                                ....

20070144 <xFreeBytesRemaining>:
20070144:	00008000                                ....

20070148 <xNextTaskUnblockTime>:
20070148:	0001ffff                                         ..

2007014a <__fdlib_version>:
2007014a:	00000001 00000000                                ......

20070150 <impure_data>:
20070150:	00000000 2007043c 200704a4 2007050c     ....<.. ... ... 
	...
20070184:	0008aa78 00000000 00000000 00000000     x...............
	...
200701f8:	00000001 00000000 abcd330e e66d1234     .........3..4.m.
20070208:	0005deec 0000000b 00000000 00000000     ................
	...

20070578 <_impure_ptr>:
20070578:	20070150                                P.. 

2007057c <lconv>:
2007057c:	0008ab1c 0008a7dc 0008a7dc 0008a7dc     ................
2007058c:	0008a7dc 0008a7dc 0008a7dc 0008a7dc     ................
2007059c:	0008a7dc 0008a7dc ffffffff ffffffff     ................
200705ac:	ffffffff 0000ffff                       ........

200705b4 <lc_ctype_charset>:
200705b4:	49435341 00000049 00000000 00000000     ASCII...........
	...

200705d4 <__mb_cur_max>:
200705d4:	00000001                                ....

200705d8 <__malloc_av_>:
	...
200705e0:	200705d8 200705d8 200705e0 200705e0     ... ... ... ... 
200705f0:	200705e8 200705e8 200705f0 200705f0     ... ... ... ... 
20070600:	200705f8 200705f8 20070600 20070600     ... ... ... ... 
20070610:	20070608 20070608 20070610 20070610     ... ... ... ... 
20070620:	20070618 20070618 20070620 20070620     ... ...  ..  .. 
20070630:	20070628 20070628 20070630 20070630     (.. (.. 0.. 0.. 
20070640:	20070638 20070638 20070640 20070640     8.. 8.. @.. @.. 
20070650:	20070648 20070648 20070650 20070650     H.. H.. P.. P.. 
20070660:	20070658 20070658 20070660 20070660     X.. X.. `.. `.. 
20070670:	20070668 20070668 20070670 20070670     h.. h.. p.. p.. 
20070680:	20070678 20070678 20070680 20070680     x.. x.. ... ... 
20070690:	20070688 20070688 20070690 20070690     ... ... ... ... 
200706a0:	20070698 20070698 200706a0 200706a0     ... ... ... ... 
200706b0:	200706a8 200706a8 200706b0 200706b0     ... ... ... ... 
200706c0:	200706b8 200706b8 200706c0 200706c0     ... ... ... ... 
200706d0:	200706c8 200706c8 200706d0 200706d0     ... ... ... ... 
200706e0:	200706d8 200706d8 200706e0 200706e0     ... ... ... ... 
200706f0:	200706e8 200706e8 200706f0 200706f0     ... ... ... ... 
20070700:	200706f8 200706f8 20070700 20070700     ... ... ... ... 
20070710:	20070708 20070708 20070710 20070710     ... ... ... ... 
20070720:	20070718 20070718 20070720 20070720     ... ...  ..  .. 
20070730:	20070728 20070728 20070730 20070730     (.. (.. 0.. 0.. 
20070740:	20070738 20070738 20070740 20070740     8.. 8.. @.. @.. 
20070750:	20070748 20070748 20070750 20070750     H.. H.. P.. P.. 
20070760:	20070758 20070758 20070760 20070760     X.. X.. `.. `.. 
20070770:	20070768 20070768 20070770 20070770     h.. h.. p.. p.. 
20070780:	20070778 20070778 20070780 20070780     x.. x.. ... ... 
20070790:	20070788 20070788 20070790 20070790     ... ... ... ... 
200707a0:	20070798 20070798 200707a0 200707a0     ... ... ... ... 
200707b0:	200707a8 200707a8 200707b0 200707b0     ... ... ... ... 
200707c0:	200707b8 200707b8 200707c0 200707c0     ... ... ... ... 
200707d0:	200707c8 200707c8 200707d0 200707d0     ... ... ... ... 
200707e0:	200707d8 200707d8 200707e0 200707e0     ... ... ... ... 
200707f0:	200707e8 200707e8 200707f0 200707f0     ... ... ... ... 
20070800:	200707f8 200707f8 20070800 20070800     ... ... ... ... 
20070810:	20070808 20070808 20070810 20070810     ... ... ... ... 
20070820:	20070818 20070818 20070820 20070820     ... ...  ..  .. 
20070830:	20070828 20070828 20070830 20070830     (.. (.. 0.. 0.. 
20070840:	20070838 20070838 20070840 20070840     8.. 8.. @.. @.. 
20070850:	20070848 20070848 20070850 20070850     H.. H.. P.. P.. 
20070860:	20070858 20070858 20070860 20070860     X.. X.. `.. `.. 
20070870:	20070868 20070868 20070870 20070870     h.. h.. p.. p.. 
20070880:	20070878 20070878 20070880 20070880     x.. x.. ... ... 
20070890:	20070888 20070888 20070890 20070890     ... ... ... ... 
200708a0:	20070898 20070898 200708a0 200708a0     ... ... ... ... 
200708b0:	200708a8 200708a8 200708b0 200708b0     ... ... ... ... 
200708c0:	200708b8 200708b8 200708c0 200708c0     ... ... ... ... 
200708d0:	200708c8 200708c8 200708d0 200708d0     ... ... ... ... 
200708e0:	200708d8 200708d8 200708e0 200708e0     ... ... ... ... 
200708f0:	200708e8 200708e8 200708f0 200708f0     ... ... ... ... 
20070900:	200708f8 200708f8 20070900 20070900     ... ... ... ... 
20070910:	20070908 20070908 20070910 20070910     ... ... ... ... 
20070920:	20070918 20070918 20070920 20070920     ... ...  ..  .. 
20070930:	20070928 20070928 20070930 20070930     (.. (.. 0.. 0.. 
20070940:	20070938 20070938 20070940 20070940     8.. 8.. @.. @.. 
20070950:	20070948 20070948 20070950 20070950     H.. H.. P.. P.. 
20070960:	20070958 20070958 20070960 20070960     X.. X.. `.. `.. 
20070970:	20070968 20070968 20070970 20070970     h.. h.. p.. p.. 
20070980:	20070978 20070978 20070980 20070980     x.. x.. ... ... 
20070990:	20070988 20070988 20070990 20070990     ... ... ... ... 
200709a0:	20070998 20070998 200709a0 200709a0     ... ... ... ... 
200709b0:	200709a8 200709a8 200709b0 200709b0     ... ... ... ... 
200709c0:	200709b8 200709b8 200709c0 200709c0     ... ... ... ... 
200709d0:	200709c8 200709c8 200709d0 200709d0     ... ... ... ... 

200709e0 <__malloc_trim_threshold>:
200709e0:	00020000                                ....

200709e4 <__malloc_sbrk_base>:
200709e4:	ffffffff                                ....

200709e8 <__wctomb>:
200709e8:	00089f61                                a...
