
Test_AA.elf:     file format elf32-littlearm

Sections:
Idx Name          Size      VMA       LMA       File off  Algn
  0 .text         00008188  00080000  00080000  00008000  2**3
                  CONTENTS, ALLOC, LOAD, READONLY, CODE
  1 .ARM.exidx    00000008  00088188  00088188  00010188  2**2
                  CONTENTS, ALLOC, LOAD, READONLY, DATA
  2 .relocate     000009dc  20070000  00088190  00018000  2**3
                  CONTENTS, ALLOC, LOAD, CODE
  3 .bss          000001a0  200709dc  00088b6c  000189dc  2**2
                  ALLOC
  4 .stack        00002004  20070b7c  00088d0c  000189dc  2**0
                  ALLOC
  5 .ARM.attributes 00000029  00000000  00000000  000189dc  2**0
                  CONTENTS, READONLY
  6 .comment      0000005b  00000000  00000000  00018a05  2**0
                  CONTENTS, READONLY
  7 .debug_info   000118d6  00000000  00000000  00018a60  2**0
                  CONTENTS, READONLY, DEBUGGING
  8 .debug_abbrev 00003020  00000000  00000000  0002a336  2**0
                  CONTENTS, READONLY, DEBUGGING
  9 .debug_loc    00004d72  00000000  00000000  0002d356  2**0
                  CONTENTS, READONLY, DEBUGGING
 10 .debug_aranges 00000b68  00000000  00000000  000320c8  2**0
                  CONTENTS, READONLY, DEBUGGING
 11 .debug_ranges 00000cb0  00000000  00000000  00032c30  2**0
                  CONTENTS, READONLY, DEBUGGING
 12 .debug_macro  0001a240  00000000  00000000  000338e0  2**0
                  CONTENTS, READONLY, DEBUGGING
 13 .debug_line   00013010  00000000  00000000  0004db20  2**0
                  CONTENTS, READONLY, DEBUGGING
 14 .debug_str    00063f74  00000000  00000000  00060b30  2**0
                  CONTENTS, READONLY, DEBUGGING
 15 .debug_frame  0000271c  00000000  00000000  000c4aa4  2**2
                  CONTENTS, READONLY, DEBUGGING

Disassembly of section .text:

00080000 <_sfixed>:
   80000:	20072b80 	.word	0x20072b80
   80004:	00080f51 	.word	0x00080f51
   80008:	00080f4d 	.word	0x00080f4d
   8000c:	00080f4d 	.word	0x00080f4d
   80010:	00080f4d 	.word	0x00080f4d
   80014:	00080f4d 	.word	0x00080f4d
   80018:	00080f4d 	.word	0x00080f4d
	...
   8002c:	00080f4d 	.word	0x00080f4d
   80030:	00080f4d 	.word	0x00080f4d
   80034:	00000000 	.word	0x00000000
   80038:	00080f4d 	.word	0x00080f4d
   8003c:	00080f4d 	.word	0x00080f4d
   80040:	00080f4d 	.word	0x00080f4d
   80044:	00080f4d 	.word	0x00080f4d
   80048:	00080f4d 	.word	0x00080f4d
   8004c:	00080f4d 	.word	0x00080f4d
   80050:	00080f4d 	.word	0x00080f4d
   80054:	00080f4d 	.word	0x00080f4d
   80058:	00080f4d 	.word	0x00080f4d
   8005c:	00080f4d 	.word	0x00080f4d
   80060:	00080f4d 	.word	0x00080f4d
   80064:	00080f4d 	.word	0x00080f4d
   80068:	00000000 	.word	0x00000000
   8006c:	00080dbd 	.word	0x00080dbd
   80070:	00080dd1 	.word	0x00080dd1
   80074:	00080de5 	.word	0x00080de5
   80078:	00080df9 	.word	0x00080df9
	...
   80084:	000803f9 	.word	0x000803f9
   80088:	0008116d 	.word	0x0008116d
   8008c:	00080f4d 	.word	0x00080f4d
   80090:	00080f4d 	.word	0x00080f4d
   80094:	00080f4d 	.word	0x00080f4d
   80098:	00080f4d 	.word	0x00080f4d
   8009c:	00080f4d 	.word	0x00080f4d
   800a0:	00080f4d 	.word	0x00080f4d
   800a4:	00000000 	.word	0x00000000
   800a8:	00080f4d 	.word	0x00080f4d
   800ac:	00080f4d 	.word	0x00080f4d
   800b0:	00080f4d 	.word	0x00080f4d
   800b4:	00080f4d 	.word	0x00080f4d
   800b8:	00080f4d 	.word	0x00080f4d
   800bc:	00080f4d 	.word	0x00080f4d
   800c0:	00080f4d 	.word	0x00080f4d
   800c4:	00080f4d 	.word	0x00080f4d
   800c8:	00080f4d 	.word	0x00080f4d
   800cc:	00080f4d 	.word	0x00080f4d
   800d0:	00080f4d 	.word	0x00080f4d
   800d4:	00080f4d 	.word	0x00080f4d
   800d8:	00080f4d 	.word	0x00080f4d
   800dc:	00080f4d 	.word	0x00080f4d
   800e0:	00080f4d 	.word	0x00080f4d
   800e4:	00080f4d 	.word	0x00080f4d
   800e8:	00080f4d 	.word	0x00080f4d
   800ec:	00080f4d 	.word	0x00080f4d
   800f0:	00080f4d 	.word	0x00080f4d

000800f4 <__do_global_dtors_aux>:
   800f4:	b510      	push	{r4, lr}
   800f6:	4c05      	ldr	r4, [pc, #20]	; (8010c <__do_global_dtors_aux+0x18>)
   800f8:	7823      	ldrb	r3, [r4, #0]
   800fa:	b933      	cbnz	r3, 8010a <__do_global_dtors_aux+0x16>
   800fc:	4b04      	ldr	r3, [pc, #16]	; (80110 <__do_global_dtors_aux+0x1c>)
   800fe:	b113      	cbz	r3, 80106 <__do_global_dtors_aux+0x12>
   80100:	4804      	ldr	r0, [pc, #16]	; (80114 <__do_global_dtors_aux+0x20>)
   80102:	f3af 8000 	nop.w
   80106:	2301      	movs	r3, #1
   80108:	7023      	strb	r3, [r4, #0]
   8010a:	bd10      	pop	{r4, pc}
   8010c:	200709dc 	.word	0x200709dc
   80110:	00000000 	.word	0x00000000
   80114:	00088190 	.word	0x00088190

00080118 <frame_dummy>:
   80118:	b508      	push	{r3, lr}
   8011a:	4b06      	ldr	r3, [pc, #24]	; (80134 <frame_dummy+0x1c>)
   8011c:	b11b      	cbz	r3, 80126 <frame_dummy+0xe>
   8011e:	4806      	ldr	r0, [pc, #24]	; (80138 <frame_dummy+0x20>)
   80120:	4906      	ldr	r1, [pc, #24]	; (8013c <frame_dummy+0x24>)
   80122:	f3af 8000 	nop.w
   80126:	4806      	ldr	r0, [pc, #24]	; (80140 <frame_dummy+0x28>)
   80128:	6803      	ldr	r3, [r0, #0]
   8012a:	b113      	cbz	r3, 80132 <frame_dummy+0x1a>
   8012c:	4b05      	ldr	r3, [pc, #20]	; (80144 <frame_dummy+0x2c>)
   8012e:	b103      	cbz	r3, 80132 <frame_dummy+0x1a>
   80130:	4798      	blx	r3
   80132:	bd08      	pop	{r3, pc}
   80134:	00000000 	.word	0x00000000
   80138:	00088190 	.word	0x00088190
   8013c:	200709e0 	.word	0x200709e0
   80140:	00088190 	.word	0x00088190
   80144:	00000000 	.word	0x00000000

00080148 <usart_serial_read_packet>:
 * \param len    Length of data
 *
 */
status_code_t usart_serial_read_packet(usart_if usart, uint8_t *data,
		size_t len)
{
   80148:	e92d 4ff0 	stmdb	sp!, {r4, r5, r6, r7, r8, r9, sl, fp, lr}
   8014c:	b083      	sub	sp, #12
   8014e:	4605      	mov	r5, r0
	while (len) {
   80150:	4690      	mov	r8, r2
   80152:	2a00      	cmp	r2, #0
   80154:	d047      	beq.n	801e6 <usart_serial_read_packet+0x9e>
   80156:	1c4e      	adds	r6, r1, #1
		while (usart_read(p_usart, &val));
		*data = (uint8_t)(val & 0xFF);
	}
# endif
# ifdef USART3
	if (USART3 == p_usart) {
   80158:	4f25      	ldr	r7, [pc, #148]	; (801f0 <usart_serial_read_packet+0xa8>)
		while (usart_read(p_usart, &val));
   8015a:	4c26      	ldr	r4, [pc, #152]	; (801f4 <usart_serial_read_packet+0xac>)
		while (usart_read(p_usart, &val));
		*data = (uint8_t)(val & 0xFF);
	}
# endif
# ifdef USART2
	if (USART2 == p_usart) {
   8015c:	f8df a0a8 	ldr.w	sl, [pc, #168]	; 80208 <usart_serial_read_packet+0xc0>
	/* Avoid Cppcheck Warning */
	UNUSED(val);

#ifdef UART
	if (UART == (Uart*)p_usart) {
		while (uart_read((Uart*)p_usart, data));
   80160:	f8df b094 	ldr.w	fp, [pc, #148]	; 801f8 <usart_serial_read_packet+0xb0>
   80164:	f106 39ff 	add.w	r9, r6, #4294967295
 * \param data   Data to read
 *
 */
static inline void usart_serial_getchar(usart_if p_usart, uint8_t *data)
{
	uint32_t val = 0;
   80168:	2300      	movs	r3, #0
   8016a:	9301      	str	r3, [sp, #4]

	/* Avoid Cppcheck Warning */
	UNUSED(val);

#ifdef UART
	if (UART == (Uart*)p_usart) {
   8016c:	4b22      	ldr	r3, [pc, #136]	; (801f8 <usart_serial_read_packet+0xb0>)
   8016e:	429d      	cmp	r5, r3
   80170:	d106      	bne.n	80180 <usart_serial_read_packet+0x38>
		while (uart_read((Uart*)p_usart, data));
   80172:	4658      	mov	r0, fp
   80174:	4649      	mov	r1, r9
   80176:	4b21      	ldr	r3, [pc, #132]	; (801fc <usart_serial_read_packet+0xb4>)
   80178:	4798      	blx	r3
   8017a:	2800      	cmp	r0, #0
   8017c:	d1f9      	bne.n	80172 <usart_serial_read_packet+0x2a>
   8017e:	e019      	b.n	801b4 <usart_serial_read_packet+0x6c>
		while (usart_read(p_usart, &val));
		*data = (uint8_t)(val & 0xFF);
	}
#else
# ifdef USART0
	if (USART0 == p_usart) {
   80180:	4b1f      	ldr	r3, [pc, #124]	; (80200 <usart_serial_read_packet+0xb8>)
   80182:	429d      	cmp	r5, r3
   80184:	d109      	bne.n	8019a <usart_serial_read_packet+0x52>
		while (usart_read(p_usart, &val));
   80186:	4699      	mov	r9, r3
   80188:	4648      	mov	r0, r9
   8018a:	a901      	add	r1, sp, #4
   8018c:	47a0      	blx	r4
   8018e:	2800      	cmp	r0, #0
   80190:	d1fa      	bne.n	80188 <usart_serial_read_packet+0x40>
		*data = (uint8_t)(val & 0xFF);
   80192:	9b01      	ldr	r3, [sp, #4]
   80194:	f806 3c01 	strb.w	r3, [r6, #-1]
   80198:	e017      	b.n	801ca <usart_serial_read_packet+0x82>
	}
# endif
# ifdef USART1
	if (USART1 == p_usart) {
   8019a:	4b1a      	ldr	r3, [pc, #104]	; (80204 <usart_serial_read_packet+0xbc>)
   8019c:	429d      	cmp	r5, r3
   8019e:	d109      	bne.n	801b4 <usart_serial_read_packet+0x6c>
		while (usart_read(p_usart, &val));
   801a0:	4699      	mov	r9, r3
   801a2:	4648      	mov	r0, r9
   801a4:	a901      	add	r1, sp, #4
   801a6:	47a0      	blx	r4
   801a8:	2800      	cmp	r0, #0
   801aa:	d1fa      	bne.n	801a2 <usart_serial_read_packet+0x5a>
		*data = (uint8_t)(val & 0xFF);
   801ac:	9b01      	ldr	r3, [sp, #4]
   801ae:	f806 3c01 	strb.w	r3, [r6, #-1]
   801b2:	e014      	b.n	801de <usart_serial_read_packet+0x96>
	}
# endif
# ifdef USART2
	if (USART2 == p_usart) {
   801b4:	4555      	cmp	r5, sl
   801b6:	d108      	bne.n	801ca <usart_serial_read_packet+0x82>
		while (usart_read(p_usart, &val));
   801b8:	4650      	mov	r0, sl
   801ba:	a901      	add	r1, sp, #4
   801bc:	47a0      	blx	r4
   801be:	2800      	cmp	r0, #0
   801c0:	d1fa      	bne.n	801b8 <usart_serial_read_packet+0x70>
		*data = (uint8_t)(val & 0xFF);
   801c2:	9b01      	ldr	r3, [sp, #4]
   801c4:	f806 3c01 	strb.w	r3, [r6, #-1]
   801c8:	e009      	b.n	801de <usart_serial_read_packet+0x96>
	}
# endif
# ifdef USART3
	if (USART3 == p_usart) {
   801ca:	42bd      	cmp	r5, r7
   801cc:	d107      	bne.n	801de <usart_serial_read_packet+0x96>
		while (usart_read(p_usart, &val));
   801ce:	4638      	mov	r0, r7
   801d0:	a901      	add	r1, sp, #4
   801d2:	47a0      	blx	r4
   801d4:	2800      	cmp	r0, #0
   801d6:	d1fa      	bne.n	801ce <usart_serial_read_packet+0x86>
		*data = (uint8_t)(val & 0xFF);
   801d8:	9b01      	ldr	r3, [sp, #4]
   801da:	f806 3c01 	strb.w	r3, [r6, #-1]
   801de:	3601      	adds	r6, #1
   801e0:	f1b8 0801 	subs.w	r8, r8, #1
   801e4:	d1be      	bne.n	80164 <usart_serial_read_packet+0x1c>
		usart_serial_getchar(usart, data);
		len--;
		data++;
	}
	return STATUS_OK;
}
   801e6:	2000      	movs	r0, #0
   801e8:	b003      	add	sp, #12
   801ea:	e8bd 8ff0 	ldmia.w	sp!, {r4, r5, r6, r7, r8, r9, sl, fp, pc}
   801ee:	bf00      	nop
   801f0:	400a4000 	.word	0x400a4000
   801f4:	000803e1 	.word	0x000803e1
   801f8:	400e0800 	.word	0x400e0800
   801fc:	000802dd 	.word	0x000802dd
   80200:	40098000 	.word	0x40098000
   80204:	4009c000 	.word	0x4009c000
   80208:	400a0000 	.word	0x400a0000

0008020c <_read>:
int __attribute__((weak))
_read (int file, char * ptr, int len); // Remove GCC compiler warning

int __attribute__((weak))
_read (int file, char * ptr, int len)
{
   8020c:	e92d 41f0 	stmdb	sp!, {r4, r5, r6, r7, r8, lr}
   80210:	460c      	mov	r4, r1
   80212:	4690      	mov	r8, r2
	int nChars = 0;

	if (file != 0) {
   80214:	b960      	cbnz	r0, 80230 <_read+0x24>
		return -1;
	}

	for (; len > 0; --len) {
   80216:	2a00      	cmp	r2, #0
   80218:	dd0e      	ble.n	80238 <_read+0x2c>
   8021a:	188f      	adds	r7, r1, r2
		ptr_get(stdio_base, ptr);
   8021c:	4e09      	ldr	r6, [pc, #36]	; (80244 <_read+0x38>)
   8021e:	4d0a      	ldr	r5, [pc, #40]	; (80248 <_read+0x3c>)
   80220:	6830      	ldr	r0, [r6, #0]
   80222:	4621      	mov	r1, r4
   80224:	682b      	ldr	r3, [r5, #0]
   80226:	4798      	blx	r3
		ptr++;
   80228:	3401      	adds	r4, #1

	if (file != 0) {
		return -1;
	}

	for (; len > 0; --len) {
   8022a:	42bc      	cmp	r4, r7
   8022c:	d1f8      	bne.n	80220 <_read+0x14>
   8022e:	e006      	b.n	8023e <_read+0x32>
_read (int file, char * ptr, int len)
{
	int nChars = 0;

	if (file != 0) {
		return -1;
   80230:	f04f 30ff 	mov.w	r0, #4294967295
   80234:	e8bd 81f0 	ldmia.w	sp!, {r4, r5, r6, r7, r8, pc}
	}

	for (; len > 0; --len) {
   80238:	2000      	movs	r0, #0
   8023a:	e8bd 81f0 	ldmia.w	sp!, {r4, r5, r6, r7, r8, pc}
		ptr_get(stdio_base, ptr);
		ptr++;
		nChars++;
   8023e:	4640      	mov	r0, r8
	}
	return nChars;
}
   80240:	e8bd 81f0 	ldmia.w	sp!, {r4, r5, r6, r7, r8, pc}
   80244:	20070b64 	.word	0x20070b64
   80248:	20070b5c 	.word	0x20070b5c

0008024c <_write>:
int __attribute__((weak))
_write (int file, const char *ptr, int len);

int __attribute__((weak))
_write (int file, const char *ptr, int len)
{
   8024c:	e92d 41f0 	stmdb	sp!, {r4, r5, r6, r7, r8, lr}
   80250:	460e      	mov	r6, r1
   80252:	4615      	mov	r5, r2
	int nChars = 0;

	if ((file != 1) && (file != 2) && (file!=3)) {
   80254:	3801      	subs	r0, #1
   80256:	2802      	cmp	r0, #2
   80258:	d80f      	bhi.n	8027a <_write+0x2e>
		return -1;
	}

	for (; len != 0; --len) {
   8025a:	b192      	cbz	r2, 80282 <_write+0x36>
   8025c:	2400      	movs	r4, #0
		if (ptr_put(stdio_base, *ptr++) < 0) {
   8025e:	f8df 803c 	ldr.w	r8, [pc, #60]	; 8029c <_write+0x50>
   80262:	4f0d      	ldr	r7, [pc, #52]	; (80298 <_write+0x4c>)
   80264:	f8d8 0000 	ldr.w	r0, [r8]
   80268:	5d31      	ldrb	r1, [r6, r4]
   8026a:	683b      	ldr	r3, [r7, #0]
   8026c:	4798      	blx	r3
   8026e:	2800      	cmp	r0, #0
   80270:	db0a      	blt.n	80288 <_write+0x3c>
			return -1;
		}
		++nChars;
   80272:	3401      	adds	r4, #1

	if ((file != 1) && (file != 2) && (file!=3)) {
		return -1;
	}

	for (; len != 0; --len) {
   80274:	42a5      	cmp	r5, r4
   80276:	d1f5      	bne.n	80264 <_write+0x18>
   80278:	e00a      	b.n	80290 <_write+0x44>
_write (int file, const char *ptr, int len)
{
	int nChars = 0;

	if ((file != 1) && (file != 2) && (file!=3)) {
		return -1;
   8027a:	f04f 30ff 	mov.w	r0, #4294967295
   8027e:	e8bd 81f0 	ldmia.w	sp!, {r4, r5, r6, r7, r8, pc}
	}

	for (; len != 0; --len) {
   80282:	2000      	movs	r0, #0
   80284:	e8bd 81f0 	ldmia.w	sp!, {r4, r5, r6, r7, r8, pc}
		if (ptr_put(stdio_base, *ptr++) < 0) {
			return -1;
   80288:	f04f 30ff 	mov.w	r0, #4294967295
   8028c:	e8bd 81f0 	ldmia.w	sp!, {r4, r5, r6, r7, r8, pc}
		}
		++nChars;
   80290:	4620      	mov	r0, r4
	}
	return nChars;
}
   80292:	e8bd 81f0 	ldmia.w	sp!, {r4, r5, r6, r7, r8, pc}
   80296:	bf00      	nop
   80298:	20070b60 	.word	0x20070b60
   8029c:	20070b64 	.word	0x20070b64

000802a0 <tc_init>:
 */
void tc_init(
		Tc *p_tc,
		uint32_t ul_channel,
		uint32_t ul_mode)
{
   802a0:	b410      	push	{r4}

	/* Validate inputs. */
	Assert(p_tc);
	Assert(ul_channel <
			(sizeof(p_tc->TC_CHANNEL) / sizeof(p_tc->TC_CHANNEL[0])));
	tc_channel = p_tc->TC_CHANNEL + ul_channel;
   802a2:	0189      	lsls	r1, r1, #6
   802a4:	1843      	adds	r3, r0, r1

	/*  Disable TC clock. */
	tc_channel->TC_CCR = TC_CCR_CLKDIS;
   802a6:	2402      	movs	r4, #2
   802a8:	5044      	str	r4, [r0, r1]

	/*  Disable interrupts. */
	tc_channel->TC_IDR = 0xFFFFFFFF;
   802aa:	f04f 31ff 	mov.w	r1, #4294967295
   802ae:	6299      	str	r1, [r3, #40]	; 0x28

	/*  Clear status register. */
	tc_channel->TC_SR;
   802b0:	6a19      	ldr	r1, [r3, #32]

	/*  Set mode. */
	tc_channel->TC_CMR = ul_mode;
   802b2:	605a      	str	r2, [r3, #4]
}
   802b4:	f85d 4b04 	ldr.w	r4, [sp], #4
   802b8:	4770      	bx	lr
   802ba:	bf00      	nop

000802bc <tc_set_block_mode>:
		uint32_t ul_blockmode)
{
	/* Validate inputs. */
	Assert(p_tc);
	
	p_tc->TC_BMR = ul_blockmode;
   802bc:	f8c0 10c4 	str.w	r1, [r0, #196]	; 0xc4
   802c0:	4770      	bx	lr
   802c2:	bf00      	nop

000802c4 <tc_start>:
	/* Validate inputs. */
	Assert(p_tc);
	Assert(ul_channel <
			(sizeof(p_tc->TC_CHANNEL) / sizeof(p_tc->TC_CHANNEL[0])));

	p_tc->TC_CHANNEL[ul_channel].TC_CCR = TC_CCR_CLKEN | TC_CCR_SWTRG;
   802c4:	0189      	lsls	r1, r1, #6
   802c6:	2305      	movs	r3, #5
   802c8:	5043      	str	r3, [r0, r1]
   802ca:	4770      	bx	lr

000802cc <tc_stop>:
	/* Validate inputs. */
	Assert(p_tc);
	Assert(ul_channel <
			(sizeof(p_tc->TC_CHANNEL) / sizeof(p_tc->TC_CHANNEL[0])));

	p_tc->TC_CHANNEL[ul_channel].TC_CCR = TC_CCR_CLKDIS;
   802cc:	0189      	lsls	r1, r1, #6
   802ce:	2302      	movs	r3, #2
   802d0:	5043      	str	r3, [r0, r1]
   802d2:	4770      	bx	lr

000802d4 <tc_read_cv>:
	/* Validate inputs. */
	Assert(p_tc);
	Assert(ul_channel <
			(sizeof(p_tc->TC_CHANNEL) / sizeof(p_tc->TC_CHANNEL[0])));

	return p_tc->TC_CHANNEL[ul_channel].TC_CV;
   802d4:	eb00 1181 	add.w	r1, r0, r1, lsl #6
   802d8:	6908      	ldr	r0, [r1, #16]
}
   802da:	4770      	bx	lr

000802dc <uart_read>:
 * \retval 1 I/O Failure, UART is not ready.
 */
uint32_t uart_read(Uart *p_uart, uint8_t *puc_data)
{
	/* Check if the receiver is ready */
	if ((p_uart->UART_SR & UART_SR_RXRDY) == 0)
   802dc:	6943      	ldr	r3, [r0, #20]
   802de:	f013 0f01 	tst.w	r3, #1
		return 1;

	/* Read character */
	*puc_data = (uint8_t) p_uart->UART_RHR;
   802e2:	bf1d      	ittte	ne
   802e4:	6983      	ldrne	r3, [r0, #24]
   802e6:	700b      	strbne	r3, [r1, #0]
	return 0;
   802e8:	2000      	movne	r0, #0
 */
uint32_t uart_read(Uart *p_uart, uint8_t *puc_data)
{
	/* Check if the receiver is ready */
	if ((p_uart->UART_SR & UART_SR_RXRDY) == 0)
		return 1;
   802ea:	2001      	moveq	r0, #1

	/* Read character */
	*puc_data = (uint8_t) p_uart->UART_RHR;
	return 0;
}
   802ec:	4770      	bx	lr
   802ee:	bf00      	nop

000802f0 <usart_set_async_baudrate>:
 * \retval 1 Baud rate set point is out of range for the given input clock
 * frequency.
 */
uint32_t usart_set_async_baudrate(Usart *p_usart,
		uint32_t baudrate, uint32_t ul_mck)
{
   802f0:	b410      	push	{r4}
	uint32_t cd_fp;
	uint32_t cd;
	uint32_t fp;

	/* Calculate the receiver sampling divide of baudrate clock. */
	if (ul_mck >= HIGH_FRQ_SAMPLE_DIV * baudrate) {
   802f2:	010b      	lsls	r3, r1, #4
   802f4:	4293      	cmp	r3, r2
   802f6:	d90d      	bls.n	80314 <usart_set_async_baudrate+0x24>
   802f8:	e01a      	b.n	80330 <usart_set_async_baudrate+0x40>
		return 1;
	}

	/* Configure the OVER bit in MR register. */
	if (over == 8) {
		p_usart->US_MR |= US_MR_OVER;
   802fa:	6841      	ldr	r1, [r0, #4]
   802fc:	f441 2100 	orr.w	r1, r1, #524288	; 0x80000
   80300:	6041      	str	r1, [r0, #4]
	}

	/* Configure the baudrate generate register. */
	p_usart->US_BRGR = (cd << US_BRGR_CD_Pos) | (fp << US_BRGR_FP_Pos);
   80302:	ea42 4303 	orr.w	r3, r2, r3, lsl #16
   80306:	6203      	str	r3, [r0, #32]

	return 0;
   80308:	2000      	movs	r0, #0
   8030a:	e020      	b.n	8034e <usart_set_async_baudrate+0x5e>
	/* Calculate clock divider according to the fraction calculated formula. */
	cd_fp = (8 * ul_mck + (over * baudrate) / 2) / (over * baudrate);
	cd = cd_fp >> 3;
	fp = cd_fp & 0x07;
	if (cd < MIN_CD_VALUE || cd > MAX_CD_VALUE) {
		return 1;
   8030c:	2001      	movs	r0, #1
   8030e:	e01e      	b.n	8034e <usart_set_async_baudrate+0x5e>
   80310:	2001      	movs	r0, #1
   80312:	e01c      	b.n	8034e <usart_set_async_baudrate+0x5e>
	} else {
		over = LOW_FRQ_SAMPLE_DIV;
	}

	/* Calculate clock divider according to the fraction calculated formula. */
	cd_fp = (8 * ul_mck + (over * baudrate) / 2) / (over * baudrate);
   80314:	00d2      	lsls	r2, r2, #3
   80316:	eb02 0253 	add.w	r2, r2, r3, lsr #1
   8031a:	fbb2 f3f3 	udiv	r3, r2, r3
	cd = cd_fp >> 3;
   8031e:	08da      	lsrs	r2, r3, #3
	fp = cd_fp & 0x07;
   80320:	f003 0307 	and.w	r3, r3, #7
	if (cd < MIN_CD_VALUE || cd > MAX_CD_VALUE) {
   80324:	1e54      	subs	r4, r2, #1
   80326:	f64f 71fe 	movw	r1, #65534	; 0xfffe
   8032a:	428c      	cmp	r4, r1
   8032c:	d9e9      	bls.n	80302 <usart_set_async_baudrate+0x12>
   8032e:	e7ed      	b.n	8030c <usart_set_async_baudrate+0x1c>
	} else {
		over = LOW_FRQ_SAMPLE_DIV;
	}

	/* Calculate clock divider according to the fraction calculated formula. */
	cd_fp = (8 * ul_mck + (over * baudrate) / 2) / (over * baudrate);
   80330:	00c9      	lsls	r1, r1, #3
   80332:	00d3      	lsls	r3, r2, #3
   80334:	eb03 0351 	add.w	r3, r3, r1, lsr #1
   80338:	fbb3 f3f1 	udiv	r3, r3, r1
	cd = cd_fp >> 3;
   8033c:	08da      	lsrs	r2, r3, #3
	fp = cd_fp & 0x07;
   8033e:	f003 0307 	and.w	r3, r3, #7
	if (cd < MIN_CD_VALUE || cd > MAX_CD_VALUE) {
   80342:	1e54      	subs	r4, r2, #1
   80344:	f64f 71fe 	movw	r1, #65534	; 0xfffe
   80348:	428c      	cmp	r4, r1
   8034a:	d9d6      	bls.n	802fa <usart_set_async_baudrate+0xa>
   8034c:	e7e0      	b.n	80310 <usart_set_async_baudrate+0x20>

	/* Configure the baudrate generate register. */
	p_usart->US_BRGR = (cd << US_BRGR_CD_Pos) | (fp << US_BRGR_FP_Pos);

	return 0;
}
   8034e:	f85d 4b04 	ldr.w	r4, [sp], #4
   80352:	4770      	bx	lr

00080354 <usart_reset>:
 *
 * \param p_usart Pointer to a USART instance.
 */
void usart_disable_writeprotect(Usart *p_usart)
{
	p_usart->US_WPMR = US_WPMR_WPKEY_PASSWD;
   80354:	4b08      	ldr	r3, [pc, #32]	; (80378 <usart_reset+0x24>)
   80356:	f8c0 30e4 	str.w	r3, [r0, #228]	; 0xe4
{
	/* Disable the Write Protect. */
	usart_disable_writeprotect(p_usart);

	/* Reset registers that could cause unpredictable behavior after reset. */
	p_usart->US_MR = 0;
   8035a:	2300      	movs	r3, #0
   8035c:	6043      	str	r3, [r0, #4]
	p_usart->US_RTOR = 0;
   8035e:	6243      	str	r3, [r0, #36]	; 0x24
	p_usart->US_TTGR = 0;
   80360:	6283      	str	r3, [r0, #40]	; 0x28
 * \param p_usart Pointer to a USART instance.
 */
void usart_reset_tx(Usart *p_usart)
{
	/* Reset transmitter */
	p_usart->US_CR = US_CR_RSTTX | US_CR_TXDIS;
   80362:	2388      	movs	r3, #136	; 0x88
   80364:	6003      	str	r3, [r0, #0]
 * \param p_usart Pointer to a USART instance.
 */
void usart_reset_rx(Usart *p_usart)
{
	/* Reset Receiver */
	p_usart->US_CR = US_CR_RSTRX | US_CR_RXDIS;
   80366:	2324      	movs	r3, #36	; 0x24
   80368:	6003      	str	r3, [r0, #0]
 *
 * \param p_usart Pointer to a USART instance.
 */
void usart_reset_status(Usart *p_usart)
{
	p_usart->US_CR = US_CR_RSTSTA;
   8036a:	f44f 7380 	mov.w	r3, #256	; 0x100
   8036e:	6003      	str	r3, [r0, #0]
 *
 * \param p_usart Pointer to a USART instance.
 */
void usart_drive_RTS_pin_high(Usart *p_usart)
{
	p_usart->US_CR = US_CR_RTSDIS;
   80370:	f44f 2300 	mov.w	r3, #524288	; 0x80000
   80374:	6003      	str	r3, [r0, #0]
   80376:	4770      	bx	lr
   80378:	55534100 	.word	0x55534100

0008037c <usart_init_rs232>:
 * \retval 0 on success.
 * \retval 1 on failure.
 */
uint32_t usart_init_rs232(Usart *p_usart,
		const sam_usart_opt_t *p_usart_opt, uint32_t ul_mck)
{
   8037c:	b570      	push	{r4, r5, r6, lr}
   8037e:	4605      	mov	r5, r0
   80380:	460c      	mov	r4, r1
   80382:	4616      	mov	r6, r2
	static uint32_t ul_reg_val;

	/* Reset the USART and shut down TX and RX. */
	usart_reset(p_usart);
   80384:	4b0f      	ldr	r3, [pc, #60]	; (803c4 <usart_init_rs232+0x48>)
   80386:	4798      	blx	r3

	ul_reg_val = 0;
   80388:	2100      	movs	r1, #0
   8038a:	4b0f      	ldr	r3, [pc, #60]	; (803c8 <usart_init_rs232+0x4c>)
   8038c:	6019      	str	r1, [r3, #0]
	/* Check whether the input values are legal. */
	if (!p_usart_opt || usart_set_async_baudrate(p_usart,
   8038e:	b19c      	cbz	r4, 803b8 <usart_init_rs232+0x3c>
   80390:	4628      	mov	r0, r5
   80392:	6821      	ldr	r1, [r4, #0]
   80394:	4632      	mov	r2, r6
   80396:	4b0d      	ldr	r3, [pc, #52]	; (803cc <usart_init_rs232+0x50>)
   80398:	4798      	blx	r3
   8039a:	4603      	mov	r3, r0
   8039c:	b970      	cbnz	r0, 803bc <usart_init_rs232+0x40>
			p_usart_opt->baudrate, ul_mck)) {
		return 1;
	}

	/* Configure the USART option. */
	ul_reg_val |= p_usart_opt->char_length | p_usart_opt->parity_type |
   8039e:	68a1      	ldr	r1, [r4, #8]
   803a0:	6862      	ldr	r2, [r4, #4]
   803a2:	430a      	orrs	r2, r1
   803a4:	6921      	ldr	r1, [r4, #16]
   803a6:	430a      	orrs	r2, r1
			p_usart_opt->channel_mode | p_usart_opt->stop_bits;
   803a8:	68e0      	ldr	r0, [r4, #12]
   803aa:	4302      	orrs	r2, r0
			p_usart_opt->baudrate, ul_mck)) {
		return 1;
	}

	/* Configure the USART option. */
	ul_reg_val |= p_usart_opt->char_length | p_usart_opt->parity_type |
   803ac:	4906      	ldr	r1, [pc, #24]	; (803c8 <usart_init_rs232+0x4c>)
   803ae:	600a      	str	r2, [r1, #0]
			p_usart_opt->channel_mode | p_usart_opt->stop_bits;

	/* Configure the USART mode as normal mode. */
	ul_reg_val |= US_MR_USART_MODE_NORMAL;

	p_usart->US_MR |= ul_reg_val;
   803b0:	6869      	ldr	r1, [r5, #4]
   803b2:	430a      	orrs	r2, r1
   803b4:	606a      	str	r2, [r5, #4]

	return 0;
   803b6:	e002      	b.n	803be <usart_init_rs232+0x42>

	ul_reg_val = 0;
	/* Check whether the input values are legal. */
	if (!p_usart_opt || usart_set_async_baudrate(p_usart,
			p_usart_opt->baudrate, ul_mck)) {
		return 1;
   803b8:	2301      	movs	r3, #1
   803ba:	e000      	b.n	803be <usart_init_rs232+0x42>
   803bc:	2301      	movs	r3, #1
	ul_reg_val |= US_MR_USART_MODE_NORMAL;

	p_usart->US_MR |= ul_reg_val;

	return 0;
}
   803be:	4618      	mov	r0, r3
   803c0:	bd70      	pop	{r4, r5, r6, pc}
   803c2:	bf00      	nop
   803c4:	00080355 	.word	0x00080355
   803c8:	200709f8 	.word	0x200709f8
   803cc:	000802f1 	.word	0x000802f1

000803d0 <usart_enable_tx>:
 *
 * \param p_usart Pointer to a USART instance.
 */
void usart_enable_tx(Usart *p_usart)
{
	p_usart->US_CR = US_CR_TXEN;
   803d0:	2340      	movs	r3, #64	; 0x40
   803d2:	6003      	str	r3, [r0, #0]
   803d4:	4770      	bx	lr
   803d6:	bf00      	nop

000803d8 <usart_enable_rx>:
 *
 * \param p_usart Pointer to a USART instance.
 */
void usart_enable_rx(Usart *p_usart)
{
	p_usart->US_CR = US_CR_RXEN;
   803d8:	2310      	movs	r3, #16
   803da:	6003      	str	r3, [r0, #0]
   803dc:	4770      	bx	lr
   803de:	bf00      	nop

000803e0 <usart_read>:
 * \retval 0 on success.
 * \retval 1 if no data is available or errors.
 */
uint32_t usart_read(Usart *p_usart, uint32_t *c)
{
	if (!(p_usart->US_CSR & US_CSR_RXRDY)) {
   803e0:	6943      	ldr	r3, [r0, #20]
   803e2:	f013 0f01 	tst.w	r3, #1
   803e6:	d005      	beq.n	803f4 <usart_read+0x14>
		return 1;
	}

	/* Read character */
	*c = p_usart->US_RHR & US_RHR_RXCHR_Msk;
   803e8:	6983      	ldr	r3, [r0, #24]
   803ea:	f3c3 0308 	ubfx	r3, r3, #0, #9
   803ee:	600b      	str	r3, [r1, #0]

	return 0;
   803f0:	2000      	movs	r0, #0
   803f2:	4770      	bx	lr
 * \retval 1 if no data is available or errors.
 */
uint32_t usart_read(Usart *p_usart, uint32_t *c)
{
	if (!(p_usart->US_CSR & US_CSR_RXRDY)) {
		return 1;
   803f4:	2001      	movs	r0, #1

	/* Read character */
	*c = p_usart->US_RHR & US_RHR_RXCHR_Msk;

	return 0;
}
   803f6:	4770      	bx	lr

000803f8 <USART0_Handler>:
#if SAMD || SAMR21 || SAML21
void USART_HOST_ISR_VECT(uint8_t instance)
#else
USART_HOST_ISR_VECT()
#endif
{
   803f8:	b500      	push	{lr}
   803fa:	b083      	sub	sp, #12
	uint8_t temp;
#if SAMD || SAMR21 || SAML21
	usart_serial_read_packet(&host_uart_module, &temp, 1);
#else
	usart_serial_read_packet(USART_HOST, &temp, 1);
   803fc:	4811      	ldr	r0, [pc, #68]	; (80444 <USART0_Handler+0x4c>)
   803fe:	f10d 0107 	add.w	r1, sp, #7
   80402:	2201      	movs	r2, #1
   80404:	4b10      	ldr	r3, [pc, #64]	; (80448 <USART0_Handler+0x50>)
   80406:	4798      	blx	r3
  This function disables IRQ interrupts by setting the I-bit in the CPSR.
  Can only be executed in Privileged modes.
 */
__attribute__( ( always_inline ) ) __STATIC_INLINE void __disable_irq(void)
{
  __ASM volatile ("cpsid i" : : : "memory");
   80408:	b672      	cpsid	i
    This function ensures the apparent order of the explicit memory operations before
    and after the instruction, without ensuring their completion.
 */
__attribute__( ( always_inline ) ) __STATIC_INLINE void __DMB(void)
{
  __ASM volatile ("dmb");
   8040a:	f3bf 8f5f 	dmb	sy
#endif

	/* Introducing critical section to avoid buffer corruption. */
	cpu_irq_disable();
   8040e:	2200      	movs	r2, #0
   80410:	4b0e      	ldr	r3, [pc, #56]	; (8044c <USART0_Handler+0x54>)
   80412:	701a      	strb	r2, [r3, #0]

	/* The number of data in the receive buffer is incremented and the
	 * buffer is updated. */

	serial_rx_buf[serial_rx_buf_tail] = temp;
   80414:	4b0e      	ldr	r3, [pc, #56]	; (80450 <USART0_Handler+0x58>)
   80416:	781b      	ldrb	r3, [r3, #0]
   80418:	f89d 1007 	ldrb.w	r1, [sp, #7]
   8041c:	4a0d      	ldr	r2, [pc, #52]	; (80454 <USART0_Handler+0x5c>)
   8041e:	54d1      	strb	r1, [r2, r3]

	if ((SERIAL_RX_BUF_SIZE_HOST - 1) == serial_rx_buf_tail) {
   80420:	2b9b      	cmp	r3, #155	; 0x9b
   80422:	d103      	bne.n	8042c <USART0_Handler+0x34>
		/* Reached the end of buffer, revert back to beginning of
		 * buffer. */
		serial_rx_buf_tail = 0x00;
   80424:	2200      	movs	r2, #0
   80426:	4b0a      	ldr	r3, [pc, #40]	; (80450 <USART0_Handler+0x58>)
   80428:	701a      	strb	r2, [r3, #0]
   8042a:	e002      	b.n	80432 <USART0_Handler+0x3a>
	} else {
		serial_rx_buf_tail++;
   8042c:	3301      	adds	r3, #1
   8042e:	4a08      	ldr	r2, [pc, #32]	; (80450 <USART0_Handler+0x58>)
   80430:	7013      	strb	r3, [r2, #0]
	}

	cpu_irq_enable();
   80432:	2201      	movs	r2, #1
   80434:	4b05      	ldr	r3, [pc, #20]	; (8044c <USART0_Handler+0x54>)
   80436:	701a      	strb	r2, [r3, #0]
   80438:	f3bf 8f5f 	dmb	sy
  This function enables IRQ interrupts by clearing the I-bit in the CPSR.
  Can only be executed in Privileged modes.
 */
__attribute__( ( always_inline ) ) __STATIC_INLINE void __enable_irq(void)
{
  __ASM volatile ("cpsie i" : : : "memory");
   8043c:	b662      	cpsie	i
}
   8043e:	b003      	add	sp, #12
   80440:	f85d fb04 	ldr.w	pc, [sp], #4
   80444:	40098000 	.word	0x40098000
   80448:	00080149 	.word	0x00080149
   8044c:	20070134 	.word	0x20070134
   80450:	20070a98 	.word	0x20070a98
   80454:	200709fc 	.word	0x200709fc

00080458 <getX_diff>:
int getX_diff(int dest, int pos){					//pos = current x position, dest = destination
	
	int diffx = dest - pos;
	
	return diffx;
}
   80458:	1a40      	subs	r0, r0, r1
   8045a:	4770      	bx	lr

0008045c <getY_diff>:
int getY_diff(int dest, int pos){					//pos = current y position, dest = destination
	
	int diffy = dest - pos;
	
	return diffy;
}
   8045c:	1a40      	subs	r0, r0, r1
   8045e:	4770      	bx	lr

00080460 <calculateAngle>:


int calculateAngle(int mot, int nar){				//mot = motstående (y), nar = närliggande (x)
   80460:	e92d 41f0 	stmdb	sp!, {r4, r5, r6, r7, r8, lr}
   80464:	4607      	mov	r7, r0
   80466:	460e      	mov	r6, r1
	
	
	int angle = acos(nar/(sqrt((mot*mot)+(nar*nar)))) * (180/M_PI);
   80468:	fb01 f401 	mul.w	r4, r1, r1
   8046c:	fb00 4400 	mla	r4, r0, r0, r4
   80470:	f8df 8070 	ldr.w	r8, [pc, #112]	; 804e4 <calculateAngle+0x84>
   80474:	4620      	mov	r0, r4
   80476:	47c0      	blx	r8
   80478:	4b15      	ldr	r3, [pc, #84]	; (804d0 <calculateAngle+0x70>)
   8047a:	4798      	blx	r3
   8047c:	4604      	mov	r4, r0
   8047e:	460d      	mov	r5, r1
   80480:	4630      	mov	r0, r6
   80482:	47c0      	blx	r8
   80484:	4622      	mov	r2, r4
   80486:	462b      	mov	r3, r5
   80488:	4c12      	ldr	r4, [pc, #72]	; (804d4 <calculateAngle+0x74>)
   8048a:	47a0      	blx	r4
   8048c:	4b12      	ldr	r3, [pc, #72]	; (804d8 <calculateAngle+0x78>)
   8048e:	4798      	blx	r3
   80490:	a30d      	add	r3, pc, #52	; (adr r3, 804c8 <calculateAngle+0x68>)
   80492:	e9d3 2300 	ldrd	r2, r3, [r3]
   80496:	4c11      	ldr	r4, [pc, #68]	; (804dc <calculateAngle+0x7c>)
   80498:	47a0      	blx	r4
   8049a:	4b11      	ldr	r3, [pc, #68]	; (804e0 <calculateAngle+0x80>)
   8049c:	4798      	blx	r3
	
	if(nar < 0 && mot > 0){
   8049e:	2e00      	cmp	r6, #0
   804a0:	da09      	bge.n	804b6 <calculateAngle+0x56>
   804a2:	2f00      	cmp	r7, #0
   804a4:	dd02      	ble.n	804ac <calculateAngle+0x4c>
		angle = angle + 90;
   804a6:	305a      	adds	r0, #90	; 0x5a
   804a8:	e8bd 81f0 	ldmia.w	sp!, {r4, r5, r6, r7, r8, pc}
	}
	else if(nar < 0 && mot < 0){
   804ac:	2f00      	cmp	r7, #0
   804ae:	da08      	bge.n	804c2 <calculateAngle+0x62>
		angle = angle + 180;
   804b0:	30b4      	adds	r0, #180	; 0xb4
   804b2:	e8bd 81f0 	ldmia.w	sp!, {r4, r5, r6, r7, r8, pc}
	}
	else if(nar > 0 && mot < 0){
   804b6:	2e00      	cmp	r6, #0
   804b8:	dd03      	ble.n	804c2 <calculateAngle+0x62>
   804ba:	2f00      	cmp	r7, #0
		angle = angle + 270;
   804bc:	bfb8      	it	lt
   804be:	f500 7087 	addlt.w	r0, r0, #270	; 0x10e
	}
	
	return angle;
}
   804c2:	e8bd 81f0 	ldmia.w	sp!, {r4, r5, r6, r7, r8, pc}
   804c6:	bf00      	nop
   804c8:	1a63c1f8 	.word	0x1a63c1f8
   804cc:	404ca5dc 	.word	0x404ca5dc
   804d0:	0008148d 	.word	0x0008148d
   804d4:	0008219d 	.word	0x0008219d
   804d8:	000813e5 	.word	0x000813e5
   804dc:	00081f49 	.word	0x00081f49
   804e0:	0008247d 	.word	0x0008247d
   804e4:	00081e7d 	.word	0x00081e7d

000804e8 <calculateDistance>:
	
	return set_point;
}


int calculateDistance(int mot, int nar){
   804e8:	b538      	push	{r3, r4, r5, lr}
	
	int dist = sqrt((mot*mot)+(nar*nar));
   804ea:	fb01 f101 	mul.w	r1, r1, r1
   804ee:	fb00 1500 	mla	r5, r0, r0, r1
   804f2:	4c04      	ldr	r4, [pc, #16]	; (80504 <calculateDistance+0x1c>)
   804f4:	4628      	mov	r0, r5
   804f6:	47a0      	blx	r4
   804f8:	4b03      	ldr	r3, [pc, #12]	; (80508 <calculateDistance+0x20>)
   804fa:	4798      	blx	r3
   804fc:	4b03      	ldr	r3, [pc, #12]	; (8050c <calculateDistance+0x24>)
   804fe:	4798      	blx	r3
	
	return dist;
}
   80500:	bd38      	pop	{r3, r4, r5, pc}
   80502:	bf00      	nop
   80504:	00081e7d 	.word	0x00081e7d
   80508:	0008148d 	.word	0x0008148d
   8050c:	0008247d 	.word	0x0008247d

00080510 <initDrive>:





void initDrive(void){
   80510:	b470      	push	{r4, r5, r6}
		enum ioport_direction dir)
{
	Pio *base = arch_ioport_pin_to_base(pin);

	if (dir == IOPORT_DIR_OUTPUT) {
		base->PIO_OER = arch_ioport_pin_to_mask(pin);
   80512:	4b20      	ldr	r3, [pc, #128]	; (80594 <initDrive+0x84>)
   80514:	f04f 6280 	mov.w	r2, #67108864	; 0x4000000
   80518:	611a      	str	r2, [r3, #16]
	} else if (dir == IOPORT_DIR_INPUT) {
		base->PIO_ODR = arch_ioport_pin_to_mask(pin);
	}

	base->PIO_OWER = arch_ioport_pin_to_mask(pin);
   8051a:	f8c3 20a0 	str.w	r2, [r3, #160]	; 0xa0
		enum ioport_direction dir)
{
	Pio *base = arch_ioport_pin_to_base(pin);

	if (dir == IOPORT_DIR_OUTPUT) {
		base->PIO_OER = arch_ioport_pin_to_mask(pin);
   8051e:	491e      	ldr	r1, [pc, #120]	; (80598 <initDrive+0x88>)
   80520:	f44f 4380 	mov.w	r3, #16384	; 0x4000
   80524:	610b      	str	r3, [r1, #16]
	} else if (dir == IOPORT_DIR_INPUT) {
		base->PIO_ODR = arch_ioport_pin_to_mask(pin);
	}

	base->PIO_OWER = arch_ioport_pin_to_mask(pin);
   80526:	f8c1 30a0 	str.w	r3, [r1, #160]	; 0xa0
	Pio *base = arch_ioport_pin_to_base(pin);

	if (dir == IOPORT_DIR_OUTPUT) {
		base->PIO_OER = arch_ioport_pin_to_mask(pin);
	} else if (dir == IOPORT_DIR_INPUT) {
		base->PIO_ODR = arch_ioport_pin_to_mask(pin);
   8052a:	f44f 4300 	mov.w	r3, #32768	; 0x8000
   8052e:	614b      	str	r3, [r1, #20]
	}

	base->PIO_OWER = arch_ioport_pin_to_mask(pin);
   80530:	f8c1 30a0 	str.w	r3, [r1, #160]	; 0xa0
	Pio *base = arch_ioport_pin_to_base(pin);

	if (dir == IOPORT_DIR_OUTPUT) {
		base->PIO_OER = arch_ioport_pin_to_mask(pin);
	} else if (dir == IOPORT_DIR_INPUT) {
		base->PIO_ODR = arch_ioport_pin_to_mask(pin);
   80534:	4b19      	ldr	r3, [pc, #100]	; (8059c <initDrive+0x8c>)
   80536:	2402      	movs	r4, #2
   80538:	615c      	str	r4, [r3, #20]
	}

	base->PIO_OWER = arch_ioport_pin_to_mask(pin);
   8053a:	f8c3 40a0 	str.w	r4, [r3, #160]	; 0xa0
	Pio *base = arch_ioport_pin_to_base(pin);

	if (dir == IOPORT_DIR_OUTPUT) {
		base->PIO_OER = arch_ioport_pin_to_mask(pin);
	} else if (dir == IOPORT_DIR_INPUT) {
		base->PIO_ODR = arch_ioport_pin_to_mask(pin);
   8053e:	2008      	movs	r0, #8
   80540:	6158      	str	r0, [r3, #20]
	}

	base->PIO_OWER = arch_ioport_pin_to_mask(pin);
   80542:	f8c3 00a0 	str.w	r0, [r3, #160]	; 0xa0
	Pio *base = arch_ioport_pin_to_base(pin);

	if (dir == IOPORT_DIR_OUTPUT) {
		base->PIO_OER = arch_ioport_pin_to_mask(pin);
	} else if (dir == IOPORT_DIR_INPUT) {
		base->PIO_ODR = arch_ioport_pin_to_mask(pin);
   80546:	f44f 7200 	mov.w	r2, #512	; 0x200
   8054a:	615a      	str	r2, [r3, #20]
	}

	base->PIO_OWER = arch_ioport_pin_to_mask(pin);
   8054c:	f8c3 20a0 	str.w	r2, [r3, #160]	; 0xa0
	Pio *base = arch_ioport_pin_to_base(pin);

	if (dir == IOPORT_DIR_OUTPUT) {
		base->PIO_OER = arch_ioport_pin_to_mask(pin);
	} else if (dir == IOPORT_DIR_INPUT) {
		base->PIO_ODR = arch_ioport_pin_to_mask(pin);
   80550:	f44f 6280 	mov.w	r2, #1024	; 0x400
   80554:	615a      	str	r2, [r3, #20]
	}

	base->PIO_OWER = arch_ioport_pin_to_mask(pin);
   80556:	f8c3 20a0 	str.w	r2, [r3, #160]	; 0xa0
	Pio *base = arch_ioport_pin_to_base(pin);

	if (dir == IOPORT_DIR_OUTPUT) {
		base->PIO_OER = arch_ioport_pin_to_mask(pin);
	} else if (dir == IOPORT_DIR_INPUT) {
		base->PIO_ODR = arch_ioport_pin_to_mask(pin);
   8055a:	4a11      	ldr	r2, [pc, #68]	; (805a0 <initDrive+0x90>)
   8055c:	2504      	movs	r5, #4
   8055e:	6155      	str	r5, [r2, #20]
	}

	base->PIO_OWER = arch_ioport_pin_to_mask(pin);
   80560:	f8c2 50a0 	str.w	r5, [r2, #160]	; 0xa0
	Pio *base = arch_ioport_pin_to_base(pin);

	if (dir == IOPORT_DIR_OUTPUT) {
		base->PIO_OER = arch_ioport_pin_to_mask(pin);
	} else if (dir == IOPORT_DIR_INPUT) {
		base->PIO_ODR = arch_ioport_pin_to_mask(pin);
   80564:	2601      	movs	r6, #1
   80566:	615e      	str	r6, [r3, #20]
	}

	base->PIO_OWER = arch_ioport_pin_to_mask(pin);
   80568:	f8c3 60a0 	str.w	r6, [r3, #160]	; 0xa0
	Pio *base = arch_ioport_pin_to_base(pin);

	if (dir == IOPORT_DIR_OUTPUT) {
		base->PIO_OER = arch_ioport_pin_to_mask(pin);
	} else if (dir == IOPORT_DIR_INPUT) {
		base->PIO_ODR = arch_ioport_pin_to_mask(pin);
   8056c:	615d      	str	r5, [r3, #20]
	}

	base->PIO_OWER = arch_ioport_pin_to_mask(pin);
   8056e:	f8c3 50a0 	str.w	r5, [r3, #160]	; 0xa0
	Pio *base = arch_ioport_pin_to_base(pin);

	if (dir == IOPORT_DIR_OUTPUT) {
		base->PIO_OER = arch_ioport_pin_to_mask(pin);
	} else if (dir == IOPORT_DIR_INPUT) {
		base->PIO_ODR = arch_ioport_pin_to_mask(pin);
   80572:	2540      	movs	r5, #64	; 0x40
   80574:	615d      	str	r5, [r3, #20]
	}

	base->PIO_OWER = arch_ioport_pin_to_mask(pin);
   80576:	f8c3 50a0 	str.w	r5, [r3, #160]	; 0xa0
	Pio *base = arch_ioport_pin_to_base(pin);

	if (dir == IOPORT_DIR_OUTPUT) {
		base->PIO_OER = arch_ioport_pin_to_mask(pin);
	} else if (dir == IOPORT_DIR_INPUT) {
		base->PIO_ODR = arch_ioport_pin_to_mask(pin);
   8057a:	2380      	movs	r3, #128	; 0x80
   8057c:	614b      	str	r3, [r1, #20]
	}

	base->PIO_OWER = arch_ioport_pin_to_mask(pin);
   8057e:	f8c1 30a0 	str.w	r3, [r1, #160]	; 0xa0
	Pio *base = arch_ioport_pin_to_base(pin);

	if (dir == IOPORT_DIR_OUTPUT) {
		base->PIO_OER = arch_ioport_pin_to_mask(pin);
	} else if (dir == IOPORT_DIR_INPUT) {
		base->PIO_ODR = arch_ioport_pin_to_mask(pin);
   80582:	6154      	str	r4, [r2, #20]
	}

	base->PIO_OWER = arch_ioport_pin_to_mask(pin);
   80584:	f8c2 40a0 	str.w	r4, [r2, #160]	; 0xa0
	Pio *base = arch_ioport_pin_to_base(pin);

	if (dir == IOPORT_DIR_OUTPUT) {
		base->PIO_OER = arch_ioport_pin_to_mask(pin);
	} else if (dir == IOPORT_DIR_INPUT) {
		base->PIO_ODR = arch_ioport_pin_to_mask(pin);
   80588:	6150      	str	r0, [r2, #20]
	}

	base->PIO_OWER = arch_ioport_pin_to_mask(pin);
   8058a:	f8c2 00a0 	str.w	r0, [r2, #160]	; 0xa0
	ioport_set_pin_dir(L1,IOPORT_DIR_INPUT);
	ioport_set_pin_dir(L2,IOPORT_DIR_INPUT);
	ioport_set_pin_dir(L3,IOPORT_DIR_INPUT);
	ioport_set_pin_dir(L4,IOPORT_DIR_INPUT);
	ioport_set_pin_dir(L5,IOPORT_DIR_INPUT);
}
   8058e:	bc70      	pop	{r4, r5, r6}
   80590:	4770      	bx	lr
   80592:	bf00      	nop
   80594:	400e1000 	.word	0x400e1000
   80598:	400e0e00 	.word	0x400e0e00
   8059c:	400e1400 	.word	0x400e1400
   805a0:	400e1200 	.word	0x400e1200

000805a4 <driveTo>:
// 	
// 	
// 		
// }

void driveTo(int obj){
   805a4:	e92d 4ff0 	stmdb	sp!, {r4, r5, r6, r7, r8, r9, sl, fp, lr}
   805a8:	b083      	sub	sp, #12
	Pio *base = arch_ioport_pin_to_base(pin);

	if (level) {
		base->PIO_SODR = arch_ioport_pin_to_mask(pin);
	} else {
		base->PIO_CODR = arch_ioport_pin_to_mask(pin);
   805aa:	f04f 6280 	mov.w	r2, #67108864	; 0x4000000
   805ae:	4b35      	ldr	r3, [pc, #212]	; (80684 <driveTo+0xe0>)
   805b0:	635a      	str	r2, [r3, #52]	; 0x34
   805b2:	f44f 4280 	mov.w	r2, #16384	; 0x4000
   805b6:	f5a3 7300 	sub.w	r3, r3, #512	; 0x200
   805ba:	635a      	str	r2, [r3, #52]	; 0x34
	int l_count = 0;
	
	ioport_set_pin_level(R_RESET,LOW);
	ioport_set_pin_level(L_RESET,LOW);
	
	while(newcount < obj){
   805bc:	f1b0 0b00 	subs.w	fp, r0, #0
   805c0:	dd58      	ble.n	80674 <driveTo+0xd0>
// 		
// }

void driveTo(int obj){
	
	int newcount = 0;
   805c2:	2700      	movs	r7, #0
   805c4:	f8df a0bc 	ldr.w	sl, [pc, #188]	; 80684 <driveTo+0xe0>
   805c8:	461d      	mov	r5, r3
   805ca:	9201      	str	r2, [sp, #4]
	base->PIO_CODR = mask & ~level;
}

__always_inline static bool arch_ioport_get_pin_level(ioport_pin_t pin)
{
	return arch_ioport_pin_to_base(pin)->PIO_PDSR & arch_ioport_pin_to_mask(pin);
   805cc:	4c2e      	ldr	r4, [pc, #184]	; (80688 <driveTo+0xe4>)
   805ce:	4e2f      	ldr	r6, [pc, #188]	; (8068c <driveTo+0xe8>)
	Pio *base = arch_ioport_pin_to_base(pin);

	if (level) {
		base->PIO_SODR = arch_ioport_pin_to_mask(pin);
	} else {
		base->PIO_CODR = arch_ioport_pin_to_mask(pin);
   805d0:	f04f 6880 	mov.w	r8, #67108864	; 0x4000000
   805d4:	f8ca 8034 	str.w	r8, [sl, #52]	; 0x34
   805d8:	9b01      	ldr	r3, [sp, #4]
   805da:	636b      	str	r3, [r5, #52]	; 0x34
	while(newcount < obj){
				
		ioport_set_pin_level(R_RESET,LOW);
		ioport_set_pin_level(L_RESET,LOW);
		
		delayMicroseconds(500000);
   805dc:	482c      	ldr	r0, [pc, #176]	; (80690 <driveTo+0xec>)
   805de:	4b2d      	ldr	r3, [pc, #180]	; (80694 <driveTo+0xf0>)
   805e0:	4798      	blx	r3
	base->PIO_CODR = mask & ~level;
}

__always_inline static bool arch_ioport_get_pin_level(ioport_pin_t pin)
{
	return arch_ioport_pin_to_base(pin)->PIO_PDSR & arch_ioport_pin_to_mask(pin);
   805e2:	f8d5 c03c 	ldr.w	ip, [r5, #60]	; 0x3c
   805e6:	f8d4 e03c 	ldr.w	lr, [r4, #60]	; 0x3c
   805ea:	6be0      	ldr	r0, [r4, #60]	; 0x3c
   805ec:	6be1      	ldr	r1, [r4, #60]	; 0x3c
   805ee:	6be3      	ldr	r3, [r4, #60]	; 0x3c
   805f0:	6bf2      	ldr	r2, [r6, #60]	; 0x3c
   805f2:	f3cc 3cc0 	ubfx	ip, ip, #15, #1
   805f6:	f3ce 0e40 	ubfx	lr, lr, #1, #1
		
		r_count = ioport_get_pin_level(R0)+ioport_get_pin_level(R1)*2+ioport_get_pin_level(R2)*4+ioport_get_pin_level(R3)*8
   805fa:	eb0c 0e4e 	add.w	lr, ip, lr, lsl #1
   805fe:	f3c0 00c0 	ubfx	r0, r0, #3, #1
   80602:	eb0e 0080 	add.w	r0, lr, r0, lsl #2
   80606:	f3c1 2140 	ubfx	r1, r1, #9, #1
   8060a:	eb00 01c1 	add.w	r1, r0, r1, lsl #3
   8060e:	f3c3 2380 	ubfx	r3, r3, #10, #1
		+ioport_get_pin_level(R4)*16+ioport_get_pin_level(R5)*32;
   80612:	eb01 1303 	add.w	r3, r1, r3, lsl #4
   80616:	f3c2 0980 	ubfx	r9, r2, #2, #1
		ioport_set_pin_level(R_RESET,LOW);
		ioport_set_pin_level(L_RESET,LOW);
		
		delayMicroseconds(500000);
		
		r_count = ioport_get_pin_level(R0)+ioport_get_pin_level(R1)*2+ioport_get_pin_level(R2)*4+ioport_get_pin_level(R3)*8
   8061a:	eb03 1949 	add.w	r9, r3, r9, lsl #5
   8061e:	f8d4 c03c 	ldr.w	ip, [r4, #60]	; 0x3c
   80622:	f8d4 e03c 	ldr.w	lr, [r4, #60]	; 0x3c
   80626:	6be0      	ldr	r0, [r4, #60]	; 0x3c
   80628:	6bea      	ldr	r2, [r5, #60]	; 0x3c
   8062a:	6bf3      	ldr	r3, [r6, #60]	; 0x3c
   8062c:	6bf1      	ldr	r1, [r6, #60]	; 0x3c
   8062e:	f00c 0c01 	and.w	ip, ip, #1
   80632:	f3ce 0e80 	ubfx	lr, lr, #2, #1
		+ioport_get_pin_level(R4)*16+ioport_get_pin_level(R5)*32;
		
		
		
		l_count = ioport_get_pin_level(L0)+ioport_get_pin_level(L1)*2+ioport_get_pin_level(L2)*4+ioport_get_pin_level(L3)*8
   80636:	eb0c 0e4e 	add.w	lr, ip, lr, lsl #1
   8063a:	f3c0 1080 	ubfx	r0, r0, #6, #1
   8063e:	eb0e 0080 	add.w	r0, lr, r0, lsl #2
   80642:	f3c2 12c0 	ubfx	r2, r2, #7, #1
   80646:	eb00 02c2 	add.w	r2, r0, r2, lsl #3
   8064a:	f3c3 0340 	ubfx	r3, r3, #1, #1
		+ioport_get_pin_level(L4)*16+ioport_get_pin_level(L5)*32;
   8064e:	eb02 1303 	add.w	r3, r2, r3, lsl #4
   80652:	f3c1 01c0 	ubfx	r1, r1, #3, #1
		r_count = ioport_get_pin_level(R0)+ioport_get_pin_level(R1)*2+ioport_get_pin_level(R2)*4+ioport_get_pin_level(R3)*8
		+ioport_get_pin_level(R4)*16+ioport_get_pin_level(R5)*32;
		
		
		
		l_count = ioport_get_pin_level(L0)+ioport_get_pin_level(L1)*2+ioport_get_pin_level(L2)*4+ioport_get_pin_level(L3)*8
   80656:	eb03 1141 	add.w	r1, r3, r1, lsl #5
		+ioport_get_pin_level(L4)*16+ioport_get_pin_level(L5)*32;
		
		
		int disp = r_count - l_count;
		
		P_regulator(0,disp);
   8065a:	2000      	movs	r0, #0
   8065c:	ebc1 0109 	rsb	r1, r1, r9
   80660:	4b0d      	ldr	r3, [pc, #52]	; (80698 <driveTo+0xf4>)
   80662:	4798      	blx	r3
		
		//delayMicroseconds(400000);

		newcount = newcount + r_count;
   80664:	444f      	add	r7, r9
		bool level)
{
	Pio *base = arch_ioport_pin_to_base(pin);

	if (level) {
		base->PIO_SODR = arch_ioport_pin_to_mask(pin);
   80666:	f8ca 8030 	str.w	r8, [sl, #48]	; 0x30
   8066a:	f44f 4380 	mov.w	r3, #16384	; 0x4000
   8066e:	632b      	str	r3, [r5, #48]	; 0x30
	int l_count = 0;
	
	ioport_set_pin_level(R_RESET,LOW);
	ioport_set_pin_level(L_RESET,LOW);
	
	while(newcount < obj){
   80670:	45bb      	cmp	fp, r7
   80672:	dcad      	bgt.n	805d0 <driveTo+0x2c>
// 	char str[20];
// 	sprintf(str,"\nTotal: %d",newcount);
// 	printf (str);
	
	newcount = 0;
	moveForward(1500,1500);
   80674:	f240 50dc 	movw	r0, #1500	; 0x5dc
   80678:	4601      	mov	r1, r0
   8067a:	4b08      	ldr	r3, [pc, #32]	; (8069c <driveTo+0xf8>)
   8067c:	4798      	blx	r3
}
   8067e:	b003      	add	sp, #12
   80680:	e8bd 8ff0 	ldmia.w	sp!, {r4, r5, r6, r7, r8, r9, sl, fp, pc}
   80684:	400e1000 	.word	0x400e1000
   80688:	400e1400 	.word	0x400e1400
   8068c:	400e1200 	.word	0x400e1200
   80690:	0007a120 	.word	0x0007a120
   80694:	00080759 	.word	0x00080759
   80698:	000806a5 	.word	0x000806a5
   8069c:	000807dd 	.word	0x000807dd

000806a0 <initRegulator>:
int speed=1650;
int r_speed=0;
int l_speed=0;


void initRegulator(void){
   806a0:	4770      	bx	lr
   806a2:	bf00      	nop

000806a4 <P_regulator>:
}



void P_regulator(int b,int u)
{
   806a4:	b508      	push	{r3, lr}
	
// 	ioport_set_pin_level(R_RESET,HIGH);
// 	ioport_set_pin_level(L_RESET,HIGH);

	r_speed=speed;
   806a6:	4b16      	ldr	r3, [pc, #88]	; (80700 <P_regulator+0x5c>)
   806a8:	681b      	ldr	r3, [r3, #0]
   806aa:	4a16      	ldr	r2, [pc, #88]	; (80704 <P_regulator+0x60>)
   806ac:	6013      	str	r3, [r2, #0]
	l_speed=speed;
   806ae:	4a16      	ldr	r2, [pc, #88]	; (80708 <P_regulator+0x64>)
   806b0:	6013      	str	r3, [r2, #0]
	int e = b - u; //Felvärde = Börvärde - ärvärde
   806b2:	1a41      	subs	r1, r0, r1
	if(e > 0) {
   806b4:	2900      	cmp	r1, #0
   806b6:	dd0c      	ble.n	806d2 <P_regulator+0x2e>

		r_speed=speed-(e*Kp);
   806b8:	4a14      	ldr	r2, [pc, #80]	; (8070c <P_regulator+0x68>)
   806ba:	6810      	ldr	r0, [r2, #0]
   806bc:	fb00 f001 	mul.w	r0, r0, r1
   806c0:	1a19      	subs	r1, r3, r0
   806c2:	4a10      	ldr	r2, [pc, #64]	; (80704 <P_regulator+0x60>)
   806c4:	6011      	str	r1, [r2, #0]
		l_speed=speed+(e*Kp);
   806c6:	4418      	add	r0, r3
   806c8:	4b0f      	ldr	r3, [pc, #60]	; (80708 <P_regulator+0x64>)
   806ca:	6018      	str	r0, [r3, #0]
		moveForward(l_speed,r_speed);
   806cc:	4b10      	ldr	r3, [pc, #64]	; (80710 <P_regulator+0x6c>)
   806ce:	4798      	blx	r3
   806d0:	e012      	b.n	806f8 <P_regulator+0x54>
		
	}
	else if (e<0){
   806d2:	2900      	cmp	r1, #0
   806d4:	da0c      	bge.n	806f0 <P_regulator+0x4c>
		
		r_speed=speed+(e*Kp);
   806d6:	4a0d      	ldr	r2, [pc, #52]	; (8070c <P_regulator+0x68>)
   806d8:	6810      	ldr	r0, [r2, #0]
   806da:	fb00 f001 	mul.w	r0, r0, r1
   806de:	1819      	adds	r1, r3, r0
   806e0:	4a08      	ldr	r2, [pc, #32]	; (80704 <P_regulator+0x60>)
   806e2:	6011      	str	r1, [r2, #0]
		l_speed=speed-(e*Kp);
   806e4:	1a18      	subs	r0, r3, r0
   806e6:	4b08      	ldr	r3, [pc, #32]	; (80708 <P_regulator+0x64>)
   806e8:	6018      	str	r0, [r3, #0]
		moveForward(l_speed,r_speed);
   806ea:	4b09      	ldr	r3, [pc, #36]	; (80710 <P_regulator+0x6c>)
   806ec:	4798      	blx	r3
   806ee:	e003      	b.n	806f8 <P_regulator+0x54>
	}
	else{
		moveForward(l_speed,r_speed);
   806f0:	4618      	mov	r0, r3
   806f2:	4619      	mov	r1, r3
   806f4:	4b06      	ldr	r3, [pc, #24]	; (80710 <P_regulator+0x6c>)
   806f6:	4798      	blx	r3
	}
	delayMicroseconds(500000);
   806f8:	4806      	ldr	r0, [pc, #24]	; (80714 <P_regulator+0x70>)
   806fa:	4b07      	ldr	r3, [pc, #28]	; (80718 <P_regulator+0x74>)
   806fc:	4798      	blx	r3
   806fe:	bd08      	pop	{r3, pc}
   80700:	20070130 	.word	0x20070130
   80704:	20070a9c 	.word	0x20070a9c
   80708:	20070aa0 	.word	0x20070aa0
   8070c:	2007012c 	.word	0x2007012c
   80710:	000807dd 	.word	0x000807dd
   80714:	0007a120 	.word	0x0007a120
   80718:	00080759 	.word	0x00080759

0008071c <delayInit>:

#include "asf.h"
#include "DelayFunctions.h"

void delayInit(void)		/* Initializes the timer used for delays */
{
   8071c:	b510      	push	{r4, lr}
	pmc_enable_periph_clk(ID_TC0);
   8071e:	201b      	movs	r0, #27
   80720:	4b08      	ldr	r3, [pc, #32]	; (80744 <delayInit+0x28>)
   80722:	4798      	blx	r3
	tc_init(TC0,0,0);		 /* TC0, channel 0, TCLK1 och capturemode */
   80724:	4c08      	ldr	r4, [pc, #32]	; (80748 <delayInit+0x2c>)
   80726:	4620      	mov	r0, r4
   80728:	2100      	movs	r1, #0
   8072a:	460a      	mov	r2, r1
   8072c:	4b07      	ldr	r3, [pc, #28]	; (8074c <delayInit+0x30>)
   8072e:	4798      	blx	r3
	tc_set_block_mode(TC0,0);
   80730:	4620      	mov	r0, r4
   80732:	2100      	movs	r1, #0
   80734:	4b06      	ldr	r3, [pc, #24]	; (80750 <delayInit+0x34>)
   80736:	4798      	blx	r3
	tc_stop(TC0,0);			/* making sure the timer does not run  */
   80738:	4620      	mov	r0, r4
   8073a:	2100      	movs	r1, #0
   8073c:	4b05      	ldr	r3, [pc, #20]	; (80754 <delayInit+0x38>)
   8073e:	4798      	blx	r3
   80740:	bd10      	pop	{r4, pc}
   80742:	bf00      	nop
   80744:	00080ef5 	.word	0x00080ef5
   80748:	40080000 	.word	0x40080000
   8074c:	000802a1 	.word	0x000802a1
   80750:	000802bd 	.word	0x000802bd
   80754:	000802cd 	.word	0x000802cd

00080758 <delayMicroseconds>:
}


void delayMicroseconds(uint32_t us)		/* A simple implementation for a delay in us (not calibrated) */
{
   80758:	b5f8      	push	{r3, r4, r5, r6, r7, lr}
   8075a:	4604      	mov	r4, r0
	tc_start(TC0,0);
   8075c:	4809      	ldr	r0, [pc, #36]	; (80784 <delayMicroseconds+0x2c>)
   8075e:	2100      	movs	r1, #0
   80760:	4b09      	ldr	r3, [pc, #36]	; (80788 <delayMicroseconds+0x30>)
   80762:	4798      	blx	r3
	while (tc_read_cv(TC0,0) < us*42); /* Only works in newere version of ASF */
   80764:	272a      	movs	r7, #42	; 0x2a
   80766:	fb07 f704 	mul.w	r7, r7, r4
   8076a:	4e06      	ldr	r6, [pc, #24]	; (80784 <delayMicroseconds+0x2c>)
   8076c:	2500      	movs	r5, #0
   8076e:	4c07      	ldr	r4, [pc, #28]	; (8078c <delayMicroseconds+0x34>)
   80770:	4630      	mov	r0, r6
   80772:	4629      	mov	r1, r5
   80774:	47a0      	blx	r4
   80776:	42b8      	cmp	r0, r7
   80778:	d3fa      	bcc.n	80770 <delayMicroseconds+0x18>
	tc_stop(TC0,0);
   8077a:	4802      	ldr	r0, [pc, #8]	; (80784 <delayMicroseconds+0x2c>)
   8077c:	2100      	movs	r1, #0
   8077e:	4b04      	ldr	r3, [pc, #16]	; (80790 <delayMicroseconds+0x38>)
   80780:	4798      	blx	r3
   80782:	bdf8      	pop	{r3, r4, r5, r6, r7, pc}
   80784:	40080000 	.word	0x40080000
   80788:	000802c5 	.word	0x000802c5
   8078c:	000802d5 	.word	0x000802d5
   80790:	000802cd 	.word	0x000802cd

00080794 <initMotor>:
		enum ioport_direction dir)
{
	Pio *base = arch_ioport_pin_to_base(pin);

	if (dir == IOPORT_DIR_OUTPUT) {
		base->PIO_OER = arch_ioport_pin_to_mask(pin);
   80794:	4b04      	ldr	r3, [pc, #16]	; (807a8 <initMotor+0x14>)
   80796:	2210      	movs	r2, #16
   80798:	611a      	str	r2, [r3, #16]
	} else if (dir == IOPORT_DIR_INPUT) {
		base->PIO_ODR = arch_ioport_pin_to_mask(pin);
	}

	base->PIO_OWER = arch_ioport_pin_to_mask(pin);
   8079a:	f8c3 20a0 	str.w	r2, [r3, #160]	; 0xa0
		enum ioport_direction dir)
{
	Pio *base = arch_ioport_pin_to_base(pin);

	if (dir == IOPORT_DIR_OUTPUT) {
		base->PIO_OER = arch_ioport_pin_to_mask(pin);
   8079e:	2220      	movs	r2, #32
   807a0:	611a      	str	r2, [r3, #16]
	} else if (dir == IOPORT_DIR_INPUT) {
		base->PIO_ODR = arch_ioport_pin_to_mask(pin);
	}

	base->PIO_OWER = arch_ioport_pin_to_mask(pin);
   807a2:	f8c3 20a0 	str.w	r2, [r3, #160]	; 0xa0
   807a6:	4770      	bx	lr
   807a8:	400e1200 	.word	0x400e1200

000807ac <pulseLeft>:
}




void pulseLeft(int p1){
   807ac:	b538      	push	{r3, r4, r5, lr}
		bool level)
{
	Pio *base = arch_ioport_pin_to_base(pin);

	if (level) {
		base->PIO_SODR = arch_ioport_pin_to_mask(pin);
   807ae:	4c03      	ldr	r4, [pc, #12]	; (807bc <pulseLeft+0x10>)
   807b0:	2510      	movs	r5, #16
   807b2:	6325      	str	r5, [r4, #48]	; 0x30
	ioport_set_pin_level(LEFT,HIGH);
	delayMicroseconds(p1);
   807b4:	4b02      	ldr	r3, [pc, #8]	; (807c0 <pulseLeft+0x14>)
   807b6:	4798      	blx	r3
	} else {
		base->PIO_CODR = arch_ioport_pin_to_mask(pin);
   807b8:	6365      	str	r5, [r4, #52]	; 0x34
   807ba:	bd38      	pop	{r3, r4, r5, pc}
   807bc:	400e1200 	.word	0x400e1200
   807c0:	00080759 	.word	0x00080759

000807c4 <pulseRight>:
	ioport_set_pin_level(LEFT,LOW);
}
void pulseRight(int p2){
   807c4:	b538      	push	{r3, r4, r5, lr}
		bool level)
{
	Pio *base = arch_ioport_pin_to_base(pin);

	if (level) {
		base->PIO_SODR = arch_ioport_pin_to_mask(pin);
   807c6:	4c03      	ldr	r4, [pc, #12]	; (807d4 <pulseRight+0x10>)
   807c8:	2520      	movs	r5, #32
   807ca:	6325      	str	r5, [r4, #48]	; 0x30
	ioport_set_pin_level(RIGHT,HIGH);
	delayMicroseconds(p2);
   807cc:	4b02      	ldr	r3, [pc, #8]	; (807d8 <pulseRight+0x14>)
   807ce:	4798      	blx	r3
	} else {
		base->PIO_CODR = arch_ioport_pin_to_mask(pin);
   807d0:	6365      	str	r5, [r4, #52]	; 0x34
   807d2:	bd38      	pop	{r3, r4, r5, pc}
   807d4:	400e1200 	.word	0x400e1200
   807d8:	00080759 	.word	0x00080759

000807dc <moveForward>:
	ioport_set_pin_level(RIGHT,LOW);
}

void moveForward(int l,int r){
   807dc:	b510      	push	{r4, lr}
   807de:	460c      	mov	r4, r1
	pulseLeft(l);
   807e0:	4b04      	ldr	r3, [pc, #16]	; (807f4 <moveForward+0x18>)
   807e2:	4798      	blx	r3
	pulseRight(r);
   807e4:	4620      	mov	r0, r4
   807e6:	4b04      	ldr	r3, [pc, #16]	; (807f8 <moveForward+0x1c>)
   807e8:	4798      	blx	r3
	delayMicroseconds(5250);
   807ea:	f241 4082 	movw	r0, #5250	; 0x1482
   807ee:	4b03      	ldr	r3, [pc, #12]	; (807fc <moveForward+0x20>)
   807f0:	4798      	blx	r3
   807f2:	bd10      	pop	{r4, pc}
   807f4:	000807ad 	.word	0x000807ad
   807f8:	000807c5 	.word	0x000807c5
   807fc:	00080759 	.word	0x00080759

00080800 <initRotateMotor>:


int r_count = 0;
int l_count = 0;

void initRotateMotor(void){
   80800:	b470      	push	{r4, r5, r6}
		enum ioport_direction dir)
{
	Pio *base = arch_ioport_pin_to_base(pin);

	if (dir == IOPORT_DIR_OUTPUT) {
		base->PIO_OER = arch_ioport_pin_to_mask(pin);
   80802:	4b20      	ldr	r3, [pc, #128]	; (80884 <initRotateMotor+0x84>)
   80804:	f04f 6280 	mov.w	r2, #67108864	; 0x4000000
   80808:	611a      	str	r2, [r3, #16]
	} else if (dir == IOPORT_DIR_INPUT) {
		base->PIO_ODR = arch_ioport_pin_to_mask(pin);
	}

	base->PIO_OWER = arch_ioport_pin_to_mask(pin);
   8080a:	f8c3 20a0 	str.w	r2, [r3, #160]	; 0xa0
		enum ioport_direction dir)
{
	Pio *base = arch_ioport_pin_to_base(pin);

	if (dir == IOPORT_DIR_OUTPUT) {
		base->PIO_OER = arch_ioport_pin_to_mask(pin);
   8080e:	491e      	ldr	r1, [pc, #120]	; (80888 <initRotateMotor+0x88>)
   80810:	f44f 4380 	mov.w	r3, #16384	; 0x4000
   80814:	610b      	str	r3, [r1, #16]
	} else if (dir == IOPORT_DIR_INPUT) {
		base->PIO_ODR = arch_ioport_pin_to_mask(pin);
	}

	base->PIO_OWER = arch_ioport_pin_to_mask(pin);
   80816:	f8c1 30a0 	str.w	r3, [r1, #160]	; 0xa0
	Pio *base = arch_ioport_pin_to_base(pin);

	if (dir == IOPORT_DIR_OUTPUT) {
		base->PIO_OER = arch_ioport_pin_to_mask(pin);
	} else if (dir == IOPORT_DIR_INPUT) {
		base->PIO_ODR = arch_ioport_pin_to_mask(pin);
   8081a:	f44f 4300 	mov.w	r3, #32768	; 0x8000
   8081e:	614b      	str	r3, [r1, #20]
	}

	base->PIO_OWER = arch_ioport_pin_to_mask(pin);
   80820:	f8c1 30a0 	str.w	r3, [r1, #160]	; 0xa0
	Pio *base = arch_ioport_pin_to_base(pin);

	if (dir == IOPORT_DIR_OUTPUT) {
		base->PIO_OER = arch_ioport_pin_to_mask(pin);
	} else if (dir == IOPORT_DIR_INPUT) {
		base->PIO_ODR = arch_ioport_pin_to_mask(pin);
   80824:	4b19      	ldr	r3, [pc, #100]	; (8088c <initRotateMotor+0x8c>)
   80826:	2402      	movs	r4, #2
   80828:	615c      	str	r4, [r3, #20]
	}

	base->PIO_OWER = arch_ioport_pin_to_mask(pin);
   8082a:	f8c3 40a0 	str.w	r4, [r3, #160]	; 0xa0
	Pio *base = arch_ioport_pin_to_base(pin);

	if (dir == IOPORT_DIR_OUTPUT) {
		base->PIO_OER = arch_ioport_pin_to_mask(pin);
	} else if (dir == IOPORT_DIR_INPUT) {
		base->PIO_ODR = arch_ioport_pin_to_mask(pin);
   8082e:	2008      	movs	r0, #8
   80830:	6158      	str	r0, [r3, #20]
	}

	base->PIO_OWER = arch_ioport_pin_to_mask(pin);
   80832:	f8c3 00a0 	str.w	r0, [r3, #160]	; 0xa0
	Pio *base = arch_ioport_pin_to_base(pin);

	if (dir == IOPORT_DIR_OUTPUT) {
		base->PIO_OER = arch_ioport_pin_to_mask(pin);
	} else if (dir == IOPORT_DIR_INPUT) {
		base->PIO_ODR = arch_ioport_pin_to_mask(pin);
   80836:	f44f 7200 	mov.w	r2, #512	; 0x200
   8083a:	615a      	str	r2, [r3, #20]
	}

	base->PIO_OWER = arch_ioport_pin_to_mask(pin);
   8083c:	f8c3 20a0 	str.w	r2, [r3, #160]	; 0xa0
	Pio *base = arch_ioport_pin_to_base(pin);

	if (dir == IOPORT_DIR_OUTPUT) {
		base->PIO_OER = arch_ioport_pin_to_mask(pin);
	} else if (dir == IOPORT_DIR_INPUT) {
		base->PIO_ODR = arch_ioport_pin_to_mask(pin);
   80840:	f44f 6280 	mov.w	r2, #1024	; 0x400
   80844:	615a      	str	r2, [r3, #20]
	}

	base->PIO_OWER = arch_ioport_pin_to_mask(pin);
   80846:	f8c3 20a0 	str.w	r2, [r3, #160]	; 0xa0
	Pio *base = arch_ioport_pin_to_base(pin);

	if (dir == IOPORT_DIR_OUTPUT) {
		base->PIO_OER = arch_ioport_pin_to_mask(pin);
	} else if (dir == IOPORT_DIR_INPUT) {
		base->PIO_ODR = arch_ioport_pin_to_mask(pin);
   8084a:	4a11      	ldr	r2, [pc, #68]	; (80890 <initRotateMotor+0x90>)
   8084c:	2504      	movs	r5, #4
   8084e:	6155      	str	r5, [r2, #20]
	}

	base->PIO_OWER = arch_ioport_pin_to_mask(pin);
   80850:	f8c2 50a0 	str.w	r5, [r2, #160]	; 0xa0
	Pio *base = arch_ioport_pin_to_base(pin);

	if (dir == IOPORT_DIR_OUTPUT) {
		base->PIO_OER = arch_ioport_pin_to_mask(pin);
	} else if (dir == IOPORT_DIR_INPUT) {
		base->PIO_ODR = arch_ioport_pin_to_mask(pin);
   80854:	2601      	movs	r6, #1
   80856:	615e      	str	r6, [r3, #20]
	}

	base->PIO_OWER = arch_ioport_pin_to_mask(pin);
   80858:	f8c3 60a0 	str.w	r6, [r3, #160]	; 0xa0
	Pio *base = arch_ioport_pin_to_base(pin);

	if (dir == IOPORT_DIR_OUTPUT) {
		base->PIO_OER = arch_ioport_pin_to_mask(pin);
	} else if (dir == IOPORT_DIR_INPUT) {
		base->PIO_ODR = arch_ioport_pin_to_mask(pin);
   8085c:	615d      	str	r5, [r3, #20]
	}

	base->PIO_OWER = arch_ioport_pin_to_mask(pin);
   8085e:	f8c3 50a0 	str.w	r5, [r3, #160]	; 0xa0
	Pio *base = arch_ioport_pin_to_base(pin);

	if (dir == IOPORT_DIR_OUTPUT) {
		base->PIO_OER = arch_ioport_pin_to_mask(pin);
	} else if (dir == IOPORT_DIR_INPUT) {
		base->PIO_ODR = arch_ioport_pin_to_mask(pin);
   80862:	2540      	movs	r5, #64	; 0x40
   80864:	615d      	str	r5, [r3, #20]
	}

	base->PIO_OWER = arch_ioport_pin_to_mask(pin);
   80866:	f8c3 50a0 	str.w	r5, [r3, #160]	; 0xa0
	Pio *base = arch_ioport_pin_to_base(pin);

	if (dir == IOPORT_DIR_OUTPUT) {
		base->PIO_OER = arch_ioport_pin_to_mask(pin);
	} else if (dir == IOPORT_DIR_INPUT) {
		base->PIO_ODR = arch_ioport_pin_to_mask(pin);
   8086a:	2380      	movs	r3, #128	; 0x80
   8086c:	614b      	str	r3, [r1, #20]
	}

	base->PIO_OWER = arch_ioport_pin_to_mask(pin);
   8086e:	f8c1 30a0 	str.w	r3, [r1, #160]	; 0xa0
	Pio *base = arch_ioport_pin_to_base(pin);

	if (dir == IOPORT_DIR_OUTPUT) {
		base->PIO_OER = arch_ioport_pin_to_mask(pin);
	} else if (dir == IOPORT_DIR_INPUT) {
		base->PIO_ODR = arch_ioport_pin_to_mask(pin);
   80872:	6154      	str	r4, [r2, #20]
	}

	base->PIO_OWER = arch_ioport_pin_to_mask(pin);
   80874:	f8c2 40a0 	str.w	r4, [r2, #160]	; 0xa0
	Pio *base = arch_ioport_pin_to_base(pin);

	if (dir == IOPORT_DIR_OUTPUT) {
		base->PIO_OER = arch_ioport_pin_to_mask(pin);
	} else if (dir == IOPORT_DIR_INPUT) {
		base->PIO_ODR = arch_ioport_pin_to_mask(pin);
   80878:	6150      	str	r0, [r2, #20]
	}

	base->PIO_OWER = arch_ioport_pin_to_mask(pin);
   8087a:	f8c2 00a0 	str.w	r0, [r2, #160]	; 0xa0
    ioport_set_pin_dir(L4,IOPORT_DIR_INPUT);
    ioport_set_pin_dir(L5,IOPORT_DIR_INPUT);

	  
    
}
   8087e:	bc70      	pop	{r4, r5, r6}
   80880:	4770      	bx	lr
   80882:	bf00      	nop
   80884:	400e1000 	.word	0x400e1000
   80888:	400e0e00 	.word	0x400e0e00
   8088c:	400e1400 	.word	0x400e1400
   80890:	400e1200 	.word	0x400e1200

00080894 <rotate>:

void rotate(int d){					//Minimum d is 4
   80894:	e92d 4ff0 	stmdb	sp!, {r4, r5, r6, r7, r8, r9, sl, fp, lr}
   80898:	b087      	sub	sp, #28
   8089a:	4683      	mov	fp, r0
    double ticks = d * 0.25;
   8089c:	4b60      	ldr	r3, [pc, #384]	; (80a20 <rotate+0x18c>)
   8089e:	4798      	blx	r3
   808a0:	2200      	movs	r2, #0
   808a2:	4b60      	ldr	r3, [pc, #384]	; (80a24 <rotate+0x190>)
   808a4:	4c60      	ldr	r4, [pc, #384]	; (80a28 <rotate+0x194>)
   808a6:	47a0      	blx	r4
   808a8:	4604      	mov	r4, r0
   808aa:	460d      	mov	r5, r1
	Pio *base = arch_ioport_pin_to_base(pin);

	if (level) {
		base->PIO_SODR = arch_ioport_pin_to_mask(pin);
	} else {
		base->PIO_CODR = arch_ioport_pin_to_mask(pin);
   808ac:	f44f 4280 	mov.w	r2, #16384	; 0x4000
   808b0:	4b5e      	ldr	r3, [pc, #376]	; (80a2c <rotate+0x198>)
   808b2:	635a      	str	r2, [r3, #52]	; 0x34
   808b4:	f04f 6280 	mov.w	r2, #67108864	; 0x4000000
   808b8:	f503 7300 	add.w	r3, r3, #512	; 0x200
   808bc:	635a      	str	r2, [r3, #52]	; 0x34
//     printf (str);
   
	ioport_set_pin_level(L_RESET,LOW);
	ioport_set_pin_level(R_RESET,LOW);
   
    if(ticks>0){                    //Positivt ticks svänger höger
   808be:	2200      	movs	r2, #0
   808c0:	2300      	movs	r3, #0
   808c2:	4e5b      	ldr	r6, [pc, #364]	; (80a30 <rotate+0x19c>)
   808c4:	47b0      	blx	r6
   808c6:	2800      	cmp	r0, #0
   808c8:	d042      	beq.n	80950 <rotate+0xbc>
        while(l_count < abs(ticks)){
   808ca:	4620      	mov	r0, r4
   808cc:	4629      	mov	r1, r5
   808ce:	4b59      	ldr	r3, [pc, #356]	; (80a34 <rotate+0x1a0>)
   808d0:	4798      	blx	r3
   808d2:	ea80 79e0 	eor.w	r9, r0, r0, asr #31
   808d6:	eba9 79e0 	sub.w	r9, r9, r0, asr #31
   808da:	4b57      	ldr	r3, [pc, #348]	; (80a38 <rotate+0x1a4>)
   808dc:	681b      	ldr	r3, [r3, #0]
   808de:	4599      	cmp	r9, r3
   808e0:	dd30      	ble.n	80944 <rotate+0xb0>
	base->PIO_CODR = mask & ~level;
}

__always_inline static bool arch_ioport_get_pin_level(ioport_pin_t pin)
{
	return arch_ioport_pin_to_base(pin)->PIO_PDSR & arch_ioport_pin_to_mask(pin);
   808e2:	4e56      	ldr	r6, [pc, #344]	; (80a3c <rotate+0x1a8>)
   808e4:	f8df a144 	ldr.w	sl, [pc, #324]	; 80a2c <rotate+0x198>
   808e8:	f8df 8170 	ldr.w	r8, [pc, #368]	; 80a5c <rotate+0x1c8>
   808ec:	f8d6 c03c 	ldr.w	ip, [r6, #60]	; 0x3c
   808f0:	f8d6 e03c 	ldr.w	lr, [r6, #60]	; 0x3c
   808f4:	6bf0      	ldr	r0, [r6, #60]	; 0x3c
   808f6:	f8da 103c 	ldr.w	r1, [sl, #60]	; 0x3c
   808fa:	f8d8 203c 	ldr.w	r2, [r8, #60]	; 0x3c
   808fe:	f8d8 303c 	ldr.w	r3, [r8, #60]	; 0x3c
           
			
            l_count = ioport_get_pin_level(L0)+ioport_get_pin_level(L1)*2+ioport_get_pin_level(L2)*4+ioport_get_pin_level(L3)*8
   80902:	4f4d      	ldr	r7, [pc, #308]	; (80a38 <rotate+0x1a4>)
   80904:	f00c 0c01 	and.w	ip, ip, #1
   80908:	f3ce 0e80 	ubfx	lr, lr, #2, #1
   8090c:	eb0c 0e4e 	add.w	lr, ip, lr, lsl #1
   80910:	f3c0 1080 	ubfx	r0, r0, #6, #1
   80914:	eb0e 0080 	add.w	r0, lr, r0, lsl #2
   80918:	f3c1 11c0 	ubfx	r1, r1, #7, #1
   8091c:	eb00 01c1 	add.w	r1, r0, r1, lsl #3
   80920:	f3c2 0240 	ubfx	r2, r2, #1, #1
            +ioport_get_pin_level(L4)*16+ioport_get_pin_level(L5)*32;
   80924:	eb01 1202 	add.w	r2, r1, r2, lsl #4
   80928:	f3c3 03c0 	ubfx	r3, r3, #3, #1
   8092c:	eb02 1343 	add.w	r3, r2, r3, lsl #5
   
    if(ticks>0){                    //Positivt ticks svänger höger
        while(l_count < abs(ticks)){
           
			
            l_count = ioport_get_pin_level(L0)+ioport_get_pin_level(L1)*2+ioport_get_pin_level(L2)*4+ioport_get_pin_level(L3)*8
   80930:	603b      	str	r3, [r7, #0]
            +ioport_get_pin_level(L4)*16+ioport_get_pin_level(L5)*32;
            //ioport_set_pin_level(L_RESET,HIGH); 
           
            moveForward(1600,1400);
   80932:	f44f 60c8 	mov.w	r0, #1600	; 0x640
   80936:	f44f 61af 	mov.w	r1, #1400	; 0x578
   8093a:	4b41      	ldr	r3, [pc, #260]	; (80a40 <rotate+0x1ac>)
   8093c:	4798      	blx	r3
   
	ioport_set_pin_level(L_RESET,LOW);
	ioport_set_pin_level(R_RESET,LOW);
   
    if(ticks>0){                    //Positivt ticks svänger höger
        while(l_count < abs(ticks)){
   8093e:	683b      	ldr	r3, [r7, #0]
   80940:	454b      	cmp	r3, r9
   80942:	dbd3      	blt.n	808ec <rotate+0x58>
            moveForward(1600,1400);

//             sprintf(str,"åt höger: %d\n",l_count);
//             printf (str);
        }
        moveForward(1500,1500);
   80944:	f240 50dc 	movw	r0, #1500	; 0x5dc
   80948:	4601      	mov	r1, r0
   8094a:	4b3d      	ldr	r3, [pc, #244]	; (80a40 <rotate+0x1ac>)
   8094c:	4798      	blx	r3
   8094e:	e047      	b.n	809e0 <rotate+0x14c>
		
    }
    else if(ticks<0){                //Negativt ticks svänger vänster
   80950:	4620      	mov	r0, r4
   80952:	4629      	mov	r1, r5
   80954:	2200      	movs	r2, #0
   80956:	2300      	movs	r3, #0
   80958:	4e3a      	ldr	r6, [pc, #232]	; (80a44 <rotate+0x1b0>)
   8095a:	47b0      	blx	r6
   8095c:	2800      	cmp	r0, #0
   8095e:	d03f      	beq.n	809e0 <rotate+0x14c>
        while(r_count < abs(ticks)){
   80960:	4620      	mov	r0, r4
   80962:	4629      	mov	r1, r5
   80964:	4b33      	ldr	r3, [pc, #204]	; (80a34 <rotate+0x1a0>)
   80966:	4798      	blx	r3
   80968:	ea80 78e0 	eor.w	r8, r0, r0, asr #31
   8096c:	eba8 78e0 	sub.w	r8, r8, r0, asr #31
   80970:	4b35      	ldr	r3, [pc, #212]	; (80a48 <rotate+0x1b4>)
   80972:	681b      	ldr	r3, [r3, #0]
   80974:	4598      	cmp	r8, r3
   80976:	dd2e      	ble.n	809d6 <rotate+0x142>
   80978:	f8df a0b0 	ldr.w	sl, [pc, #176]	; 80a2c <rotate+0x198>
   8097c:	4e2f      	ldr	r6, [pc, #188]	; (80a3c <rotate+0x1a8>)
   8097e:	f8df 90dc 	ldr.w	r9, [pc, #220]	; 80a5c <rotate+0x1c8>
   80982:	f8da c03c 	ldr.w	ip, [sl, #60]	; 0x3c
   80986:	f8d6 e03c 	ldr.w	lr, [r6, #60]	; 0x3c
   8098a:	6bf0      	ldr	r0, [r6, #60]	; 0x3c
   8098c:	6bf1      	ldr	r1, [r6, #60]	; 0x3c
   8098e:	6bf2      	ldr	r2, [r6, #60]	; 0x3c
   80990:	f8d9 303c 	ldr.w	r3, [r9, #60]	; 0x3c
			
			
            r_count = ioport_get_pin_level(R0)+ioport_get_pin_level(R1)*2+ioport_get_pin_level(R2)*4+ioport_get_pin_level(R3)*8
   80994:	4f2c      	ldr	r7, [pc, #176]	; (80a48 <rotate+0x1b4>)
   80996:	f3cc 3cc0 	ubfx	ip, ip, #15, #1
   8099a:	f3ce 0e40 	ubfx	lr, lr, #1, #1
   8099e:	eb0c 0e4e 	add.w	lr, ip, lr, lsl #1
   809a2:	f3c0 00c0 	ubfx	r0, r0, #3, #1
   809a6:	eb0e 0080 	add.w	r0, lr, r0, lsl #2
   809aa:	f3c1 2140 	ubfx	r1, r1, #9, #1
   809ae:	eb00 01c1 	add.w	r1, r0, r1, lsl #3
   809b2:	f3c2 2280 	ubfx	r2, r2, #10, #1
            +ioport_get_pin_level(R4)*16+ioport_get_pin_level(R5)*32;
   809b6:	eb01 1202 	add.w	r2, r1, r2, lsl #4
   809ba:	f3c3 0380 	ubfx	r3, r3, #2, #1
   809be:	eb02 1343 	add.w	r3, r2, r3, lsl #5
    }
    else if(ticks<0){                //Negativt ticks svänger vänster
        while(r_count < abs(ticks)){
			
			
            r_count = ioport_get_pin_level(R0)+ioport_get_pin_level(R1)*2+ioport_get_pin_level(R2)*4+ioport_get_pin_level(R3)*8
   809c2:	603b      	str	r3, [r7, #0]
            +ioport_get_pin_level(R4)*16+ioport_get_pin_level(R5)*32;
            //ioport_set_pin_level(R_RESET,HIGH);   
            
            moveForward(1400,1600);
   809c4:	f44f 60af 	mov.w	r0, #1400	; 0x578
   809c8:	f44f 61c8 	mov.w	r1, #1600	; 0x640
   809cc:	4b1c      	ldr	r3, [pc, #112]	; (80a40 <rotate+0x1ac>)
   809ce:	4798      	blx	r3
        }
        moveForward(1500,1500);
		
    }
    else if(ticks<0){                //Negativt ticks svänger vänster
        while(r_count < abs(ticks)){
   809d0:	683b      	ldr	r3, [r7, #0]
   809d2:	4543      	cmp	r3, r8
   809d4:	dbd5      	blt.n	80982 <rotate+0xee>
            
            moveForward(1400,1600);
//             sprintf(str,"åt vänster: %d\n",r_count);
//             printf (str);
        }
        moveForward(1500,1500);
   809d6:	f240 50dc 	movw	r0, #1500	; 0x5dc
   809da:	4601      	mov	r1, r0
   809dc:	4b18      	ldr	r3, [pc, #96]	; (80a40 <rotate+0x1ac>)
   809de:	4798      	blx	r3
		
    }
	l_count = 0;
   809e0:	2300      	movs	r3, #0
   809e2:	4a15      	ldr	r2, [pc, #84]	; (80a38 <rotate+0x1a4>)
   809e4:	6013      	str	r3, [r2, #0]
	r_count = 0;
   809e6:	4a18      	ldr	r2, [pc, #96]	; (80a48 <rotate+0x1b4>)
   809e8:	6013      	str	r3, [r2, #0]
		bool level)
{
	Pio *base = arch_ioport_pin_to_base(pin);

	if (level) {
		base->PIO_SODR = arch_ioport_pin_to_mask(pin);
   809ea:	f44f 4280 	mov.w	r2, #16384	; 0x4000
   809ee:	4b0f      	ldr	r3, [pc, #60]	; (80a2c <rotate+0x198>)
   809f0:	631a      	str	r2, [r3, #48]	; 0x30
   809f2:	f04f 6280 	mov.w	r2, #67108864	; 0x4000000
   809f6:	f503 7300 	add.w	r3, r3, #512	; 0x200
   809fa:	631a      	str	r2, [r3, #48]	; 0x30
	
	ioport_set_pin_level(L_RESET,HIGH);
	ioport_set_pin_level(R_RESET,HIGH);	
	
	char str[20];
	sprintf(str,"\nVinkel: %d",d);
   809fc:	a801      	add	r0, sp, #4
   809fe:	4913      	ldr	r1, [pc, #76]	; (80a4c <rotate+0x1b8>)
   80a00:	465a      	mov	r2, fp
   80a02:	4f13      	ldr	r7, [pc, #76]	; (80a50 <rotate+0x1bc>)
   80a04:	47b8      	blx	r7
	printf (str);
   80a06:	a801      	add	r0, sp, #4
   80a08:	4e12      	ldr	r6, [pc, #72]	; (80a54 <rotate+0x1c0>)
   80a0a:	47b0      	blx	r6
	sprintf(str,"\nTicks: %f",ticks);
   80a0c:	a801      	add	r0, sp, #4
   80a0e:	4912      	ldr	r1, [pc, #72]	; (80a58 <rotate+0x1c4>)
   80a10:	4622      	mov	r2, r4
   80a12:	462b      	mov	r3, r5
   80a14:	47b8      	blx	r7
	printf (str);
   80a16:	a801      	add	r0, sp, #4
   80a18:	47b0      	blx	r6
	
}
   80a1a:	b007      	add	sp, #28
   80a1c:	e8bd 8ff0 	ldmia.w	sp!, {r4, r5, r6, r7, r8, r9, sl, fp, pc}
   80a20:	00081e7d 	.word	0x00081e7d
   80a24:	3fd00000 	.word	0x3fd00000
   80a28:	00081f49 	.word	0x00081f49
   80a2c:	400e0e00 	.word	0x400e0e00
   80a30:	00082469 	.word	0x00082469
   80a34:	0008247d 	.word	0x0008247d
   80a38:	20070aa4 	.word	0x20070aa4
   80a3c:	400e1400 	.word	0x400e1400
   80a40:	000807dd 	.word	0x000807dd
   80a44:	0008242d 	.word	0x0008242d
   80a48:	20070aa8 	.word	0x20070aa8
   80a4c:	00087f70 	.word	0x00087f70
   80a50:	000825e5 	.word	0x000825e5
   80a54:	00082529 	.word	0x00082529
   80a58:	00087f7c 	.word	0x00087f7c
   80a5c:	400e1200 	.word	0x400e1200

00080a60 <sysclk_init>:
	pmc_disable_udpck();
}
#endif // CONFIG_USBCLK_SOURCE

void sysclk_init(void)
{
   80a60:	b510      	push	{r4, lr}
	struct pll_config pllcfg;

	/* Set flash wait state to max in case the below clock switching. */
	system_init_flash(CHIP_FREQ_CPU_MAX);
   80a62:	480e      	ldr	r0, [pc, #56]	; (80a9c <sysclk_init+0x3c>)
   80a64:	4b0e      	ldr	r3, [pc, #56]	; (80aa0 <sysclk_init+0x40>)
   80a66:	4798      	blx	r3
		pmc_switch_mainck_to_fastrc(CKGR_MOR_MOSCRCF_12_MHz);
		break;


	case OSC_MAINCK_XTAL:
		pmc_switch_mainck_to_xtal(PMC_OSC_XTAL,
   80a68:	2000      	movs	r0, #0
   80a6a:	213e      	movs	r1, #62	; 0x3e
   80a6c:	4b0d      	ldr	r3, [pc, #52]	; (80aa4 <sysclk_init+0x44>)
   80a6e:	4798      	blx	r3
	case OSC_MAINCK_4M_RC:
	case OSC_MAINCK_8M_RC:
	case OSC_MAINCK_12M_RC:
	case OSC_MAINCK_XTAL:
	case OSC_MAINCK_BYPASS:
		return pmc_osc_is_ready_mainck();
   80a70:	4c0d      	ldr	r4, [pc, #52]	; (80aa8 <sysclk_init+0x48>)
   80a72:	47a0      	blx	r4
 *
 * \param id A number identifying the oscillator to wait for.
 */
static inline void osc_wait_ready(uint8_t id)
{
	while (!osc_is_ready(id)) {
   80a74:	2800      	cmp	r0, #0
   80a76:	d0fc      	beq.n	80a72 <sysclk_init+0x12>
static inline void pll_enable(const struct pll_config *p_cfg, uint32_t ul_pll_id)
{
	Assert(ul_pll_id < NR_PLLS);

	if (ul_pll_id == PLLA_ID) {
		pmc_disable_pllack(); // Always stop PLL first!
   80a78:	4b0c      	ldr	r3, [pc, #48]	; (80aac <sysclk_init+0x4c>)
   80a7a:	4798      	blx	r3
		PMC->CKGR_PLLAR = CKGR_PLLAR_ONE | p_cfg->ctrl;
   80a7c:	4a0c      	ldr	r2, [pc, #48]	; (80ab0 <sysclk_init+0x50>)
   80a7e:	4b0d      	ldr	r3, [pc, #52]	; (80ab4 <sysclk_init+0x54>)
   80a80:	629a      	str	r2, [r3, #40]	; 0x28
static inline uint32_t pll_is_locked(uint32_t ul_pll_id)
{
	Assert(ul_pll_id < NR_PLLS);

	if (ul_pll_id == PLLA_ID) {
		return pmc_is_locked_pllack();
   80a82:	4c0d      	ldr	r4, [pc, #52]	; (80ab8 <sysclk_init+0x58>)
   80a84:	47a0      	blx	r4
 */
static inline int pll_wait_for_lock(unsigned int pll_id)
{
	Assert(pll_id < NR_PLLS);

	while (!pll_is_locked(pll_id)) {
   80a86:	2800      	cmp	r0, #0
   80a88:	d0fc      	beq.n	80a84 <sysclk_init+0x24>
	else if (CONFIG_SYSCLK_SOURCE == SYSCLK_SRC_PLLACK) {
		pll_enable_source(CONFIG_PLL0_SOURCE);
		pll_config_defaults(&pllcfg, 0);
		pll_enable(&pllcfg, 0);
		pll_wait_for_lock(0);
		pmc_switch_mck_to_pllack(CONFIG_SYSCLK_PRES);
   80a8a:	2010      	movs	r0, #16
   80a8c:	4b0b      	ldr	r3, [pc, #44]	; (80abc <sysclk_init+0x5c>)
   80a8e:	4798      	blx	r3
		pll_wait_for_lock(1);
		pmc_switch_mck_to_upllck(CONFIG_SYSCLK_PRES);
	}

	/* Update the SystemFrequency variable */
	SystemCoreClockUpdate();
   80a90:	4b0b      	ldr	r3, [pc, #44]	; (80ac0 <sysclk_init+0x60>)
   80a92:	4798      	blx	r3

	/* Set a flash wait state depending on the new cpu frequency */
	system_init_flash(sysclk_get_cpu_hz());
   80a94:	4801      	ldr	r0, [pc, #4]	; (80a9c <sysclk_init+0x3c>)
   80a96:	4b02      	ldr	r3, [pc, #8]	; (80aa0 <sysclk_init+0x40>)
   80a98:	4798      	blx	r3
   80a9a:	bd10      	pop	{r4, pc}
   80a9c:	0501bd00 	.word	0x0501bd00
   80aa0:	200700a5 	.word	0x200700a5
   80aa4:	00080e71 	.word	0x00080e71
   80aa8:	00080ec5 	.word	0x00080ec5
   80aac:	00080ed5 	.word	0x00080ed5
   80ab0:	200d3f01 	.word	0x200d3f01
   80ab4:	400e0600 	.word	0x400e0600
   80ab8:	00080ee5 	.word	0x00080ee5
   80abc:	00080e0d 	.word	0x00080e0d
   80ac0:	00081001 	.word	0x00081001

00080ac4 <board_init>:
#include "conf_board.h"
#include "gpio.h"
#include "ioport.h"

void board_init(void)
{
   80ac4:	b510      	push	{r4, lr}
#ifndef CONF_BOARD_KEEP_WATCHDOG_AT_INIT
	/* Disable the watchdog */
	WDT->WDT_MR = WDT_MR_WDDIS;
   80ac6:	f44f 4200 	mov.w	r2, #32768	; 0x8000
   80aca:	4b18      	ldr	r3, [pc, #96]	; (80b2c <board_init+0x68>)
   80acc:	605a      	str	r2, [r3, #4]
 *
 * \param ul_id Id (number) of the peripheral clock.
 */
static inline void sysclk_enable_peripheral_clock(uint32_t ul_id)
{
	pmc_enable_periph_clk(ul_id);
   80ace:	200b      	movs	r0, #11
   80ad0:	4c17      	ldr	r4, [pc, #92]	; (80b30 <board_init+0x6c>)
   80ad2:	47a0      	blx	r4
   80ad4:	200c      	movs	r0, #12
   80ad6:	47a0      	blx	r4
   80ad8:	200d      	movs	r0, #13
   80ada:	47a0      	blx	r4
   80adc:	200e      	movs	r0, #14
   80ade:	47a0      	blx	r4
	 * In new designs IOPORT is used instead.
	 * Here IOPORT must be initialized for others to use before setting up IO.
	 */
	ioport_init();
	/* Configure LED pins */
	gpio_configure_pin(LED0_GPIO, LED0_FLAGS);
   80ae0:	203b      	movs	r0, #59	; 0x3b
   80ae2:	f04f 5160 	mov.w	r1, #939524096	; 0x38000000
   80ae6:	4c13      	ldr	r4, [pc, #76]	; (80b34 <board_init+0x70>)
   80ae8:	47a0      	blx	r4
	gpio_configure_pin(LED1_GPIO, LED1_FLAGS);
   80aea:	2055      	movs	r0, #85	; 0x55
   80aec:	f04f 5160 	mov.w	r1, #939524096	; 0x38000000
   80af0:	47a0      	blx	r4
	gpio_configure_pin(LED2_GPIO, LED2_FLAGS);
   80af2:	2056      	movs	r0, #86	; 0x56
   80af4:	f04f 5160 	mov.w	r1, #939524096	; 0x38000000
   80af8:	47a0      	blx	r4

	/* Configure Push Button pins */
	gpio_configure_pin(GPIO_PUSH_BUTTON_1, GPIO_PUSH_BUTTON_1_FLAGS);
   80afa:	2068      	movs	r0, #104	; 0x68
   80afc:	490e      	ldr	r1, [pc, #56]	; (80b38 <board_init+0x74>)
   80afe:	47a0      	blx	r4
	gpio_configure_pin(GPIO_PUSH_BUTTON_2, GPIO_PUSH_BUTTON_2_FLAGS);
   80b00:	205c      	movs	r0, #92	; 0x5c
   80b02:	490e      	ldr	r1, [pc, #56]	; (80b3c <board_init+0x78>)
   80b04:	47a0      	blx	r4
	Pio *base = arch_ioport_port_to_base(port);

	if (mode & IOPORT_MODE_PULLUP) {
		base->PIO_PUER = mask;
	} else {
		base->PIO_PUDR = mask;
   80b06:	480e      	ldr	r0, [pc, #56]	; (80b40 <board_init+0x7c>)
   80b08:	f44f 5340 	mov.w	r3, #12288	; 0x3000
   80b0c:	6603      	str	r3, [r0, #96]	; 0x60
#endif

	if (mode & IOPORT_MODE_OPEN_DRAIN) {
		base->PIO_MDER = mask;
	} else {
		base->PIO_MDDR = mask;
   80b0e:	6543      	str	r3, [r0, #84]	; 0x54
	}

	if (mode & (IOPORT_MODE_GLITCH_FILTER | IOPORT_MODE_DEBOUNCE)) {
		base->PIO_IFER = mask;
	} else {
		base->PIO_IFDR = mask;
   80b10:	6243      	str	r3, [r0, #36]	; 0x24
#else
		base->PIO_IFSCER = mask;
#endif
	} else {
#if SAM3U || SAM3XA
		base->PIO_SCIFSR = mask;
   80b12:	f8c0 3080 	str.w	r3, [r0, #128]	; 0x80

#if !defined(IOPORT_MODE_MUX_BIT1)
	if (mode & IOPORT_MODE_MUX_BIT0) {
		base->PIO_ABSR |= mask;
	} else {
		base->PIO_ABSR &= ~mask;
   80b16:	6f02      	ldr	r2, [r0, #112]	; 0x70
   80b18:	f422 5240 	bic.w	r2, r2, #12288	; 0x3000
   80b1c:	6702      	str	r2, [r0, #112]	; 0x70
}

__always_inline static void arch_ioport_disable_port(ioport_port_t port,
		ioport_port_mask_t mask)
{
	arch_ioport_port_to_base(port)->PIO_PDR = mask;
   80b1e:	6043      	str	r3, [r0, #4]

#ifdef CONF_BOARD_UART_CONSOLE
	/* Configure UART pins */
	ioport_set_port_mode(IOPORT_PIOA, PIO_PA12A_RXD1 | PIO_PA13A_TXD1, IOPORT_MODE_MUX_A);
	ioport_disable_port(IOPORT_PIOA, PIO_PA12A_RXD1 | PIO_PA13A_TXD1);
	gpio_configure_group(PINS_UART_PIO, PINS_UART, PINS_UART_FLAGS);
   80b20:	f44f 7140 	mov.w	r1, #768	; 0x300
   80b24:	4a07      	ldr	r2, [pc, #28]	; (80b44 <board_init+0x80>)
   80b26:	4b08      	ldr	r3, [pc, #32]	; (80b48 <board_init+0x84>)
   80b28:	4798      	blx	r3
   80b2a:	bd10      	pop	{r4, pc}
   80b2c:	400e1a50 	.word	0x400e1a50
   80b30:	00080ef5 	.word	0x00080ef5
   80b34:	00080bf1 	.word	0x00080bf1
   80b38:	28000079 	.word	0x28000079
   80b3c:	28000001 	.word	0x28000001
   80b40:	400e0e00 	.word	0x400e0e00
   80b44:	08000001 	.word	0x08000001
   80b48:	00080cc5 	.word	0x00080cc5

00080b4c <pio_set_peripheral>:
		const uint32_t ul_mask)
{
	uint32_t ul_sr;

	/* Disable interrupts on the pin(s) */
	p_pio->PIO_IDR = ul_mask;
   80b4c:	6442      	str	r2, [r0, #68]	; 0x44
	case PIO_OUTPUT_1:
	case PIO_NOT_A_PIN:
		return;
	}
#elif (SAM3XA|| SAM3U)
	switch (ul_type) {
   80b4e:	f1b1 5f80 	cmp.w	r1, #268435456	; 0x10000000
   80b52:	d016      	beq.n	80b82 <pio_set_peripheral+0x36>
   80b54:	d804      	bhi.n	80b60 <pio_set_peripheral+0x14>
   80b56:	b1c1      	cbz	r1, 80b8a <pio_set_peripheral+0x3e>
   80b58:	f1b1 6f00 	cmp.w	r1, #134217728	; 0x8000000
   80b5c:	d00a      	beq.n	80b74 <pio_set_peripheral+0x28>
   80b5e:	e013      	b.n	80b88 <pio_set_peripheral+0x3c>
   80b60:	f1b1 5f40 	cmp.w	r1, #805306368	; 0x30000000
   80b64:	d011      	beq.n	80b8a <pio_set_peripheral+0x3e>
   80b66:	f1b1 5f60 	cmp.w	r1, #939524096	; 0x38000000
   80b6a:	d00e      	beq.n	80b8a <pio_set_peripheral+0x3e>
   80b6c:	f1b1 5f20 	cmp.w	r1, #671088640	; 0x28000000
   80b70:	d10a      	bne.n	80b88 <pio_set_peripheral+0x3c>
   80b72:	4770      	bx	lr
	case PIO_PERIPH_A:
		ul_sr = p_pio->PIO_ABSR;
   80b74:	6f03      	ldr	r3, [r0, #112]	; 0x70
		p_pio->PIO_ABSR &= (~ul_mask & ul_sr);
   80b76:	6f01      	ldr	r1, [r0, #112]	; 0x70
   80b78:	400b      	ands	r3, r1
   80b7a:	ea23 0302 	bic.w	r3, r3, r2
   80b7e:	6703      	str	r3, [r0, #112]	; 0x70
		break;
   80b80:	e002      	b.n	80b88 <pio_set_peripheral+0x3c>

	case PIO_PERIPH_B:
		ul_sr = p_pio->PIO_ABSR;
   80b82:	6f03      	ldr	r3, [r0, #112]	; 0x70
		p_pio->PIO_ABSR = (ul_mask | ul_sr);
   80b84:	4313      	orrs	r3, r2
   80b86:	6703      	str	r3, [r0, #112]	; 0x70
#else
#error "Unsupported device"
#endif

	/* Remove the pins from under the control of PIO */
	p_pio->PIO_PDR = ul_mask;
   80b88:	6042      	str	r2, [r0, #4]
   80b8a:	4770      	bx	lr

00080b8c <pio_set_input>:
 * \param p_pio Pointer to a PIO instance.
 * \param ul_mask Interrupt sources bit map.
 */
void pio_disable_interrupt(Pio *p_pio, const uint32_t ul_mask)
{
	p_pio->PIO_IDR = ul_mask;
   80b8c:	6441      	str	r1, [r0, #68]	; 0x44
 */
void pio_pull_up(Pio *p_pio, const uint32_t ul_mask,
		const uint32_t ul_pull_up_enable)
{
	/* Enable the pull-up(s) if necessary */
	if (ul_pull_up_enable) {
   80b8e:	f012 0f01 	tst.w	r2, #1
		p_pio->PIO_PUER = ul_mask;
   80b92:	bf14      	ite	ne
   80b94:	6641      	strne	r1, [r0, #100]	; 0x64
	} else {
		p_pio->PIO_PUDR = ul_mask;
   80b96:	6601      	streq	r1, [r0, #96]	; 0x60
{
	pio_disable_interrupt(p_pio, ul_mask);
	pio_pull_up(p_pio, ul_mask, ul_attribute & PIO_PULLUP);

	/* Enable Input Filter if necessary */
	if (ul_attribute & (PIO_DEGLITCH | PIO_DEBOUNCE)) {
   80b98:	f012 0f0a 	tst.w	r2, #10
		p_pio->PIO_IFER = ul_mask;
   80b9c:	bf14      	ite	ne
   80b9e:	6201      	strne	r1, [r0, #32]
	} else {
		p_pio->PIO_IFDR = ul_mask;
   80ba0:	6241      	streq	r1, [r0, #36]	; 0x24
			p_pio->PIO_IFSCER = ul_mask;
		}
	}
#elif (SAM3XA|| SAM3U)
	/* Enable de-glitch or de-bounce if necessary */
	if (ul_attribute & PIO_DEGLITCH) {
   80ba2:	f012 0f02 	tst.w	r2, #2
   80ba6:	d002      	beq.n	80bae <pio_set_input+0x22>
		p_pio->PIO_SCIFSR = ul_mask;
   80ba8:	f8c0 1080 	str.w	r1, [r0, #128]	; 0x80
   80bac:	e004      	b.n	80bb8 <pio_set_input+0x2c>
	} else {
		if (ul_attribute & PIO_DEBOUNCE) {
   80bae:	f012 0f08 	tst.w	r2, #8
			p_pio->PIO_DIFSR = ul_mask;
   80bb2:	bf18      	it	ne
   80bb4:	f8c0 1084 	strne.w	r1, [r0, #132]	; 0x84
#else
#error "Unsupported device"
#endif

	/* Configure pin as input */
	p_pio->PIO_ODR = ul_mask;
   80bb8:	6141      	str	r1, [r0, #20]
	p_pio->PIO_PER = ul_mask;
   80bba:	6001      	str	r1, [r0, #0]
   80bbc:	4770      	bx	lr
   80bbe:	bf00      	nop

00080bc0 <pio_set_output>:
 */
void pio_set_output(Pio *p_pio, const uint32_t ul_mask,
		const uint32_t ul_default_level,
		const uint32_t ul_multidrive_enable,
		const uint32_t ul_pull_up_enable)
{
   80bc0:	b410      	push	{r4}
 * \param p_pio Pointer to a PIO instance.
 * \param ul_mask Interrupt sources bit map.
 */
void pio_disable_interrupt(Pio *p_pio, const uint32_t ul_mask)
{
	p_pio->PIO_IDR = ul_mask;
   80bc2:	6441      	str	r1, [r0, #68]	; 0x44
 */
void pio_pull_up(Pio *p_pio, const uint32_t ul_mask,
		const uint32_t ul_pull_up_enable)
{
	/* Enable the pull-up(s) if necessary */
	if (ul_pull_up_enable) {
   80bc4:	9c01      	ldr	r4, [sp, #4]
   80bc6:	b10c      	cbz	r4, 80bcc <pio_set_output+0xc>
		p_pio->PIO_PUER = ul_mask;
   80bc8:	6641      	str	r1, [r0, #100]	; 0x64
   80bca:	e000      	b.n	80bce <pio_set_output+0xe>
	} else {
		p_pio->PIO_PUDR = ul_mask;
   80bcc:	6601      	str	r1, [r0, #96]	; 0x60
{
	pio_disable_interrupt(p_pio, ul_mask);
	pio_pull_up(p_pio, ul_mask, ul_pull_up_enable);

	/* Enable multi-drive if necessary */
	if (ul_multidrive_enable) {
   80bce:	b10b      	cbz	r3, 80bd4 <pio_set_output+0x14>
		p_pio->PIO_MDER = ul_mask;
   80bd0:	6501      	str	r1, [r0, #80]	; 0x50
   80bd2:	e000      	b.n	80bd6 <pio_set_output+0x16>
	} else {
		p_pio->PIO_MDDR = ul_mask;
   80bd4:	6541      	str	r1, [r0, #84]	; 0x54
	}

	/* Set default value */
	if (ul_default_level) {
   80bd6:	b10a      	cbz	r2, 80bdc <pio_set_output+0x1c>
		p_pio->PIO_SODR = ul_mask;
   80bd8:	6301      	str	r1, [r0, #48]	; 0x30
   80bda:	e000      	b.n	80bde <pio_set_output+0x1e>
	} else {
		p_pio->PIO_CODR = ul_mask;
   80bdc:	6341      	str	r1, [r0, #52]	; 0x34
	}

	/* Configure pin(s) as output(s) */
	p_pio->PIO_OER = ul_mask;
   80bde:	6101      	str	r1, [r0, #16]
	p_pio->PIO_PER = ul_mask;
   80be0:	6001      	str	r1, [r0, #0]
}
   80be2:	f85d 4b04 	ldr.w	r4, [sp], #4
   80be6:	4770      	bx	lr

00080be8 <pio_get_interrupt_status>:
 *
 * \return The interrupt status mask value.
 */
uint32_t pio_get_interrupt_status(const Pio *p_pio)
{
	return p_pio->PIO_ISR;
   80be8:	6cc0      	ldr	r0, [r0, #76]	; 0x4c
}
   80bea:	4770      	bx	lr

00080bec <pio_get_interrupt_mask>:
 *
 * \return The interrupt mask value.
 */
uint32_t pio_get_interrupt_mask(const Pio *p_pio)
{
	return p_pio->PIO_IMR;
   80bec:	6c80      	ldr	r0, [r0, #72]	; 0x48
}
   80bee:	4770      	bx	lr

00080bf0 <pio_configure_pin>:
 * \param ul_flags Pins attributes.
 *
 * \return Whether the pin(s) have been configured properly.
 */
uint32_t pio_configure_pin(uint32_t ul_pin, const uint32_t ul_flags)
{
   80bf0:	b570      	push	{r4, r5, r6, lr}
   80bf2:	b082      	sub	sp, #8
   80bf4:	460d      	mov	r5, r1
		p_pio = PIOC;
	} else {
		p_pio = (Pio *)((uint32_t)PIOA + (PIO_DELTA * (ul_pin >> 5)));
	}
#else
	p_pio = (Pio *)((uint32_t)PIOA + (PIO_DELTA * (ul_pin >> 5)));
   80bf6:	0944      	lsrs	r4, r0, #5
   80bf8:	f504 1400 	add.w	r4, r4, #2097152	; 0x200000
   80bfc:	f204 7407 	addw	r4, r4, #1799	; 0x707
   80c00:	0266      	lsls	r6, r4, #9
uint32_t pio_configure_pin(uint32_t ul_pin, const uint32_t ul_flags)
{
	Pio *p_pio = pio_get_pin_group(ul_pin);

	/* Configure pins */
	switch (ul_flags & PIO_TYPE_Msk) {
   80c02:	f001 44f0 	and.w	r4, r1, #2013265920	; 0x78000000
   80c06:	f1b4 5f20 	cmp.w	r4, #671088640	; 0x28000000
   80c0a:	d030      	beq.n	80c6e <pio_configure_pin+0x7e>
   80c0c:	d806      	bhi.n	80c1c <pio_configure_pin+0x2c>
   80c0e:	f1b4 6f00 	cmp.w	r4, #134217728	; 0x8000000
   80c12:	d00a      	beq.n	80c2a <pio_configure_pin+0x3a>
   80c14:	f1b4 5f80 	cmp.w	r4, #268435456	; 0x10000000
   80c18:	d018      	beq.n	80c4c <pio_configure_pin+0x5c>
   80c1a:	e049      	b.n	80cb0 <pio_configure_pin+0xc0>
   80c1c:	f1b4 5f40 	cmp.w	r4, #805306368	; 0x30000000
   80c20:	d030      	beq.n	80c84 <pio_configure_pin+0x94>
   80c22:	f1b4 5f60 	cmp.w	r4, #939524096	; 0x38000000
   80c26:	d02d      	beq.n	80c84 <pio_configure_pin+0x94>
   80c28:	e042      	b.n	80cb0 <pio_configure_pin+0xc0>
	case PIO_TYPE_PIO_PERIPH_A:
		pio_set_peripheral(p_pio, PIO_PERIPH_A, (1 << (ul_pin & 0x1F)));
   80c2a:	f000 001f 	and.w	r0, r0, #31
   80c2e:	2401      	movs	r4, #1
   80c30:	4084      	lsls	r4, r0
   80c32:	4630      	mov	r0, r6
   80c34:	f04f 6100 	mov.w	r1, #134217728	; 0x8000000
   80c38:	4622      	mov	r2, r4
   80c3a:	4b1f      	ldr	r3, [pc, #124]	; (80cb8 <pio_configure_pin+0xc8>)
   80c3c:	4798      	blx	r3
 */
void pio_pull_up(Pio *p_pio, const uint32_t ul_mask,
		const uint32_t ul_pull_up_enable)
{
	/* Enable the pull-up(s) if necessary */
	if (ul_pull_up_enable) {
   80c3e:	f015 0f01 	tst.w	r5, #1
		p_pio->PIO_PUER = ul_mask;
   80c42:	bf14      	ite	ne
   80c44:	6674      	strne	r4, [r6, #100]	; 0x64
	} else {
		p_pio->PIO_PUDR = ul_mask;
   80c46:	6634      	streq	r4, [r6, #96]	; 0x60

	default:
		return 0;
	}

	return 1;
   80c48:	2001      	movs	r0, #1
   80c4a:	e032      	b.n	80cb2 <pio_configure_pin+0xc2>
		pio_set_peripheral(p_pio, PIO_PERIPH_A, (1 << (ul_pin & 0x1F)));
		pio_pull_up(p_pio, (1 << (ul_pin & 0x1F)),
				(ul_flags & PIO_PULLUP));
		break;
	case PIO_TYPE_PIO_PERIPH_B:
		pio_set_peripheral(p_pio, PIO_PERIPH_B, (1 << (ul_pin & 0x1F)));
   80c4c:	f000 001f 	and.w	r0, r0, #31
   80c50:	2401      	movs	r4, #1
   80c52:	4084      	lsls	r4, r0
   80c54:	4630      	mov	r0, r6
   80c56:	f04f 5180 	mov.w	r1, #268435456	; 0x10000000
   80c5a:	4622      	mov	r2, r4
   80c5c:	4b16      	ldr	r3, [pc, #88]	; (80cb8 <pio_configure_pin+0xc8>)
   80c5e:	4798      	blx	r3
 */
void pio_pull_up(Pio *p_pio, const uint32_t ul_mask,
		const uint32_t ul_pull_up_enable)
{
	/* Enable the pull-up(s) if necessary */
	if (ul_pull_up_enable) {
   80c60:	f015 0f01 	tst.w	r5, #1
		p_pio->PIO_PUER = ul_mask;
   80c64:	bf14      	ite	ne
   80c66:	6674      	strne	r4, [r6, #100]	; 0x64
	} else {
		p_pio->PIO_PUDR = ul_mask;
   80c68:	6634      	streq	r4, [r6, #96]	; 0x60

	default:
		return 0;
	}

	return 1;
   80c6a:	2001      	movs	r0, #1
   80c6c:	e021      	b.n	80cb2 <pio_configure_pin+0xc2>
				(ul_flags & PIO_PULLUP));
		break;
#endif

	case PIO_TYPE_PIO_INPUT:
		pio_set_input(p_pio, (1 << (ul_pin & 0x1F)), ul_flags);
   80c6e:	f000 011f 	and.w	r1, r0, #31
   80c72:	2401      	movs	r4, #1
   80c74:	4630      	mov	r0, r6
   80c76:	fa04 f101 	lsl.w	r1, r4, r1
   80c7a:	462a      	mov	r2, r5
   80c7c:	4b0f      	ldr	r3, [pc, #60]	; (80cbc <pio_configure_pin+0xcc>)
   80c7e:	4798      	blx	r3

	default:
		return 0;
	}

	return 1;
   80c80:	4620      	mov	r0, r4
		break;
#endif

	case PIO_TYPE_PIO_INPUT:
		pio_set_input(p_pio, (1 << (ul_pin & 0x1F)), ul_flags);
		break;
   80c82:	e016      	b.n	80cb2 <pio_configure_pin+0xc2>

	case PIO_TYPE_PIO_OUTPUT_0:
	case PIO_TYPE_PIO_OUTPUT_1:
		pio_set_output(p_pio, (1 << (ul_pin & 0x1F)),
   80c84:	f000 011f 	and.w	r1, r0, #31
   80c88:	2401      	movs	r4, #1
				((ul_flags & PIO_TYPE_PIO_OUTPUT_1)
   80c8a:	f005 5260 	and.w	r2, r5, #939524096	; 0x38000000
		pio_set_input(p_pio, (1 << (ul_pin & 0x1F)), ul_flags);
		break;

	case PIO_TYPE_PIO_OUTPUT_0:
	case PIO_TYPE_PIO_OUTPUT_1:
		pio_set_output(p_pio, (1 << (ul_pin & 0x1F)),
   80c8e:	ea05 0304 	and.w	r3, r5, r4
   80c92:	9300      	str	r3, [sp, #0]
   80c94:	4630      	mov	r0, r6
   80c96:	fa04 f101 	lsl.w	r1, r4, r1
   80c9a:	f1b2 5f60 	cmp.w	r2, #939524096	; 0x38000000
   80c9e:	bf14      	ite	ne
   80ca0:	2200      	movne	r2, #0
   80ca2:	2201      	moveq	r2, #1
   80ca4:	f3c5 0380 	ubfx	r3, r5, #2, #1
   80ca8:	4d05      	ldr	r5, [pc, #20]	; (80cc0 <pio_configure_pin+0xd0>)
   80caa:	47a8      	blx	r5

	default:
		return 0;
	}

	return 1;
   80cac:	4620      	mov	r0, r4
		pio_set_output(p_pio, (1 << (ul_pin & 0x1F)),
				((ul_flags & PIO_TYPE_PIO_OUTPUT_1)
				== PIO_TYPE_PIO_OUTPUT_1) ? 1 : 0,
				(ul_flags & PIO_OPENDRAIN) ? 1 : 0,
				(ul_flags & PIO_PULLUP) ? 1 : 0);
		break;
   80cae:	e000      	b.n	80cb2 <pio_configure_pin+0xc2>

	default:
		return 0;
   80cb0:	2000      	movs	r0, #0
	}

	return 1;
}
   80cb2:	b002      	add	sp, #8
   80cb4:	bd70      	pop	{r4, r5, r6, pc}
   80cb6:	bf00      	nop
   80cb8:	00080b4d 	.word	0x00080b4d
   80cbc:	00080b8d 	.word	0x00080b8d
   80cc0:	00080bc1 	.word	0x00080bc1

00080cc4 <pio_configure_pin_group>:
 *
 * \return Whether the pin(s) have been configured properly.
 */
uint32_t pio_configure_pin_group(Pio *p_pio,
		uint32_t ul_mask, const uint32_t ul_flags)
{
   80cc4:	b5f0      	push	{r4, r5, r6, r7, lr}
   80cc6:	b083      	sub	sp, #12
   80cc8:	4607      	mov	r7, r0
   80cca:	460e      	mov	r6, r1
   80ccc:	4615      	mov	r5, r2
	/* Configure pins */
	switch (ul_flags & PIO_TYPE_Msk) {
   80cce:	f002 44f0 	and.w	r4, r2, #2013265920	; 0x78000000
   80cd2:	f1b4 5f20 	cmp.w	r4, #671088640	; 0x28000000
   80cd6:	d026      	beq.n	80d26 <pio_configure_pin_group+0x62>
   80cd8:	d806      	bhi.n	80ce8 <pio_configure_pin_group+0x24>
   80cda:	f1b4 6f00 	cmp.w	r4, #134217728	; 0x8000000
   80cde:	d00a      	beq.n	80cf6 <pio_configure_pin_group+0x32>
   80ce0:	f1b4 5f80 	cmp.w	r4, #268435456	; 0x10000000
   80ce4:	d013      	beq.n	80d0e <pio_configure_pin_group+0x4a>
   80ce6:	e034      	b.n	80d52 <pio_configure_pin_group+0x8e>
   80ce8:	f1b4 5f40 	cmp.w	r4, #805306368	; 0x30000000
   80cec:	d01f      	beq.n	80d2e <pio_configure_pin_group+0x6a>
   80cee:	f1b4 5f60 	cmp.w	r4, #939524096	; 0x38000000
   80cf2:	d01c      	beq.n	80d2e <pio_configure_pin_group+0x6a>
   80cf4:	e02d      	b.n	80d52 <pio_configure_pin_group+0x8e>
	case PIO_TYPE_PIO_PERIPH_A:
		pio_set_peripheral(p_pio, PIO_PERIPH_A, ul_mask);
   80cf6:	f04f 6100 	mov.w	r1, #134217728	; 0x8000000
   80cfa:	4632      	mov	r2, r6
   80cfc:	4b16      	ldr	r3, [pc, #88]	; (80d58 <pio_configure_pin_group+0x94>)
   80cfe:	4798      	blx	r3
 */
void pio_pull_up(Pio *p_pio, const uint32_t ul_mask,
		const uint32_t ul_pull_up_enable)
{
	/* Enable the pull-up(s) if necessary */
	if (ul_pull_up_enable) {
   80d00:	f015 0f01 	tst.w	r5, #1
		p_pio->PIO_PUER = ul_mask;
   80d04:	bf14      	ite	ne
   80d06:	667e      	strne	r6, [r7, #100]	; 0x64
	} else {
		p_pio->PIO_PUDR = ul_mask;
   80d08:	663e      	streq	r6, [r7, #96]	; 0x60

	default:
		return 0;
	}

	return 1;
   80d0a:	2001      	movs	r0, #1
   80d0c:	e022      	b.n	80d54 <pio_configure_pin_group+0x90>
	case PIO_TYPE_PIO_PERIPH_A:
		pio_set_peripheral(p_pio, PIO_PERIPH_A, ul_mask);
		pio_pull_up(p_pio, ul_mask, (ul_flags & PIO_PULLUP));
		break;
	case PIO_TYPE_PIO_PERIPH_B:
		pio_set_peripheral(p_pio, PIO_PERIPH_B, ul_mask);
   80d0e:	f04f 5180 	mov.w	r1, #268435456	; 0x10000000
   80d12:	4632      	mov	r2, r6
   80d14:	4b10      	ldr	r3, [pc, #64]	; (80d58 <pio_configure_pin_group+0x94>)
   80d16:	4798      	blx	r3
 */
void pio_pull_up(Pio *p_pio, const uint32_t ul_mask,
		const uint32_t ul_pull_up_enable)
{
	/* Enable the pull-up(s) if necessary */
	if (ul_pull_up_enable) {
   80d18:	f015 0f01 	tst.w	r5, #1
		p_pio->PIO_PUER = ul_mask;
   80d1c:	bf14      	ite	ne
   80d1e:	667e      	strne	r6, [r7, #100]	; 0x64
	} else {
		p_pio->PIO_PUDR = ul_mask;
   80d20:	663e      	streq	r6, [r7, #96]	; 0x60

	default:
		return 0;
	}

	return 1;
   80d22:	2001      	movs	r0, #1
   80d24:	e016      	b.n	80d54 <pio_configure_pin_group+0x90>
		pio_pull_up(p_pio, ul_mask, (ul_flags & PIO_PULLUP));
		break;
#endif

	case PIO_TYPE_PIO_INPUT:
		pio_set_input(p_pio, ul_mask, ul_flags);
   80d26:	4b0d      	ldr	r3, [pc, #52]	; (80d5c <pio_configure_pin_group+0x98>)
   80d28:	4798      	blx	r3

	default:
		return 0;
	}

	return 1;
   80d2a:	2001      	movs	r0, #1
		break;
#endif

	case PIO_TYPE_PIO_INPUT:
		pio_set_input(p_pio, ul_mask, ul_flags);
		break;
   80d2c:	e012      	b.n	80d54 <pio_configure_pin_group+0x90>

	case PIO_TYPE_PIO_OUTPUT_0:
	case PIO_TYPE_PIO_OUTPUT_1:
		pio_set_output(p_pio, ul_mask,
				((ul_flags & PIO_TYPE_PIO_OUTPUT_1)
   80d2e:	f005 5260 	and.w	r2, r5, #939524096	; 0x38000000
		pio_set_input(p_pio, ul_mask, ul_flags);
		break;

	case PIO_TYPE_PIO_OUTPUT_0:
	case PIO_TYPE_PIO_OUTPUT_1:
		pio_set_output(p_pio, ul_mask,
   80d32:	f005 0301 	and.w	r3, r5, #1
   80d36:	9300      	str	r3, [sp, #0]
   80d38:	4638      	mov	r0, r7
   80d3a:	4631      	mov	r1, r6
   80d3c:	f1b2 5f60 	cmp.w	r2, #939524096	; 0x38000000
   80d40:	bf14      	ite	ne
   80d42:	2200      	movne	r2, #0
   80d44:	2201      	moveq	r2, #1
   80d46:	f3c5 0380 	ubfx	r3, r5, #2, #1
   80d4a:	4c05      	ldr	r4, [pc, #20]	; (80d60 <pio_configure_pin_group+0x9c>)
   80d4c:	47a0      	blx	r4

	default:
		return 0;
	}

	return 1;
   80d4e:	2001      	movs	r0, #1
		pio_set_output(p_pio, ul_mask,
				((ul_flags & PIO_TYPE_PIO_OUTPUT_1)
				== PIO_TYPE_PIO_OUTPUT_1) ? 1 : 0,
				(ul_flags & PIO_OPENDRAIN) ? 1 : 0,
				(ul_flags & PIO_PULLUP) ? 1 : 0);
		break;
   80d50:	e000      	b.n	80d54 <pio_configure_pin_group+0x90>

	default:
		return 0;
   80d52:	2000      	movs	r0, #0
	}

	return 1;
}
   80d54:	b003      	add	sp, #12
   80d56:	bdf0      	pop	{r4, r5, r6, r7, pc}
   80d58:	00080b4d 	.word	0x00080b4d
   80d5c:	00080b8d 	.word	0x00080b8d
   80d60:	00080bc1 	.word	0x00080bc1

00080d64 <pio_handler_process>:
 *
 * \param p_pio PIO controller base address.
 * \param ul_id PIO controller ID.
 */
void pio_handler_process(Pio *p_pio, uint32_t ul_id)
{
   80d64:	e92d 41f0 	stmdb	sp!, {r4, r5, r6, r7, r8, lr}
   80d68:	4604      	mov	r4, r0
   80d6a:	460e      	mov	r6, r1
	uint32_t status;
	uint32_t i;

	/* Read PIO controller status */
	status = pio_get_interrupt_status(p_pio);
   80d6c:	4b10      	ldr	r3, [pc, #64]	; (80db0 <pio_handler_process+0x4c>)
   80d6e:	4798      	blx	r3
   80d70:	4605      	mov	r5, r0
	status &= pio_get_interrupt_mask(p_pio);
   80d72:	4620      	mov	r0, r4
   80d74:	4b0f      	ldr	r3, [pc, #60]	; (80db4 <pio_handler_process+0x50>)
   80d76:	4798      	blx	r3

	/* Check pending events */
	if (status != 0) {
   80d78:	4005      	ands	r5, r0
   80d7a:	d017      	beq.n	80dac <pio_handler_process+0x48>
   80d7c:	4f0e      	ldr	r7, [pc, #56]	; (80db8 <pio_handler_process+0x54>)
   80d7e:	f107 040c 	add.w	r4, r7, #12
   80d82:	376c      	adds	r7, #108	; 0x6c
		/* Find triggering source */
		i = 0;
		while (status != 0) {
			/* Source is configured on the same controller */
			if (gs_interrupt_sources[i].id == ul_id) {
   80d84:	f854 3c0c 	ldr.w	r3, [r4, #-12]
   80d88:	42b3      	cmp	r3, r6
   80d8a:	d10a      	bne.n	80da2 <pio_handler_process+0x3e>
				/* Source has PIOs whose statuses have changed */
				if ((status & gs_interrupt_sources[i].mask) != 0) {
   80d8c:	f854 1c08 	ldr.w	r1, [r4, #-8]
   80d90:	4229      	tst	r1, r5
   80d92:	d006      	beq.n	80da2 <pio_handler_process+0x3e>
					gs_interrupt_sources[i].handler(gs_interrupt_sources[i].id,
   80d94:	6823      	ldr	r3, [r4, #0]
   80d96:	4630      	mov	r0, r6
   80d98:	4798      	blx	r3
							gs_interrupt_sources[i].mask);
					status &= ~(gs_interrupt_sources[i].mask);
   80d9a:	f854 3c08 	ldr.w	r3, [r4, #-8]
   80d9e:	ea25 0503 	bic.w	r5, r5, r3
				}
			}
			i++;
			if (i >= MAX_INTERRUPT_SOURCES) {
   80da2:	42bc      	cmp	r4, r7
   80da4:	d002      	beq.n	80dac <pio_handler_process+0x48>
   80da6:	3410      	adds	r4, #16

	/* Check pending events */
	if (status != 0) {
		/* Find triggering source */
		i = 0;
		while (status != 0) {
   80da8:	2d00      	cmp	r5, #0
   80daa:	d1eb      	bne.n	80d84 <pio_handler_process+0x20>
   80dac:	e8bd 81f0 	ldmia.w	sp!, {r4, r5, r6, r7, r8, pc}
   80db0:	00080be9 	.word	0x00080be9
   80db4:	00080bed 	.word	0x00080bed
   80db8:	20070aac 	.word	0x20070aac

00080dbc <PIOA_Handler>:
/**
 * \brief Parallel IO Controller A interrupt handler.
 * Redefined PIOA interrupt handler for NVIC interrupt table.
 */
void PIOA_Handler(void)
{
   80dbc:	b508      	push	{r3, lr}
	pio_handler_process(PIOA, ID_PIOA);
   80dbe:	4802      	ldr	r0, [pc, #8]	; (80dc8 <PIOA_Handler+0xc>)
   80dc0:	210b      	movs	r1, #11
   80dc2:	4b02      	ldr	r3, [pc, #8]	; (80dcc <PIOA_Handler+0x10>)
   80dc4:	4798      	blx	r3
   80dc6:	bd08      	pop	{r3, pc}
   80dc8:	400e0e00 	.word	0x400e0e00
   80dcc:	00080d65 	.word	0x00080d65

00080dd0 <PIOB_Handler>:
/**
 * \brief Parallel IO Controller B interrupt handler
 * Redefined PIOB interrupt handler for NVIC interrupt table.
 */
void PIOB_Handler(void)
{
   80dd0:	b508      	push	{r3, lr}
    pio_handler_process(PIOB, ID_PIOB);
   80dd2:	4802      	ldr	r0, [pc, #8]	; (80ddc <PIOB_Handler+0xc>)
   80dd4:	210c      	movs	r1, #12
   80dd6:	4b02      	ldr	r3, [pc, #8]	; (80de0 <PIOB_Handler+0x10>)
   80dd8:	4798      	blx	r3
   80dda:	bd08      	pop	{r3, pc}
   80ddc:	400e1000 	.word	0x400e1000
   80de0:	00080d65 	.word	0x00080d65

00080de4 <PIOC_Handler>:
/**
 * \brief Parallel IO Controller C interrupt handler.
 * Redefined PIOC interrupt handler for NVIC interrupt table.
 */
void PIOC_Handler(void)
{
   80de4:	b508      	push	{r3, lr}
	pio_handler_process(PIOC, ID_PIOC);
   80de6:	4802      	ldr	r0, [pc, #8]	; (80df0 <PIOC_Handler+0xc>)
   80de8:	210d      	movs	r1, #13
   80dea:	4b02      	ldr	r3, [pc, #8]	; (80df4 <PIOC_Handler+0x10>)
   80dec:	4798      	blx	r3
   80dee:	bd08      	pop	{r3, pc}
   80df0:	400e1200 	.word	0x400e1200
   80df4:	00080d65 	.word	0x00080d65

00080df8 <PIOD_Handler>:
/**
 * \brief Parallel IO Controller D interrupt handler.
 * Redefined PIOD interrupt handler for NVIC interrupt table.
 */
void PIOD_Handler(void)
{
   80df8:	b508      	push	{r3, lr}
	pio_handler_process(PIOD, ID_PIOD);
   80dfa:	4802      	ldr	r0, [pc, #8]	; (80e04 <PIOD_Handler+0xc>)
   80dfc:	210e      	movs	r1, #14
   80dfe:	4b02      	ldr	r3, [pc, #8]	; (80e08 <PIOD_Handler+0x10>)
   80e00:	4798      	blx	r3
   80e02:	bd08      	pop	{r3, pc}
   80e04:	400e1400 	.word	0x400e1400
   80e08:	00080d65 	.word	0x00080d65

00080e0c <pmc_switch_mck_to_pllack>:
 */
uint32_t pmc_switch_mck_to_pllack(uint32_t ul_pres)
{
	uint32_t ul_timeout;

	PMC->PMC_MCKR = (PMC->PMC_MCKR & (~PMC_MCKR_PRES_Msk)) | ul_pres;
   80e0c:	4b17      	ldr	r3, [pc, #92]	; (80e6c <pmc_switch_mck_to_pllack+0x60>)
   80e0e:	6b1a      	ldr	r2, [r3, #48]	; 0x30
   80e10:	f022 0270 	bic.w	r2, r2, #112	; 0x70
   80e14:	4310      	orrs	r0, r2
   80e16:	6318      	str	r0, [r3, #48]	; 0x30
	for (ul_timeout = PMC_TIMEOUT; !(PMC->PMC_SR & PMC_SR_MCKRDY);
   80e18:	6e9b      	ldr	r3, [r3, #104]	; 0x68
   80e1a:	f013 0f08 	tst.w	r3, #8
   80e1e:	d109      	bne.n	80e34 <pmc_switch_mck_to_pllack+0x28>
   80e20:	f44f 6300 	mov.w	r3, #2048	; 0x800
   80e24:	4911      	ldr	r1, [pc, #68]	; (80e6c <pmc_switch_mck_to_pllack+0x60>)
   80e26:	e001      	b.n	80e2c <pmc_switch_mck_to_pllack+0x20>
			--ul_timeout) {
		if (ul_timeout == 0) {
   80e28:	3b01      	subs	r3, #1
   80e2a:	d019      	beq.n	80e60 <pmc_switch_mck_to_pllack+0x54>
uint32_t pmc_switch_mck_to_pllack(uint32_t ul_pres)
{
	uint32_t ul_timeout;

	PMC->PMC_MCKR = (PMC->PMC_MCKR & (~PMC_MCKR_PRES_Msk)) | ul_pres;
	for (ul_timeout = PMC_TIMEOUT; !(PMC->PMC_SR & PMC_SR_MCKRDY);
   80e2c:	6e8a      	ldr	r2, [r1, #104]	; 0x68
   80e2e:	f012 0f08 	tst.w	r2, #8
   80e32:	d0f9      	beq.n	80e28 <pmc_switch_mck_to_pllack+0x1c>
		if (ul_timeout == 0) {
			return 1;
		}
	}

	PMC->PMC_MCKR = (PMC->PMC_MCKR & (~PMC_MCKR_CSS_Msk)) |
   80e34:	4b0d      	ldr	r3, [pc, #52]	; (80e6c <pmc_switch_mck_to_pllack+0x60>)
   80e36:	6b1a      	ldr	r2, [r3, #48]	; 0x30
   80e38:	f022 0203 	bic.w	r2, r2, #3
   80e3c:	f042 0202 	orr.w	r2, r2, #2
   80e40:	631a      	str	r2, [r3, #48]	; 0x30
			PMC_MCKR_CSS_PLLA_CLK;

	for (ul_timeout = PMC_TIMEOUT; !(PMC->PMC_SR & PMC_SR_MCKRDY);
   80e42:	6e98      	ldr	r0, [r3, #104]	; 0x68
   80e44:	f010 0008 	ands.w	r0, r0, #8
   80e48:	d10c      	bne.n	80e64 <pmc_switch_mck_to_pllack+0x58>
   80e4a:	f44f 6300 	mov.w	r3, #2048	; 0x800
   80e4e:	4907      	ldr	r1, [pc, #28]	; (80e6c <pmc_switch_mck_to_pllack+0x60>)
   80e50:	e001      	b.n	80e56 <pmc_switch_mck_to_pllack+0x4a>
			--ul_timeout) {
		if (ul_timeout == 0) {
   80e52:	3b01      	subs	r3, #1
   80e54:	d008      	beq.n	80e68 <pmc_switch_mck_to_pllack+0x5c>
	}

	PMC->PMC_MCKR = (PMC->PMC_MCKR & (~PMC_MCKR_CSS_Msk)) |
			PMC_MCKR_CSS_PLLA_CLK;

	for (ul_timeout = PMC_TIMEOUT; !(PMC->PMC_SR & PMC_SR_MCKRDY);
   80e56:	6e8a      	ldr	r2, [r1, #104]	; 0x68
   80e58:	f012 0f08 	tst.w	r2, #8
   80e5c:	d0f9      	beq.n	80e52 <pmc_switch_mck_to_pllack+0x46>
   80e5e:	4770      	bx	lr

	PMC->PMC_MCKR = (PMC->PMC_MCKR & (~PMC_MCKR_PRES_Msk)) | ul_pres;
	for (ul_timeout = PMC_TIMEOUT; !(PMC->PMC_SR & PMC_SR_MCKRDY);
			--ul_timeout) {
		if (ul_timeout == 0) {
			return 1;
   80e60:	2001      	movs	r0, #1
   80e62:	4770      	bx	lr
		if (ul_timeout == 0) {
			return 1;
		}
	}

	return 0;
   80e64:	2000      	movs	r0, #0
   80e66:	4770      	bx	lr
			PMC_MCKR_CSS_PLLA_CLK;

	for (ul_timeout = PMC_TIMEOUT; !(PMC->PMC_SR & PMC_SR_MCKRDY);
			--ul_timeout) {
		if (ul_timeout == 0) {
			return 1;
   80e68:	2001      	movs	r0, #1
		}
	}

	return 0;
}
   80e6a:	4770      	bx	lr
   80e6c:	400e0600 	.word	0x400e0600

00080e70 <pmc_switch_mainck_to_xtal>:
 */
void pmc_switch_mainck_to_xtal(uint32_t ul_bypass,
		uint32_t ul_xtal_startup_time)
{
	/* Enable Main Xtal oscillator */
	if (ul_bypass) {
   80e70:	b138      	cbz	r0, 80e82 <pmc_switch_mainck_to_xtal+0x12>
		PMC->CKGR_MOR = (PMC->CKGR_MOR & ~CKGR_MOR_MOSCXTEN) |
   80e72:	4911      	ldr	r1, [pc, #68]	; (80eb8 <pmc_switch_mainck_to_xtal+0x48>)
   80e74:	6a0b      	ldr	r3, [r1, #32]
				CKGR_MOR_KEY_PASSWD | CKGR_MOR_MOSCXTBY |
   80e76:	4a11      	ldr	r2, [pc, #68]	; (80ebc <pmc_switch_mainck_to_xtal+0x4c>)
   80e78:	401a      	ands	r2, r3
   80e7a:	4b11      	ldr	r3, [pc, #68]	; (80ec0 <pmc_switch_mainck_to_xtal+0x50>)
   80e7c:	4313      	orrs	r3, r2
void pmc_switch_mainck_to_xtal(uint32_t ul_bypass,
		uint32_t ul_xtal_startup_time)
{
	/* Enable Main Xtal oscillator */
	if (ul_bypass) {
		PMC->CKGR_MOR = (PMC->CKGR_MOR & ~CKGR_MOR_MOSCXTEN) |
   80e7e:	620b      	str	r3, [r1, #32]
   80e80:	4770      	bx	lr
				CKGR_MOR_KEY_PASSWD | CKGR_MOR_MOSCXTBY |
				CKGR_MOR_MOSCSEL;
	} else {
		PMC->CKGR_MOR = (PMC->CKGR_MOR & ~CKGR_MOR_MOSCXTBY) |
   80e82:	4a0d      	ldr	r2, [pc, #52]	; (80eb8 <pmc_switch_mainck_to_xtal+0x48>)
   80e84:	6a13      	ldr	r3, [r2, #32]
				CKGR_MOR_KEY_PASSWD | CKGR_MOR_MOSCXTEN |
   80e86:	f423 135c 	bic.w	r3, r3, #3604480	; 0x370000
   80e8a:	f023 0303 	bic.w	r3, r3, #3
   80e8e:	f443 135c 	orr.w	r3, r3, #3604480	; 0x370000
   80e92:	f043 0301 	orr.w	r3, r3, #1
				CKGR_MOR_MOSCXTST(ul_xtal_startup_time);
   80e96:	0209      	lsls	r1, r1, #8
   80e98:	b289      	uxth	r1, r1
		PMC->CKGR_MOR = (PMC->CKGR_MOR & ~CKGR_MOR_MOSCXTEN) |
				CKGR_MOR_KEY_PASSWD | CKGR_MOR_MOSCXTBY |
				CKGR_MOR_MOSCSEL;
	} else {
		PMC->CKGR_MOR = (PMC->CKGR_MOR & ~CKGR_MOR_MOSCXTBY) |
				CKGR_MOR_KEY_PASSWD | CKGR_MOR_MOSCXTEN |
   80e9a:	430b      	orrs	r3, r1
	if (ul_bypass) {
		PMC->CKGR_MOR = (PMC->CKGR_MOR & ~CKGR_MOR_MOSCXTEN) |
				CKGR_MOR_KEY_PASSWD | CKGR_MOR_MOSCXTBY |
				CKGR_MOR_MOSCSEL;
	} else {
		PMC->CKGR_MOR = (PMC->CKGR_MOR & ~CKGR_MOR_MOSCXTBY) |
   80e9c:	6213      	str	r3, [r2, #32]
				CKGR_MOR_KEY_PASSWD | CKGR_MOR_MOSCXTEN |
				CKGR_MOR_MOSCXTST(ul_xtal_startup_time);
		/* Wait the Xtal to stabilize */
		while (!(PMC->PMC_SR & PMC_SR_MOSCXTS));
   80e9e:	6e93      	ldr	r3, [r2, #104]	; 0x68
   80ea0:	f013 0f01 	tst.w	r3, #1
   80ea4:	d0fb      	beq.n	80e9e <pmc_switch_mainck_to_xtal+0x2e>

		PMC->CKGR_MOR |= CKGR_MOR_KEY_PASSWD | CKGR_MOR_MOSCSEL;
   80ea6:	4a04      	ldr	r2, [pc, #16]	; (80eb8 <pmc_switch_mainck_to_xtal+0x48>)
   80ea8:	6a13      	ldr	r3, [r2, #32]
   80eaa:	f043 739b 	orr.w	r3, r3, #20316160	; 0x1360000
   80eae:	f443 3380 	orr.w	r3, r3, #65536	; 0x10000
   80eb2:	6213      	str	r3, [r2, #32]
   80eb4:	4770      	bx	lr
   80eb6:	bf00      	nop
   80eb8:	400e0600 	.word	0x400e0600
   80ebc:	fec8fffc 	.word	0xfec8fffc
   80ec0:	01370002 	.word	0x01370002

00080ec4 <pmc_osc_is_ready_mainck>:
 * \retval 1 Xtal is ready.
 * \retval 0 Xtal is not ready.
 */
uint32_t pmc_osc_is_ready_mainck(void)
{
	return PMC->PMC_SR & PMC_SR_MOSCSELS;
   80ec4:	4b02      	ldr	r3, [pc, #8]	; (80ed0 <pmc_osc_is_ready_mainck+0xc>)
   80ec6:	6e98      	ldr	r0, [r3, #104]	; 0x68
}
   80ec8:	f400 3080 	and.w	r0, r0, #65536	; 0x10000
   80ecc:	4770      	bx	lr
   80ece:	bf00      	nop
   80ed0:	400e0600 	.word	0x400e0600

00080ed4 <pmc_disable_pllack>:
void pmc_disable_pllack(void)
{
#if (SAM4C || SAM4CM || SAM4CP || SAMG)
	PMC->CKGR_PLLAR = CKGR_PLLAR_MULA(0);
#else
	PMC->CKGR_PLLAR = CKGR_PLLAR_ONE | CKGR_PLLAR_MULA(0);
   80ed4:	f04f 5200 	mov.w	r2, #536870912	; 0x20000000
   80ed8:	4b01      	ldr	r3, [pc, #4]	; (80ee0 <pmc_disable_pllack+0xc>)
   80eda:	629a      	str	r2, [r3, #40]	; 0x28
   80edc:	4770      	bx	lr
   80ede:	bf00      	nop
   80ee0:	400e0600 	.word	0x400e0600

00080ee4 <pmc_is_locked_pllack>:
 * \retval 0 Not locked.
 * \retval 1 Locked.
 */
uint32_t pmc_is_locked_pllack(void)
{
	return (PMC->PMC_SR & PMC_SR_LOCKA);
   80ee4:	4b02      	ldr	r3, [pc, #8]	; (80ef0 <pmc_is_locked_pllack+0xc>)
   80ee6:	6e98      	ldr	r0, [r3, #104]	; 0x68
}
   80ee8:	f000 0002 	and.w	r0, r0, #2
   80eec:	4770      	bx	lr
   80eee:	bf00      	nop
   80ef0:	400e0600 	.word	0x400e0600

00080ef4 <pmc_enable_periph_clk>:
 * \retval 0 Success.
 * \retval 1 Invalid parameter.
 */
uint32_t pmc_enable_periph_clk(uint32_t ul_id)
{
	if (ul_id > MAX_PERIPH_ID) {
   80ef4:	282c      	cmp	r0, #44	; 0x2c
   80ef6:	d820      	bhi.n	80f3a <pmc_enable_periph_clk+0x46>
		return 1;
	}

	if (ul_id < 32) {
   80ef8:	281f      	cmp	r0, #31
   80efa:	d80d      	bhi.n	80f18 <pmc_enable_periph_clk+0x24>
		if ((PMC->PMC_PCSR0 & (1u << ul_id)) != (1u << ul_id)) {
   80efc:	4b12      	ldr	r3, [pc, #72]	; (80f48 <pmc_enable_periph_clk+0x54>)
   80efe:	699a      	ldr	r2, [r3, #24]
   80f00:	2301      	movs	r3, #1
   80f02:	4083      	lsls	r3, r0
   80f04:	401a      	ands	r2, r3
   80f06:	4293      	cmp	r3, r2
   80f08:	d019      	beq.n	80f3e <pmc_enable_periph_clk+0x4a>
			PMC->PMC_PCER0 = 1 << ul_id;
   80f0a:	2301      	movs	r3, #1
   80f0c:	fa03 f000 	lsl.w	r0, r3, r0
   80f10:	4b0d      	ldr	r3, [pc, #52]	; (80f48 <pmc_enable_periph_clk+0x54>)
   80f12:	6118      	str	r0, [r3, #16]
			PMC->PMC_PCER1 = 1 << ul_id;
		}
#endif
	}

	return 0;
   80f14:	2000      	movs	r0, #0
   80f16:	4770      	bx	lr
			PMC->PMC_PCER0 = 1 << ul_id;
		}
#if (SAM3S || SAM3XA || SAM4S || SAM4E || SAM4C || SAM4CM || SAM4CP || SAMG55 || SAMV71 || SAMV70 || SAME70 || SAMS70)
	} else {
		ul_id -= 32;
		if ((PMC->PMC_PCSR1 & (1u << ul_id)) != (1u << ul_id)) {
   80f18:	4b0b      	ldr	r3, [pc, #44]	; (80f48 <pmc_enable_periph_clk+0x54>)
   80f1a:	f8d3 2108 	ldr.w	r2, [r3, #264]	; 0x108
		if ((PMC->PMC_PCSR0 & (1u << ul_id)) != (1u << ul_id)) {
			PMC->PMC_PCER0 = 1 << ul_id;
		}
#if (SAM3S || SAM3XA || SAM4S || SAM4E || SAM4C || SAM4CM || SAM4CP || SAMG55 || SAMV71 || SAMV70 || SAME70 || SAMS70)
	} else {
		ul_id -= 32;
   80f1e:	3820      	subs	r0, #32
		if ((PMC->PMC_PCSR1 & (1u << ul_id)) != (1u << ul_id)) {
   80f20:	2301      	movs	r3, #1
   80f22:	4083      	lsls	r3, r0
   80f24:	401a      	ands	r2, r3
   80f26:	4293      	cmp	r3, r2
   80f28:	d00b      	beq.n	80f42 <pmc_enable_periph_clk+0x4e>
			PMC->PMC_PCER1 = 1 << ul_id;
   80f2a:	2301      	movs	r3, #1
   80f2c:	fa03 f000 	lsl.w	r0, r3, r0
   80f30:	4b05      	ldr	r3, [pc, #20]	; (80f48 <pmc_enable_periph_clk+0x54>)
   80f32:	f8c3 0100 	str.w	r0, [r3, #256]	; 0x100
		}
#endif
	}

	return 0;
   80f36:	2000      	movs	r0, #0
   80f38:	4770      	bx	lr
 * \retval 1 Invalid parameter.
 */
uint32_t pmc_enable_periph_clk(uint32_t ul_id)
{
	if (ul_id > MAX_PERIPH_ID) {
		return 1;
   80f3a:	2001      	movs	r0, #1
   80f3c:	4770      	bx	lr
			PMC->PMC_PCER1 = 1 << ul_id;
		}
#endif
	}

	return 0;
   80f3e:	2000      	movs	r0, #0
   80f40:	4770      	bx	lr
   80f42:	2000      	movs	r0, #0
}
   80f44:	4770      	bx	lr
   80f46:	bf00      	nop
   80f48:	400e0600 	.word	0x400e0600

00080f4c <Dummy_Handler>:

/**
 * \brief Default interrupt handler for unused IRQs.
 */
void Dummy_Handler(void)
{
   80f4c:	e7fe      	b.n	80f4c <Dummy_Handler>
   80f4e:	bf00      	nop

00080f50 <Reset_Handler>:
/**
 * \brief This is the code that gets called on processor reset.
 * To initialize the device, and call the main() routine.
 */
void Reset_Handler(void)
{
   80f50:	b510      	push	{r4, lr}

	/* Initialize the relocate segment */
	pSrc = &_etext;
	pDest = &_srelocate;

	if (pSrc != pDest) {
   80f52:	4b1e      	ldr	r3, [pc, #120]	; (80fcc <Reset_Handler+0x7c>)
   80f54:	4a1e      	ldr	r2, [pc, #120]	; (80fd0 <Reset_Handler+0x80>)
   80f56:	429a      	cmp	r2, r3
   80f58:	d003      	beq.n	80f62 <Reset_Handler+0x12>
		for (; pDest < &_erelocate;) {
   80f5a:	4b1e      	ldr	r3, [pc, #120]	; (80fd4 <Reset_Handler+0x84>)
   80f5c:	4a1b      	ldr	r2, [pc, #108]	; (80fcc <Reset_Handler+0x7c>)
   80f5e:	429a      	cmp	r2, r3
   80f60:	d304      	bcc.n	80f6c <Reset_Handler+0x1c>
			*pDest++ = *pSrc++;
		}
	}

	/* Clear the zero segment */
	for (pDest = &_szero; pDest < &_ezero;) {
   80f62:	4b1d      	ldr	r3, [pc, #116]	; (80fd8 <Reset_Handler+0x88>)
   80f64:	4a1d      	ldr	r2, [pc, #116]	; (80fdc <Reset_Handler+0x8c>)
   80f66:	429a      	cmp	r2, r3
   80f68:	d30f      	bcc.n	80f8a <Reset_Handler+0x3a>
   80f6a:	e01a      	b.n	80fa2 <Reset_Handler+0x52>
   80f6c:	4b1c      	ldr	r3, [pc, #112]	; (80fe0 <Reset_Handler+0x90>)
   80f6e:	4c1d      	ldr	r4, [pc, #116]	; (80fe4 <Reset_Handler+0x94>)
   80f70:	1ae4      	subs	r4, r4, r3
   80f72:	f024 0403 	bic.w	r4, r4, #3
   80f76:	3404      	adds	r4, #4
	/* Initialize the relocate segment */
	pSrc = &_etext;
	pDest = &_srelocate;

	if (pSrc != pDest) {
		for (; pDest < &_erelocate;) {
   80f78:	2300      	movs	r3, #0
			*pDest++ = *pSrc++;
   80f7a:	4814      	ldr	r0, [pc, #80]	; (80fcc <Reset_Handler+0x7c>)
   80f7c:	4914      	ldr	r1, [pc, #80]	; (80fd0 <Reset_Handler+0x80>)
   80f7e:	585a      	ldr	r2, [r3, r1]
   80f80:	501a      	str	r2, [r3, r0]
   80f82:	3304      	adds	r3, #4
	/* Initialize the relocate segment */
	pSrc = &_etext;
	pDest = &_srelocate;

	if (pSrc != pDest) {
		for (; pDest < &_erelocate;) {
   80f84:	42a3      	cmp	r3, r4
   80f86:	d1fa      	bne.n	80f7e <Reset_Handler+0x2e>
   80f88:	e7eb      	b.n	80f62 <Reset_Handler+0x12>
   80f8a:	4b17      	ldr	r3, [pc, #92]	; (80fe8 <Reset_Handler+0x98>)
   80f8c:	4917      	ldr	r1, [pc, #92]	; (80fec <Reset_Handler+0x9c>)
   80f8e:	1ac9      	subs	r1, r1, r3
   80f90:	f021 0103 	bic.w	r1, r1, #3
   80f94:	1d1a      	adds	r2, r3, #4
   80f96:	4411      	add	r1, r2
		}
	}

	/* Clear the zero segment */
	for (pDest = &_szero; pDest < &_ezero;) {
		*pDest++ = 0;
   80f98:	2200      	movs	r2, #0
   80f9a:	f843 2f04 	str.w	r2, [r3, #4]!
			*pDest++ = *pSrc++;
		}
	}

	/* Clear the zero segment */
	for (pDest = &_szero; pDest < &_ezero;) {
   80f9e:	428b      	cmp	r3, r1
   80fa0:	d1fb      	bne.n	80f9a <Reset_Handler+0x4a>
		*pDest++ = 0;
	}

	/* Set the vector table base address */
	pSrc = (uint32_t *) & _sfixed;
	SCB->VTOR = ((uint32_t) pSrc & SCB_VTOR_TBLOFF_Msk);
   80fa2:	4a13      	ldr	r2, [pc, #76]	; (80ff0 <Reset_Handler+0xa0>)
   80fa4:	f022 4360 	bic.w	r3, r2, #3758096384	; 0xe0000000
   80fa8:	f023 037f 	bic.w	r3, r3, #127	; 0x7f
   80fac:	4911      	ldr	r1, [pc, #68]	; (80ff4 <Reset_Handler+0xa4>)
   80fae:	608b      	str	r3, [r1, #8]

	if (((uint32_t) pSrc >= IRAM0_ADDR) && ((uint32_t) pSrc < NFC_RAM_ADDR)) {
   80fb0:	f102 4260 	add.w	r2, r2, #3758096384	; 0xe0000000
   80fb4:	f5b2 1f80 	cmp.w	r2, #1048576	; 0x100000
   80fb8:	d203      	bcs.n	80fc2 <Reset_Handler+0x72>
		SCB->VTOR |= 1 << SCB_VTOR_TBLBASE_Pos;
   80fba:	688a      	ldr	r2, [r1, #8]
   80fbc:	f042 5200 	orr.w	r2, r2, #536870912	; 0x20000000
   80fc0:	608a      	str	r2, [r1, #8]
	}

	/* Initialize the C library */
	__libc_init_array();
   80fc2:	4b0d      	ldr	r3, [pc, #52]	; (80ff8 <Reset_Handler+0xa8>)
   80fc4:	4798      	blx	r3

	/* Branch to main function */
	main();
   80fc6:	4b0d      	ldr	r3, [pc, #52]	; (80ffc <Reset_Handler+0xac>)
   80fc8:	4798      	blx	r3
   80fca:	e7fe      	b.n	80fca <Reset_Handler+0x7a>
   80fcc:	20070000 	.word	0x20070000
   80fd0:	00088190 	.word	0x00088190
   80fd4:	200709dc 	.word	0x200709dc
   80fd8:	20070b7c 	.word	0x20070b7c
   80fdc:	200709dc 	.word	0x200709dc
   80fe0:	20070004 	.word	0x20070004
   80fe4:	200709df 	.word	0x200709df
   80fe8:	200709d8 	.word	0x200709d8
   80fec:	20070b77 	.word	0x20070b77
   80ff0:	00080000 	.word	0x00080000
   80ff4:	e000ed00 	.word	0xe000ed00
   80ff8:	000824d9 	.word	0x000824d9
   80ffc:	000811e1 	.word	0x000811e1

00081000 <SystemCoreClockUpdate>:
}

void SystemCoreClockUpdate(void)
{
	/* Determine clock frequency according to clock register values */
	switch (PMC->PMC_MCKR & PMC_MCKR_CSS_Msk) {
   81000:	4b3e      	ldr	r3, [pc, #248]	; (810fc <SystemCoreClockUpdate+0xfc>)
   81002:	6b1b      	ldr	r3, [r3, #48]	; 0x30
   81004:	f003 0303 	and.w	r3, r3, #3
   81008:	2b03      	cmp	r3, #3
   8100a:	d85f      	bhi.n	810cc <SystemCoreClockUpdate+0xcc>
   8100c:	e8df f003 	tbb	[pc, r3]
   81010:	2b2b0e02 	.word	0x2b2b0e02
	case PMC_MCKR_CSS_SLOW_CLK:	/* Slow clock */
		if (SUPC->SUPC_SR & SUPC_SR_OSCSEL) {
   81014:	4b3a      	ldr	r3, [pc, #232]	; (81100 <SystemCoreClockUpdate+0x100>)
   81016:	695b      	ldr	r3, [r3, #20]
   81018:	f013 0f80 	tst.w	r3, #128	; 0x80
			SystemCoreClock = CHIP_FREQ_XTAL_32K;
   8101c:	bf14      	ite	ne
   8101e:	f44f 4200 	movne.w	r2, #32768	; 0x8000
		} else {
			SystemCoreClock = CHIP_FREQ_SLCK_RC;
   81022:	f44f 42fa 	moveq.w	r2, #32000	; 0x7d00
   81026:	4b37      	ldr	r3, [pc, #220]	; (81104 <SystemCoreClockUpdate+0x104>)
   81028:	601a      	str	r2, [r3, #0]
   8102a:	e04f      	b.n	810cc <SystemCoreClockUpdate+0xcc>
		}
		break;
	case PMC_MCKR_CSS_MAIN_CLK:	/* Main clock */
		if (PMC->CKGR_MOR & CKGR_MOR_MOSCSEL) {
   8102c:	4b33      	ldr	r3, [pc, #204]	; (810fc <SystemCoreClockUpdate+0xfc>)
   8102e:	6a1b      	ldr	r3, [r3, #32]
   81030:	f013 7f80 	tst.w	r3, #16777216	; 0x1000000
   81034:	d003      	beq.n	8103e <SystemCoreClockUpdate+0x3e>
			SystemCoreClock = CHIP_FREQ_XTAL_12M;
   81036:	4a34      	ldr	r2, [pc, #208]	; (81108 <SystemCoreClockUpdate+0x108>)
   81038:	4b32      	ldr	r3, [pc, #200]	; (81104 <SystemCoreClockUpdate+0x104>)
   8103a:	601a      	str	r2, [r3, #0]
   8103c:	e046      	b.n	810cc <SystemCoreClockUpdate+0xcc>
		} else {
			SystemCoreClock = CHIP_FREQ_MAINCK_RC_4MHZ;
   8103e:	4a33      	ldr	r2, [pc, #204]	; (8110c <SystemCoreClockUpdate+0x10c>)
   81040:	4b30      	ldr	r3, [pc, #192]	; (81104 <SystemCoreClockUpdate+0x104>)
   81042:	601a      	str	r2, [r3, #0]

			switch (PMC->CKGR_MOR & CKGR_MOR_MOSCRCF_Msk) {
   81044:	4b2d      	ldr	r3, [pc, #180]	; (810fc <SystemCoreClockUpdate+0xfc>)
   81046:	6a1b      	ldr	r3, [r3, #32]
   81048:	f003 0370 	and.w	r3, r3, #112	; 0x70
   8104c:	2b10      	cmp	r3, #16
   8104e:	d002      	beq.n	81056 <SystemCoreClockUpdate+0x56>
   81050:	2b20      	cmp	r3, #32
   81052:	d004      	beq.n	8105e <SystemCoreClockUpdate+0x5e>
   81054:	e03a      	b.n	810cc <SystemCoreClockUpdate+0xcc>
			case CKGR_MOR_MOSCRCF_4_MHz:
				break;
			case CKGR_MOR_MOSCRCF_8_MHz:
				SystemCoreClock *= 2U;
   81056:	4a2e      	ldr	r2, [pc, #184]	; (81110 <SystemCoreClockUpdate+0x110>)
   81058:	4b2a      	ldr	r3, [pc, #168]	; (81104 <SystemCoreClockUpdate+0x104>)
   8105a:	601a      	str	r2, [r3, #0]
				break;
   8105c:	e036      	b.n	810cc <SystemCoreClockUpdate+0xcc>
			case CKGR_MOR_MOSCRCF_12_MHz:
				SystemCoreClock *= 3U;
   8105e:	4a2a      	ldr	r2, [pc, #168]	; (81108 <SystemCoreClockUpdate+0x108>)
   81060:	4b28      	ldr	r3, [pc, #160]	; (81104 <SystemCoreClockUpdate+0x104>)
   81062:	601a      	str	r2, [r3, #0]
				break;
   81064:	e032      	b.n	810cc <SystemCoreClockUpdate+0xcc>
			}
		}
		break;
	case PMC_MCKR_CSS_PLLA_CLK:	/* PLLA clock */
	case PMC_MCKR_CSS_UPLL_CLK:	/* UPLL clock */
		if (PMC->CKGR_MOR & CKGR_MOR_MOSCSEL) {
   81066:	4b25      	ldr	r3, [pc, #148]	; (810fc <SystemCoreClockUpdate+0xfc>)
   81068:	6a1b      	ldr	r3, [r3, #32]
   8106a:	f013 7f80 	tst.w	r3, #16777216	; 0x1000000
   8106e:	d003      	beq.n	81078 <SystemCoreClockUpdate+0x78>
			SystemCoreClock = CHIP_FREQ_XTAL_12M;
   81070:	4a25      	ldr	r2, [pc, #148]	; (81108 <SystemCoreClockUpdate+0x108>)
   81072:	4b24      	ldr	r3, [pc, #144]	; (81104 <SystemCoreClockUpdate+0x104>)
   81074:	601a      	str	r2, [r3, #0]
   81076:	e012      	b.n	8109e <SystemCoreClockUpdate+0x9e>
		} else {
			SystemCoreClock = CHIP_FREQ_MAINCK_RC_4MHZ;
   81078:	4a24      	ldr	r2, [pc, #144]	; (8110c <SystemCoreClockUpdate+0x10c>)
   8107a:	4b22      	ldr	r3, [pc, #136]	; (81104 <SystemCoreClockUpdate+0x104>)
   8107c:	601a      	str	r2, [r3, #0]

			switch (PMC->CKGR_MOR & CKGR_MOR_MOSCRCF_Msk) {
   8107e:	4b1f      	ldr	r3, [pc, #124]	; (810fc <SystemCoreClockUpdate+0xfc>)
   81080:	6a1b      	ldr	r3, [r3, #32]
   81082:	f003 0370 	and.w	r3, r3, #112	; 0x70
   81086:	2b10      	cmp	r3, #16
   81088:	d002      	beq.n	81090 <SystemCoreClockUpdate+0x90>
   8108a:	2b20      	cmp	r3, #32
   8108c:	d004      	beq.n	81098 <SystemCoreClockUpdate+0x98>
   8108e:	e006      	b.n	8109e <SystemCoreClockUpdate+0x9e>
			case CKGR_MOR_MOSCRCF_4_MHz:
				break;
			case CKGR_MOR_MOSCRCF_8_MHz:
				SystemCoreClock *= 2U;
   81090:	4a1f      	ldr	r2, [pc, #124]	; (81110 <SystemCoreClockUpdate+0x110>)
   81092:	4b1c      	ldr	r3, [pc, #112]	; (81104 <SystemCoreClockUpdate+0x104>)
   81094:	601a      	str	r2, [r3, #0]
				break;
   81096:	e002      	b.n	8109e <SystemCoreClockUpdate+0x9e>
			case CKGR_MOR_MOSCRCF_12_MHz:
				SystemCoreClock *= 3U;
   81098:	4a1b      	ldr	r2, [pc, #108]	; (81108 <SystemCoreClockUpdate+0x108>)
   8109a:	4b1a      	ldr	r3, [pc, #104]	; (81104 <SystemCoreClockUpdate+0x104>)
   8109c:	601a      	str	r2, [r3, #0]
				break;
			default:
				break;
			}
		}
		if ((PMC->PMC_MCKR & PMC_MCKR_CSS_Msk) == PMC_MCKR_CSS_PLLA_CLK) {
   8109e:	4b17      	ldr	r3, [pc, #92]	; (810fc <SystemCoreClockUpdate+0xfc>)
   810a0:	6b1b      	ldr	r3, [r3, #48]	; 0x30
   810a2:	f003 0303 	and.w	r3, r3, #3
   810a6:	2b02      	cmp	r3, #2
   810a8:	d10d      	bne.n	810c6 <SystemCoreClockUpdate+0xc6>
			SystemCoreClock *= ((((PMC->CKGR_PLLAR) & CKGR_PLLAR_MULA_Msk) >> 
   810aa:	4b14      	ldr	r3, [pc, #80]	; (810fc <SystemCoreClockUpdate+0xfc>)
   810ac:	6a98      	ldr	r0, [r3, #40]	; 0x28
				                            CKGR_PLLAR_MULA_Pos) + 1U);
			SystemCoreClock /= ((((PMC->CKGR_PLLAR) & CKGR_PLLAR_DIVA_Msk) >> 
   810ae:	6a99      	ldr	r1, [r3, #40]	; 0x28
   810b0:	4b14      	ldr	r3, [pc, #80]	; (81104 <SystemCoreClockUpdate+0x104>)
			default:
				break;
			}
		}
		if ((PMC->PMC_MCKR & PMC_MCKR_CSS_Msk) == PMC_MCKR_CSS_PLLA_CLK) {
			SystemCoreClock *= ((((PMC->CKGR_PLLAR) & CKGR_PLLAR_MULA_Msk) >> 
   810b2:	f3c0 400a 	ubfx	r0, r0, #16, #11
   810b6:	681a      	ldr	r2, [r3, #0]
   810b8:	fb00 2202 	mla	r2, r0, r2, r2
				                            CKGR_PLLAR_MULA_Pos) + 1U);
			SystemCoreClock /= ((((PMC->CKGR_PLLAR) & CKGR_PLLAR_DIVA_Msk) >> 
   810bc:	b2c9      	uxtb	r1, r1
   810be:	fbb2 f2f1 	udiv	r2, r2, r1
   810c2:	601a      	str	r2, [r3, #0]
   810c4:	e002      	b.n	810cc <SystemCoreClockUpdate+0xcc>
				                             CKGR_PLLAR_DIVA_Pos));
		} else {
			SystemCoreClock = SYS_UTMIPLL / 2U;
   810c6:	4a13      	ldr	r2, [pc, #76]	; (81114 <SystemCoreClockUpdate+0x114>)
   810c8:	4b0e      	ldr	r3, [pc, #56]	; (81104 <SystemCoreClockUpdate+0x104>)
   810ca:	601a      	str	r2, [r3, #0]
		}
		break;
	}

	if ((PMC->PMC_MCKR & PMC_MCKR_PRES_Msk) == PMC_MCKR_PRES_CLK_3) {
   810cc:	4b0b      	ldr	r3, [pc, #44]	; (810fc <SystemCoreClockUpdate+0xfc>)
   810ce:	6b1b      	ldr	r3, [r3, #48]	; 0x30
   810d0:	f003 0370 	and.w	r3, r3, #112	; 0x70
   810d4:	2b70      	cmp	r3, #112	; 0x70
   810d6:	d107      	bne.n	810e8 <SystemCoreClockUpdate+0xe8>
		SystemCoreClock /= 3U;
   810d8:	4b0a      	ldr	r3, [pc, #40]	; (81104 <SystemCoreClockUpdate+0x104>)
   810da:	681a      	ldr	r2, [r3, #0]
   810dc:	490e      	ldr	r1, [pc, #56]	; (81118 <SystemCoreClockUpdate+0x118>)
   810de:	fba1 0202 	umull	r0, r2, r1, r2
   810e2:	0852      	lsrs	r2, r2, #1
   810e4:	601a      	str	r2, [r3, #0]
   810e6:	4770      	bx	lr
	} else {
		SystemCoreClock >>= ((PMC->PMC_MCKR & PMC_MCKR_PRES_Msk) >> 
   810e8:	4b04      	ldr	r3, [pc, #16]	; (810fc <SystemCoreClockUpdate+0xfc>)
   810ea:	6b19      	ldr	r1, [r3, #48]	; 0x30
   810ec:	4b05      	ldr	r3, [pc, #20]	; (81104 <SystemCoreClockUpdate+0x104>)
   810ee:	f3c1 1102 	ubfx	r1, r1, #4, #3
   810f2:	681a      	ldr	r2, [r3, #0]
   810f4:	40ca      	lsrs	r2, r1
   810f6:	601a      	str	r2, [r3, #0]
   810f8:	4770      	bx	lr
   810fa:	bf00      	nop
   810fc:	400e0600 	.word	0x400e0600
   81100:	400e1a10 	.word	0x400e1a10
   81104:	20070138 	.word	0x20070138
   81108:	00b71b00 	.word	0x00b71b00
   8110c:	003d0900 	.word	0x003d0900
   81110:	007a1200 	.word	0x007a1200
   81114:	0e4e1c00 	.word	0x0e4e1c00
   81118:	aaaaaaab 	.word	0xaaaaaaab

0008111c <_sbrk>:
{
	static unsigned char *heap = NULL;
	unsigned char *prev_heap;
	int ramend = (int)&__ram_end__;

	if (heap == NULL) {
   8111c:	4b09      	ldr	r3, [pc, #36]	; (81144 <_sbrk+0x28>)
   8111e:	681b      	ldr	r3, [r3, #0]
   81120:	b913      	cbnz	r3, 81128 <_sbrk+0xc>
		heap = (unsigned char *)&_end;
   81122:	4a09      	ldr	r2, [pc, #36]	; (81148 <_sbrk+0x2c>)
   81124:	4b07      	ldr	r3, [pc, #28]	; (81144 <_sbrk+0x28>)
   81126:	601a      	str	r2, [r3, #0]
	}
	prev_heap = heap;
   81128:	4b06      	ldr	r3, [pc, #24]	; (81144 <_sbrk+0x28>)
   8112a:	681b      	ldr	r3, [r3, #0]

	if (((int)prev_heap + incr) > ramend) {
   8112c:	181a      	adds	r2, r3, r0
   8112e:	4907      	ldr	r1, [pc, #28]	; (8114c <_sbrk+0x30>)
   81130:	4291      	cmp	r1, r2
   81132:	db04      	blt.n	8113e <_sbrk+0x22>
		return (caddr_t) -1;	
	}

	heap += incr;
   81134:	4610      	mov	r0, r2
   81136:	4a03      	ldr	r2, [pc, #12]	; (81144 <_sbrk+0x28>)
   81138:	6010      	str	r0, [r2, #0]

	return (caddr_t) prev_heap;
   8113a:	4618      	mov	r0, r3
   8113c:	4770      	bx	lr
		heap = (unsigned char *)&_end;
	}
	prev_heap = heap;

	if (((int)prev_heap + incr) > ramend) {
		return (caddr_t) -1;	
   8113e:	f04f 30ff 	mov.w	r0, #4294967295
	}

	heap += incr;

	return (caddr_t) prev_heap;
}
   81142:	4770      	bx	lr
   81144:	20070b1c 	.word	0x20070b1c
   81148:	20072b80 	.word	0x20072b80
   8114c:	20087ffc 	.word	0x20087ffc

00081150 <_close>:
}

extern int _close(int file)
{
	return -1;
}
   81150:	f04f 30ff 	mov.w	r0, #4294967295
   81154:	4770      	bx	lr
   81156:	bf00      	nop

00081158 <_fstat>:

extern int _fstat(int file, struct stat *st)
{
	st->st_mode = S_IFCHR;
   81158:	f44f 5300 	mov.w	r3, #8192	; 0x2000
   8115c:	604b      	str	r3, [r1, #4]

	return 0;
}
   8115e:	2000      	movs	r0, #0
   81160:	4770      	bx	lr
   81162:	bf00      	nop

00081164 <_isatty>:

extern int _isatty(int file)
{
	return 1;
}
   81164:	2001      	movs	r0, #1
   81166:	4770      	bx	lr

00081168 <_lseek>:

extern int _lseek(int file, int ptr, int dir)
{
	return 0;
}
   81168:	2000      	movs	r0, #0
   8116a:	4770      	bx	lr

0008116c <USART1_Handler>:
	sysclk_enable_peripheral_clock(BOARD_USART1_BASE);
	usart_serial_init(CONF_UART, &uart_serial_options);
}

void USART1_Handler() {
	CONF_UART->US_CR |= (1 << US_CR_RSTRX);
   8116c:	4b09      	ldr	r3, [pc, #36]	; (81194 <USART1_Handler+0x28>)
   8116e:	681a      	ldr	r2, [r3, #0]
   81170:	f042 0210 	orr.w	r2, r2, #16
   81174:	601a      	str	r2, [r3, #0]
	rx[c_counter++] = CONF_UART->US_RHR & US_RHR_RXCHR_Msk;
   81176:	4808      	ldr	r0, [pc, #32]	; (81198 <USART1_Handler+0x2c>)
   81178:	7801      	ldrb	r1, [r0, #0]
   8117a:	1c4a      	adds	r2, r1, #1
   8117c:	b2d2      	uxtb	r2, r2
   8117e:	7002      	strb	r2, [r0, #0]
   81180:	6998      	ldr	r0, [r3, #24]
   81182:	4b06      	ldr	r3, [pc, #24]	; (8119c <USART1_Handler+0x30>)
   81184:	5458      	strb	r0, [r3, r1]
	if (c_counter > 15)
   81186:	2a0f      	cmp	r2, #15
   81188:	d902      	bls.n	81190 <USART1_Handler+0x24>
	{
		c_counter = 0;
   8118a:	2200      	movs	r2, #0
   8118c:	4b02      	ldr	r3, [pc, #8]	; (81198 <USART1_Handler+0x2c>)
   8118e:	701a      	strb	r2, [r3, #0]
   81190:	4770      	bx	lr
   81192:	bf00      	nop
   81194:	4009c000 	.word	0x4009c000
   81198:	20070b20 	.word	0x20070b20
   8119c:	20070b68 	.word	0x20070b68

000811a0 <stringToInt>:
	}
	
}

void stringToInt(uint16_t *p_variable, char *p_string) {
			*p_variable = (*p_string++ - '0') * 1000;
   811a0:	780b      	ldrb	r3, [r1, #0]
   811a2:	3b30      	subs	r3, #48	; 0x30
   811a4:	ebc3 1243 	rsb	r2, r3, r3, lsl #5
   811a8:	eb03 0382 	add.w	r3, r3, r2, lsl #2
   811ac:	00db      	lsls	r3, r3, #3
   811ae:	b29b      	uxth	r3, r3
   811b0:	8003      	strh	r3, [r0, #0]
			*p_variable = *p_variable + (*p_string++ - '0') * 100;
   811b2:	784a      	ldrb	r2, [r1, #1]
   811b4:	3a30      	subs	r2, #48	; 0x30
   811b6:	eb02 0282 	add.w	r2, r2, r2, lsl #2
   811ba:	eb02 0282 	add.w	r2, r2, r2, lsl #2
   811be:	eb03 0282 	add.w	r2, r3, r2, lsl #2
   811c2:	b292      	uxth	r2, r2
   811c4:	8002      	strh	r2, [r0, #0]
			*p_variable = *p_variable + (*p_string++ - '0') * 10;
   811c6:	788b      	ldrb	r3, [r1, #2]
   811c8:	3b30      	subs	r3, #48	; 0x30
   811ca:	eb03 0383 	add.w	r3, r3, r3, lsl #2
   811ce:	eb02 0343 	add.w	r3, r2, r3, lsl #1
   811d2:	b29b      	uxth	r3, r3
   811d4:	8003      	strh	r3, [r0, #0]
			*p_variable = *p_variable + (*p_string - '0');
   811d6:	78ca      	ldrb	r2, [r1, #3]
   811d8:	3a30      	subs	r2, #48	; 0x30
   811da:	4413      	add	r3, r2
   811dc:	8003      	strh	r3, [r0, #0]
   811de:	4770      	bx	lr

000811e0 <main>:
}


int main (void)
{
   811e0:	e92d 41f0 	stmdb	sp!, {r4, r5, r6, r7, r8, lr}
   811e4:	b094      	sub	sp, #80	; 0x50
	
	sysclk_init();
   811e6:	4b63      	ldr	r3, [pc, #396]	; (81374 <main+0x194>)
   811e8:	4798      	blx	r3
	board_init();
   811ea:	4b63      	ldr	r3, [pc, #396]	; (81378 <main+0x198>)
   811ec:	4798      	blx	r3
   811ee:	200b      	movs	r0, #11
   811f0:	4d62      	ldr	r5, [pc, #392]	; (8137c <main+0x19c>)
   811f2:	47a8      	blx	r5
   811f4:	200c      	movs	r0, #12
   811f6:	47a8      	blx	r5
   811f8:	200d      	movs	r0, #13
   811fa:	47a8      	blx	r5
   811fc:	200e      	movs	r0, #14
   811fe:	47a8      	blx	r5
	ioport_init();
	delayInit();
   81200:	4b5f      	ldr	r3, [pc, #380]	; (81380 <main+0x1a0>)
   81202:	4798      	blx	r3
	initRegulator();
   81204:	4b5f      	ldr	r3, [pc, #380]	; (81384 <main+0x1a4>)
   81206:	4798      	blx	r3
	initMotor();
   81208:	4b5f      	ldr	r3, [pc, #380]	; (81388 <main+0x1a8>)
   8120a:	4798      	blx	r3
	initRotateMotor();
   8120c:	4b5f      	ldr	r3, [pc, #380]	; (8138c <main+0x1ac>)
   8120e:	4798      	blx	r3
   81210:	4e5f      	ldr	r6, [pc, #380]	; (81390 <main+0x1b0>)
   81212:	4630      	mov	r0, r6
   81214:	47a8      	blx	r5
	uart_settings.ul_baudrate = opt->baudrate;
	uart_settings.ul_mode = opt->paritytype;
#endif

	sam_usart_opt_t usart_settings;
	usart_settings.baudrate = opt->baudrate;
   81216:	f44f 5316 	mov.w	r3, #9600	; 0x2580
   8121a:	9303      	str	r3, [sp, #12]
	usart_settings.char_length = opt->charlength;
   8121c:	23c0      	movs	r3, #192	; 0xc0
   8121e:	9304      	str	r3, [sp, #16]
	usart_settings.parity_type = opt->paritytype;
   81220:	f44f 6300 	mov.w	r3, #2048	; 0x800
   81224:	9305      	str	r3, [sp, #20]
	usart_settings.stop_bits= opt->stopbits;
   81226:	2400      	movs	r4, #0
   81228:	9406      	str	r4, [sp, #24]
	usart_settings.channel_mode= US_MR_CHMODE_NORMAL;
   8122a:	9407      	str	r4, [sp, #28]
   8122c:	2012      	movs	r0, #18
   8122e:	47a8      	blx	r5
		flexcom_set_opmode(FLEXCOM1, FLEXCOM_USART);
#else
		sysclk_enable_peripheral_clock(ID_USART1);
#endif
		/* Configure USART */
		usart_init_rs232(p_usart, &usart_settings,
   81230:	4630      	mov	r0, r6
   81232:	a903      	add	r1, sp, #12
   81234:	4a57      	ldr	r2, [pc, #348]	; (81394 <main+0x1b4>)
   81236:	4b58      	ldr	r3, [pc, #352]	; (81398 <main+0x1b8>)
   81238:	4798      	blx	r3
		/* Configure USART */
		usart_init_rs232(p_usart, &usart_settings,
				sysclk_get_peripheral_bus_hz(p_usart));
#endif
		/* Enable the receiver and transmitter. */
		usart_enable_tx(p_usart);
   8123a:	4630      	mov	r0, r6
   8123c:	4b57      	ldr	r3, [pc, #348]	; (8139c <main+0x1bc>)
   8123e:	4798      	blx	r3
		usart_enable_rx(p_usart);
   81240:	4630      	mov	r0, r6
   81242:	4b57      	ldr	r3, [pc, #348]	; (813a0 <main+0x1c0>)
   81244:	4798      	blx	r3
	configure_console();
	initDrive();
   81246:	4b57      	ldr	r3, [pc, #348]	; (813a4 <main+0x1c4>)
   81248:	4798      	blx	r3
	
	char str1[4];
	char str2[4];
	char str3[4];
	char str4[4];
	uint16_t x1 = 0;
   8124a:	f8ad 403e 	strh.w	r4, [sp, #62]	; 0x3e
	uint16_t x2 = 0;
   8124e:	f8ad 403c 	strh.w	r4, [sp, #60]	; 0x3c
	uint16_t x3 = 0; //irrelevant
   81252:	f8ad 403a 	strh.w	r4, [sp, #58]	; 0x3a
	uint16_t x4 = 0; //irrelevant
   81256:	f8ad 4038 	strh.w	r4, [sp, #56]	; 0x38
// 		x1=x1+1;
// 		x2=x2-1;
// 		j++;
// 	}
	
	moveForward(1650,1650);
   8125a:	f240 6072 	movw	r0, #1650	; 0x672
   8125e:	4601      	mov	r1, r0
   81260:	4d51      	ldr	r5, [pc, #324]	; (813a8 <main+0x1c8>)
   81262:	47a8      	blx	r5
	
	delayMicroseconds(1000000);
   81264:	4851      	ldr	r0, [pc, #324]	; (813ac <main+0x1cc>)
   81266:	4b52      	ldr	r3, [pc, #328]	; (813b0 <main+0x1d0>)
   81268:	4798      	blx	r3
	
	moveForward(1500,1500);
   8126a:	f240 50dc 	movw	r0, #1500	; 0x5dc
   8126e:	4601      	mov	r1, r0
   81270:	47a8      	blx	r5
		
	uint16_t secondx = x1;
	uint16_t secondy = x2;
   81272:	f8bd 603c 	ldrh.w	r6, [sp, #60]	; 0x3c
	
	int xdiff = getX_diff(secondx,firstx);
   81276:	f8bd 003e 	ldrh.w	r0, [sp, #62]	; 0x3e
   8127a:	4621      	mov	r1, r4
   8127c:	4b4d      	ldr	r3, [pc, #308]	; (813b4 <main+0x1d4>)
   8127e:	4798      	blx	r3
   81280:	4605      	mov	r5, r0
	int ydiff = getY_diff(secondy,firsty);
   81282:	4630      	mov	r0, r6
   81284:	4621      	mov	r1, r4
   81286:	4b4c      	ldr	r3, [pc, #304]	; (813b8 <main+0x1d8>)
   81288:	4798      	blx	r3
   8128a:	4604      	mov	r4, r0
	
	direction = calculateAngle(ydiff,xdiff);
   8128c:	4629      	mov	r1, r5
   8128e:	4b4b      	ldr	r3, [pc, #300]	; (813bc <main+0x1dc>)
   81290:	4798      	blx	r3
   81292:	4b4b      	ldr	r3, [pc, #300]	; (813c0 <main+0x1e0>)
   81294:	6018      	str	r0, [r3, #0]
	
	
	char str[20];
	sprintf(str,"xdiff: %d\nydiff: %d\ndirection: %d\n",xdiff, ydiff, direction);
   81296:	9000      	str	r0, [sp, #0]
   81298:	a809      	add	r0, sp, #36	; 0x24
   8129a:	494a      	ldr	r1, [pc, #296]	; (813c4 <main+0x1e4>)
   8129c:	462a      	mov	r2, r5
   8129e:	4623      	mov	r3, r4
   812a0:	4c49      	ldr	r4, [pc, #292]	; (813c8 <main+0x1e8>)
   812a2:	47a0      	blx	r4
	printf (str);
   812a4:	a809      	add	r0, sp, #36	; 0x24
   812a6:	4b49      	ldr	r3, [pc, #292]	; (813cc <main+0x1ec>)
   812a8:	4798      	blx	r3
	
	
	
	while(1){
		
		str1[0] = rx[0];
   812aa:	4c49      	ldr	r4, [pc, #292]	; (813d0 <main+0x1f0>)
		str4[0] = rx[12];
		str4[1] = rx[13];
		str4[2] = rx[14];
		str4[3] = rx[15];
		
		stringToInt(&x1, str1);
   812ac:	4d49      	ldr	r5, [pc, #292]	; (813d4 <main+0x1f4>)
		int n=0;

		switch (n)
		{
		case 0:
			rotate(calculateAngle(getY_diff(OBJ1_Y,x2),getX_diff(OBJ1_X,x1)));
   812ae:	4f42      	ldr	r7, [pc, #264]	; (813b8 <main+0x1d8>)
	
	
	
	while(1){
		
		str1[0] = rx[0];
   812b0:	7823      	ldrb	r3, [r4, #0]
   812b2:	f88d 304c 	strb.w	r3, [sp, #76]	; 0x4c
		str1[1] = rx[1];
   812b6:	7863      	ldrb	r3, [r4, #1]
   812b8:	f88d 304d 	strb.w	r3, [sp, #77]	; 0x4d
		str1[2] = rx[2];
   812bc:	78a3      	ldrb	r3, [r4, #2]
   812be:	f88d 304e 	strb.w	r3, [sp, #78]	; 0x4e
		str1[3] = rx[3];
   812c2:	78e3      	ldrb	r3, [r4, #3]
   812c4:	f88d 304f 	strb.w	r3, [sp, #79]	; 0x4f
		
		str2[0] = rx[4];
   812c8:	7923      	ldrb	r3, [r4, #4]
   812ca:	f88d 3048 	strb.w	r3, [sp, #72]	; 0x48
		str2[1] = rx[5];
   812ce:	7963      	ldrb	r3, [r4, #5]
   812d0:	f88d 3049 	strb.w	r3, [sp, #73]	; 0x49
		str2[2] = rx[6];
   812d4:	79a3      	ldrb	r3, [r4, #6]
   812d6:	f88d 304a 	strb.w	r3, [sp, #74]	; 0x4a
		str2[3] = rx[7];
   812da:	79e3      	ldrb	r3, [r4, #7]
   812dc:	f88d 304b 	strb.w	r3, [sp, #75]	; 0x4b
		
		str3[0] = rx[8];
   812e0:	7a23      	ldrb	r3, [r4, #8]
   812e2:	f88d 3044 	strb.w	r3, [sp, #68]	; 0x44
		str3[1] = rx[9];
   812e6:	7a63      	ldrb	r3, [r4, #9]
   812e8:	f88d 3045 	strb.w	r3, [sp, #69]	; 0x45
		str3[2] = rx[10];
   812ec:	7aa3      	ldrb	r3, [r4, #10]
   812ee:	f88d 3046 	strb.w	r3, [sp, #70]	; 0x46
		str3[3] = rx[11];
   812f2:	7ae3      	ldrb	r3, [r4, #11]
   812f4:	f88d 3047 	strb.w	r3, [sp, #71]	; 0x47
		
		str4[0] = rx[12];
   812f8:	7b23      	ldrb	r3, [r4, #12]
   812fa:	f88d 3040 	strb.w	r3, [sp, #64]	; 0x40
		str4[1] = rx[13];
   812fe:	7b63      	ldrb	r3, [r4, #13]
   81300:	f88d 3041 	strb.w	r3, [sp, #65]	; 0x41
		str4[2] = rx[14];
   81304:	7ba3      	ldrb	r3, [r4, #14]
   81306:	f88d 3042 	strb.w	r3, [sp, #66]	; 0x42
		str4[3] = rx[15];
   8130a:	7be3      	ldrb	r3, [r4, #15]
   8130c:	f88d 3043 	strb.w	r3, [sp, #67]	; 0x43
		
		stringToInt(&x1, str1);
   81310:	f10d 003e 	add.w	r0, sp, #62	; 0x3e
   81314:	a913      	add	r1, sp, #76	; 0x4c
   81316:	47a8      	blx	r5
		stringToInt(&x2, str2);
   81318:	a80f      	add	r0, sp, #60	; 0x3c
   8131a:	a912      	add	r1, sp, #72	; 0x48
   8131c:	47a8      	blx	r5
		stringToInt(&x3, str3);
   8131e:	f10d 003a 	add.w	r0, sp, #58	; 0x3a
   81322:	a911      	add	r1, sp, #68	; 0x44
   81324:	47a8      	blx	r5
		stringToInt(&x4, str4);
   81326:	a80e      	add	r0, sp, #56	; 0x38
   81328:	a910      	add	r1, sp, #64	; 0x40
   8132a:	47a8      	blx	r5
		int n=0;

		switch (n)
		{
		case 0:
			rotate(calculateAngle(getY_diff(OBJ1_Y,x2),getX_diff(OBJ1_X,x1)));
   8132c:	f44f 7096 	mov.w	r0, #300	; 0x12c
   81330:	f8bd 103c 	ldrh.w	r1, [sp, #60]	; 0x3c
   81334:	47b8      	blx	r7
   81336:	4680      	mov	r8, r0
   81338:	f44f 7096 	mov.w	r0, #300	; 0x12c
   8133c:	f8bd 103e 	ldrh.w	r1, [sp, #62]	; 0x3e
   81340:	4e1c      	ldr	r6, [pc, #112]	; (813b4 <main+0x1d4>)
   81342:	47b0      	blx	r6
   81344:	4601      	mov	r1, r0
   81346:	4640      	mov	r0, r8
   81348:	4b1c      	ldr	r3, [pc, #112]	; (813bc <main+0x1dc>)
   8134a:	4798      	blx	r3
   8134c:	4b22      	ldr	r3, [pc, #136]	; (813d8 <main+0x1f8>)
   8134e:	4798      	blx	r3
			
			driveTo(calculateDistance(getY_diff(OBJ1_Y,x2),getX_diff(OBJ1_X,x1)));
   81350:	f44f 7096 	mov.w	r0, #300	; 0x12c
   81354:	f8bd 103c 	ldrh.w	r1, [sp, #60]	; 0x3c
   81358:	47b8      	blx	r7
   8135a:	4680      	mov	r8, r0
   8135c:	f44f 7096 	mov.w	r0, #300	; 0x12c
   81360:	f8bd 103e 	ldrh.w	r1, [sp, #62]	; 0x3e
   81364:	47b0      	blx	r6
   81366:	4601      	mov	r1, r0
   81368:	4640      	mov	r0, r8
   8136a:	4b1c      	ldr	r3, [pc, #112]	; (813dc <main+0x1fc>)
   8136c:	4798      	blx	r3
   8136e:	4b1c      	ldr	r3, [pc, #112]	; (813e0 <main+0x200>)
   81370:	4798      	blx	r3
   81372:	e79d      	b.n	812b0 <main+0xd0>
   81374:	00080a61 	.word	0x00080a61
   81378:	00080ac5 	.word	0x00080ac5
   8137c:	00080ef5 	.word	0x00080ef5
   81380:	0008071d 	.word	0x0008071d
   81384:	000806a1 	.word	0x000806a1
   81388:	00080795 	.word	0x00080795
   8138c:	00080801 	.word	0x00080801
   81390:	4009c000 	.word	0x4009c000
   81394:	0501bd00 	.word	0x0501bd00
   81398:	0008037d 	.word	0x0008037d
   8139c:	000803d1 	.word	0x000803d1
   813a0:	000803d9 	.word	0x000803d9
   813a4:	00080511 	.word	0x00080511
   813a8:	000807dd 	.word	0x000807dd
   813ac:	000f4240 	.word	0x000f4240
   813b0:	00080759 	.word	0x00080759
   813b4:	00080459 	.word	0x00080459
   813b8:	0008045d 	.word	0x0008045d
   813bc:	00080461 	.word	0x00080461
   813c0:	20070b24 	.word	0x20070b24
   813c4:	00087f88 	.word	0x00087f88
   813c8:	000825e5 	.word	0x000825e5
   813cc:	00082529 	.word	0x00082529
   813d0:	20070b68 	.word	0x20070b68
   813d4:	000811a1 	.word	0x000811a1
   813d8:	00080895 	.word	0x00080895
   813dc:	000804e9 	.word	0x000804e9
   813e0:	000805a5 	.word	0x000805a5

000813e4 <acos>:
   813e4:	e92d 41f0 	stmdb	sp!, {r4, r5, r6, r7, r8, lr}
   813e8:	b08a      	sub	sp, #40	; 0x28
   813ea:	4604      	mov	r4, r0
   813ec:	460d      	mov	r5, r1
   813ee:	f000 f8a3 	bl	81538 <__ieee754_acos>
   813f2:	f8df 8094 	ldr.w	r8, [pc, #148]	; 81488 <acos+0xa4>
   813f6:	4606      	mov	r6, r0
   813f8:	f998 3000 	ldrsb.w	r3, [r8]
   813fc:	460f      	mov	r7, r1
   813fe:	3301      	adds	r3, #1
   81400:	d004      	beq.n	8140c <acos+0x28>
   81402:	4620      	mov	r0, r4
   81404:	4629      	mov	r1, r5
   81406:	f000 fbb7 	bl	81b78 <__fpclassifyd>
   8140a:	b920      	cbnz	r0, 81416 <acos+0x32>
   8140c:	4630      	mov	r0, r6
   8140e:	4639      	mov	r1, r7
   81410:	b00a      	add	sp, #40	; 0x28
   81412:	e8bd 81f0 	ldmia.w	sp!, {r4, r5, r6, r7, r8, pc}
   81416:	4620      	mov	r0, r4
   81418:	4629      	mov	r1, r5
   8141a:	f000 fba9 	bl	81b70 <fabs>
   8141e:	2200      	movs	r2, #0
   81420:	4b16      	ldr	r3, [pc, #88]	; (8147c <acos+0x98>)
   81422:	f001 f821 	bl	82468 <__aeabi_dcmpgt>
   81426:	2800      	cmp	r0, #0
   81428:	d0f0      	beq.n	8140c <acos+0x28>
   8142a:	4915      	ldr	r1, [pc, #84]	; (81480 <acos+0x9c>)
   8142c:	2300      	movs	r3, #0
   8142e:	2201      	movs	r2, #1
   81430:	4814      	ldr	r0, [pc, #80]	; (81484 <acos+0xa0>)
   81432:	9308      	str	r3, [sp, #32]
   81434:	e9cd 4504 	strd	r4, r5, [sp, #16]
   81438:	e9cd 4502 	strd	r4, r5, [sp, #8]
   8143c:	9101      	str	r1, [sp, #4]
   8143e:	9200      	str	r2, [sp, #0]
   81440:	f000 fbc4 	bl	81bcc <nan>
   81444:	f998 3000 	ldrsb.w	r3, [r8]
   81448:	e9cd 0106 	strd	r0, r1, [sp, #24]
   8144c:	2b02      	cmp	r3, #2
   8144e:	d00a      	beq.n	81466 <acos+0x82>
   81450:	4668      	mov	r0, sp
   81452:	f000 fbb9 	bl	81bc8 <matherr>
   81456:	b130      	cbz	r0, 81466 <acos+0x82>
   81458:	9b08      	ldr	r3, [sp, #32]
   8145a:	b94b      	cbnz	r3, 81470 <acos+0x8c>
   8145c:	e9dd 0106 	ldrd	r0, r1, [sp, #24]
   81460:	b00a      	add	sp, #40	; 0x28
   81462:	e8bd 81f0 	ldmia.w	sp!, {r4, r5, r6, r7, r8, pc}
   81466:	f001 f831 	bl	824cc <__errno>
   8146a:	2321      	movs	r3, #33	; 0x21
   8146c:	6003      	str	r3, [r0, #0]
   8146e:	e7f3      	b.n	81458 <acos+0x74>
   81470:	f001 f82c 	bl	824cc <__errno>
   81474:	9b08      	ldr	r3, [sp, #32]
   81476:	6003      	str	r3, [r0, #0]
   81478:	e7f0      	b.n	8145c <acos+0x78>
   8147a:	bf00      	nop
   8147c:	3ff00000 	.word	0x3ff00000
   81480:	00087fac 	.word	0x00087fac
   81484:	00087ff4 	.word	0x00087ff4
   81488:	2007013c 	.word	0x2007013c

0008148c <sqrt>:
   8148c:	e92d 47f0 	stmdb	sp!, {r4, r5, r6, r7, r8, r9, sl, lr}
   81490:	b08a      	sub	sp, #40	; 0x28
   81492:	4604      	mov	r4, r0
   81494:	460d      	mov	r5, r1
   81496:	f000 faab 	bl	819f0 <__ieee754_sqrt>
   8149a:	f8df a098 	ldr.w	sl, [pc, #152]	; 81534 <sqrt+0xa8>
   8149e:	4606      	mov	r6, r0
   814a0:	f99a 3000 	ldrsb.w	r3, [sl]
   814a4:	460f      	mov	r7, r1
   814a6:	3301      	adds	r3, #1
   814a8:	d00f      	beq.n	814ca <sqrt+0x3e>
   814aa:	4620      	mov	r0, r4
   814ac:	4629      	mov	r1, r5
   814ae:	f000 fb63 	bl	81b78 <__fpclassifyd>
   814b2:	b150      	cbz	r0, 814ca <sqrt+0x3e>
   814b4:	f04f 0800 	mov.w	r8, #0
   814b8:	f04f 0900 	mov.w	r9, #0
   814bc:	4642      	mov	r2, r8
   814be:	464b      	mov	r3, r9
   814c0:	4620      	mov	r0, r4
   814c2:	4629      	mov	r1, r5
   814c4:	f000 ffb2 	bl	8242c <__aeabi_dcmplt>
   814c8:	b920      	cbnz	r0, 814d4 <sqrt+0x48>
   814ca:	4630      	mov	r0, r6
   814cc:	4639      	mov	r1, r7
   814ce:	b00a      	add	sp, #40	; 0x28
   814d0:	e8bd 87f0 	ldmia.w	sp!, {r4, r5, r6, r7, r8, r9, sl, pc}
   814d4:	4916      	ldr	r1, [pc, #88]	; (81530 <sqrt+0xa4>)
   814d6:	f89a 6000 	ldrb.w	r6, [sl]
   814da:	2201      	movs	r2, #1
   814dc:	2300      	movs	r3, #0
   814de:	e9cd 4504 	strd	r4, r5, [sp, #16]
   814e2:	e9cd 4502 	strd	r4, r5, [sp, #8]
   814e6:	9101      	str	r1, [sp, #4]
   814e8:	9200      	str	r2, [sp, #0]
   814ea:	9308      	str	r3, [sp, #32]
   814ec:	b966      	cbnz	r6, 81508 <sqrt+0x7c>
   814ee:	e9cd 8906 	strd	r8, r9, [sp, #24]
   814f2:	4668      	mov	r0, sp
   814f4:	f000 fb68 	bl	81bc8 <matherr>
   814f8:	b180      	cbz	r0, 8151c <sqrt+0x90>
   814fa:	9b08      	ldr	r3, [sp, #32]
   814fc:	b99b      	cbnz	r3, 81526 <sqrt+0x9a>
   814fe:	e9dd 0106 	ldrd	r0, r1, [sp, #24]
   81502:	b00a      	add	sp, #40	; 0x28
   81504:	e8bd 87f0 	ldmia.w	sp!, {r4, r5, r6, r7, r8, r9, sl, pc}
   81508:	4640      	mov	r0, r8
   8150a:	4649      	mov	r1, r9
   8150c:	4642      	mov	r2, r8
   8150e:	464b      	mov	r3, r9
   81510:	f000 fe44 	bl	8219c <__aeabi_ddiv>
   81514:	2e02      	cmp	r6, #2
   81516:	e9cd 0106 	strd	r0, r1, [sp, #24]
   8151a:	d1ea      	bne.n	814f2 <sqrt+0x66>
   8151c:	f000 ffd6 	bl	824cc <__errno>
   81520:	2321      	movs	r3, #33	; 0x21
   81522:	6003      	str	r3, [r0, #0]
   81524:	e7e9      	b.n	814fa <sqrt+0x6e>
   81526:	f000 ffd1 	bl	824cc <__errno>
   8152a:	9b08      	ldr	r3, [sp, #32]
   8152c:	6003      	str	r3, [r0, #0]
   8152e:	e7e6      	b.n	814fe <sqrt+0x72>
   81530:	00087fb4 	.word	0x00087fb4
   81534:	2007013c 	.word	0x2007013c

00081538 <__ieee754_acos>:
   81538:	e92d 4ff8 	stmdb	sp!, {r3, r4, r5, r6, r7, r8, r9, sl, fp, lr}
   8153c:	4f80      	ldr	r7, [pc, #512]	; (81740 <__ieee754_acos+0x208>)
   8153e:	f021 4600 	bic.w	r6, r1, #2147483648	; 0x80000000
   81542:	42be      	cmp	r6, r7
   81544:	4604      	mov	r4, r0
   81546:	460d      	mov	r5, r1
   81548:	dd0e      	ble.n	81568 <__ieee754_acos+0x30>
   8154a:	f106 4c40 	add.w	ip, r6, #3221225472	; 0xc0000000
   8154e:	f50c 1c80 	add.w	ip, ip, #1048576	; 0x100000
   81552:	ea5c 0c00 	orrs.w	ip, ip, r0
   81556:	f040 80bb 	bne.w	816d0 <__ieee754_acos+0x198>
   8155a:	2900      	cmp	r1, #0
   8155c:	f340 817c 	ble.w	81858 <__ieee754_acos+0x320>
   81560:	2000      	movs	r0, #0
   81562:	2100      	movs	r1, #0
   81564:	e8bd 8ff8 	ldmia.w	sp!, {r3, r4, r5, r6, r7, r8, r9, sl, fp, pc}
   81568:	4f76      	ldr	r7, [pc, #472]	; (81744 <__ieee754_acos+0x20c>)
   8156a:	42be      	cmp	r6, r7
   8156c:	f340 80a8 	ble.w	816c0 <__ieee754_acos+0x188>
   81570:	2900      	cmp	r1, #0
   81572:	f2c0 8176 	blt.w	81862 <__ieee754_acos+0x32a>
   81576:	4602      	mov	r2, r0
   81578:	460b      	mov	r3, r1
   8157a:	2000      	movs	r0, #0
   8157c:	4972      	ldr	r1, [pc, #456]	; (81748 <__ieee754_acos+0x210>)
   8157e:	f000 fb2f 	bl	81be0 <__aeabi_dsub>
   81582:	2200      	movs	r2, #0
   81584:	4b71      	ldr	r3, [pc, #452]	; (8174c <__ieee754_acos+0x214>)
   81586:	f000 fcdf 	bl	81f48 <__aeabi_dmul>
   8158a:	4604      	mov	r4, r0
   8158c:	460d      	mov	r5, r1
   8158e:	f000 fa2f 	bl	819f0 <__ieee754_sqrt>
   81592:	a355      	add	r3, pc, #340	; (adr r3, 816e8 <__ieee754_acos+0x1b0>)
   81594:	e9d3 2300 	ldrd	r2, r3, [r3]
   81598:	4689      	mov	r9, r1
   8159a:	4680      	mov	r8, r0
   8159c:	4629      	mov	r1, r5
   8159e:	4620      	mov	r0, r4
   815a0:	f000 fcd2 	bl	81f48 <__aeabi_dmul>
   815a4:	a352      	add	r3, pc, #328	; (adr r3, 816f0 <__ieee754_acos+0x1b8>)
   815a6:	e9d3 2300 	ldrd	r2, r3, [r3]
   815aa:	f000 fb1b 	bl	81be4 <__adddf3>
   815ae:	4622      	mov	r2, r4
   815b0:	462b      	mov	r3, r5
   815b2:	f000 fcc9 	bl	81f48 <__aeabi_dmul>
   815b6:	a350      	add	r3, pc, #320	; (adr r3, 816f8 <__ieee754_acos+0x1c0>)
   815b8:	e9d3 2300 	ldrd	r2, r3, [r3]
   815bc:	f000 fb10 	bl	81be0 <__aeabi_dsub>
   815c0:	4622      	mov	r2, r4
   815c2:	462b      	mov	r3, r5
   815c4:	f000 fcc0 	bl	81f48 <__aeabi_dmul>
   815c8:	a34d      	add	r3, pc, #308	; (adr r3, 81700 <__ieee754_acos+0x1c8>)
   815ca:	e9d3 2300 	ldrd	r2, r3, [r3]
   815ce:	f000 fb09 	bl	81be4 <__adddf3>
   815d2:	4622      	mov	r2, r4
   815d4:	462b      	mov	r3, r5
   815d6:	f000 fcb7 	bl	81f48 <__aeabi_dmul>
   815da:	a34b      	add	r3, pc, #300	; (adr r3, 81708 <__ieee754_acos+0x1d0>)
   815dc:	e9d3 2300 	ldrd	r2, r3, [r3]
   815e0:	f000 fafe 	bl	81be0 <__aeabi_dsub>
   815e4:	4622      	mov	r2, r4
   815e6:	462b      	mov	r3, r5
   815e8:	f000 fcae 	bl	81f48 <__aeabi_dmul>
   815ec:	a348      	add	r3, pc, #288	; (adr r3, 81710 <__ieee754_acos+0x1d8>)
   815ee:	e9d3 2300 	ldrd	r2, r3, [r3]
   815f2:	f000 faf7 	bl	81be4 <__adddf3>
   815f6:	4622      	mov	r2, r4
   815f8:	462b      	mov	r3, r5
   815fa:	f000 fca5 	bl	81f48 <__aeabi_dmul>
   815fe:	a346      	add	r3, pc, #280	; (adr r3, 81718 <__ieee754_acos+0x1e0>)
   81600:	e9d3 2300 	ldrd	r2, r3, [r3]
   81604:	4682      	mov	sl, r0
   81606:	468b      	mov	fp, r1
   81608:	4620      	mov	r0, r4
   8160a:	4629      	mov	r1, r5
   8160c:	f000 fc9c 	bl	81f48 <__aeabi_dmul>
   81610:	a343      	add	r3, pc, #268	; (adr r3, 81720 <__ieee754_acos+0x1e8>)
   81612:	e9d3 2300 	ldrd	r2, r3, [r3]
   81616:	f000 fae3 	bl	81be0 <__aeabi_dsub>
   8161a:	4622      	mov	r2, r4
   8161c:	462b      	mov	r3, r5
   8161e:	f000 fc93 	bl	81f48 <__aeabi_dmul>
   81622:	a341      	add	r3, pc, #260	; (adr r3, 81728 <__ieee754_acos+0x1f0>)
   81624:	e9d3 2300 	ldrd	r2, r3, [r3]
   81628:	f000 fadc 	bl	81be4 <__adddf3>
   8162c:	4622      	mov	r2, r4
   8162e:	462b      	mov	r3, r5
   81630:	f000 fc8a 	bl	81f48 <__aeabi_dmul>
   81634:	a33e      	add	r3, pc, #248	; (adr r3, 81730 <__ieee754_acos+0x1f8>)
   81636:	e9d3 2300 	ldrd	r2, r3, [r3]
   8163a:	f000 fad1 	bl	81be0 <__aeabi_dsub>
   8163e:	4622      	mov	r2, r4
   81640:	462b      	mov	r3, r5
   81642:	f000 fc81 	bl	81f48 <__aeabi_dmul>
   81646:	2200      	movs	r2, #0
   81648:	4b3f      	ldr	r3, [pc, #252]	; (81748 <__ieee754_acos+0x210>)
   8164a:	f000 facb 	bl	81be4 <__adddf3>
   8164e:	4602      	mov	r2, r0
   81650:	460b      	mov	r3, r1
   81652:	4650      	mov	r0, sl
   81654:	4659      	mov	r1, fp
   81656:	f000 fda1 	bl	8219c <__aeabi_ddiv>
   8165a:	4642      	mov	r2, r8
   8165c:	464b      	mov	r3, r9
   8165e:	f000 fc73 	bl	81f48 <__aeabi_dmul>
   81662:	2600      	movs	r6, #0
   81664:	4682      	mov	sl, r0
   81666:	468b      	mov	fp, r1
   81668:	4632      	mov	r2, r6
   8166a:	464b      	mov	r3, r9
   8166c:	4630      	mov	r0, r6
   8166e:	4649      	mov	r1, r9
   81670:	f000 fc6a 	bl	81f48 <__aeabi_dmul>
   81674:	4602      	mov	r2, r0
   81676:	460b      	mov	r3, r1
   81678:	4620      	mov	r0, r4
   8167a:	4629      	mov	r1, r5
   8167c:	f000 fab0 	bl	81be0 <__aeabi_dsub>
   81680:	4632      	mov	r2, r6
   81682:	4604      	mov	r4, r0
   81684:	460d      	mov	r5, r1
   81686:	464b      	mov	r3, r9
   81688:	4640      	mov	r0, r8
   8168a:	4649      	mov	r1, r9
   8168c:	f000 faaa 	bl	81be4 <__adddf3>
   81690:	4602      	mov	r2, r0
   81692:	460b      	mov	r3, r1
   81694:	4620      	mov	r0, r4
   81696:	4629      	mov	r1, r5
   81698:	f000 fd80 	bl	8219c <__aeabi_ddiv>
   8169c:	4602      	mov	r2, r0
   8169e:	460b      	mov	r3, r1
   816a0:	4650      	mov	r0, sl
   816a2:	4659      	mov	r1, fp
   816a4:	f000 fa9e 	bl	81be4 <__adddf3>
   816a8:	4602      	mov	r2, r0
   816aa:	460b      	mov	r3, r1
   816ac:	4630      	mov	r0, r6
   816ae:	4649      	mov	r1, r9
   816b0:	f000 fa98 	bl	81be4 <__adddf3>
   816b4:	4602      	mov	r2, r0
   816b6:	460b      	mov	r3, r1
   816b8:	f000 fa94 	bl	81be4 <__adddf3>
   816bc:	e8bd 8ff8 	ldmia.w	sp!, {r3, r4, r5, r6, r7, r8, r9, sl, fp, pc}
   816c0:	4b23      	ldr	r3, [pc, #140]	; (81750 <__ieee754_acos+0x218>)
   816c2:	429e      	cmp	r6, r3
   816c4:	dc46      	bgt.n	81754 <__ieee754_acos+0x21c>
   816c6:	a11c      	add	r1, pc, #112	; (adr r1, 81738 <__ieee754_acos+0x200>)
   816c8:	e9d1 0100 	ldrd	r0, r1, [r1]
   816cc:	e8bd 8ff8 	ldmia.w	sp!, {r3, r4, r5, r6, r7, r8, r9, sl, fp, pc}
   816d0:	4602      	mov	r2, r0
   816d2:	460b      	mov	r3, r1
   816d4:	f000 fa84 	bl	81be0 <__aeabi_dsub>
   816d8:	4602      	mov	r2, r0
   816da:	460b      	mov	r3, r1
   816dc:	f000 fd5e 	bl	8219c <__aeabi_ddiv>
   816e0:	e8bd 8ff8 	ldmia.w	sp!, {r3, r4, r5, r6, r7, r8, r9, sl, fp, pc}
   816e4:	f3af 8000 	nop.w
   816e8:	0dfdf709 	.word	0x0dfdf709
   816ec:	3f023de1 	.word	0x3f023de1
   816f0:	7501b288 	.word	0x7501b288
   816f4:	3f49efe0 	.word	0x3f49efe0
   816f8:	b5688f3b 	.word	0xb5688f3b
   816fc:	3fa48228 	.word	0x3fa48228
   81700:	0e884455 	.word	0x0e884455
   81704:	3fc9c155 	.word	0x3fc9c155
   81708:	03eb6f7d 	.word	0x03eb6f7d
   8170c:	3fd4d612 	.word	0x3fd4d612
   81710:	55555555 	.word	0x55555555
   81714:	3fc55555 	.word	0x3fc55555
   81718:	b12e9282 	.word	0xb12e9282
   8171c:	3fb3b8c5 	.word	0x3fb3b8c5
   81720:	1b8d0159 	.word	0x1b8d0159
   81724:	3fe6066c 	.word	0x3fe6066c
   81728:	9c598ac8 	.word	0x9c598ac8
   8172c:	40002ae5 	.word	0x40002ae5
   81730:	1c8a2d4b 	.word	0x1c8a2d4b
   81734:	40033a27 	.word	0x40033a27
   81738:	54442d18 	.word	0x54442d18
   8173c:	3ff921fb 	.word	0x3ff921fb
   81740:	3fefffff 	.word	0x3fefffff
   81744:	3fdfffff 	.word	0x3fdfffff
   81748:	3ff00000 	.word	0x3ff00000
   8174c:	3fe00000 	.word	0x3fe00000
   81750:	3c600000 	.word	0x3c600000
   81754:	4602      	mov	r2, r0
   81756:	460b      	mov	r3, r1
   81758:	f000 fbf6 	bl	81f48 <__aeabi_dmul>
   8175c:	a388      	add	r3, pc, #544	; (adr r3, 81980 <__ieee754_acos+0x448>)
   8175e:	e9d3 2300 	ldrd	r2, r3, [r3]
   81762:	4606      	mov	r6, r0
   81764:	460f      	mov	r7, r1
   81766:	f000 fbef 	bl	81f48 <__aeabi_dmul>
   8176a:	a387      	add	r3, pc, #540	; (adr r3, 81988 <__ieee754_acos+0x450>)
   8176c:	e9d3 2300 	ldrd	r2, r3, [r3]
   81770:	f000 fa38 	bl	81be4 <__adddf3>
   81774:	4632      	mov	r2, r6
   81776:	463b      	mov	r3, r7
   81778:	f000 fbe6 	bl	81f48 <__aeabi_dmul>
   8177c:	a384      	add	r3, pc, #528	; (adr r3, 81990 <__ieee754_acos+0x458>)
   8177e:	e9d3 2300 	ldrd	r2, r3, [r3]
   81782:	f000 fa2d 	bl	81be0 <__aeabi_dsub>
   81786:	4632      	mov	r2, r6
   81788:	463b      	mov	r3, r7
   8178a:	f000 fbdd 	bl	81f48 <__aeabi_dmul>
   8178e:	a382      	add	r3, pc, #520	; (adr r3, 81998 <__ieee754_acos+0x460>)
   81790:	e9d3 2300 	ldrd	r2, r3, [r3]
   81794:	f000 fa26 	bl	81be4 <__adddf3>
   81798:	4632      	mov	r2, r6
   8179a:	463b      	mov	r3, r7
   8179c:	f000 fbd4 	bl	81f48 <__aeabi_dmul>
   817a0:	a37f      	add	r3, pc, #508	; (adr r3, 819a0 <__ieee754_acos+0x468>)
   817a2:	e9d3 2300 	ldrd	r2, r3, [r3]
   817a6:	f000 fa1b 	bl	81be0 <__aeabi_dsub>
   817aa:	4632      	mov	r2, r6
   817ac:	463b      	mov	r3, r7
   817ae:	f000 fbcb 	bl	81f48 <__aeabi_dmul>
   817b2:	a37d      	add	r3, pc, #500	; (adr r3, 819a8 <__ieee754_acos+0x470>)
   817b4:	e9d3 2300 	ldrd	r2, r3, [r3]
   817b8:	f000 fa14 	bl	81be4 <__adddf3>
   817bc:	4632      	mov	r2, r6
   817be:	463b      	mov	r3, r7
   817c0:	f000 fbc2 	bl	81f48 <__aeabi_dmul>
   817c4:	a37a      	add	r3, pc, #488	; (adr r3, 819b0 <__ieee754_acos+0x478>)
   817c6:	e9d3 2300 	ldrd	r2, r3, [r3]
   817ca:	4680      	mov	r8, r0
   817cc:	4689      	mov	r9, r1
   817ce:	4630      	mov	r0, r6
   817d0:	4639      	mov	r1, r7
   817d2:	f000 fbb9 	bl	81f48 <__aeabi_dmul>
   817d6:	a378      	add	r3, pc, #480	; (adr r3, 819b8 <__ieee754_acos+0x480>)
   817d8:	e9d3 2300 	ldrd	r2, r3, [r3]
   817dc:	f000 fa00 	bl	81be0 <__aeabi_dsub>
   817e0:	4632      	mov	r2, r6
   817e2:	463b      	mov	r3, r7
   817e4:	f000 fbb0 	bl	81f48 <__aeabi_dmul>
   817e8:	a375      	add	r3, pc, #468	; (adr r3, 819c0 <__ieee754_acos+0x488>)
   817ea:	e9d3 2300 	ldrd	r2, r3, [r3]
   817ee:	f000 f9f9 	bl	81be4 <__adddf3>
   817f2:	4632      	mov	r2, r6
   817f4:	463b      	mov	r3, r7
   817f6:	f000 fba7 	bl	81f48 <__aeabi_dmul>
   817fa:	a373      	add	r3, pc, #460	; (adr r3, 819c8 <__ieee754_acos+0x490>)
   817fc:	e9d3 2300 	ldrd	r2, r3, [r3]
   81800:	f000 f9ee 	bl	81be0 <__aeabi_dsub>
   81804:	4632      	mov	r2, r6
   81806:	463b      	mov	r3, r7
   81808:	f000 fb9e 	bl	81f48 <__aeabi_dmul>
   8180c:	2200      	movs	r2, #0
   8180e:	4b76      	ldr	r3, [pc, #472]	; (819e8 <__ieee754_acos+0x4b0>)
   81810:	f000 f9e8 	bl	81be4 <__adddf3>
   81814:	4602      	mov	r2, r0
   81816:	460b      	mov	r3, r1
   81818:	4640      	mov	r0, r8
   8181a:	4649      	mov	r1, r9
   8181c:	f000 fcbe 	bl	8219c <__aeabi_ddiv>
   81820:	4602      	mov	r2, r0
   81822:	460b      	mov	r3, r1
   81824:	4620      	mov	r0, r4
   81826:	4629      	mov	r1, r5
   81828:	f000 fb8e 	bl	81f48 <__aeabi_dmul>
   8182c:	4602      	mov	r2, r0
   8182e:	460b      	mov	r3, r1
   81830:	a167      	add	r1, pc, #412	; (adr r1, 819d0 <__ieee754_acos+0x498>)
   81832:	e9d1 0100 	ldrd	r0, r1, [r1]
   81836:	f000 f9d3 	bl	81be0 <__aeabi_dsub>
   8183a:	4602      	mov	r2, r0
   8183c:	460b      	mov	r3, r1
   8183e:	4620      	mov	r0, r4
   81840:	4629      	mov	r1, r5
   81842:	f000 f9cd 	bl	81be0 <__aeabi_dsub>
   81846:	4602      	mov	r2, r0
   81848:	460b      	mov	r3, r1
   8184a:	a163      	add	r1, pc, #396	; (adr r1, 819d8 <__ieee754_acos+0x4a0>)
   8184c:	e9d1 0100 	ldrd	r0, r1, [r1]
   81850:	f000 f9c6 	bl	81be0 <__aeabi_dsub>
   81854:	e8bd 8ff8 	ldmia.w	sp!, {r3, r4, r5, r6, r7, r8, r9, sl, fp, pc}
   81858:	a161      	add	r1, pc, #388	; (adr r1, 819e0 <__ieee754_acos+0x4a8>)
   8185a:	e9d1 0100 	ldrd	r0, r1, [r1]
   8185e:	e8bd 8ff8 	ldmia.w	sp!, {r3, r4, r5, r6, r7, r8, r9, sl, fp, pc}
   81862:	2200      	movs	r2, #0
   81864:	4b60      	ldr	r3, [pc, #384]	; (819e8 <__ieee754_acos+0x4b0>)
   81866:	f000 f9bd 	bl	81be4 <__adddf3>
   8186a:	2200      	movs	r2, #0
   8186c:	4b5f      	ldr	r3, [pc, #380]	; (819ec <__ieee754_acos+0x4b4>)
   8186e:	f000 fb6b 	bl	81f48 <__aeabi_dmul>
   81872:	a343      	add	r3, pc, #268	; (adr r3, 81980 <__ieee754_acos+0x448>)
   81874:	e9d3 2300 	ldrd	r2, r3, [r3]
   81878:	4604      	mov	r4, r0
   8187a:	460d      	mov	r5, r1
   8187c:	f000 fb64 	bl	81f48 <__aeabi_dmul>
   81880:	a341      	add	r3, pc, #260	; (adr r3, 81988 <__ieee754_acos+0x450>)
   81882:	e9d3 2300 	ldrd	r2, r3, [r3]
   81886:	f000 f9ad 	bl	81be4 <__adddf3>
   8188a:	4622      	mov	r2, r4
   8188c:	462b      	mov	r3, r5
   8188e:	f000 fb5b 	bl	81f48 <__aeabi_dmul>
   81892:	a33f      	add	r3, pc, #252	; (adr r3, 81990 <__ieee754_acos+0x458>)
   81894:	e9d3 2300 	ldrd	r2, r3, [r3]
   81898:	f000 f9a2 	bl	81be0 <__aeabi_dsub>
   8189c:	4622      	mov	r2, r4
   8189e:	462b      	mov	r3, r5
   818a0:	f000 fb52 	bl	81f48 <__aeabi_dmul>
   818a4:	a33c      	add	r3, pc, #240	; (adr r3, 81998 <__ieee754_acos+0x460>)
   818a6:	e9d3 2300 	ldrd	r2, r3, [r3]
   818aa:	f000 f99b 	bl	81be4 <__adddf3>
   818ae:	4622      	mov	r2, r4
   818b0:	462b      	mov	r3, r5
   818b2:	f000 fb49 	bl	81f48 <__aeabi_dmul>
   818b6:	a33a      	add	r3, pc, #232	; (adr r3, 819a0 <__ieee754_acos+0x468>)
   818b8:	e9d3 2300 	ldrd	r2, r3, [r3]
   818bc:	f000 f990 	bl	81be0 <__aeabi_dsub>
   818c0:	4622      	mov	r2, r4
   818c2:	462b      	mov	r3, r5
   818c4:	f000 fb40 	bl	81f48 <__aeabi_dmul>
   818c8:	a337      	add	r3, pc, #220	; (adr r3, 819a8 <__ieee754_acos+0x470>)
   818ca:	e9d3 2300 	ldrd	r2, r3, [r3]
   818ce:	f000 f989 	bl	81be4 <__adddf3>
   818d2:	4622      	mov	r2, r4
   818d4:	462b      	mov	r3, r5
   818d6:	f000 fb37 	bl	81f48 <__aeabi_dmul>
   818da:	4680      	mov	r8, r0
   818dc:	4689      	mov	r9, r1
   818de:	4620      	mov	r0, r4
   818e0:	4629      	mov	r1, r5
   818e2:	f000 f885 	bl	819f0 <__ieee754_sqrt>
   818e6:	a332      	add	r3, pc, #200	; (adr r3, 819b0 <__ieee754_acos+0x478>)
   818e8:	e9d3 2300 	ldrd	r2, r3, [r3]
   818ec:	4606      	mov	r6, r0
   818ee:	460f      	mov	r7, r1
   818f0:	4620      	mov	r0, r4
   818f2:	4629      	mov	r1, r5
   818f4:	f000 fb28 	bl	81f48 <__aeabi_dmul>
   818f8:	a32f      	add	r3, pc, #188	; (adr r3, 819b8 <__ieee754_acos+0x480>)
   818fa:	e9d3 2300 	ldrd	r2, r3, [r3]
   818fe:	f000 f96f 	bl	81be0 <__aeabi_dsub>
   81902:	4622      	mov	r2, r4
   81904:	462b      	mov	r3, r5
   81906:	f000 fb1f 	bl	81f48 <__aeabi_dmul>
   8190a:	a32d      	add	r3, pc, #180	; (adr r3, 819c0 <__ieee754_acos+0x488>)
   8190c:	e9d3 2300 	ldrd	r2, r3, [r3]
   81910:	f000 f968 	bl	81be4 <__adddf3>
   81914:	4622      	mov	r2, r4
   81916:	462b      	mov	r3, r5
   81918:	f000 fb16 	bl	81f48 <__aeabi_dmul>
   8191c:	a32a      	add	r3, pc, #168	; (adr r3, 819c8 <__ieee754_acos+0x490>)
   8191e:	e9d3 2300 	ldrd	r2, r3, [r3]
   81922:	f000 f95d 	bl	81be0 <__aeabi_dsub>
   81926:	4622      	mov	r2, r4
   81928:	462b      	mov	r3, r5
   8192a:	f000 fb0d 	bl	81f48 <__aeabi_dmul>
   8192e:	2200      	movs	r2, #0
   81930:	4b2d      	ldr	r3, [pc, #180]	; (819e8 <__ieee754_acos+0x4b0>)
   81932:	f000 f957 	bl	81be4 <__adddf3>
   81936:	4602      	mov	r2, r0
   81938:	460b      	mov	r3, r1
   8193a:	4640      	mov	r0, r8
   8193c:	4649      	mov	r1, r9
   8193e:	f000 fc2d 	bl	8219c <__aeabi_ddiv>
   81942:	4632      	mov	r2, r6
   81944:	463b      	mov	r3, r7
   81946:	f000 faff 	bl	81f48 <__aeabi_dmul>
   8194a:	a321      	add	r3, pc, #132	; (adr r3, 819d0 <__ieee754_acos+0x498>)
   8194c:	e9d3 2300 	ldrd	r2, r3, [r3]
   81950:	f000 f946 	bl	81be0 <__aeabi_dsub>
   81954:	4602      	mov	r2, r0
   81956:	460b      	mov	r3, r1
   81958:	4630      	mov	r0, r6
   8195a:	4639      	mov	r1, r7
   8195c:	f000 f942 	bl	81be4 <__adddf3>
   81960:	4602      	mov	r2, r0
   81962:	460b      	mov	r3, r1
   81964:	f000 f93e 	bl	81be4 <__adddf3>
   81968:	4602      	mov	r2, r0
   8196a:	460b      	mov	r3, r1
   8196c:	a11c      	add	r1, pc, #112	; (adr r1, 819e0 <__ieee754_acos+0x4a8>)
   8196e:	e9d1 0100 	ldrd	r0, r1, [r1]
   81972:	f000 f935 	bl	81be0 <__aeabi_dsub>
   81976:	e8bd 8ff8 	ldmia.w	sp!, {r3, r4, r5, r6, r7, r8, r9, sl, fp, pc}
   8197a:	bf00      	nop
   8197c:	f3af 8000 	nop.w
   81980:	0dfdf709 	.word	0x0dfdf709
   81984:	3f023de1 	.word	0x3f023de1
   81988:	7501b288 	.word	0x7501b288
   8198c:	3f49efe0 	.word	0x3f49efe0
   81990:	b5688f3b 	.word	0xb5688f3b
   81994:	3fa48228 	.word	0x3fa48228
   81998:	0e884455 	.word	0x0e884455
   8199c:	3fc9c155 	.word	0x3fc9c155
   819a0:	03eb6f7d 	.word	0x03eb6f7d
   819a4:	3fd4d612 	.word	0x3fd4d612
   819a8:	55555555 	.word	0x55555555
   819ac:	3fc55555 	.word	0x3fc55555
   819b0:	b12e9282 	.word	0xb12e9282
   819b4:	3fb3b8c5 	.word	0x3fb3b8c5
   819b8:	1b8d0159 	.word	0x1b8d0159
   819bc:	3fe6066c 	.word	0x3fe6066c
   819c0:	9c598ac8 	.word	0x9c598ac8
   819c4:	40002ae5 	.word	0x40002ae5
   819c8:	1c8a2d4b 	.word	0x1c8a2d4b
   819cc:	40033a27 	.word	0x40033a27
   819d0:	33145c07 	.word	0x33145c07
   819d4:	3c91a626 	.word	0x3c91a626
   819d8:	54442d18 	.word	0x54442d18
   819dc:	3ff921fb 	.word	0x3ff921fb
   819e0:	54442d18 	.word	0x54442d18
   819e4:	400921fb 	.word	0x400921fb
   819e8:	3ff00000 	.word	0x3ff00000
   819ec:	3fe00000 	.word	0x3fe00000

000819f0 <__ieee754_sqrt>:
   819f0:	f021 4c00 	bic.w	ip, r1, #2147483648	; 0x80000000
   819f4:	e92d 43f8 	stmdb	sp!, {r3, r4, r5, r6, r7, r8, r9, lr}
   819f8:	ea4f 5c1c 	mov.w	ip, ip, lsr #20
   819fc:	f8df 816c 	ldr.w	r8, [pc, #364]	; 81b6c <__ieee754_sqrt+0x17c>
   81a00:	ea4f 5c0c 	mov.w	ip, ip, lsl #20
   81a04:	45c4      	cmp	ip, r8
   81a06:	4606      	mov	r6, r0
   81a08:	460f      	mov	r7, r1
   81a0a:	460b      	mov	r3, r1
   81a0c:	4602      	mov	r2, r0
   81a0e:	f000 808f 	beq.w	81b30 <__ieee754_sqrt+0x140>
   81a12:	2900      	cmp	r1, #0
   81a14:	dd6f      	ble.n	81af6 <__ieee754_sqrt+0x106>
   81a16:	150f      	asrs	r7, r1, #20
   81a18:	d078      	beq.n	81b0c <__ieee754_sqrt+0x11c>
   81a1a:	f2a7 37ff 	subw	r7, r7, #1023	; 0x3ff
   81a1e:	f3c3 0313 	ubfx	r3, r3, #0, #20
   81a22:	07f9      	lsls	r1, r7, #31
   81a24:	f443 1380 	orr.w	r3, r3, #1048576	; 0x100000
   81a28:	d460      	bmi.n	81aec <__ieee754_sqrt+0xfc>
   81a2a:	0fd1      	lsrs	r1, r2, #31
   81a2c:	f04f 0c00 	mov.w	ip, #0
   81a30:	eb01 0343 	add.w	r3, r1, r3, lsl #1
   81a34:	107f      	asrs	r7, r7, #1
   81a36:	0052      	lsls	r2, r2, #1
   81a38:	4665      	mov	r5, ip
   81a3a:	2016      	movs	r0, #22
   81a3c:	f44f 1100 	mov.w	r1, #2097152	; 0x200000
   81a40:	186c      	adds	r4, r5, r1
   81a42:	429c      	cmp	r4, r3
   81a44:	ea4f 76d2 	mov.w	r6, r2, lsr #31
   81a48:	ea4f 0242 	mov.w	r2, r2, lsl #1
   81a4c:	dc02      	bgt.n	81a54 <__ieee754_sqrt+0x64>
   81a4e:	1b1b      	subs	r3, r3, r4
   81a50:	1865      	adds	r5, r4, r1
   81a52:	448c      	add	ip, r1
   81a54:	3801      	subs	r0, #1
   81a56:	eb06 0343 	add.w	r3, r6, r3, lsl #1
   81a5a:	ea4f 0151 	mov.w	r1, r1, lsr #1
   81a5e:	d1ef      	bne.n	81a40 <__ieee754_sqrt+0x50>
   81a60:	4680      	mov	r8, r0
   81a62:	2620      	movs	r6, #32
   81a64:	f04f 4100 	mov.w	r1, #2147483648	; 0x80000000
   81a68:	e009      	b.n	81a7e <__ieee754_sqrt+0x8e>
   81a6a:	d023      	beq.n	81ab4 <__ieee754_sqrt+0xc4>
   81a6c:	0fd4      	lsrs	r4, r2, #31
   81a6e:	3e01      	subs	r6, #1
   81a70:	ea4f 0151 	mov.w	r1, r1, lsr #1
   81a74:	eb04 0343 	add.w	r3, r4, r3, lsl #1
   81a78:	ea4f 0242 	mov.w	r2, r2, lsl #1
   81a7c:	d01e      	beq.n	81abc <__ieee754_sqrt+0xcc>
   81a7e:	42ab      	cmp	r3, r5
   81a80:	eb01 0408 	add.w	r4, r1, r8
   81a84:	ddf1      	ble.n	81a6a <__ieee754_sqrt+0x7a>
   81a86:	f004 4900 	and.w	r9, r4, #2147483648	; 0x80000000
   81a8a:	f1b9 4f00 	cmp.w	r9, #2147483648	; 0x80000000
   81a8e:	eb04 0801 	add.w	r8, r4, r1
   81a92:	d009      	beq.n	81aa8 <__ieee754_sqrt+0xb8>
   81a94:	46a9      	mov	r9, r5
   81a96:	1b5b      	subs	r3, r3, r5
   81a98:	4294      	cmp	r4, r2
   81a9a:	bf88      	it	hi
   81a9c:	f103 33ff 	addhi.w	r3, r3, #4294967295
   81aa0:	1b12      	subs	r2, r2, r4
   81aa2:	4408      	add	r0, r1
   81aa4:	464d      	mov	r5, r9
   81aa6:	e7e1      	b.n	81a6c <__ieee754_sqrt+0x7c>
   81aa8:	f1b8 0f00 	cmp.w	r8, #0
   81aac:	dbf2      	blt.n	81a94 <__ieee754_sqrt+0xa4>
   81aae:	f105 0901 	add.w	r9, r5, #1
   81ab2:	e7f0      	b.n	81a96 <__ieee754_sqrt+0xa6>
   81ab4:	4294      	cmp	r4, r2
   81ab6:	d9e6      	bls.n	81a86 <__ieee754_sqrt+0x96>
   81ab8:	461d      	mov	r5, r3
   81aba:	e7d7      	b.n	81a6c <__ieee754_sqrt+0x7c>
   81abc:	431a      	orrs	r2, r3
   81abe:	d004      	beq.n	81aca <__ieee754_sqrt+0xda>
   81ac0:	1c43      	adds	r3, r0, #1
   81ac2:	d041      	beq.n	81b48 <__ieee754_sqrt+0x158>
   81ac4:	f000 0301 	and.w	r3, r0, #1
   81ac8:	4418      	add	r0, r3
   81aca:	0846      	lsrs	r6, r0, #1
   81acc:	ea4f 036c 	mov.w	r3, ip, asr #1
   81ad0:	f01c 0f01 	tst.w	ip, #1
   81ad4:	f103 537f 	add.w	r3, r3, #1069547520	; 0x3fc00000
   81ad8:	f503 1300 	add.w	r3, r3, #2097152	; 0x200000
   81adc:	bf18      	it	ne
   81ade:	f046 4600 	orrne.w	r6, r6, #2147483648	; 0x80000000
   81ae2:	eb03 5107 	add.w	r1, r3, r7, lsl #20
   81ae6:	4630      	mov	r0, r6
   81ae8:	e8bd 83f8 	ldmia.w	sp!, {r3, r4, r5, r6, r7, r8, r9, pc}
   81aec:	0fd1      	lsrs	r1, r2, #31
   81aee:	eb01 0343 	add.w	r3, r1, r3, lsl #1
   81af2:	0052      	lsls	r2, r2, #1
   81af4:	e799      	b.n	81a2a <__ieee754_sqrt+0x3a>
   81af6:	f021 4300 	bic.w	r3, r1, #2147483648	; 0x80000000
   81afa:	4303      	orrs	r3, r0
   81afc:	d022      	beq.n	81b44 <__ieee754_sqrt+0x154>
   81afe:	bb51      	cbnz	r1, 81b56 <__ieee754_sqrt+0x166>
   81b00:	460f      	mov	r7, r1
   81b02:	0ad3      	lsrs	r3, r2, #11
   81b04:	3f15      	subs	r7, #21
   81b06:	0552      	lsls	r2, r2, #21
   81b08:	2b00      	cmp	r3, #0
   81b0a:	d0fa      	beq.n	81b02 <__ieee754_sqrt+0x112>
   81b0c:	f413 1180 	ands.w	r1, r3, #1048576	; 0x100000
   81b10:	d11d      	bne.n	81b4e <__ieee754_sqrt+0x15e>
   81b12:	005b      	lsls	r3, r3, #1
   81b14:	02d8      	lsls	r0, r3, #11
   81b16:	f101 0101 	add.w	r1, r1, #1
   81b1a:	d5fa      	bpl.n	81b12 <__ieee754_sqrt+0x122>
   81b1c:	f1c1 0001 	rsb	r0, r1, #1
   81b20:	f1c1 0420 	rsb	r4, r1, #32
   81b24:	fa22 f404 	lsr.w	r4, r2, r4
   81b28:	4407      	add	r7, r0
   81b2a:	408a      	lsls	r2, r1
   81b2c:	4323      	orrs	r3, r4
   81b2e:	e774      	b.n	81a1a <__ieee754_sqrt+0x2a>
   81b30:	4602      	mov	r2, r0
   81b32:	460b      	mov	r3, r1
   81b34:	f000 fa08 	bl	81f48 <__aeabi_dmul>
   81b38:	4632      	mov	r2, r6
   81b3a:	463b      	mov	r3, r7
   81b3c:	f000 f852 	bl	81be4 <__adddf3>
   81b40:	e8bd 83f8 	ldmia.w	sp!, {r3, r4, r5, r6, r7, r8, r9, pc}
   81b44:	e8bd 83f8 	ldmia.w	sp!, {r3, r4, r5, r6, r7, r8, r9, pc}
   81b48:	f10c 0c01 	add.w	ip, ip, #1
   81b4c:	e7be      	b.n	81acc <__ieee754_sqrt+0xdc>
   81b4e:	2420      	movs	r4, #32
   81b50:	2001      	movs	r0, #1
   81b52:	2100      	movs	r1, #0
   81b54:	e7e6      	b.n	81b24 <__ieee754_sqrt+0x134>
   81b56:	4602      	mov	r2, r0
   81b58:	460b      	mov	r3, r1
   81b5a:	f000 f841 	bl	81be0 <__aeabi_dsub>
   81b5e:	4602      	mov	r2, r0
   81b60:	460b      	mov	r3, r1
   81b62:	f000 fb1b 	bl	8219c <__aeabi_ddiv>
   81b66:	e8bd 83f8 	ldmia.w	sp!, {r3, r4, r5, r6, r7, r8, r9, pc}
   81b6a:	bf00      	nop
   81b6c:	7ff00000 	.word	0x7ff00000

00081b70 <fabs>:
   81b70:	f021 4100 	bic.w	r1, r1, #2147483648	; 0x80000000
   81b74:	4770      	bx	lr
   81b76:	bf00      	nop

00081b78 <__fpclassifyd>:
   81b78:	f031 4300 	bics.w	r3, r1, #2147483648	; 0x80000000
   81b7c:	b410      	push	{r4}
   81b7e:	d008      	beq.n	81b92 <__fpclassifyd+0x1a>
   81b80:	4a0f      	ldr	r2, [pc, #60]	; (81bc0 <__fpclassifyd+0x48>)
   81b82:	f5a3 1480 	sub.w	r4, r3, #1048576	; 0x100000
   81b86:	4294      	cmp	r4, r2
   81b88:	d80a      	bhi.n	81ba0 <__fpclassifyd+0x28>
   81b8a:	2004      	movs	r0, #4
   81b8c:	f85d 4b04 	ldr.w	r4, [sp], #4
   81b90:	4770      	bx	lr
   81b92:	2800      	cmp	r0, #0
   81b94:	bf0c      	ite	eq
   81b96:	2002      	moveq	r0, #2
   81b98:	2003      	movne	r0, #3
   81b9a:	f85d 4b04 	ldr.w	r4, [sp], #4
   81b9e:	4770      	bx	lr
   81ba0:	f5b3 1f80 	cmp.w	r3, #1048576	; 0x100000
   81ba4:	d201      	bcs.n	81baa <__fpclassifyd+0x32>
   81ba6:	2003      	movs	r0, #3
   81ba8:	e7f7      	b.n	81b9a <__fpclassifyd+0x22>
   81baa:	4a06      	ldr	r2, [pc, #24]	; (81bc4 <__fpclassifyd+0x4c>)
   81bac:	4293      	cmp	r3, r2
   81bae:	d001      	beq.n	81bb4 <__fpclassifyd+0x3c>
   81bb0:	2000      	movs	r0, #0
   81bb2:	e7f2      	b.n	81b9a <__fpclassifyd+0x22>
   81bb4:	f1d0 0001 	rsbs	r0, r0, #1
   81bb8:	bf38      	it	cc
   81bba:	2000      	movcc	r0, #0
   81bbc:	e7ed      	b.n	81b9a <__fpclassifyd+0x22>
   81bbe:	bf00      	nop
   81bc0:	7fdfffff 	.word	0x7fdfffff
   81bc4:	7ff00000 	.word	0x7ff00000

00081bc8 <matherr>:
   81bc8:	2000      	movs	r0, #0
   81bca:	4770      	bx	lr

00081bcc <nan>:
   81bcc:	2000      	movs	r0, #0
   81bce:	4901      	ldr	r1, [pc, #4]	; (81bd4 <nan+0x8>)
   81bd0:	4770      	bx	lr
   81bd2:	bf00      	nop
   81bd4:	7ff80000 	.word	0x7ff80000

00081bd8 <__aeabi_drsub>:
   81bd8:	f081 4100 	eor.w	r1, r1, #2147483648	; 0x80000000
   81bdc:	e002      	b.n	81be4 <__adddf3>
   81bde:	bf00      	nop

00081be0 <__aeabi_dsub>:
   81be0:	f083 4300 	eor.w	r3, r3, #2147483648	; 0x80000000

00081be4 <__adddf3>:
   81be4:	b530      	push	{r4, r5, lr}
   81be6:	ea4f 0441 	mov.w	r4, r1, lsl #1
   81bea:	ea4f 0543 	mov.w	r5, r3, lsl #1
   81bee:	ea94 0f05 	teq	r4, r5
   81bf2:	bf08      	it	eq
   81bf4:	ea90 0f02 	teqeq	r0, r2
   81bf8:	bf1f      	itttt	ne
   81bfa:	ea54 0c00 	orrsne.w	ip, r4, r0
   81bfe:	ea55 0c02 	orrsne.w	ip, r5, r2
   81c02:	ea7f 5c64 	mvnsne.w	ip, r4, asr #21
   81c06:	ea7f 5c65 	mvnsne.w	ip, r5, asr #21
   81c0a:	f000 80e2 	beq.w	81dd2 <__adddf3+0x1ee>
   81c0e:	ea4f 5454 	mov.w	r4, r4, lsr #21
   81c12:	ebd4 5555 	rsbs	r5, r4, r5, lsr #21
   81c16:	bfb8      	it	lt
   81c18:	426d      	neglt	r5, r5
   81c1a:	dd0c      	ble.n	81c36 <__adddf3+0x52>
   81c1c:	442c      	add	r4, r5
   81c1e:	ea80 0202 	eor.w	r2, r0, r2
   81c22:	ea81 0303 	eor.w	r3, r1, r3
   81c26:	ea82 0000 	eor.w	r0, r2, r0
   81c2a:	ea83 0101 	eor.w	r1, r3, r1
   81c2e:	ea80 0202 	eor.w	r2, r0, r2
   81c32:	ea81 0303 	eor.w	r3, r1, r3
   81c36:	2d36      	cmp	r5, #54	; 0x36
   81c38:	bf88      	it	hi
   81c3a:	bd30      	pophi	{r4, r5, pc}
   81c3c:	f011 4f00 	tst.w	r1, #2147483648	; 0x80000000
   81c40:	ea4f 3101 	mov.w	r1, r1, lsl #12
   81c44:	f44f 1c80 	mov.w	ip, #1048576	; 0x100000
   81c48:	ea4c 3111 	orr.w	r1, ip, r1, lsr #12
   81c4c:	d002      	beq.n	81c54 <__adddf3+0x70>
   81c4e:	4240      	negs	r0, r0
   81c50:	eb61 0141 	sbc.w	r1, r1, r1, lsl #1
   81c54:	f013 4f00 	tst.w	r3, #2147483648	; 0x80000000
   81c58:	ea4f 3303 	mov.w	r3, r3, lsl #12
   81c5c:	ea4c 3313 	orr.w	r3, ip, r3, lsr #12
   81c60:	d002      	beq.n	81c68 <__adddf3+0x84>
   81c62:	4252      	negs	r2, r2
   81c64:	eb63 0343 	sbc.w	r3, r3, r3, lsl #1
   81c68:	ea94 0f05 	teq	r4, r5
   81c6c:	f000 80a7 	beq.w	81dbe <__adddf3+0x1da>
   81c70:	f1a4 0401 	sub.w	r4, r4, #1
   81c74:	f1d5 0e20 	rsbs	lr, r5, #32
   81c78:	db0d      	blt.n	81c96 <__adddf3+0xb2>
   81c7a:	fa02 fc0e 	lsl.w	ip, r2, lr
   81c7e:	fa22 f205 	lsr.w	r2, r2, r5
   81c82:	1880      	adds	r0, r0, r2
   81c84:	f141 0100 	adc.w	r1, r1, #0
   81c88:	fa03 f20e 	lsl.w	r2, r3, lr
   81c8c:	1880      	adds	r0, r0, r2
   81c8e:	fa43 f305 	asr.w	r3, r3, r5
   81c92:	4159      	adcs	r1, r3
   81c94:	e00e      	b.n	81cb4 <__adddf3+0xd0>
   81c96:	f1a5 0520 	sub.w	r5, r5, #32
   81c9a:	f10e 0e20 	add.w	lr, lr, #32
   81c9e:	2a01      	cmp	r2, #1
   81ca0:	fa03 fc0e 	lsl.w	ip, r3, lr
   81ca4:	bf28      	it	cs
   81ca6:	f04c 0c02 	orrcs.w	ip, ip, #2
   81caa:	fa43 f305 	asr.w	r3, r3, r5
   81cae:	18c0      	adds	r0, r0, r3
   81cb0:	eb51 71e3 	adcs.w	r1, r1, r3, asr #31
   81cb4:	f001 4500 	and.w	r5, r1, #2147483648	; 0x80000000
   81cb8:	d507      	bpl.n	81cca <__adddf3+0xe6>
   81cba:	f04f 0e00 	mov.w	lr, #0
   81cbe:	f1dc 0c00 	rsbs	ip, ip, #0
   81cc2:	eb7e 0000 	sbcs.w	r0, lr, r0
   81cc6:	eb6e 0101 	sbc.w	r1, lr, r1
   81cca:	f5b1 1f80 	cmp.w	r1, #1048576	; 0x100000
   81cce:	d31b      	bcc.n	81d08 <__adddf3+0x124>
   81cd0:	f5b1 1f00 	cmp.w	r1, #2097152	; 0x200000
   81cd4:	d30c      	bcc.n	81cf0 <__adddf3+0x10c>
   81cd6:	0849      	lsrs	r1, r1, #1
   81cd8:	ea5f 0030 	movs.w	r0, r0, rrx
   81cdc:	ea4f 0c3c 	mov.w	ip, ip, rrx
   81ce0:	f104 0401 	add.w	r4, r4, #1
   81ce4:	ea4f 5244 	mov.w	r2, r4, lsl #21
   81ce8:	f512 0f80 	cmn.w	r2, #4194304	; 0x400000
   81cec:	f080 809a 	bcs.w	81e24 <__adddf3+0x240>
   81cf0:	f1bc 4f00 	cmp.w	ip, #2147483648	; 0x80000000
   81cf4:	bf08      	it	eq
   81cf6:	ea5f 0c50 	movseq.w	ip, r0, lsr #1
   81cfa:	f150 0000 	adcs.w	r0, r0, #0
   81cfe:	eb41 5104 	adc.w	r1, r1, r4, lsl #20
   81d02:	ea41 0105 	orr.w	r1, r1, r5
   81d06:	bd30      	pop	{r4, r5, pc}
   81d08:	ea5f 0c4c 	movs.w	ip, ip, lsl #1
   81d0c:	4140      	adcs	r0, r0
   81d0e:	eb41 0101 	adc.w	r1, r1, r1
   81d12:	f411 1f80 	tst.w	r1, #1048576	; 0x100000
   81d16:	f1a4 0401 	sub.w	r4, r4, #1
   81d1a:	d1e9      	bne.n	81cf0 <__adddf3+0x10c>
   81d1c:	f091 0f00 	teq	r1, #0
   81d20:	bf04      	itt	eq
   81d22:	4601      	moveq	r1, r0
   81d24:	2000      	moveq	r0, #0
   81d26:	fab1 f381 	clz	r3, r1
   81d2a:	bf08      	it	eq
   81d2c:	3320      	addeq	r3, #32
   81d2e:	f1a3 030b 	sub.w	r3, r3, #11
   81d32:	f1b3 0220 	subs.w	r2, r3, #32
   81d36:	da0c      	bge.n	81d52 <__adddf3+0x16e>
   81d38:	320c      	adds	r2, #12
   81d3a:	dd08      	ble.n	81d4e <__adddf3+0x16a>
   81d3c:	f102 0c14 	add.w	ip, r2, #20
   81d40:	f1c2 020c 	rsb	r2, r2, #12
   81d44:	fa01 f00c 	lsl.w	r0, r1, ip
   81d48:	fa21 f102 	lsr.w	r1, r1, r2
   81d4c:	e00c      	b.n	81d68 <__adddf3+0x184>
   81d4e:	f102 0214 	add.w	r2, r2, #20
   81d52:	bfd8      	it	le
   81d54:	f1c2 0c20 	rsble	ip, r2, #32
   81d58:	fa01 f102 	lsl.w	r1, r1, r2
   81d5c:	fa20 fc0c 	lsr.w	ip, r0, ip
   81d60:	bfdc      	itt	le
   81d62:	ea41 010c 	orrle.w	r1, r1, ip
   81d66:	4090      	lslle	r0, r2
   81d68:	1ae4      	subs	r4, r4, r3
   81d6a:	bfa2      	ittt	ge
   81d6c:	eb01 5104 	addge.w	r1, r1, r4, lsl #20
   81d70:	4329      	orrge	r1, r5
   81d72:	bd30      	popge	{r4, r5, pc}
   81d74:	ea6f 0404 	mvn.w	r4, r4
   81d78:	3c1f      	subs	r4, #31
   81d7a:	da1c      	bge.n	81db6 <__adddf3+0x1d2>
   81d7c:	340c      	adds	r4, #12
   81d7e:	dc0e      	bgt.n	81d9e <__adddf3+0x1ba>
   81d80:	f104 0414 	add.w	r4, r4, #20
   81d84:	f1c4 0220 	rsb	r2, r4, #32
   81d88:	fa20 f004 	lsr.w	r0, r0, r4
   81d8c:	fa01 f302 	lsl.w	r3, r1, r2
   81d90:	ea40 0003 	orr.w	r0, r0, r3
   81d94:	fa21 f304 	lsr.w	r3, r1, r4
   81d98:	ea45 0103 	orr.w	r1, r5, r3
   81d9c:	bd30      	pop	{r4, r5, pc}
   81d9e:	f1c4 040c 	rsb	r4, r4, #12
   81da2:	f1c4 0220 	rsb	r2, r4, #32
   81da6:	fa20 f002 	lsr.w	r0, r0, r2
   81daa:	fa01 f304 	lsl.w	r3, r1, r4
   81dae:	ea40 0003 	orr.w	r0, r0, r3
   81db2:	4629      	mov	r1, r5
   81db4:	bd30      	pop	{r4, r5, pc}
   81db6:	fa21 f004 	lsr.w	r0, r1, r4
   81dba:	4629      	mov	r1, r5
   81dbc:	bd30      	pop	{r4, r5, pc}
   81dbe:	f094 0f00 	teq	r4, #0
   81dc2:	f483 1380 	eor.w	r3, r3, #1048576	; 0x100000
   81dc6:	bf06      	itte	eq
   81dc8:	f481 1180 	eoreq.w	r1, r1, #1048576	; 0x100000
   81dcc:	3401      	addeq	r4, #1
   81dce:	3d01      	subne	r5, #1
   81dd0:	e74e      	b.n	81c70 <__adddf3+0x8c>
   81dd2:	ea7f 5c64 	mvns.w	ip, r4, asr #21
   81dd6:	bf18      	it	ne
   81dd8:	ea7f 5c65 	mvnsne.w	ip, r5, asr #21
   81ddc:	d029      	beq.n	81e32 <__adddf3+0x24e>
   81dde:	ea94 0f05 	teq	r4, r5
   81de2:	bf08      	it	eq
   81de4:	ea90 0f02 	teqeq	r0, r2
   81de8:	d005      	beq.n	81df6 <__adddf3+0x212>
   81dea:	ea54 0c00 	orrs.w	ip, r4, r0
   81dee:	bf04      	itt	eq
   81df0:	4619      	moveq	r1, r3
   81df2:	4610      	moveq	r0, r2
   81df4:	bd30      	pop	{r4, r5, pc}
   81df6:	ea91 0f03 	teq	r1, r3
   81dfa:	bf1e      	ittt	ne
   81dfc:	2100      	movne	r1, #0
   81dfe:	2000      	movne	r0, #0
   81e00:	bd30      	popne	{r4, r5, pc}
   81e02:	ea5f 5c54 	movs.w	ip, r4, lsr #21
   81e06:	d105      	bne.n	81e14 <__adddf3+0x230>
   81e08:	0040      	lsls	r0, r0, #1
   81e0a:	4149      	adcs	r1, r1
   81e0c:	bf28      	it	cs
   81e0e:	f041 4100 	orrcs.w	r1, r1, #2147483648	; 0x80000000
   81e12:	bd30      	pop	{r4, r5, pc}
   81e14:	f514 0480 	adds.w	r4, r4, #4194304	; 0x400000
   81e18:	bf3c      	itt	cc
   81e1a:	f501 1180 	addcc.w	r1, r1, #1048576	; 0x100000
   81e1e:	bd30      	popcc	{r4, r5, pc}
   81e20:	f001 4500 	and.w	r5, r1, #2147483648	; 0x80000000
   81e24:	f045 41fe 	orr.w	r1, r5, #2130706432	; 0x7f000000
   81e28:	f441 0170 	orr.w	r1, r1, #15728640	; 0xf00000
   81e2c:	f04f 0000 	mov.w	r0, #0
   81e30:	bd30      	pop	{r4, r5, pc}
   81e32:	ea7f 5c64 	mvns.w	ip, r4, asr #21
   81e36:	bf1a      	itte	ne
   81e38:	4619      	movne	r1, r3
   81e3a:	4610      	movne	r0, r2
   81e3c:	ea7f 5c65 	mvnseq.w	ip, r5, asr #21
   81e40:	bf1c      	itt	ne
   81e42:	460b      	movne	r3, r1
   81e44:	4602      	movne	r2, r0
   81e46:	ea50 3401 	orrs.w	r4, r0, r1, lsl #12
   81e4a:	bf06      	itte	eq
   81e4c:	ea52 3503 	orrseq.w	r5, r2, r3, lsl #12
   81e50:	ea91 0f03 	teqeq	r1, r3
   81e54:	f441 2100 	orrne.w	r1, r1, #524288	; 0x80000
   81e58:	bd30      	pop	{r4, r5, pc}
   81e5a:	bf00      	nop

00081e5c <__aeabi_ui2d>:
   81e5c:	f090 0f00 	teq	r0, #0
   81e60:	bf04      	itt	eq
   81e62:	2100      	moveq	r1, #0
   81e64:	4770      	bxeq	lr
   81e66:	b530      	push	{r4, r5, lr}
   81e68:	f44f 6480 	mov.w	r4, #1024	; 0x400
   81e6c:	f104 0432 	add.w	r4, r4, #50	; 0x32
   81e70:	f04f 0500 	mov.w	r5, #0
   81e74:	f04f 0100 	mov.w	r1, #0
   81e78:	e750      	b.n	81d1c <__adddf3+0x138>
   81e7a:	bf00      	nop

00081e7c <__aeabi_i2d>:
   81e7c:	f090 0f00 	teq	r0, #0
   81e80:	bf04      	itt	eq
   81e82:	2100      	moveq	r1, #0
   81e84:	4770      	bxeq	lr
   81e86:	b530      	push	{r4, r5, lr}
   81e88:	f44f 6480 	mov.w	r4, #1024	; 0x400
   81e8c:	f104 0432 	add.w	r4, r4, #50	; 0x32
   81e90:	f010 4500 	ands.w	r5, r0, #2147483648	; 0x80000000
   81e94:	bf48      	it	mi
   81e96:	4240      	negmi	r0, r0
   81e98:	f04f 0100 	mov.w	r1, #0
   81e9c:	e73e      	b.n	81d1c <__adddf3+0x138>
   81e9e:	bf00      	nop

00081ea0 <__aeabi_f2d>:
   81ea0:	0042      	lsls	r2, r0, #1
   81ea2:	ea4f 01e2 	mov.w	r1, r2, asr #3
   81ea6:	ea4f 0131 	mov.w	r1, r1, rrx
   81eaa:	ea4f 7002 	mov.w	r0, r2, lsl #28
   81eae:	bf1f      	itttt	ne
   81eb0:	f012 437f 	andsne.w	r3, r2, #4278190080	; 0xff000000
   81eb4:	f093 4f7f 	teqne	r3, #4278190080	; 0xff000000
   81eb8:	f081 5160 	eorne.w	r1, r1, #939524096	; 0x38000000
   81ebc:	4770      	bxne	lr
   81ebe:	f092 0f00 	teq	r2, #0
   81ec2:	bf14      	ite	ne
   81ec4:	f093 4f7f 	teqne	r3, #4278190080	; 0xff000000
   81ec8:	4770      	bxeq	lr
   81eca:	b530      	push	{r4, r5, lr}
   81ecc:	f44f 7460 	mov.w	r4, #896	; 0x380
   81ed0:	f001 4500 	and.w	r5, r1, #2147483648	; 0x80000000
   81ed4:	f021 4100 	bic.w	r1, r1, #2147483648	; 0x80000000
   81ed8:	e720      	b.n	81d1c <__adddf3+0x138>
   81eda:	bf00      	nop

00081edc <__aeabi_ul2d>:
   81edc:	ea50 0201 	orrs.w	r2, r0, r1
   81ee0:	bf08      	it	eq
   81ee2:	4770      	bxeq	lr
   81ee4:	b530      	push	{r4, r5, lr}
   81ee6:	f04f 0500 	mov.w	r5, #0
   81eea:	e00a      	b.n	81f02 <__aeabi_l2d+0x16>

00081eec <__aeabi_l2d>:
   81eec:	ea50 0201 	orrs.w	r2, r0, r1
   81ef0:	bf08      	it	eq
   81ef2:	4770      	bxeq	lr
   81ef4:	b530      	push	{r4, r5, lr}
   81ef6:	f011 4500 	ands.w	r5, r1, #2147483648	; 0x80000000
   81efa:	d502      	bpl.n	81f02 <__aeabi_l2d+0x16>
   81efc:	4240      	negs	r0, r0
   81efe:	eb61 0141 	sbc.w	r1, r1, r1, lsl #1
   81f02:	f44f 6480 	mov.w	r4, #1024	; 0x400
   81f06:	f104 0432 	add.w	r4, r4, #50	; 0x32
   81f0a:	ea5f 5c91 	movs.w	ip, r1, lsr #22
   81f0e:	f43f aedc 	beq.w	81cca <__adddf3+0xe6>
   81f12:	f04f 0203 	mov.w	r2, #3
   81f16:	ea5f 0cdc 	movs.w	ip, ip, lsr #3
   81f1a:	bf18      	it	ne
   81f1c:	3203      	addne	r2, #3
   81f1e:	ea5f 0cdc 	movs.w	ip, ip, lsr #3
   81f22:	bf18      	it	ne
   81f24:	3203      	addne	r2, #3
   81f26:	eb02 02dc 	add.w	r2, r2, ip, lsr #3
   81f2a:	f1c2 0320 	rsb	r3, r2, #32
   81f2e:	fa00 fc03 	lsl.w	ip, r0, r3
   81f32:	fa20 f002 	lsr.w	r0, r0, r2
   81f36:	fa01 fe03 	lsl.w	lr, r1, r3
   81f3a:	ea40 000e 	orr.w	r0, r0, lr
   81f3e:	fa21 f102 	lsr.w	r1, r1, r2
   81f42:	4414      	add	r4, r2
   81f44:	e6c1      	b.n	81cca <__adddf3+0xe6>
   81f46:	bf00      	nop

00081f48 <__aeabi_dmul>:
   81f48:	b570      	push	{r4, r5, r6, lr}
   81f4a:	f04f 0cff 	mov.w	ip, #255	; 0xff
   81f4e:	f44c 6ce0 	orr.w	ip, ip, #1792	; 0x700
   81f52:	ea1c 5411 	ands.w	r4, ip, r1, lsr #20
   81f56:	bf1d      	ittte	ne
   81f58:	ea1c 5513 	andsne.w	r5, ip, r3, lsr #20
   81f5c:	ea94 0f0c 	teqne	r4, ip
   81f60:	ea95 0f0c 	teqne	r5, ip
   81f64:	f000 f8de 	bleq	82124 <__aeabi_dmul+0x1dc>
   81f68:	442c      	add	r4, r5
   81f6a:	ea81 0603 	eor.w	r6, r1, r3
   81f6e:	ea21 514c 	bic.w	r1, r1, ip, lsl #21
   81f72:	ea23 534c 	bic.w	r3, r3, ip, lsl #21
   81f76:	ea50 3501 	orrs.w	r5, r0, r1, lsl #12
   81f7a:	bf18      	it	ne
   81f7c:	ea52 3503 	orrsne.w	r5, r2, r3, lsl #12
   81f80:	f441 1180 	orr.w	r1, r1, #1048576	; 0x100000
   81f84:	f443 1380 	orr.w	r3, r3, #1048576	; 0x100000
   81f88:	d038      	beq.n	81ffc <__aeabi_dmul+0xb4>
   81f8a:	fba0 ce02 	umull	ip, lr, r0, r2
   81f8e:	f04f 0500 	mov.w	r5, #0
   81f92:	fbe1 e502 	umlal	lr, r5, r1, r2
   81f96:	f006 4200 	and.w	r2, r6, #2147483648	; 0x80000000
   81f9a:	fbe0 e503 	umlal	lr, r5, r0, r3
   81f9e:	f04f 0600 	mov.w	r6, #0
   81fa2:	fbe1 5603 	umlal	r5, r6, r1, r3
   81fa6:	f09c 0f00 	teq	ip, #0
   81faa:	bf18      	it	ne
   81fac:	f04e 0e01 	orrne.w	lr, lr, #1
   81fb0:	f1a4 04ff 	sub.w	r4, r4, #255	; 0xff
   81fb4:	f5b6 7f00 	cmp.w	r6, #512	; 0x200
   81fb8:	f564 7440 	sbc.w	r4, r4, #768	; 0x300
   81fbc:	d204      	bcs.n	81fc8 <__aeabi_dmul+0x80>
   81fbe:	ea5f 0e4e 	movs.w	lr, lr, lsl #1
   81fc2:	416d      	adcs	r5, r5
   81fc4:	eb46 0606 	adc.w	r6, r6, r6
   81fc8:	ea42 21c6 	orr.w	r1, r2, r6, lsl #11
   81fcc:	ea41 5155 	orr.w	r1, r1, r5, lsr #21
   81fd0:	ea4f 20c5 	mov.w	r0, r5, lsl #11
   81fd4:	ea40 505e 	orr.w	r0, r0, lr, lsr #21
   81fd8:	ea4f 2ece 	mov.w	lr, lr, lsl #11
   81fdc:	f1b4 0cfd 	subs.w	ip, r4, #253	; 0xfd
   81fe0:	bf88      	it	hi
   81fe2:	f5bc 6fe0 	cmphi.w	ip, #1792	; 0x700
   81fe6:	d81e      	bhi.n	82026 <__aeabi_dmul+0xde>
   81fe8:	f1be 4f00 	cmp.w	lr, #2147483648	; 0x80000000
   81fec:	bf08      	it	eq
   81fee:	ea5f 0e50 	movseq.w	lr, r0, lsr #1
   81ff2:	f150 0000 	adcs.w	r0, r0, #0
   81ff6:	eb41 5104 	adc.w	r1, r1, r4, lsl #20
   81ffa:	bd70      	pop	{r4, r5, r6, pc}
   81ffc:	f006 4600 	and.w	r6, r6, #2147483648	; 0x80000000
   82000:	ea46 0101 	orr.w	r1, r6, r1
   82004:	ea40 0002 	orr.w	r0, r0, r2
   82008:	ea81 0103 	eor.w	r1, r1, r3
   8200c:	ebb4 045c 	subs.w	r4, r4, ip, lsr #1
   82010:	bfc2      	ittt	gt
   82012:	ebd4 050c 	rsbsgt	r5, r4, ip
   82016:	ea41 5104 	orrgt.w	r1, r1, r4, lsl #20
   8201a:	bd70      	popgt	{r4, r5, r6, pc}
   8201c:	f441 1180 	orr.w	r1, r1, #1048576	; 0x100000
   82020:	f04f 0e00 	mov.w	lr, #0
   82024:	3c01      	subs	r4, #1
   82026:	f300 80ab 	bgt.w	82180 <__aeabi_dmul+0x238>
   8202a:	f114 0f36 	cmn.w	r4, #54	; 0x36
   8202e:	bfde      	ittt	le
   82030:	2000      	movle	r0, #0
   82032:	f001 4100 	andle.w	r1, r1, #2147483648	; 0x80000000
   82036:	bd70      	pople	{r4, r5, r6, pc}
   82038:	f1c4 0400 	rsb	r4, r4, #0
   8203c:	3c20      	subs	r4, #32
   8203e:	da35      	bge.n	820ac <__aeabi_dmul+0x164>
   82040:	340c      	adds	r4, #12
   82042:	dc1b      	bgt.n	8207c <__aeabi_dmul+0x134>
   82044:	f104 0414 	add.w	r4, r4, #20
   82048:	f1c4 0520 	rsb	r5, r4, #32
   8204c:	fa00 f305 	lsl.w	r3, r0, r5
   82050:	fa20 f004 	lsr.w	r0, r0, r4
   82054:	fa01 f205 	lsl.w	r2, r1, r5
   82058:	ea40 0002 	orr.w	r0, r0, r2
   8205c:	f001 4200 	and.w	r2, r1, #2147483648	; 0x80000000
   82060:	f021 4100 	bic.w	r1, r1, #2147483648	; 0x80000000
   82064:	eb10 70d3 	adds.w	r0, r0, r3, lsr #31
   82068:	fa21 f604 	lsr.w	r6, r1, r4
   8206c:	eb42 0106 	adc.w	r1, r2, r6
   82070:	ea5e 0e43 	orrs.w	lr, lr, r3, lsl #1
   82074:	bf08      	it	eq
   82076:	ea20 70d3 	biceq.w	r0, r0, r3, lsr #31
   8207a:	bd70      	pop	{r4, r5, r6, pc}
   8207c:	f1c4 040c 	rsb	r4, r4, #12
   82080:	f1c4 0520 	rsb	r5, r4, #32
   82084:	fa00 f304 	lsl.w	r3, r0, r4
   82088:	fa20 f005 	lsr.w	r0, r0, r5
   8208c:	fa01 f204 	lsl.w	r2, r1, r4
   82090:	ea40 0002 	orr.w	r0, r0, r2
   82094:	f001 4100 	and.w	r1, r1, #2147483648	; 0x80000000
   82098:	eb10 70d3 	adds.w	r0, r0, r3, lsr #31
   8209c:	f141 0100 	adc.w	r1, r1, #0
   820a0:	ea5e 0e43 	orrs.w	lr, lr, r3, lsl #1
   820a4:	bf08      	it	eq
   820a6:	ea20 70d3 	biceq.w	r0, r0, r3, lsr #31
   820aa:	bd70      	pop	{r4, r5, r6, pc}
   820ac:	f1c4 0520 	rsb	r5, r4, #32
   820b0:	fa00 f205 	lsl.w	r2, r0, r5
   820b4:	ea4e 0e02 	orr.w	lr, lr, r2
   820b8:	fa20 f304 	lsr.w	r3, r0, r4
   820bc:	fa01 f205 	lsl.w	r2, r1, r5
   820c0:	ea43 0302 	orr.w	r3, r3, r2
   820c4:	fa21 f004 	lsr.w	r0, r1, r4
   820c8:	f001 4100 	and.w	r1, r1, #2147483648	; 0x80000000
   820cc:	fa21 f204 	lsr.w	r2, r1, r4
   820d0:	ea20 0002 	bic.w	r0, r0, r2
   820d4:	eb00 70d3 	add.w	r0, r0, r3, lsr #31
   820d8:	ea5e 0e43 	orrs.w	lr, lr, r3, lsl #1
   820dc:	bf08      	it	eq
   820de:	ea20 70d3 	biceq.w	r0, r0, r3, lsr #31
   820e2:	bd70      	pop	{r4, r5, r6, pc}
   820e4:	f094 0f00 	teq	r4, #0
   820e8:	d10f      	bne.n	8210a <__aeabi_dmul+0x1c2>
   820ea:	f001 4600 	and.w	r6, r1, #2147483648	; 0x80000000
   820ee:	0040      	lsls	r0, r0, #1
   820f0:	eb41 0101 	adc.w	r1, r1, r1
   820f4:	f411 1f80 	tst.w	r1, #1048576	; 0x100000
   820f8:	bf08      	it	eq
   820fa:	3c01      	subeq	r4, #1
   820fc:	d0f7      	beq.n	820ee <__aeabi_dmul+0x1a6>
   820fe:	ea41 0106 	orr.w	r1, r1, r6
   82102:	f095 0f00 	teq	r5, #0
   82106:	bf18      	it	ne
   82108:	4770      	bxne	lr
   8210a:	f003 4600 	and.w	r6, r3, #2147483648	; 0x80000000
   8210e:	0052      	lsls	r2, r2, #1
   82110:	eb43 0303 	adc.w	r3, r3, r3
   82114:	f413 1f80 	tst.w	r3, #1048576	; 0x100000
   82118:	bf08      	it	eq
   8211a:	3d01      	subeq	r5, #1
   8211c:	d0f7      	beq.n	8210e <__aeabi_dmul+0x1c6>
   8211e:	ea43 0306 	orr.w	r3, r3, r6
   82122:	4770      	bx	lr
   82124:	ea94 0f0c 	teq	r4, ip
   82128:	ea0c 5513 	and.w	r5, ip, r3, lsr #20
   8212c:	bf18      	it	ne
   8212e:	ea95 0f0c 	teqne	r5, ip
   82132:	d00c      	beq.n	8214e <__aeabi_dmul+0x206>
   82134:	ea50 0641 	orrs.w	r6, r0, r1, lsl #1
   82138:	bf18      	it	ne
   8213a:	ea52 0643 	orrsne.w	r6, r2, r3, lsl #1
   8213e:	d1d1      	bne.n	820e4 <__aeabi_dmul+0x19c>
   82140:	ea81 0103 	eor.w	r1, r1, r3
   82144:	f001 4100 	and.w	r1, r1, #2147483648	; 0x80000000
   82148:	f04f 0000 	mov.w	r0, #0
   8214c:	bd70      	pop	{r4, r5, r6, pc}
   8214e:	ea50 0641 	orrs.w	r6, r0, r1, lsl #1
   82152:	bf06      	itte	eq
   82154:	4610      	moveq	r0, r2
   82156:	4619      	moveq	r1, r3
   82158:	ea52 0643 	orrsne.w	r6, r2, r3, lsl #1
   8215c:	d019      	beq.n	82192 <__aeabi_dmul+0x24a>
   8215e:	ea94 0f0c 	teq	r4, ip
   82162:	d102      	bne.n	8216a <__aeabi_dmul+0x222>
   82164:	ea50 3601 	orrs.w	r6, r0, r1, lsl #12
   82168:	d113      	bne.n	82192 <__aeabi_dmul+0x24a>
   8216a:	ea95 0f0c 	teq	r5, ip
   8216e:	d105      	bne.n	8217c <__aeabi_dmul+0x234>
   82170:	ea52 3603 	orrs.w	r6, r2, r3, lsl #12
   82174:	bf1c      	itt	ne
   82176:	4610      	movne	r0, r2
   82178:	4619      	movne	r1, r3
   8217a:	d10a      	bne.n	82192 <__aeabi_dmul+0x24a>
   8217c:	ea81 0103 	eor.w	r1, r1, r3
   82180:	f001 4100 	and.w	r1, r1, #2147483648	; 0x80000000
   82184:	f041 41fe 	orr.w	r1, r1, #2130706432	; 0x7f000000
   82188:	f441 0170 	orr.w	r1, r1, #15728640	; 0xf00000
   8218c:	f04f 0000 	mov.w	r0, #0
   82190:	bd70      	pop	{r4, r5, r6, pc}
   82192:	f041 41fe 	orr.w	r1, r1, #2130706432	; 0x7f000000
   82196:	f441 0178 	orr.w	r1, r1, #16252928	; 0xf80000
   8219a:	bd70      	pop	{r4, r5, r6, pc}

0008219c <__aeabi_ddiv>:
   8219c:	b570      	push	{r4, r5, r6, lr}
   8219e:	f04f 0cff 	mov.w	ip, #255	; 0xff
   821a2:	f44c 6ce0 	orr.w	ip, ip, #1792	; 0x700
   821a6:	ea1c 5411 	ands.w	r4, ip, r1, lsr #20
   821aa:	bf1d      	ittte	ne
   821ac:	ea1c 5513 	andsne.w	r5, ip, r3, lsr #20
   821b0:	ea94 0f0c 	teqne	r4, ip
   821b4:	ea95 0f0c 	teqne	r5, ip
   821b8:	f000 f8a7 	bleq	8230a <__aeabi_ddiv+0x16e>
   821bc:	eba4 0405 	sub.w	r4, r4, r5
   821c0:	ea81 0e03 	eor.w	lr, r1, r3
   821c4:	ea52 3503 	orrs.w	r5, r2, r3, lsl #12
   821c8:	ea4f 3101 	mov.w	r1, r1, lsl #12
   821cc:	f000 8088 	beq.w	822e0 <__aeabi_ddiv+0x144>
   821d0:	ea4f 3303 	mov.w	r3, r3, lsl #12
   821d4:	f04f 5580 	mov.w	r5, #268435456	; 0x10000000
   821d8:	ea45 1313 	orr.w	r3, r5, r3, lsr #4
   821dc:	ea43 6312 	orr.w	r3, r3, r2, lsr #24
   821e0:	ea4f 2202 	mov.w	r2, r2, lsl #8
   821e4:	ea45 1511 	orr.w	r5, r5, r1, lsr #4
   821e8:	ea45 6510 	orr.w	r5, r5, r0, lsr #24
   821ec:	ea4f 2600 	mov.w	r6, r0, lsl #8
   821f0:	f00e 4100 	and.w	r1, lr, #2147483648	; 0x80000000
   821f4:	429d      	cmp	r5, r3
   821f6:	bf08      	it	eq
   821f8:	4296      	cmpeq	r6, r2
   821fa:	f144 04fd 	adc.w	r4, r4, #253	; 0xfd
   821fe:	f504 7440 	add.w	r4, r4, #768	; 0x300
   82202:	d202      	bcs.n	8220a <__aeabi_ddiv+0x6e>
   82204:	085b      	lsrs	r3, r3, #1
   82206:	ea4f 0232 	mov.w	r2, r2, rrx
   8220a:	1ab6      	subs	r6, r6, r2
   8220c:	eb65 0503 	sbc.w	r5, r5, r3
   82210:	085b      	lsrs	r3, r3, #1
   82212:	ea4f 0232 	mov.w	r2, r2, rrx
   82216:	f44f 1080 	mov.w	r0, #1048576	; 0x100000
   8221a:	f44f 2c00 	mov.w	ip, #524288	; 0x80000
   8221e:	ebb6 0e02 	subs.w	lr, r6, r2
   82222:	eb75 0e03 	sbcs.w	lr, r5, r3
   82226:	bf22      	ittt	cs
   82228:	1ab6      	subcs	r6, r6, r2
   8222a:	4675      	movcs	r5, lr
   8222c:	ea40 000c 	orrcs.w	r0, r0, ip
   82230:	085b      	lsrs	r3, r3, #1
   82232:	ea4f 0232 	mov.w	r2, r2, rrx
   82236:	ebb6 0e02 	subs.w	lr, r6, r2
   8223a:	eb75 0e03 	sbcs.w	lr, r5, r3
   8223e:	bf22      	ittt	cs
   82240:	1ab6      	subcs	r6, r6, r2
   82242:	4675      	movcs	r5, lr
   82244:	ea40 005c 	orrcs.w	r0, r0, ip, lsr #1
   82248:	085b      	lsrs	r3, r3, #1
   8224a:	ea4f 0232 	mov.w	r2, r2, rrx
   8224e:	ebb6 0e02 	subs.w	lr, r6, r2
   82252:	eb75 0e03 	sbcs.w	lr, r5, r3
   82256:	bf22      	ittt	cs
   82258:	1ab6      	subcs	r6, r6, r2
   8225a:	4675      	movcs	r5, lr
   8225c:	ea40 009c 	orrcs.w	r0, r0, ip, lsr #2
   82260:	085b      	lsrs	r3, r3, #1
   82262:	ea4f 0232 	mov.w	r2, r2, rrx
   82266:	ebb6 0e02 	subs.w	lr, r6, r2
   8226a:	eb75 0e03 	sbcs.w	lr, r5, r3
   8226e:	bf22      	ittt	cs
   82270:	1ab6      	subcs	r6, r6, r2
   82272:	4675      	movcs	r5, lr
   82274:	ea40 00dc 	orrcs.w	r0, r0, ip, lsr #3
   82278:	ea55 0e06 	orrs.w	lr, r5, r6
   8227c:	d018      	beq.n	822b0 <__aeabi_ddiv+0x114>
   8227e:	ea4f 1505 	mov.w	r5, r5, lsl #4
   82282:	ea45 7516 	orr.w	r5, r5, r6, lsr #28
   82286:	ea4f 1606 	mov.w	r6, r6, lsl #4
   8228a:	ea4f 03c3 	mov.w	r3, r3, lsl #3
   8228e:	ea43 7352 	orr.w	r3, r3, r2, lsr #29
   82292:	ea4f 02c2 	mov.w	r2, r2, lsl #3
   82296:	ea5f 1c1c 	movs.w	ip, ip, lsr #4
   8229a:	d1c0      	bne.n	8221e <__aeabi_ddiv+0x82>
   8229c:	f411 1f80 	tst.w	r1, #1048576	; 0x100000
   822a0:	d10b      	bne.n	822ba <__aeabi_ddiv+0x11e>
   822a2:	ea41 0100 	orr.w	r1, r1, r0
   822a6:	f04f 0000 	mov.w	r0, #0
   822aa:	f04f 4c00 	mov.w	ip, #2147483648	; 0x80000000
   822ae:	e7b6      	b.n	8221e <__aeabi_ddiv+0x82>
   822b0:	f411 1f80 	tst.w	r1, #1048576	; 0x100000
   822b4:	bf04      	itt	eq
   822b6:	4301      	orreq	r1, r0
   822b8:	2000      	moveq	r0, #0
   822ba:	f1b4 0cfd 	subs.w	ip, r4, #253	; 0xfd
   822be:	bf88      	it	hi
   822c0:	f5bc 6fe0 	cmphi.w	ip, #1792	; 0x700
   822c4:	f63f aeaf 	bhi.w	82026 <__aeabi_dmul+0xde>
   822c8:	ebb5 0c03 	subs.w	ip, r5, r3
   822cc:	bf04      	itt	eq
   822ce:	ebb6 0c02 	subseq.w	ip, r6, r2
   822d2:	ea5f 0c50 	movseq.w	ip, r0, lsr #1
   822d6:	f150 0000 	adcs.w	r0, r0, #0
   822da:	eb41 5104 	adc.w	r1, r1, r4, lsl #20
   822de:	bd70      	pop	{r4, r5, r6, pc}
   822e0:	f00e 4e00 	and.w	lr, lr, #2147483648	; 0x80000000
   822e4:	ea4e 3111 	orr.w	r1, lr, r1, lsr #12
   822e8:	eb14 045c 	adds.w	r4, r4, ip, lsr #1
   822ec:	bfc2      	ittt	gt
   822ee:	ebd4 050c 	rsbsgt	r5, r4, ip
   822f2:	ea41 5104 	orrgt.w	r1, r1, r4, lsl #20
   822f6:	bd70      	popgt	{r4, r5, r6, pc}
   822f8:	f441 1180 	orr.w	r1, r1, #1048576	; 0x100000
   822fc:	f04f 0e00 	mov.w	lr, #0
   82300:	3c01      	subs	r4, #1
   82302:	e690      	b.n	82026 <__aeabi_dmul+0xde>
   82304:	ea45 0e06 	orr.w	lr, r5, r6
   82308:	e68d      	b.n	82026 <__aeabi_dmul+0xde>
   8230a:	ea0c 5513 	and.w	r5, ip, r3, lsr #20
   8230e:	ea94 0f0c 	teq	r4, ip
   82312:	bf08      	it	eq
   82314:	ea95 0f0c 	teqeq	r5, ip
   82318:	f43f af3b 	beq.w	82192 <__aeabi_dmul+0x24a>
   8231c:	ea94 0f0c 	teq	r4, ip
   82320:	d10a      	bne.n	82338 <__aeabi_ddiv+0x19c>
   82322:	ea50 3401 	orrs.w	r4, r0, r1, lsl #12
   82326:	f47f af34 	bne.w	82192 <__aeabi_dmul+0x24a>
   8232a:	ea95 0f0c 	teq	r5, ip
   8232e:	f47f af25 	bne.w	8217c <__aeabi_dmul+0x234>
   82332:	4610      	mov	r0, r2
   82334:	4619      	mov	r1, r3
   82336:	e72c      	b.n	82192 <__aeabi_dmul+0x24a>
   82338:	ea95 0f0c 	teq	r5, ip
   8233c:	d106      	bne.n	8234c <__aeabi_ddiv+0x1b0>
   8233e:	ea52 3503 	orrs.w	r5, r2, r3, lsl #12
   82342:	f43f aefd 	beq.w	82140 <__aeabi_dmul+0x1f8>
   82346:	4610      	mov	r0, r2
   82348:	4619      	mov	r1, r3
   8234a:	e722      	b.n	82192 <__aeabi_dmul+0x24a>
   8234c:	ea50 0641 	orrs.w	r6, r0, r1, lsl #1
   82350:	bf18      	it	ne
   82352:	ea52 0643 	orrsne.w	r6, r2, r3, lsl #1
   82356:	f47f aec5 	bne.w	820e4 <__aeabi_dmul+0x19c>
   8235a:	ea50 0441 	orrs.w	r4, r0, r1, lsl #1
   8235e:	f47f af0d 	bne.w	8217c <__aeabi_dmul+0x234>
   82362:	ea52 0543 	orrs.w	r5, r2, r3, lsl #1
   82366:	f47f aeeb 	bne.w	82140 <__aeabi_dmul+0x1f8>
   8236a:	e712      	b.n	82192 <__aeabi_dmul+0x24a>

0008236c <__gedf2>:
   8236c:	f04f 3cff 	mov.w	ip, #4294967295
   82370:	e006      	b.n	82380 <__cmpdf2+0x4>
   82372:	bf00      	nop

00082374 <__ledf2>:
   82374:	f04f 0c01 	mov.w	ip, #1
   82378:	e002      	b.n	82380 <__cmpdf2+0x4>
   8237a:	bf00      	nop

0008237c <__cmpdf2>:
   8237c:	f04f 0c01 	mov.w	ip, #1
   82380:	f84d cd04 	str.w	ip, [sp, #-4]!
   82384:	ea4f 0c41 	mov.w	ip, r1, lsl #1
   82388:	ea7f 5c6c 	mvns.w	ip, ip, asr #21
   8238c:	ea4f 0c43 	mov.w	ip, r3, lsl #1
   82390:	bf18      	it	ne
   82392:	ea7f 5c6c 	mvnsne.w	ip, ip, asr #21
   82396:	d01b      	beq.n	823d0 <__cmpdf2+0x54>
   82398:	b001      	add	sp, #4
   8239a:	ea50 0c41 	orrs.w	ip, r0, r1, lsl #1
   8239e:	bf0c      	ite	eq
   823a0:	ea52 0c43 	orrseq.w	ip, r2, r3, lsl #1
   823a4:	ea91 0f03 	teqne	r1, r3
   823a8:	bf02      	ittt	eq
   823aa:	ea90 0f02 	teqeq	r0, r2
   823ae:	2000      	moveq	r0, #0
   823b0:	4770      	bxeq	lr
   823b2:	f110 0f00 	cmn.w	r0, #0
   823b6:	ea91 0f03 	teq	r1, r3
   823ba:	bf58      	it	pl
   823bc:	4299      	cmppl	r1, r3
   823be:	bf08      	it	eq
   823c0:	4290      	cmpeq	r0, r2
   823c2:	bf2c      	ite	cs
   823c4:	17d8      	asrcs	r0, r3, #31
   823c6:	ea6f 70e3 	mvncc.w	r0, r3, asr #31
   823ca:	f040 0001 	orr.w	r0, r0, #1
   823ce:	4770      	bx	lr
   823d0:	ea4f 0c41 	mov.w	ip, r1, lsl #1
   823d4:	ea7f 5c6c 	mvns.w	ip, ip, asr #21
   823d8:	d102      	bne.n	823e0 <__cmpdf2+0x64>
   823da:	ea50 3c01 	orrs.w	ip, r0, r1, lsl #12
   823de:	d107      	bne.n	823f0 <__cmpdf2+0x74>
   823e0:	ea4f 0c43 	mov.w	ip, r3, lsl #1
   823e4:	ea7f 5c6c 	mvns.w	ip, ip, asr #21
   823e8:	d1d6      	bne.n	82398 <__cmpdf2+0x1c>
   823ea:	ea52 3c03 	orrs.w	ip, r2, r3, lsl #12
   823ee:	d0d3      	beq.n	82398 <__cmpdf2+0x1c>
   823f0:	f85d 0b04 	ldr.w	r0, [sp], #4
   823f4:	4770      	bx	lr
   823f6:	bf00      	nop

000823f8 <__aeabi_cdrcmple>:
   823f8:	4684      	mov	ip, r0
   823fa:	4610      	mov	r0, r2
   823fc:	4662      	mov	r2, ip
   823fe:	468c      	mov	ip, r1
   82400:	4619      	mov	r1, r3
   82402:	4663      	mov	r3, ip
   82404:	e000      	b.n	82408 <__aeabi_cdcmpeq>
   82406:	bf00      	nop

00082408 <__aeabi_cdcmpeq>:
   82408:	b501      	push	{r0, lr}
   8240a:	f7ff ffb7 	bl	8237c <__cmpdf2>
   8240e:	2800      	cmp	r0, #0
   82410:	bf48      	it	mi
   82412:	f110 0f00 	cmnmi.w	r0, #0
   82416:	bd01      	pop	{r0, pc}

00082418 <__aeabi_dcmpeq>:
   82418:	f84d ed08 	str.w	lr, [sp, #-8]!
   8241c:	f7ff fff4 	bl	82408 <__aeabi_cdcmpeq>
   82420:	bf0c      	ite	eq
   82422:	2001      	moveq	r0, #1
   82424:	2000      	movne	r0, #0
   82426:	f85d fb08 	ldr.w	pc, [sp], #8
   8242a:	bf00      	nop

0008242c <__aeabi_dcmplt>:
   8242c:	f84d ed08 	str.w	lr, [sp, #-8]!
   82430:	f7ff ffea 	bl	82408 <__aeabi_cdcmpeq>
   82434:	bf34      	ite	cc
   82436:	2001      	movcc	r0, #1
   82438:	2000      	movcs	r0, #0
   8243a:	f85d fb08 	ldr.w	pc, [sp], #8
   8243e:	bf00      	nop

00082440 <__aeabi_dcmple>:
   82440:	f84d ed08 	str.w	lr, [sp, #-8]!
   82444:	f7ff ffe0 	bl	82408 <__aeabi_cdcmpeq>
   82448:	bf94      	ite	ls
   8244a:	2001      	movls	r0, #1
   8244c:	2000      	movhi	r0, #0
   8244e:	f85d fb08 	ldr.w	pc, [sp], #8
   82452:	bf00      	nop

00082454 <__aeabi_dcmpge>:
   82454:	f84d ed08 	str.w	lr, [sp, #-8]!
   82458:	f7ff ffce 	bl	823f8 <__aeabi_cdrcmple>
   8245c:	bf94      	ite	ls
   8245e:	2001      	movls	r0, #1
   82460:	2000      	movhi	r0, #0
   82462:	f85d fb08 	ldr.w	pc, [sp], #8
   82466:	bf00      	nop

00082468 <__aeabi_dcmpgt>:
   82468:	f84d ed08 	str.w	lr, [sp, #-8]!
   8246c:	f7ff ffc4 	bl	823f8 <__aeabi_cdrcmple>
   82470:	bf34      	ite	cc
   82472:	2001      	movcc	r0, #1
   82474:	2000      	movcs	r0, #0
   82476:	f85d fb08 	ldr.w	pc, [sp], #8
   8247a:	bf00      	nop

0008247c <__aeabi_d2iz>:
   8247c:	ea4f 0241 	mov.w	r2, r1, lsl #1
   82480:	f512 1200 	adds.w	r2, r2, #2097152	; 0x200000
   82484:	d215      	bcs.n	824b2 <__aeabi_d2iz+0x36>
   82486:	d511      	bpl.n	824ac <__aeabi_d2iz+0x30>
   82488:	f46f 7378 	mvn.w	r3, #992	; 0x3e0
   8248c:	ebb3 5262 	subs.w	r2, r3, r2, asr #21
   82490:	d912      	bls.n	824b8 <__aeabi_d2iz+0x3c>
   82492:	ea4f 23c1 	mov.w	r3, r1, lsl #11
   82496:	f043 4300 	orr.w	r3, r3, #2147483648	; 0x80000000
   8249a:	ea43 5350 	orr.w	r3, r3, r0, lsr #21
   8249e:	f011 4f00 	tst.w	r1, #2147483648	; 0x80000000
   824a2:	fa23 f002 	lsr.w	r0, r3, r2
   824a6:	bf18      	it	ne
   824a8:	4240      	negne	r0, r0
   824aa:	4770      	bx	lr
   824ac:	f04f 0000 	mov.w	r0, #0
   824b0:	4770      	bx	lr
   824b2:	ea50 3001 	orrs.w	r0, r0, r1, lsl #12
   824b6:	d105      	bne.n	824c4 <__aeabi_d2iz+0x48>
   824b8:	f011 4000 	ands.w	r0, r1, #2147483648	; 0x80000000
   824bc:	bf08      	it	eq
   824be:	f06f 4000 	mvneq.w	r0, #2147483648	; 0x80000000
   824c2:	4770      	bx	lr
   824c4:	f04f 0000 	mov.w	r0, #0
   824c8:	4770      	bx	lr
   824ca:	bf00      	nop

000824cc <__errno>:
   824cc:	4b01      	ldr	r3, [pc, #4]	; (824d4 <__errno+0x8>)
   824ce:	6818      	ldr	r0, [r3, #0]
   824d0:	4770      	bx	lr
   824d2:	bf00      	nop
   824d4:	20070568 	.word	0x20070568

000824d8 <__libc_init_array>:
   824d8:	b570      	push	{r4, r5, r6, lr}
   824da:	4e0f      	ldr	r6, [pc, #60]	; (82518 <__libc_init_array+0x40>)
   824dc:	4d0f      	ldr	r5, [pc, #60]	; (8251c <__libc_init_array+0x44>)
   824de:	1b76      	subs	r6, r6, r5
   824e0:	10b6      	asrs	r6, r6, #2
   824e2:	d007      	beq.n	824f4 <__libc_init_array+0x1c>
   824e4:	3d04      	subs	r5, #4
   824e6:	2400      	movs	r4, #0
   824e8:	3401      	adds	r4, #1
   824ea:	f855 3f04 	ldr.w	r3, [r5, #4]!
   824ee:	4798      	blx	r3
   824f0:	42a6      	cmp	r6, r4
   824f2:	d1f9      	bne.n	824e8 <__libc_init_array+0x10>
   824f4:	4e0a      	ldr	r6, [pc, #40]	; (82520 <__libc_init_array+0x48>)
   824f6:	4d0b      	ldr	r5, [pc, #44]	; (82524 <__libc_init_array+0x4c>)
   824f8:	f005 fe34 	bl	88164 <_init>
   824fc:	1b76      	subs	r6, r6, r5
   824fe:	10b6      	asrs	r6, r6, #2
   82500:	d008      	beq.n	82514 <__libc_init_array+0x3c>
   82502:	3d04      	subs	r5, #4
   82504:	2400      	movs	r4, #0
   82506:	3401      	adds	r4, #1
   82508:	f855 3f04 	ldr.w	r3, [r5, #4]!
   8250c:	4798      	blx	r3
   8250e:	42a6      	cmp	r6, r4
   82510:	d1f9      	bne.n	82506 <__libc_init_array+0x2e>
   82512:	bd70      	pop	{r4, r5, r6, pc}
   82514:	bd70      	pop	{r4, r5, r6, pc}
   82516:	bf00      	nop
   82518:	00088170 	.word	0x00088170
   8251c:	00088170 	.word	0x00088170
   82520:	00088178 	.word	0x00088178
   82524:	00088170 	.word	0x00088170

00082528 <iprintf>:
   82528:	b40f      	push	{r0, r1, r2, r3}
   8252a:	b510      	push	{r4, lr}
   8252c:	4b07      	ldr	r3, [pc, #28]	; (8254c <iprintf+0x24>)
   8252e:	b082      	sub	sp, #8
   82530:	ac04      	add	r4, sp, #16
   82532:	f854 2b04 	ldr.w	r2, [r4], #4
   82536:	6818      	ldr	r0, [r3, #0]
   82538:	4623      	mov	r3, r4
   8253a:	6881      	ldr	r1, [r0, #8]
   8253c:	9401      	str	r4, [sp, #4]
   8253e:	f001 fb23 	bl	83b88 <_vfiprintf_r>
   82542:	b002      	add	sp, #8
   82544:	e8bd 4010 	ldmia.w	sp!, {r4, lr}
   82548:	b004      	add	sp, #16
   8254a:	4770      	bx	lr
   8254c:	20070568 	.word	0x20070568

00082550 <memset>:
   82550:	b4f0      	push	{r4, r5, r6, r7}
   82552:	0784      	lsls	r4, r0, #30
   82554:	d043      	beq.n	825de <memset+0x8e>
   82556:	1e54      	subs	r4, r2, #1
   82558:	2a00      	cmp	r2, #0
   8255a:	d03e      	beq.n	825da <memset+0x8a>
   8255c:	b2cd      	uxtb	r5, r1
   8255e:	4603      	mov	r3, r0
   82560:	e003      	b.n	8256a <memset+0x1a>
   82562:	1e62      	subs	r2, r4, #1
   82564:	2c00      	cmp	r4, #0
   82566:	d038      	beq.n	825da <memset+0x8a>
   82568:	4614      	mov	r4, r2
   8256a:	f803 5b01 	strb.w	r5, [r3], #1
   8256e:	079a      	lsls	r2, r3, #30
   82570:	d1f7      	bne.n	82562 <memset+0x12>
   82572:	2c03      	cmp	r4, #3
   82574:	d92a      	bls.n	825cc <memset+0x7c>
   82576:	b2cd      	uxtb	r5, r1
   82578:	ea45 2505 	orr.w	r5, r5, r5, lsl #8
   8257c:	2c0f      	cmp	r4, #15
   8257e:	ea45 4505 	orr.w	r5, r5, r5, lsl #16
   82582:	d915      	bls.n	825b0 <memset+0x60>
   82584:	f1a4 0710 	sub.w	r7, r4, #16
   82588:	093f      	lsrs	r7, r7, #4
   8258a:	f103 0610 	add.w	r6, r3, #16
   8258e:	eb06 1607 	add.w	r6, r6, r7, lsl #4
   82592:	461a      	mov	r2, r3
   82594:	6015      	str	r5, [r2, #0]
   82596:	6055      	str	r5, [r2, #4]
   82598:	6095      	str	r5, [r2, #8]
   8259a:	60d5      	str	r5, [r2, #12]
   8259c:	3210      	adds	r2, #16
   8259e:	42b2      	cmp	r2, r6
   825a0:	d1f8      	bne.n	82594 <memset+0x44>
   825a2:	f004 040f 	and.w	r4, r4, #15
   825a6:	3701      	adds	r7, #1
   825a8:	2c03      	cmp	r4, #3
   825aa:	eb03 1307 	add.w	r3, r3, r7, lsl #4
   825ae:	d90d      	bls.n	825cc <memset+0x7c>
   825b0:	461e      	mov	r6, r3
   825b2:	4622      	mov	r2, r4
   825b4:	3a04      	subs	r2, #4
   825b6:	2a03      	cmp	r2, #3
   825b8:	f846 5b04 	str.w	r5, [r6], #4
   825bc:	d8fa      	bhi.n	825b4 <memset+0x64>
   825be:	1f22      	subs	r2, r4, #4
   825c0:	f022 0203 	bic.w	r2, r2, #3
   825c4:	3204      	adds	r2, #4
   825c6:	4413      	add	r3, r2
   825c8:	f004 0403 	and.w	r4, r4, #3
   825cc:	b12c      	cbz	r4, 825da <memset+0x8a>
   825ce:	b2c9      	uxtb	r1, r1
   825d0:	441c      	add	r4, r3
   825d2:	f803 1b01 	strb.w	r1, [r3], #1
   825d6:	42a3      	cmp	r3, r4
   825d8:	d1fb      	bne.n	825d2 <memset+0x82>
   825da:	bcf0      	pop	{r4, r5, r6, r7}
   825dc:	4770      	bx	lr
   825de:	4614      	mov	r4, r2
   825e0:	4603      	mov	r3, r0
   825e2:	e7c6      	b.n	82572 <memset+0x22>

000825e4 <sprintf>:
   825e4:	b40e      	push	{r1, r2, r3}
   825e6:	b5f0      	push	{r4, r5, r6, r7, lr}
   825e8:	b09c      	sub	sp, #112	; 0x70
   825ea:	ac21      	add	r4, sp, #132	; 0x84
   825ec:	f854 2b04 	ldr.w	r2, [r4], #4
   825f0:	490e      	ldr	r1, [pc, #56]	; (8262c <sprintf+0x48>)
   825f2:	4606      	mov	r6, r0
   825f4:	4623      	mov	r3, r4
   825f6:	f44f 7e02 	mov.w	lr, #520	; 0x208
   825fa:	f06f 4500 	mvn.w	r5, #2147483648	; 0x80000000
   825fe:	6808      	ldr	r0, [r1, #0]
   82600:	f64f 77ff 	movw	r7, #65535	; 0xffff
   82604:	a902      	add	r1, sp, #8
   82606:	9602      	str	r6, [sp, #8]
   82608:	9606      	str	r6, [sp, #24]
   8260a:	9401      	str	r4, [sp, #4]
   8260c:	f8ad e014 	strh.w	lr, [sp, #20]
   82610:	9504      	str	r5, [sp, #16]
   82612:	9507      	str	r5, [sp, #28]
   82614:	f8ad 7016 	strh.w	r7, [sp, #22]
   82618:	f000 f80a 	bl	82630 <_svfprintf_r>
   8261c:	9b02      	ldr	r3, [sp, #8]
   8261e:	2200      	movs	r2, #0
   82620:	701a      	strb	r2, [r3, #0]
   82622:	b01c      	add	sp, #112	; 0x70
   82624:	e8bd 40f0 	ldmia.w	sp!, {r4, r5, r6, r7, lr}
   82628:	b003      	add	sp, #12
   8262a:	4770      	bx	lr
   8262c:	20070568 	.word	0x20070568

00082630 <_svfprintf_r>:
   82630:	e92d 4ff0 	stmdb	sp!, {r4, r5, r6, r7, r8, r9, sl, fp, lr}
   82634:	b0c9      	sub	sp, #292	; 0x124
   82636:	9310      	str	r3, [sp, #64]	; 0x40
   82638:	910c      	str	r1, [sp, #48]	; 0x30
   8263a:	4691      	mov	r9, r2
   8263c:	900d      	str	r0, [sp, #52]	; 0x34
   8263e:	f003 fdbd 	bl	861bc <_localeconv_r>
   82642:	6800      	ldr	r0, [r0, #0]
   82644:	9015      	str	r0, [sp, #84]	; 0x54
   82646:	f004 ff39 	bl	874bc <strlen>
   8264a:	9c0c      	ldr	r4, [sp, #48]	; 0x30
   8264c:	9018      	str	r0, [sp, #96]	; 0x60
   8264e:	89a3      	ldrh	r3, [r4, #12]
   82650:	061e      	lsls	r6, r3, #24
   82652:	d503      	bpl.n	8265c <_svfprintf_r+0x2c>
   82654:	6923      	ldr	r3, [r4, #16]
   82656:	2b00      	cmp	r3, #0
   82658:	f001 8081 	beq.w	8375e <_svfprintf_r+0x112e>
   8265c:	ac38      	add	r4, sp, #224	; 0xe0
   8265e:	46a4      	mov	ip, r4
   82660:	9408      	str	r4, [sp, #32]
   82662:	942b      	str	r4, [sp, #172]	; 0xac
   82664:	2500      	movs	r5, #0
   82666:	2400      	movs	r4, #0
   82668:	e9cd 4516 	strd	r4, r5, [sp, #88]	; 0x58
   8266c:	2300      	movs	r3, #0
   8266e:	9311      	str	r3, [sp, #68]	; 0x44
   82670:	932d      	str	r3, [sp, #180]	; 0xb4
   82672:	932c      	str	r3, [sp, #176]	; 0xb0
   82674:	931a      	str	r3, [sp, #104]	; 0x68
   82676:	9319      	str	r3, [sp, #100]	; 0x64
   82678:	930e      	str	r3, [sp, #56]	; 0x38
   8267a:	4666      	mov	r6, ip
   8267c:	f899 3000 	ldrb.w	r3, [r9]
   82680:	2b00      	cmp	r3, #0
   82682:	f000 80f8 	beq.w	82876 <_svfprintf_r+0x246>
   82686:	2b25      	cmp	r3, #37	; 0x25
   82688:	f000 80f5 	beq.w	82876 <_svfprintf_r+0x246>
   8268c:	f109 0201 	add.w	r2, r9, #1
   82690:	e001      	b.n	82696 <_svfprintf_r+0x66>
   82692:	2b25      	cmp	r3, #37	; 0x25
   82694:	d004      	beq.n	826a0 <_svfprintf_r+0x70>
   82696:	7813      	ldrb	r3, [r2, #0]
   82698:	4614      	mov	r4, r2
   8269a:	3201      	adds	r2, #1
   8269c:	2b00      	cmp	r3, #0
   8269e:	d1f8      	bne.n	82692 <_svfprintf_r+0x62>
   826a0:	ebc9 0504 	rsb	r5, r9, r4
   826a4:	b17d      	cbz	r5, 826c6 <_svfprintf_r+0x96>
   826a6:	9b2c      	ldr	r3, [sp, #176]	; 0xb0
   826a8:	9a2d      	ldr	r2, [sp, #180]	; 0xb4
   826aa:	3301      	adds	r3, #1
   826ac:	442a      	add	r2, r5
   826ae:	2b07      	cmp	r3, #7
   826b0:	f8c6 9000 	str.w	r9, [r6]
   826b4:	6075      	str	r5, [r6, #4]
   826b6:	922d      	str	r2, [sp, #180]	; 0xb4
   826b8:	932c      	str	r3, [sp, #176]	; 0xb0
   826ba:	f300 80c2 	bgt.w	82842 <_svfprintf_r+0x212>
   826be:	3608      	adds	r6, #8
   826c0:	980e      	ldr	r0, [sp, #56]	; 0x38
   826c2:	4428      	add	r0, r5
   826c4:	900e      	str	r0, [sp, #56]	; 0x38
   826c6:	7823      	ldrb	r3, [r4, #0]
   826c8:	2b00      	cmp	r3, #0
   826ca:	f000 80c2 	beq.w	82852 <_svfprintf_r+0x222>
   826ce:	2300      	movs	r3, #0
   826d0:	f894 8001 	ldrb.w	r8, [r4, #1]
   826d4:	461a      	mov	r2, r3
   826d6:	f88d 308f 	strb.w	r3, [sp, #143]	; 0x8f
   826da:	930f      	str	r3, [sp, #60]	; 0x3c
   826dc:	9309      	str	r3, [sp, #36]	; 0x24
   826de:	f104 0901 	add.w	r9, r4, #1
   826e2:	f04f 34ff 	mov.w	r4, #4294967295
   826e6:	940a      	str	r4, [sp, #40]	; 0x28
   826e8:	f109 0901 	add.w	r9, r9, #1
   826ec:	f1a8 0320 	sub.w	r3, r8, #32
   826f0:	2b58      	cmp	r3, #88	; 0x58
   826f2:	f200 83c5 	bhi.w	82e80 <_svfprintf_r+0x850>
   826f6:	e8df f013 	tbh	[pc, r3, lsl #1]
   826fa:	026a      	.short	0x026a
   826fc:	03c303c3 	.word	0x03c303c3
   82700:	03c30271 	.word	0x03c30271
   82704:	03c303c3 	.word	0x03c303c3
   82708:	03c303c3 	.word	0x03c303c3
   8270c:	031403c3 	.word	0x031403c3
   82710:	03c30366 	.word	0x03c30366
   82714:	00c0009d 	.word	0x00c0009d
   82718:	027803c3 	.word	0x027803c3
   8271c:	027f027f 	.word	0x027f027f
   82720:	027f027f 	.word	0x027f027f
   82724:	027f027f 	.word	0x027f027f
   82728:	027f027f 	.word	0x027f027f
   8272c:	03c3027f 	.word	0x03c3027f
   82730:	03c303c3 	.word	0x03c303c3
   82734:	03c303c3 	.word	0x03c303c3
   82738:	03c303c3 	.word	0x03c303c3
   8273c:	03c303c3 	.word	0x03c303c3
   82740:	029003c3 	.word	0x029003c3
   82744:	03c30371 	.word	0x03c30371
   82748:	03c30371 	.word	0x03c30371
   8274c:	03c303c3 	.word	0x03c303c3
   82750:	036a03c3 	.word	0x036a03c3
   82754:	03c303c3 	.word	0x03c303c3
   82758:	03c30078 	.word	0x03c30078
   8275c:	03c303c3 	.word	0x03c303c3
   82760:	03c303c3 	.word	0x03c303c3
   82764:	03c30059 	.word	0x03c30059
   82768:	02af03c3 	.word	0x02af03c3
   8276c:	03c303c3 	.word	0x03c303c3
   82770:	03c303c3 	.word	0x03c303c3
   82774:	03c303c3 	.word	0x03c303c3
   82778:	03c303c3 	.word	0x03c303c3
   8277c:	03c303c3 	.word	0x03c303c3
   82780:	03480337 	.word	0x03480337
   82784:	03710371 	.word	0x03710371
   82788:	02ff0371 	.word	0x02ff0371
   8278c:	03c30348 	.word	0x03c30348
   82790:	030803c3 	.word	0x030803c3
   82794:	02c503c3 	.word	0x02c503c3
   82798:	0320007c 	.word	0x0320007c
   8279c:	03c303a3 	.word	0x03c303a3
   827a0:	03c302d9 	.word	0x03c302d9
   827a4:	03c3005f 	.word	0x03c3005f
   827a8:	00de03c3 	.word	0x00de03c3
   827ac:	f8dd c024 	ldr.w	ip, [sp, #36]	; 0x24
   827b0:	f04c 0c10 	orr.w	ip, ip, #16
   827b4:	f8cd c024 	str.w	ip, [sp, #36]	; 0x24
   827b8:	9c09      	ldr	r4, [sp, #36]	; 0x24
   827ba:	06a2      	lsls	r2, r4, #26
   827bc:	f100 8354 	bmi.w	82e68 <_svfprintf_r+0x838>
   827c0:	9c09      	ldr	r4, [sp, #36]	; 0x24
   827c2:	06e3      	lsls	r3, r4, #27
   827c4:	f100 85bd 	bmi.w	83342 <_svfprintf_r+0xd12>
   827c8:	f8dd c024 	ldr.w	ip, [sp, #36]	; 0x24
   827cc:	f01c 0f40 	tst.w	ip, #64	; 0x40
   827d0:	f000 85b7 	beq.w	83342 <_svfprintf_r+0xd12>
   827d4:	f8dd c040 	ldr.w	ip, [sp, #64]	; 0x40
   827d8:	2500      	movs	r5, #0
   827da:	f8bc 4000 	ldrh.w	r4, [ip]
   827de:	f10c 0c04 	add.w	ip, ip, #4
   827e2:	2301      	movs	r3, #1
   827e4:	f8cd c040 	str.w	ip, [sp, #64]	; 0x40
   827e8:	e08c      	b.n	82904 <_svfprintf_r+0x2d4>
   827ea:	9d09      	ldr	r5, [sp, #36]	; 0x24
   827ec:	f045 0510 	orr.w	r5, r5, #16
   827f0:	9509      	str	r5, [sp, #36]	; 0x24
   827f2:	f8dd c024 	ldr.w	ip, [sp, #36]	; 0x24
   827f6:	f01c 0320 	ands.w	r3, ip, #32
   827fa:	f040 832a 	bne.w	82e52 <_svfprintf_r+0x822>
   827fe:	f8dd c024 	ldr.w	ip, [sp, #36]	; 0x24
   82802:	f01c 0210 	ands.w	r2, ip, #16
   82806:	f040 85a4 	bne.w	83352 <_svfprintf_r+0xd22>
   8280a:	f8dd c024 	ldr.w	ip, [sp, #36]	; 0x24
   8280e:	f01c 0340 	ands.w	r3, ip, #64	; 0x40
   82812:	f000 859e 	beq.w	83352 <_svfprintf_r+0xd22>
   82816:	f8dd c040 	ldr.w	ip, [sp, #64]	; 0x40
   8281a:	4613      	mov	r3, r2
   8281c:	f8bc 4000 	ldrh.w	r4, [ip]
   82820:	f10c 0c04 	add.w	ip, ip, #4
   82824:	2500      	movs	r5, #0
   82826:	f8cd c040 	str.w	ip, [sp, #64]	; 0x40
   8282a:	e06b      	b.n	82904 <_svfprintf_r+0x2d4>
   8282c:	9c0f      	ldr	r4, [sp, #60]	; 0x3c
   8282e:	9310      	str	r3, [sp, #64]	; 0x40
   82830:	4264      	negs	r4, r4
   82832:	940f      	str	r4, [sp, #60]	; 0x3c
   82834:	9d09      	ldr	r5, [sp, #36]	; 0x24
   82836:	f045 0504 	orr.w	r5, r5, #4
   8283a:	9509      	str	r5, [sp, #36]	; 0x24
   8283c:	f899 8000 	ldrb.w	r8, [r9]
   82840:	e752      	b.n	826e8 <_svfprintf_r+0xb8>
   82842:	980d      	ldr	r0, [sp, #52]	; 0x34
   82844:	990c      	ldr	r1, [sp, #48]	; 0x30
   82846:	aa2b      	add	r2, sp, #172	; 0xac
   82848:	f004 fe68 	bl	8751c <__ssprint_r>
   8284c:	b940      	cbnz	r0, 82860 <_svfprintf_r+0x230>
   8284e:	ae38      	add	r6, sp, #224	; 0xe0
   82850:	e736      	b.n	826c0 <_svfprintf_r+0x90>
   82852:	9b2d      	ldr	r3, [sp, #180]	; 0xb4
   82854:	b123      	cbz	r3, 82860 <_svfprintf_r+0x230>
   82856:	980d      	ldr	r0, [sp, #52]	; 0x34
   82858:	990c      	ldr	r1, [sp, #48]	; 0x30
   8285a:	aa2b      	add	r2, sp, #172	; 0xac
   8285c:	f004 fe5e 	bl	8751c <__ssprint_r>
   82860:	9c0c      	ldr	r4, [sp, #48]	; 0x30
   82862:	980e      	ldr	r0, [sp, #56]	; 0x38
   82864:	89a3      	ldrh	r3, [r4, #12]
   82866:	f013 0f40 	tst.w	r3, #64	; 0x40
   8286a:	bf18      	it	ne
   8286c:	f04f 30ff 	movne.w	r0, #4294967295
   82870:	b049      	add	sp, #292	; 0x124
   82872:	e8bd 8ff0 	ldmia.w	sp!, {r4, r5, r6, r7, r8, r9, sl, fp, pc}
   82876:	464c      	mov	r4, r9
   82878:	e725      	b.n	826c6 <_svfprintf_r+0x96>
   8287a:	f899 8000 	ldrb.w	r8, [r9]
   8287e:	f109 0001 	add.w	r0, r9, #1
   82882:	f1b8 0f2a 	cmp.w	r8, #42	; 0x2a
   82886:	f001 810c 	beq.w	83aa2 <_svfprintf_r+0x1472>
   8288a:	f1a8 0330 	sub.w	r3, r8, #48	; 0x30
   8288e:	2b09      	cmp	r3, #9
   82890:	bf98      	it	ls
   82892:	2100      	movls	r1, #0
   82894:	f201 806b 	bhi.w	8396e <_svfprintf_r+0x133e>
   82898:	f810 8b01 	ldrb.w	r8, [r0], #1
   8289c:	eb01 0181 	add.w	r1, r1, r1, lsl #2
   828a0:	eb03 0141 	add.w	r1, r3, r1, lsl #1
   828a4:	f1a8 0330 	sub.w	r3, r8, #48	; 0x30
   828a8:	2b09      	cmp	r3, #9
   828aa:	d9f5      	bls.n	82898 <_svfprintf_r+0x268>
   828ac:	ea41 71e1 	orr.w	r1, r1, r1, asr #31
   828b0:	910a      	str	r1, [sp, #40]	; 0x28
   828b2:	4681      	mov	r9, r0
   828b4:	e71a      	b.n	826ec <_svfprintf_r+0xbc>
   828b6:	9d09      	ldr	r5, [sp, #36]	; 0x24
   828b8:	4ca1      	ldr	r4, [pc, #644]	; (82b40 <_svfprintf_r+0x510>)
   828ba:	06af      	lsls	r7, r5, #26
   828bc:	941a      	str	r4, [sp, #104]	; 0x68
   828be:	f88d 208f 	strb.w	r2, [sp, #143]	; 0x8f
   828c2:	f140 81d1 	bpl.w	82c68 <_svfprintf_r+0x638>
   828c6:	f8dd c040 	ldr.w	ip, [sp, #64]	; 0x40
   828ca:	f10c 0307 	add.w	r3, ip, #7
   828ce:	f023 0307 	bic.w	r3, r3, #7
   828d2:	f103 0408 	add.w	r4, r3, #8
   828d6:	9410      	str	r4, [sp, #64]	; 0x40
   828d8:	e9d3 4500 	ldrd	r4, r5, [r3]
   828dc:	f8dd c024 	ldr.w	ip, [sp, #36]	; 0x24
   828e0:	f01c 0f01 	tst.w	ip, #1
   828e4:	f000 8462 	beq.w	831ac <_svfprintf_r+0xb7c>
   828e8:	ea54 0005 	orrs.w	r0, r4, r5
   828ec:	f000 845e 	beq.w	831ac <_svfprintf_r+0xb7c>
   828f0:	2330      	movs	r3, #48	; 0x30
   828f2:	f04c 0c02 	orr.w	ip, ip, #2
   828f6:	f88d 3090 	strb.w	r3, [sp, #144]	; 0x90
   828fa:	f88d 8091 	strb.w	r8, [sp, #145]	; 0x91
   828fe:	f8cd c024 	str.w	ip, [sp, #36]	; 0x24
   82902:	2302      	movs	r3, #2
   82904:	f04f 0a00 	mov.w	sl, #0
   82908:	f88d a08f 	strb.w	sl, [sp, #143]	; 0x8f
   8290c:	990a      	ldr	r1, [sp, #40]	; 0x28
   8290e:	2900      	cmp	r1, #0
   82910:	db05      	blt.n	8291e <_svfprintf_r+0x2ee>
   82912:	f8dd c024 	ldr.w	ip, [sp, #36]	; 0x24
   82916:	f02c 0c80 	bic.w	ip, ip, #128	; 0x80
   8291a:	f8cd c024 	str.w	ip, [sp, #36]	; 0x24
   8291e:	ea54 0005 	orrs.w	r0, r4, r5
   82922:	f040 82c5 	bne.w	82eb0 <_svfprintf_r+0x880>
   82926:	990a      	ldr	r1, [sp, #40]	; 0x28
   82928:	2900      	cmp	r1, #0
   8292a:	f040 82c1 	bne.w	82eb0 <_svfprintf_r+0x880>
   8292e:	2b00      	cmp	r3, #0
   82930:	f040 8438 	bne.w	831a4 <_svfprintf_r+0xb74>
   82934:	f8dd c024 	ldr.w	ip, [sp, #36]	; 0x24
   82938:	f01c 0f01 	tst.w	ip, #1
   8293c:	f000 8432 	beq.w	831a4 <_svfprintf_r+0xb74>
   82940:	af48      	add	r7, sp, #288	; 0x120
   82942:	2330      	movs	r3, #48	; 0x30
   82944:	9d08      	ldr	r5, [sp, #32]
   82946:	f807 3d41 	strb.w	r3, [r7, #-65]!
   8294a:	1bec      	subs	r4, r5, r7
   8294c:	f8dd c028 	ldr.w	ip, [sp, #40]	; 0x28
   82950:	2500      	movs	r5, #0
   82952:	4564      	cmp	r4, ip
   82954:	bfa8      	it	ge
   82956:	46a4      	movge	ip, r4
   82958:	f8cd c02c 	str.w	ip, [sp, #44]	; 0x2c
   8295c:	9514      	str	r5, [sp, #80]	; 0x50
   8295e:	f1ba 0f00 	cmp.w	sl, #0
   82962:	d002      	beq.n	8296a <_svfprintf_r+0x33a>
   82964:	9d0b      	ldr	r5, [sp, #44]	; 0x2c
   82966:	3501      	adds	r5, #1
   82968:	950b      	str	r5, [sp, #44]	; 0x2c
   8296a:	9b09      	ldr	r3, [sp, #36]	; 0x24
   8296c:	f013 0302 	ands.w	r3, r3, #2
   82970:	9312      	str	r3, [sp, #72]	; 0x48
   82972:	d002      	beq.n	8297a <_svfprintf_r+0x34a>
   82974:	9d0b      	ldr	r5, [sp, #44]	; 0x2c
   82976:	3502      	adds	r5, #2
   82978:	950b      	str	r5, [sp, #44]	; 0x2c
   8297a:	f8dd c024 	ldr.w	ip, [sp, #36]	; 0x24
   8297e:	f01c 0c84 	ands.w	ip, ip, #132	; 0x84
   82982:	f8cd c04c 	str.w	ip, [sp, #76]	; 0x4c
   82986:	f040 8290 	bne.w	82eaa <_svfprintf_r+0x87a>
   8298a:	9d0f      	ldr	r5, [sp, #60]	; 0x3c
   8298c:	f8dd c02c 	ldr.w	ip, [sp, #44]	; 0x2c
   82990:	ebcc 0b05 	rsb	fp, ip, r5
   82994:	f1bb 0f00 	cmp.w	fp, #0
   82998:	f340 8287 	ble.w	82eaa <_svfprintf_r+0x87a>
   8299c:	f1bb 0f10 	cmp.w	fp, #16
   829a0:	992d      	ldr	r1, [sp, #180]	; 0xb4
   829a2:	9a2c      	ldr	r2, [sp, #176]	; 0xb0
   829a4:	f8df a1a0 	ldr.w	sl, [pc, #416]	; 82b48 <_svfprintf_r+0x518>
   829a8:	dd2c      	ble.n	82a04 <_svfprintf_r+0x3d4>
   829aa:	971b      	str	r7, [sp, #108]	; 0x6c
   829ac:	4630      	mov	r0, r6
   829ae:	4657      	mov	r7, sl
   829b0:	2510      	movs	r5, #16
   829b2:	46ca      	mov	sl, r9
   829b4:	9e0c      	ldr	r6, [sp, #48]	; 0x30
   829b6:	46a1      	mov	r9, r4
   829b8:	9c0d      	ldr	r4, [sp, #52]	; 0x34
   829ba:	e006      	b.n	829ca <_svfprintf_r+0x39a>
   829bc:	f1ab 0b10 	sub.w	fp, fp, #16
   829c0:	f1bb 0f10 	cmp.w	fp, #16
   829c4:	f100 0008 	add.w	r0, r0, #8
   829c8:	dd17      	ble.n	829fa <_svfprintf_r+0x3ca>
   829ca:	3201      	adds	r2, #1
   829cc:	3110      	adds	r1, #16
   829ce:	2a07      	cmp	r2, #7
   829d0:	912d      	str	r1, [sp, #180]	; 0xb4
   829d2:	922c      	str	r2, [sp, #176]	; 0xb0
   829d4:	6007      	str	r7, [r0, #0]
   829d6:	6045      	str	r5, [r0, #4]
   829d8:	ddf0      	ble.n	829bc <_svfprintf_r+0x38c>
   829da:	4620      	mov	r0, r4
   829dc:	4631      	mov	r1, r6
   829de:	aa2b      	add	r2, sp, #172	; 0xac
   829e0:	f004 fd9c 	bl	8751c <__ssprint_r>
   829e4:	2800      	cmp	r0, #0
   829e6:	f47f af3b 	bne.w	82860 <_svfprintf_r+0x230>
   829ea:	f1ab 0b10 	sub.w	fp, fp, #16
   829ee:	f1bb 0f10 	cmp.w	fp, #16
   829f2:	992d      	ldr	r1, [sp, #180]	; 0xb4
   829f4:	9a2c      	ldr	r2, [sp, #176]	; 0xb0
   829f6:	a838      	add	r0, sp, #224	; 0xe0
   829f8:	dce7      	bgt.n	829ca <_svfprintf_r+0x39a>
   829fa:	464c      	mov	r4, r9
   829fc:	46d1      	mov	r9, sl
   829fe:	46ba      	mov	sl, r7
   82a00:	9f1b      	ldr	r7, [sp, #108]	; 0x6c
   82a02:	4606      	mov	r6, r0
   82a04:	3201      	adds	r2, #1
   82a06:	eb0b 0c01 	add.w	ip, fp, r1
   82a0a:	2a07      	cmp	r2, #7
   82a0c:	f8cd c0b4 	str.w	ip, [sp, #180]	; 0xb4
   82a10:	922c      	str	r2, [sp, #176]	; 0xb0
   82a12:	e886 0c00 	stmia.w	r6, {sl, fp}
   82a16:	f300 841a 	bgt.w	8324e <_svfprintf_r+0xc1e>
   82a1a:	f89d a08f 	ldrb.w	sl, [sp, #143]	; 0x8f
   82a1e:	3608      	adds	r6, #8
   82a20:	f1ba 0f00 	cmp.w	sl, #0
   82a24:	d00f      	beq.n	82a46 <_svfprintf_r+0x416>
   82a26:	9b2c      	ldr	r3, [sp, #176]	; 0xb0
   82a28:	f10c 0c01 	add.w	ip, ip, #1
   82a2c:	3301      	adds	r3, #1
   82a2e:	f10d 018f 	add.w	r1, sp, #143	; 0x8f
   82a32:	2201      	movs	r2, #1
   82a34:	2b07      	cmp	r3, #7
   82a36:	f8cd c0b4 	str.w	ip, [sp, #180]	; 0xb4
   82a3a:	932c      	str	r3, [sp, #176]	; 0xb0
   82a3c:	e886 0006 	stmia.w	r6, {r1, r2}
   82a40:	f300 83a4 	bgt.w	8318c <_svfprintf_r+0xb5c>
   82a44:	3608      	adds	r6, #8
   82a46:	9b12      	ldr	r3, [sp, #72]	; 0x48
   82a48:	b173      	cbz	r3, 82a68 <_svfprintf_r+0x438>
   82a4a:	9b2c      	ldr	r3, [sp, #176]	; 0xb0
   82a4c:	f10c 0c02 	add.w	ip, ip, #2
   82a50:	3301      	adds	r3, #1
   82a52:	a924      	add	r1, sp, #144	; 0x90
   82a54:	2202      	movs	r2, #2
   82a56:	2b07      	cmp	r3, #7
   82a58:	f8cd c0b4 	str.w	ip, [sp, #180]	; 0xb4
   82a5c:	932c      	str	r3, [sp, #176]	; 0xb0
   82a5e:	e886 0006 	stmia.w	r6, {r1, r2}
   82a62:	f300 8387 	bgt.w	83174 <_svfprintf_r+0xb44>
   82a66:	3608      	adds	r6, #8
   82a68:	9d13      	ldr	r5, [sp, #76]	; 0x4c
   82a6a:	2d80      	cmp	r5, #128	; 0x80
   82a6c:	f000 82ca 	beq.w	83004 <_svfprintf_r+0x9d4>
   82a70:	9d0a      	ldr	r5, [sp, #40]	; 0x28
   82a72:	ebc4 0a05 	rsb	sl, r4, r5
   82a76:	f1ba 0f00 	cmp.w	sl, #0
   82a7a:	dd3b      	ble.n	82af4 <_svfprintf_r+0x4c4>
   82a7c:	f1ba 0f10 	cmp.w	sl, #16
   82a80:	9b2c      	ldr	r3, [sp, #176]	; 0xb0
   82a82:	4d30      	ldr	r5, [pc, #192]	; (82b44 <_svfprintf_r+0x514>)
   82a84:	dd2b      	ble.n	82ade <_svfprintf_r+0x4ae>
   82a86:	940a      	str	r4, [sp, #40]	; 0x28
   82a88:	4632      	mov	r2, r6
   82a8a:	f04f 0b10 	mov.w	fp, #16
   82a8e:	462e      	mov	r6, r5
   82a90:	4661      	mov	r1, ip
   82a92:	9c0d      	ldr	r4, [sp, #52]	; 0x34
   82a94:	9d0c      	ldr	r5, [sp, #48]	; 0x30
   82a96:	e006      	b.n	82aa6 <_svfprintf_r+0x476>
   82a98:	f1aa 0a10 	sub.w	sl, sl, #16
   82a9c:	f1ba 0f10 	cmp.w	sl, #16
   82aa0:	f102 0208 	add.w	r2, r2, #8
   82aa4:	dd17      	ble.n	82ad6 <_svfprintf_r+0x4a6>
   82aa6:	3301      	adds	r3, #1
   82aa8:	3110      	adds	r1, #16
   82aaa:	2b07      	cmp	r3, #7
   82aac:	912d      	str	r1, [sp, #180]	; 0xb4
   82aae:	932c      	str	r3, [sp, #176]	; 0xb0
   82ab0:	e882 0840 	stmia.w	r2, {r6, fp}
   82ab4:	ddf0      	ble.n	82a98 <_svfprintf_r+0x468>
   82ab6:	4620      	mov	r0, r4
   82ab8:	4629      	mov	r1, r5
   82aba:	aa2b      	add	r2, sp, #172	; 0xac
   82abc:	f004 fd2e 	bl	8751c <__ssprint_r>
   82ac0:	2800      	cmp	r0, #0
   82ac2:	f47f aecd 	bne.w	82860 <_svfprintf_r+0x230>
   82ac6:	f1aa 0a10 	sub.w	sl, sl, #16
   82aca:	f1ba 0f10 	cmp.w	sl, #16
   82ace:	992d      	ldr	r1, [sp, #180]	; 0xb4
   82ad0:	9b2c      	ldr	r3, [sp, #176]	; 0xb0
   82ad2:	aa38      	add	r2, sp, #224	; 0xe0
   82ad4:	dce7      	bgt.n	82aa6 <_svfprintf_r+0x476>
   82ad6:	9c0a      	ldr	r4, [sp, #40]	; 0x28
   82ad8:	4635      	mov	r5, r6
   82ada:	468c      	mov	ip, r1
   82adc:	4616      	mov	r6, r2
   82ade:	3301      	adds	r3, #1
   82ae0:	44d4      	add	ip, sl
   82ae2:	2b07      	cmp	r3, #7
   82ae4:	f8cd c0b4 	str.w	ip, [sp, #180]	; 0xb4
   82ae8:	932c      	str	r3, [sp, #176]	; 0xb0
   82aea:	e886 0420 	stmia.w	r6, {r5, sl}
   82aee:	f300 8335 	bgt.w	8315c <_svfprintf_r+0xb2c>
   82af2:	3608      	adds	r6, #8
   82af4:	9d09      	ldr	r5, [sp, #36]	; 0x24
   82af6:	05ed      	lsls	r5, r5, #23
   82af8:	f100 8224 	bmi.w	82f44 <_svfprintf_r+0x914>
   82afc:	9b2c      	ldr	r3, [sp, #176]	; 0xb0
   82afe:	44a4      	add	ip, r4
   82b00:	3301      	adds	r3, #1
   82b02:	2b07      	cmp	r3, #7
   82b04:	f8cd c0b4 	str.w	ip, [sp, #180]	; 0xb4
   82b08:	6037      	str	r7, [r6, #0]
   82b0a:	6074      	str	r4, [r6, #4]
   82b0c:	932c      	str	r3, [sp, #176]	; 0xb0
   82b0e:	f300 830f 	bgt.w	83130 <_svfprintf_r+0xb00>
   82b12:	3608      	adds	r6, #8
   82b14:	9c09      	ldr	r4, [sp, #36]	; 0x24
   82b16:	0763      	lsls	r3, r4, #29
   82b18:	d549      	bpl.n	82bae <_svfprintf_r+0x57e>
   82b1a:	9d0f      	ldr	r5, [sp, #60]	; 0x3c
   82b1c:	980b      	ldr	r0, [sp, #44]	; 0x2c
   82b1e:	1a2c      	subs	r4, r5, r0
   82b20:	2c00      	cmp	r4, #0
   82b22:	dd44      	ble.n	82bae <_svfprintf_r+0x57e>
   82b24:	2c10      	cmp	r4, #16
   82b26:	9b2c      	ldr	r3, [sp, #176]	; 0xb0
   82b28:	f8df a01c 	ldr.w	sl, [pc, #28]	; 82b48 <_svfprintf_r+0x518>
   82b2c:	dd2b      	ble.n	82b86 <_svfprintf_r+0x556>
   82b2e:	4657      	mov	r7, sl
   82b30:	2510      	movs	r5, #16
   82b32:	4662      	mov	r2, ip
   82b34:	f8dd 8030 	ldr.w	r8, [sp, #48]	; 0x30
   82b38:	f8dd a034 	ldr.w	sl, [sp, #52]	; 0x34
   82b3c:	e00b      	b.n	82b56 <_svfprintf_r+0x526>
   82b3e:	bf00      	nop
   82b40:	00087ff8 	.word	0x00087ff8
   82b44:	00087fc4 	.word	0x00087fc4
   82b48:	00088018 	.word	0x00088018
   82b4c:	3c10      	subs	r4, #16
   82b4e:	2c10      	cmp	r4, #16
   82b50:	f106 0608 	add.w	r6, r6, #8
   82b54:	dd15      	ble.n	82b82 <_svfprintf_r+0x552>
   82b56:	3301      	adds	r3, #1
   82b58:	3210      	adds	r2, #16
   82b5a:	2b07      	cmp	r3, #7
   82b5c:	922d      	str	r2, [sp, #180]	; 0xb4
   82b5e:	932c      	str	r3, [sp, #176]	; 0xb0
   82b60:	6037      	str	r7, [r6, #0]
   82b62:	6075      	str	r5, [r6, #4]
   82b64:	ddf2      	ble.n	82b4c <_svfprintf_r+0x51c>
   82b66:	4650      	mov	r0, sl
   82b68:	4641      	mov	r1, r8
   82b6a:	aa2b      	add	r2, sp, #172	; 0xac
   82b6c:	f004 fcd6 	bl	8751c <__ssprint_r>
   82b70:	2800      	cmp	r0, #0
   82b72:	f47f ae75 	bne.w	82860 <_svfprintf_r+0x230>
   82b76:	3c10      	subs	r4, #16
   82b78:	2c10      	cmp	r4, #16
   82b7a:	9a2d      	ldr	r2, [sp, #180]	; 0xb4
   82b7c:	9b2c      	ldr	r3, [sp, #176]	; 0xb0
   82b7e:	ae38      	add	r6, sp, #224	; 0xe0
   82b80:	dce9      	bgt.n	82b56 <_svfprintf_r+0x526>
   82b82:	4694      	mov	ip, r2
   82b84:	46ba      	mov	sl, r7
   82b86:	3301      	adds	r3, #1
   82b88:	44a4      	add	ip, r4
   82b8a:	2b07      	cmp	r3, #7
   82b8c:	f8cd c0b4 	str.w	ip, [sp, #180]	; 0xb4
   82b90:	932c      	str	r3, [sp, #176]	; 0xb0
   82b92:	f8c6 a000 	str.w	sl, [r6]
   82b96:	6074      	str	r4, [r6, #4]
   82b98:	dd09      	ble.n	82bae <_svfprintf_r+0x57e>
   82b9a:	980d      	ldr	r0, [sp, #52]	; 0x34
   82b9c:	990c      	ldr	r1, [sp, #48]	; 0x30
   82b9e:	aa2b      	add	r2, sp, #172	; 0xac
   82ba0:	f004 fcbc 	bl	8751c <__ssprint_r>
   82ba4:	2800      	cmp	r0, #0
   82ba6:	f47f ae5b 	bne.w	82860 <_svfprintf_r+0x230>
   82baa:	f8dd c0b4 	ldr.w	ip, [sp, #180]	; 0xb4
   82bae:	9c0e      	ldr	r4, [sp, #56]	; 0x38
   82bb0:	980b      	ldr	r0, [sp, #44]	; 0x2c
   82bb2:	9d0f      	ldr	r5, [sp, #60]	; 0x3c
   82bb4:	42a8      	cmp	r0, r5
   82bb6:	bfac      	ite	ge
   82bb8:	1824      	addge	r4, r4, r0
   82bba:	1964      	addlt	r4, r4, r5
   82bbc:	940e      	str	r4, [sp, #56]	; 0x38
   82bbe:	f1bc 0f00 	cmp.w	ip, #0
   82bc2:	f040 82c1 	bne.w	83148 <_svfprintf_r+0xb18>
   82bc6:	2300      	movs	r3, #0
   82bc8:	932c      	str	r3, [sp, #176]	; 0xb0
   82bca:	ae38      	add	r6, sp, #224	; 0xe0
   82bcc:	e556      	b.n	8267c <_svfprintf_r+0x4c>
   82bce:	f899 8000 	ldrb.w	r8, [r9]
   82bd2:	2a00      	cmp	r2, #0
   82bd4:	f47f ad88 	bne.w	826e8 <_svfprintf_r+0xb8>
   82bd8:	2220      	movs	r2, #32
   82bda:	e585      	b.n	826e8 <_svfprintf_r+0xb8>
   82bdc:	9d09      	ldr	r5, [sp, #36]	; 0x24
   82bde:	f045 0501 	orr.w	r5, r5, #1
   82be2:	9509      	str	r5, [sp, #36]	; 0x24
   82be4:	f899 8000 	ldrb.w	r8, [r9]
   82be8:	e57e      	b.n	826e8 <_svfprintf_r+0xb8>
   82bea:	9d09      	ldr	r5, [sp, #36]	; 0x24
   82bec:	f045 0580 	orr.w	r5, r5, #128	; 0x80
   82bf0:	9509      	str	r5, [sp, #36]	; 0x24
   82bf2:	f899 8000 	ldrb.w	r8, [r9]
   82bf6:	e577      	b.n	826e8 <_svfprintf_r+0xb8>
   82bf8:	2400      	movs	r4, #0
   82bfa:	f1a8 0330 	sub.w	r3, r8, #48	; 0x30
   82bfe:	940f      	str	r4, [sp, #60]	; 0x3c
   82c00:	4621      	mov	r1, r4
   82c02:	f819 8b01 	ldrb.w	r8, [r9], #1
   82c06:	eb01 0181 	add.w	r1, r1, r1, lsl #2
   82c0a:	eb03 0141 	add.w	r1, r3, r1, lsl #1
   82c0e:	f1a8 0330 	sub.w	r3, r8, #48	; 0x30
   82c12:	2b09      	cmp	r3, #9
   82c14:	d9f5      	bls.n	82c02 <_svfprintf_r+0x5d2>
   82c16:	910f      	str	r1, [sp, #60]	; 0x3c
   82c18:	e568      	b.n	826ec <_svfprintf_r+0xbc>
   82c1a:	f8dd c024 	ldr.w	ip, [sp, #36]	; 0x24
   82c1e:	f88d 208f 	strb.w	r2, [sp, #143]	; 0x8f
   82c22:	f04c 0c10 	orr.w	ip, ip, #16
   82c26:	f8cd c024 	str.w	ip, [sp, #36]	; 0x24
   82c2a:	9c09      	ldr	r4, [sp, #36]	; 0x24
   82c2c:	06a5      	lsls	r5, r4, #26
   82c2e:	f140 80b2 	bpl.w	82d96 <_svfprintf_r+0x766>
   82c32:	9d10      	ldr	r5, [sp, #64]	; 0x40
   82c34:	1de9      	adds	r1, r5, #7
   82c36:	f021 0107 	bic.w	r1, r1, #7
   82c3a:	e9d1 2300 	ldrd	r2, r3, [r1]
   82c3e:	3108      	adds	r1, #8
   82c40:	9110      	str	r1, [sp, #64]	; 0x40
   82c42:	4614      	mov	r4, r2
   82c44:	461d      	mov	r5, r3
   82c46:	2a00      	cmp	r2, #0
   82c48:	f173 0c00 	sbcs.w	ip, r3, #0
   82c4c:	f2c0 8394 	blt.w	83378 <_svfprintf_r+0xd48>
   82c50:	f89d a08f 	ldrb.w	sl, [sp, #143]	; 0x8f
   82c54:	2301      	movs	r3, #1
   82c56:	e659      	b.n	8290c <_svfprintf_r+0x2dc>
   82c58:	9d09      	ldr	r5, [sp, #36]	; 0x24
   82c5a:	4cb6      	ldr	r4, [pc, #728]	; (82f34 <_svfprintf_r+0x904>)
   82c5c:	06af      	lsls	r7, r5, #26
   82c5e:	f88d 208f 	strb.w	r2, [sp, #143]	; 0x8f
   82c62:	941a      	str	r4, [sp, #104]	; 0x68
   82c64:	f53f ae2f 	bmi.w	828c6 <_svfprintf_r+0x296>
   82c68:	9d09      	ldr	r5, [sp, #36]	; 0x24
   82c6a:	06ed      	lsls	r5, r5, #27
   82c6c:	f140 8443 	bpl.w	834f6 <_svfprintf_r+0xec6>
   82c70:	f8dd c040 	ldr.w	ip, [sp, #64]	; 0x40
   82c74:	2500      	movs	r5, #0
   82c76:	f8dc 4000 	ldr.w	r4, [ip]
   82c7a:	f10c 0c04 	add.w	ip, ip, #4
   82c7e:	f8cd c040 	str.w	ip, [sp, #64]	; 0x40
   82c82:	e62b      	b.n	828dc <_svfprintf_r+0x2ac>
   82c84:	f8dd c024 	ldr.w	ip, [sp, #36]	; 0x24
   82c88:	f88d 208f 	strb.w	r2, [sp, #143]	; 0x8f
   82c8c:	f01c 0f20 	tst.w	ip, #32
   82c90:	f000 8440 	beq.w	83514 <_svfprintf_r+0xee4>
   82c94:	9c10      	ldr	r4, [sp, #64]	; 0x40
   82c96:	6821      	ldr	r1, [r4, #0]
   82c98:	9c0e      	ldr	r4, [sp, #56]	; 0x38
   82c9a:	17e5      	asrs	r5, r4, #31
   82c9c:	462b      	mov	r3, r5
   82c9e:	9d10      	ldr	r5, [sp, #64]	; 0x40
   82ca0:	4622      	mov	r2, r4
   82ca2:	3504      	adds	r5, #4
   82ca4:	9510      	str	r5, [sp, #64]	; 0x40
   82ca6:	e9c1 2300 	strd	r2, r3, [r1]
   82caa:	e4e7      	b.n	8267c <_svfprintf_r+0x4c>
   82cac:	9c10      	ldr	r4, [sp, #64]	; 0x40
   82cae:	f04f 0a00 	mov.w	sl, #0
   82cb2:	6827      	ldr	r7, [r4, #0]
   82cb4:	f88d a08f 	strb.w	sl, [sp, #143]	; 0x8f
   82cb8:	1d25      	adds	r5, r4, #4
   82cba:	2f00      	cmp	r7, #0
   82cbc:	f000 85e9 	beq.w	83892 <_svfprintf_r+0x1262>
   82cc0:	9c0a      	ldr	r4, [sp, #40]	; 0x28
   82cc2:	4638      	mov	r0, r7
   82cc4:	2c00      	cmp	r4, #0
   82cc6:	f2c0 859b 	blt.w	83800 <_svfprintf_r+0x11d0>
   82cca:	4651      	mov	r1, sl
   82ccc:	4622      	mov	r2, r4
   82cce:	f003 fd8d 	bl	867ec <memchr>
   82cd2:	2800      	cmp	r0, #0
   82cd4:	f000 8613 	beq.w	838fe <_svfprintf_r+0x12ce>
   82cd8:	9c0a      	ldr	r4, [sp, #40]	; 0x28
   82cda:	1bc0      	subs	r0, r0, r7
   82cdc:	42a0      	cmp	r0, r4
   82cde:	bfb8      	it	lt
   82ce0:	4604      	movlt	r4, r0
   82ce2:	9510      	str	r5, [sp, #64]	; 0x40
   82ce4:	ea24 75e4 	bic.w	r5, r4, r4, asr #31
   82ce8:	f8cd a028 	str.w	sl, [sp, #40]	; 0x28
   82cec:	f8cd a050 	str.w	sl, [sp, #80]	; 0x50
   82cf0:	950b      	str	r5, [sp, #44]	; 0x2c
   82cf2:	f89d a08f 	ldrb.w	sl, [sp, #143]	; 0x8f
   82cf6:	e632      	b.n	8295e <_svfprintf_r+0x32e>
   82cf8:	f8dd c024 	ldr.w	ip, [sp, #36]	; 0x24
   82cfc:	f04c 0c40 	orr.w	ip, ip, #64	; 0x40
   82d00:	f8cd c024 	str.w	ip, [sp, #36]	; 0x24
   82d04:	f899 8000 	ldrb.w	r8, [r9]
   82d08:	e4ee      	b.n	826e8 <_svfprintf_r+0xb8>
   82d0a:	f899 8000 	ldrb.w	r8, [r9]
   82d0e:	464b      	mov	r3, r9
   82d10:	f1b8 0f6c 	cmp.w	r8, #108	; 0x6c
   82d14:	f000 847f 	beq.w	83616 <_svfprintf_r+0xfe6>
   82d18:	9d09      	ldr	r5, [sp, #36]	; 0x24
   82d1a:	f045 0510 	orr.w	r5, r5, #16
   82d1e:	9509      	str	r5, [sp, #36]	; 0x24
   82d20:	e4e2      	b.n	826e8 <_svfprintf_r+0xb8>
   82d22:	9c10      	ldr	r4, [sp, #64]	; 0x40
   82d24:	9d10      	ldr	r5, [sp, #64]	; 0x40
   82d26:	6824      	ldr	r4, [r4, #0]
   82d28:	1d2b      	adds	r3, r5, #4
   82d2a:	2c00      	cmp	r4, #0
   82d2c:	940f      	str	r4, [sp, #60]	; 0x3c
   82d2e:	f6ff ad7d 	blt.w	8282c <_svfprintf_r+0x1fc>
   82d32:	9310      	str	r3, [sp, #64]	; 0x40
   82d34:	f899 8000 	ldrb.w	r8, [r9]
   82d38:	e4d6      	b.n	826e8 <_svfprintf_r+0xb8>
   82d3a:	9b10      	ldr	r3, [sp, #64]	; 0x40
   82d3c:	f8dd c024 	ldr.w	ip, [sp, #36]	; 0x24
   82d40:	9d10      	ldr	r5, [sp, #64]	; 0x40
   82d42:	487d      	ldr	r0, [pc, #500]	; (82f38 <_svfprintf_r+0x908>)
   82d44:	3504      	adds	r5, #4
   82d46:	681c      	ldr	r4, [r3, #0]
   82d48:	f04f 0878 	mov.w	r8, #120	; 0x78
   82d4c:	2330      	movs	r3, #48	; 0x30
   82d4e:	f04c 0c02 	orr.w	ip, ip, #2
   82d52:	9510      	str	r5, [sp, #64]	; 0x40
   82d54:	f88d 3090 	strb.w	r3, [sp, #144]	; 0x90
   82d58:	f8cd c024 	str.w	ip, [sp, #36]	; 0x24
   82d5c:	2500      	movs	r5, #0
   82d5e:	f88d 8091 	strb.w	r8, [sp, #145]	; 0x91
   82d62:	901a      	str	r0, [sp, #104]	; 0x68
   82d64:	2302      	movs	r3, #2
   82d66:	e5cd      	b.n	82904 <_svfprintf_r+0x2d4>
   82d68:	9b10      	ldr	r3, [sp, #64]	; 0x40
   82d6a:	9d10      	ldr	r5, [sp, #64]	; 0x40
   82d6c:	681a      	ldr	r2, [r3, #0]
   82d6e:	2401      	movs	r4, #1
   82d70:	2300      	movs	r3, #0
   82d72:	3504      	adds	r5, #4
   82d74:	469a      	mov	sl, r3
   82d76:	940b      	str	r4, [sp, #44]	; 0x2c
   82d78:	f88d 20b8 	strb.w	r2, [sp, #184]	; 0xb8
   82d7c:	9510      	str	r5, [sp, #64]	; 0x40
   82d7e:	f88d 308f 	strb.w	r3, [sp, #143]	; 0x8f
   82d82:	930a      	str	r3, [sp, #40]	; 0x28
   82d84:	9314      	str	r3, [sp, #80]	; 0x50
   82d86:	af2e      	add	r7, sp, #184	; 0xb8
   82d88:	e5ef      	b.n	8296a <_svfprintf_r+0x33a>
   82d8a:	9c09      	ldr	r4, [sp, #36]	; 0x24
   82d8c:	f88d 208f 	strb.w	r2, [sp, #143]	; 0x8f
   82d90:	06a5      	lsls	r5, r4, #26
   82d92:	f53f af4e 	bmi.w	82c32 <_svfprintf_r+0x602>
   82d96:	f8dd c024 	ldr.w	ip, [sp, #36]	; 0x24
   82d9a:	f01c 0f10 	tst.w	ip, #16
   82d9e:	f040 82df 	bne.w	83360 <_svfprintf_r+0xd30>
   82da2:	f8dd c024 	ldr.w	ip, [sp, #36]	; 0x24
   82da6:	f01c 0f40 	tst.w	ip, #64	; 0x40
   82daa:	f000 82d9 	beq.w	83360 <_svfprintf_r+0xd30>
   82dae:	f8dd c040 	ldr.w	ip, [sp, #64]	; 0x40
   82db2:	f9bc 4000 	ldrsh.w	r4, [ip]
   82db6:	f10c 0c04 	add.w	ip, ip, #4
   82dba:	17e5      	asrs	r5, r4, #31
   82dbc:	4622      	mov	r2, r4
   82dbe:	462b      	mov	r3, r5
   82dc0:	f8cd c040 	str.w	ip, [sp, #64]	; 0x40
   82dc4:	e73f      	b.n	82c46 <_svfprintf_r+0x616>
   82dc6:	f899 8000 	ldrb.w	r8, [r9]
   82dca:	222b      	movs	r2, #43	; 0x2b
   82dcc:	e48c      	b.n	826e8 <_svfprintf_r+0xb8>
   82dce:	9d09      	ldr	r5, [sp, #36]	; 0x24
   82dd0:	f045 0508 	orr.w	r5, r5, #8
   82dd4:	9509      	str	r5, [sp, #36]	; 0x24
   82dd6:	f899 8000 	ldrb.w	r8, [r9]
   82dda:	e485      	b.n	826e8 <_svfprintf_r+0xb8>
   82ddc:	9d10      	ldr	r5, [sp, #64]	; 0x40
   82dde:	f88d 208f 	strb.w	r2, [sp, #143]	; 0x8f
   82de2:	1deb      	adds	r3, r5, #7
   82de4:	f023 0307 	bic.w	r3, r3, #7
   82de8:	f103 0c08 	add.w	ip, r3, #8
   82dec:	f8cd c040 	str.w	ip, [sp, #64]	; 0x40
   82df0:	e9d3 4500 	ldrd	r4, r5, [r3]
   82df4:	e9cd 4516 	strd	r4, r5, [sp, #88]	; 0x58
   82df8:	e9dd 0116 	ldrd	r0, r1, [sp, #88]	; 0x58
   82dfc:	f7fe febc 	bl	81b78 <__fpclassifyd>
   82e00:	2801      	cmp	r0, #1
   82e02:	e9dd 0116 	ldrd	r0, r1, [sp, #88]	; 0x58
   82e06:	f040 835c 	bne.w	834c2 <_svfprintf_r+0xe92>
   82e0a:	2200      	movs	r2, #0
   82e0c:	2300      	movs	r3, #0
   82e0e:	f7ff fb0d 	bl	8242c <__aeabi_dcmplt>
   82e12:	2800      	cmp	r0, #0
   82e14:	f040 8563 	bne.w	838de <_svfprintf_r+0x12ae>
   82e18:	f89d a08f 	ldrb.w	sl, [sp, #143]	; 0x8f
   82e1c:	2503      	movs	r5, #3
   82e1e:	950b      	str	r5, [sp, #44]	; 0x2c
   82e20:	9d09      	ldr	r5, [sp, #36]	; 0x24
   82e22:	4f46      	ldr	r7, [pc, #280]	; (82f3c <_svfprintf_r+0x90c>)
   82e24:	f025 0580 	bic.w	r5, r5, #128	; 0x80
   82e28:	4b45      	ldr	r3, [pc, #276]	; (82f40 <_svfprintf_r+0x910>)
   82e2a:	2400      	movs	r4, #0
   82e2c:	9509      	str	r5, [sp, #36]	; 0x24
   82e2e:	2500      	movs	r5, #0
   82e30:	940a      	str	r4, [sp, #40]	; 0x28
   82e32:	f1b8 0f47 	cmp.w	r8, #71	; 0x47
   82e36:	bfd8      	it	le
   82e38:	461f      	movle	r7, r3
   82e3a:	2403      	movs	r4, #3
   82e3c:	9514      	str	r5, [sp, #80]	; 0x50
   82e3e:	e58e      	b.n	8295e <_svfprintf_r+0x32e>
   82e40:	f8dd c024 	ldr.w	ip, [sp, #36]	; 0x24
   82e44:	f04c 0c20 	orr.w	ip, ip, #32
   82e48:	f8cd c024 	str.w	ip, [sp, #36]	; 0x24
   82e4c:	f899 8000 	ldrb.w	r8, [r9]
   82e50:	e44a      	b.n	826e8 <_svfprintf_r+0xb8>
   82e52:	9c10      	ldr	r4, [sp, #64]	; 0x40
   82e54:	1de3      	adds	r3, r4, #7
   82e56:	f023 0307 	bic.w	r3, r3, #7
   82e5a:	f103 0508 	add.w	r5, r3, #8
   82e5e:	9510      	str	r5, [sp, #64]	; 0x40
   82e60:	e9d3 4500 	ldrd	r4, r5, [r3]
   82e64:	2300      	movs	r3, #0
   82e66:	e54d      	b.n	82904 <_svfprintf_r+0x2d4>
   82e68:	9d10      	ldr	r5, [sp, #64]	; 0x40
   82e6a:	1deb      	adds	r3, r5, #7
   82e6c:	f023 0307 	bic.w	r3, r3, #7
   82e70:	f103 0c08 	add.w	ip, r3, #8
   82e74:	e9d3 4500 	ldrd	r4, r5, [r3]
   82e78:	f8cd c040 	str.w	ip, [sp, #64]	; 0x40
   82e7c:	2301      	movs	r3, #1
   82e7e:	e541      	b.n	82904 <_svfprintf_r+0x2d4>
   82e80:	f88d 208f 	strb.w	r2, [sp, #143]	; 0x8f
   82e84:	f1b8 0f00 	cmp.w	r8, #0
   82e88:	f43f ace3 	beq.w	82852 <_svfprintf_r+0x222>
   82e8c:	2300      	movs	r3, #0
   82e8e:	f04f 0c01 	mov.w	ip, #1
   82e92:	469a      	mov	sl, r3
   82e94:	f8cd c02c 	str.w	ip, [sp, #44]	; 0x2c
   82e98:	f88d 80b8 	strb.w	r8, [sp, #184]	; 0xb8
   82e9c:	f88d 308f 	strb.w	r3, [sp, #143]	; 0x8f
   82ea0:	930a      	str	r3, [sp, #40]	; 0x28
   82ea2:	9314      	str	r3, [sp, #80]	; 0x50
   82ea4:	4664      	mov	r4, ip
   82ea6:	af2e      	add	r7, sp, #184	; 0xb8
   82ea8:	e55f      	b.n	8296a <_svfprintf_r+0x33a>
   82eaa:	f8dd c0b4 	ldr.w	ip, [sp, #180]	; 0xb4
   82eae:	e5b7      	b.n	82a20 <_svfprintf_r+0x3f0>
   82eb0:	2b01      	cmp	r3, #1
   82eb2:	f000 80ec 	beq.w	8308e <_svfprintf_r+0xa5e>
   82eb6:	2b02      	cmp	r3, #2
   82eb8:	f10d 03df 	add.w	r3, sp, #223	; 0xdf
   82ebc:	d118      	bne.n	82ef0 <_svfprintf_r+0x8c0>
   82ebe:	f8dd c068 	ldr.w	ip, [sp, #104]	; 0x68
   82ec2:	4619      	mov	r1, r3
   82ec4:	f004 000f 	and.w	r0, r4, #15
   82ec8:	0922      	lsrs	r2, r4, #4
   82eca:	f81c 0000 	ldrb.w	r0, [ip, r0]
   82ece:	ea42 7205 	orr.w	r2, r2, r5, lsl #28
   82ed2:	092b      	lsrs	r3, r5, #4
   82ed4:	7008      	strb	r0, [r1, #0]
   82ed6:	ea52 0003 	orrs.w	r0, r2, r3
   82eda:	460f      	mov	r7, r1
   82edc:	4614      	mov	r4, r2
   82ede:	461d      	mov	r5, r3
   82ee0:	f101 31ff 	add.w	r1, r1, #4294967295
   82ee4:	d1ee      	bne.n	82ec4 <_svfprintf_r+0x894>
   82ee6:	9d08      	ldr	r5, [sp, #32]
   82ee8:	e9cd 231e 	strd	r2, r3, [sp, #120]	; 0x78
   82eec:	1bec      	subs	r4, r5, r7
   82eee:	e52d      	b.n	8294c <_svfprintf_r+0x31c>
   82ef0:	08e0      	lsrs	r0, r4, #3
   82ef2:	ea40 7045 	orr.w	r0, r0, r5, lsl #29
   82ef6:	f004 0207 	and.w	r2, r4, #7
   82efa:	08e9      	lsrs	r1, r5, #3
   82efc:	3230      	adds	r2, #48	; 0x30
   82efe:	ea50 0c01 	orrs.w	ip, r0, r1
   82f02:	461f      	mov	r7, r3
   82f04:	701a      	strb	r2, [r3, #0]
   82f06:	4604      	mov	r4, r0
   82f08:	460d      	mov	r5, r1
   82f0a:	f103 33ff 	add.w	r3, r3, #4294967295
   82f0e:	d1ef      	bne.n	82ef0 <_svfprintf_r+0x8c0>
   82f10:	9c09      	ldr	r4, [sp, #36]	; 0x24
   82f12:	e9cd 011c 	strd	r0, r1, [sp, #112]	; 0x70
   82f16:	07e0      	lsls	r0, r4, #31
   82f18:	4639      	mov	r1, r7
   82f1a:	f140 80c1 	bpl.w	830a0 <_svfprintf_r+0xa70>
   82f1e:	2a30      	cmp	r2, #48	; 0x30
   82f20:	f000 80be 	beq.w	830a0 <_svfprintf_r+0xa70>
   82f24:	9d08      	ldr	r5, [sp, #32]
   82f26:	461f      	mov	r7, r3
   82f28:	2330      	movs	r3, #48	; 0x30
   82f2a:	1bec      	subs	r4, r5, r7
   82f2c:	f801 3c01 	strb.w	r3, [r1, #-1]
   82f30:	e50c      	b.n	8294c <_svfprintf_r+0x31c>
   82f32:	bf00      	nop
   82f34:	00087fe4 	.word	0x00087fe4
   82f38:	00087ff8 	.word	0x00087ff8
   82f3c:	00087fd8 	.word	0x00087fd8
   82f40:	00087fd4 	.word	0x00087fd4
   82f44:	f1b8 0f65 	cmp.w	r8, #101	; 0x65
   82f48:	f340 80ad 	ble.w	830a6 <_svfprintf_r+0xa76>
   82f4c:	e9dd 0116 	ldrd	r0, r1, [sp, #88]	; 0x58
   82f50:	2200      	movs	r2, #0
   82f52:	2300      	movs	r3, #0
   82f54:	f8cd c01c 	str.w	ip, [sp, #28]
   82f58:	f7ff fa5e 	bl	82418 <__aeabi_dcmpeq>
   82f5c:	f8dd c01c 	ldr.w	ip, [sp, #28]
   82f60:	2800      	cmp	r0, #0
   82f62:	f000 8126 	beq.w	831b2 <_svfprintf_r+0xb82>
   82f66:	9b2c      	ldr	r3, [sp, #176]	; 0xb0
   82f68:	49aa      	ldr	r1, [pc, #680]	; (83214 <_svfprintf_r+0xbe4>)
   82f6a:	3301      	adds	r3, #1
   82f6c:	f10c 0c01 	add.w	ip, ip, #1
   82f70:	2201      	movs	r2, #1
   82f72:	2b07      	cmp	r3, #7
   82f74:	f8cd c0b4 	str.w	ip, [sp, #180]	; 0xb4
   82f78:	932c      	str	r3, [sp, #176]	; 0xb0
   82f7a:	e886 0006 	stmia.w	r6, {r1, r2}
   82f7e:	f300 82ed 	bgt.w	8355c <_svfprintf_r+0xf2c>
   82f82:	3608      	adds	r6, #8
   82f84:	9b25      	ldr	r3, [sp, #148]	; 0x94
   82f86:	9c11      	ldr	r4, [sp, #68]	; 0x44
   82f88:	42a3      	cmp	r3, r4
   82f8a:	db03      	blt.n	82f94 <_svfprintf_r+0x964>
   82f8c:	9d09      	ldr	r5, [sp, #36]	; 0x24
   82f8e:	07ec      	lsls	r4, r5, #31
   82f90:	f57f adc0 	bpl.w	82b14 <_svfprintf_r+0x4e4>
   82f94:	9b2c      	ldr	r3, [sp, #176]	; 0xb0
   82f96:	9c18      	ldr	r4, [sp, #96]	; 0x60
   82f98:	3301      	adds	r3, #1
   82f9a:	9d15      	ldr	r5, [sp, #84]	; 0x54
   82f9c:	44a4      	add	ip, r4
   82f9e:	2b07      	cmp	r3, #7
   82fa0:	f8cd c0b4 	str.w	ip, [sp, #180]	; 0xb4
   82fa4:	6035      	str	r5, [r6, #0]
   82fa6:	6074      	str	r4, [r6, #4]
   82fa8:	932c      	str	r3, [sp, #176]	; 0xb0
   82faa:	f300 833e 	bgt.w	8362a <_svfprintf_r+0xffa>
   82fae:	3608      	adds	r6, #8
   82fb0:	9d11      	ldr	r5, [sp, #68]	; 0x44
   82fb2:	1e6c      	subs	r4, r5, #1
   82fb4:	2c00      	cmp	r4, #0
   82fb6:	f77f adad 	ble.w	82b14 <_svfprintf_r+0x4e4>
   82fba:	2c10      	cmp	r4, #16
   82fbc:	9b2c      	ldr	r3, [sp, #176]	; 0xb0
   82fbe:	4d96      	ldr	r5, [pc, #600]	; (83218 <_svfprintf_r+0xbe8>)
   82fc0:	f340 8197 	ble.w	832f2 <_svfprintf_r+0xcc2>
   82fc4:	2710      	movs	r7, #16
   82fc6:	4662      	mov	r2, ip
   82fc8:	f8dd 8034 	ldr.w	r8, [sp, #52]	; 0x34
   82fcc:	f8dd a030 	ldr.w	sl, [sp, #48]	; 0x30
   82fd0:	e004      	b.n	82fdc <_svfprintf_r+0x9ac>
   82fd2:	3608      	adds	r6, #8
   82fd4:	3c10      	subs	r4, #16
   82fd6:	2c10      	cmp	r4, #16
   82fd8:	f340 818a 	ble.w	832f0 <_svfprintf_r+0xcc0>
   82fdc:	3301      	adds	r3, #1
   82fde:	3210      	adds	r2, #16
   82fe0:	2b07      	cmp	r3, #7
   82fe2:	922d      	str	r2, [sp, #180]	; 0xb4
   82fe4:	932c      	str	r3, [sp, #176]	; 0xb0
   82fe6:	e886 00a0 	stmia.w	r6, {r5, r7}
   82fea:	ddf2      	ble.n	82fd2 <_svfprintf_r+0x9a2>
   82fec:	4640      	mov	r0, r8
   82fee:	4651      	mov	r1, sl
   82ff0:	aa2b      	add	r2, sp, #172	; 0xac
   82ff2:	f004 fa93 	bl	8751c <__ssprint_r>
   82ff6:	2800      	cmp	r0, #0
   82ff8:	f47f ac32 	bne.w	82860 <_svfprintf_r+0x230>
   82ffc:	9a2d      	ldr	r2, [sp, #180]	; 0xb4
   82ffe:	9b2c      	ldr	r3, [sp, #176]	; 0xb0
   83000:	ae38      	add	r6, sp, #224	; 0xe0
   83002:	e7e7      	b.n	82fd4 <_svfprintf_r+0x9a4>
   83004:	9d0f      	ldr	r5, [sp, #60]	; 0x3c
   83006:	980b      	ldr	r0, [sp, #44]	; 0x2c
   83008:	ebc0 0a05 	rsb	sl, r0, r5
   8300c:	f1ba 0f00 	cmp.w	sl, #0
   83010:	f77f ad2e 	ble.w	82a70 <_svfprintf_r+0x440>
   83014:	f1ba 0f10 	cmp.w	sl, #16
   83018:	9b2c      	ldr	r3, [sp, #176]	; 0xb0
   8301a:	4d7f      	ldr	r5, [pc, #508]	; (83218 <_svfprintf_r+0xbe8>)
   8301c:	dd2b      	ble.n	83076 <_svfprintf_r+0xa46>
   8301e:	9412      	str	r4, [sp, #72]	; 0x48
   83020:	4632      	mov	r2, r6
   83022:	f04f 0b10 	mov.w	fp, #16
   83026:	462e      	mov	r6, r5
   83028:	4661      	mov	r1, ip
   8302a:	9c0d      	ldr	r4, [sp, #52]	; 0x34
   8302c:	9d0c      	ldr	r5, [sp, #48]	; 0x30
   8302e:	e006      	b.n	8303e <_svfprintf_r+0xa0e>
   83030:	f1aa 0a10 	sub.w	sl, sl, #16
   83034:	f1ba 0f10 	cmp.w	sl, #16
   83038:	f102 0208 	add.w	r2, r2, #8
   8303c:	dd17      	ble.n	8306e <_svfprintf_r+0xa3e>
   8303e:	3301      	adds	r3, #1
   83040:	3110      	adds	r1, #16
   83042:	2b07      	cmp	r3, #7
   83044:	912d      	str	r1, [sp, #180]	; 0xb4
   83046:	932c      	str	r3, [sp, #176]	; 0xb0
   83048:	e882 0840 	stmia.w	r2, {r6, fp}
   8304c:	ddf0      	ble.n	83030 <_svfprintf_r+0xa00>
   8304e:	4620      	mov	r0, r4
   83050:	4629      	mov	r1, r5
   83052:	aa2b      	add	r2, sp, #172	; 0xac
   83054:	f004 fa62 	bl	8751c <__ssprint_r>
   83058:	2800      	cmp	r0, #0
   8305a:	f47f ac01 	bne.w	82860 <_svfprintf_r+0x230>
   8305e:	f1aa 0a10 	sub.w	sl, sl, #16
   83062:	f1ba 0f10 	cmp.w	sl, #16
   83066:	992d      	ldr	r1, [sp, #180]	; 0xb4
   83068:	9b2c      	ldr	r3, [sp, #176]	; 0xb0
   8306a:	aa38      	add	r2, sp, #224	; 0xe0
   8306c:	dce7      	bgt.n	8303e <_svfprintf_r+0xa0e>
   8306e:	9c12      	ldr	r4, [sp, #72]	; 0x48
   83070:	4635      	mov	r5, r6
   83072:	468c      	mov	ip, r1
   83074:	4616      	mov	r6, r2
   83076:	3301      	adds	r3, #1
   83078:	44d4      	add	ip, sl
   8307a:	2b07      	cmp	r3, #7
   8307c:	f8cd c0b4 	str.w	ip, [sp, #180]	; 0xb4
   83080:	932c      	str	r3, [sp, #176]	; 0xb0
   83082:	e886 0420 	stmia.w	r6, {r5, sl}
   83086:	f300 820f 	bgt.w	834a8 <_svfprintf_r+0xe78>
   8308a:	3608      	adds	r6, #8
   8308c:	e4f0      	b.n	82a70 <_svfprintf_r+0x440>
   8308e:	2d00      	cmp	r5, #0
   83090:	bf08      	it	eq
   83092:	2c0a      	cmpeq	r4, #10
   83094:	f080 8138 	bcs.w	83308 <_svfprintf_r+0xcd8>
   83098:	3430      	adds	r4, #48	; 0x30
   8309a:	af48      	add	r7, sp, #288	; 0x120
   8309c:	f807 4d41 	strb.w	r4, [r7, #-65]!
   830a0:	9d08      	ldr	r5, [sp, #32]
   830a2:	1bec      	subs	r4, r5, r7
   830a4:	e452      	b.n	8294c <_svfprintf_r+0x31c>
   830a6:	9c11      	ldr	r4, [sp, #68]	; 0x44
   830a8:	2c01      	cmp	r4, #1
   830aa:	9c2c      	ldr	r4, [sp, #176]	; 0xb0
   830ac:	f340 81d2 	ble.w	83454 <_svfprintf_r+0xe24>
   830b0:	3401      	adds	r4, #1
   830b2:	f10c 0301 	add.w	r3, ip, #1
   830b6:	2201      	movs	r2, #1
   830b8:	2c07      	cmp	r4, #7
   830ba:	932d      	str	r3, [sp, #180]	; 0xb4
   830bc:	6037      	str	r7, [r6, #0]
   830be:	942c      	str	r4, [sp, #176]	; 0xb0
   830c0:	6072      	str	r2, [r6, #4]
   830c2:	f300 81d8 	bgt.w	83476 <_svfprintf_r+0xe46>
   830c6:	3608      	adds	r6, #8
   830c8:	9d15      	ldr	r5, [sp, #84]	; 0x54
   830ca:	f8dd 8060 	ldr.w	r8, [sp, #96]	; 0x60
   830ce:	3401      	adds	r4, #1
   830d0:	6035      	str	r5, [r6, #0]
   830d2:	9d18      	ldr	r5, [sp, #96]	; 0x60
   830d4:	4498      	add	r8, r3
   830d6:	2c07      	cmp	r4, #7
   830d8:	f8cd 80b4 	str.w	r8, [sp, #180]	; 0xb4
   830dc:	942c      	str	r4, [sp, #176]	; 0xb0
   830de:	6075      	str	r5, [r6, #4]
   830e0:	f300 81d5 	bgt.w	8348e <_svfprintf_r+0xe5e>
   830e4:	3608      	adds	r6, #8
   830e6:	e9dd 0116 	ldrd	r0, r1, [sp, #88]	; 0x58
   830ea:	2200      	movs	r2, #0
   830ec:	2300      	movs	r3, #0
   830ee:	f7ff f993 	bl	82418 <__aeabi_dcmpeq>
   830f2:	9d11      	ldr	r5, [sp, #68]	; 0x44
   830f4:	2800      	cmp	r0, #0
   830f6:	f040 80b9 	bne.w	8326c <_svfprintf_r+0xc3c>
   830fa:	1e6b      	subs	r3, r5, #1
   830fc:	3401      	adds	r4, #1
   830fe:	3701      	adds	r7, #1
   83100:	4498      	add	r8, r3
   83102:	2c07      	cmp	r4, #7
   83104:	942c      	str	r4, [sp, #176]	; 0xb0
   83106:	f8cd 80b4 	str.w	r8, [sp, #180]	; 0xb4
   8310a:	6037      	str	r7, [r6, #0]
   8310c:	6073      	str	r3, [r6, #4]
   8310e:	f300 80e2 	bgt.w	832d6 <_svfprintf_r+0xca6>
   83112:	3608      	adds	r6, #8
   83114:	f8dd c064 	ldr.w	ip, [sp, #100]	; 0x64
   83118:	3401      	adds	r4, #1
   8311a:	9d19      	ldr	r5, [sp, #100]	; 0x64
   8311c:	44c4      	add	ip, r8
   8311e:	ab27      	add	r3, sp, #156	; 0x9c
   83120:	2c07      	cmp	r4, #7
   83122:	f8cd c0b4 	str.w	ip, [sp, #180]	; 0xb4
   83126:	942c      	str	r4, [sp, #176]	; 0xb0
   83128:	e886 0028 	stmia.w	r6, {r3, r5}
   8312c:	f77f acf1 	ble.w	82b12 <_svfprintf_r+0x4e2>
   83130:	980d      	ldr	r0, [sp, #52]	; 0x34
   83132:	990c      	ldr	r1, [sp, #48]	; 0x30
   83134:	aa2b      	add	r2, sp, #172	; 0xac
   83136:	f004 f9f1 	bl	8751c <__ssprint_r>
   8313a:	2800      	cmp	r0, #0
   8313c:	f47f ab90 	bne.w	82860 <_svfprintf_r+0x230>
   83140:	f8dd c0b4 	ldr.w	ip, [sp, #180]	; 0xb4
   83144:	ae38      	add	r6, sp, #224	; 0xe0
   83146:	e4e5      	b.n	82b14 <_svfprintf_r+0x4e4>
   83148:	980d      	ldr	r0, [sp, #52]	; 0x34
   8314a:	990c      	ldr	r1, [sp, #48]	; 0x30
   8314c:	aa2b      	add	r2, sp, #172	; 0xac
   8314e:	f004 f9e5 	bl	8751c <__ssprint_r>
   83152:	2800      	cmp	r0, #0
   83154:	f43f ad37 	beq.w	82bc6 <_svfprintf_r+0x596>
   83158:	f7ff bb82 	b.w	82860 <_svfprintf_r+0x230>
   8315c:	980d      	ldr	r0, [sp, #52]	; 0x34
   8315e:	990c      	ldr	r1, [sp, #48]	; 0x30
   83160:	aa2b      	add	r2, sp, #172	; 0xac
   83162:	f004 f9db 	bl	8751c <__ssprint_r>
   83166:	2800      	cmp	r0, #0
   83168:	f47f ab7a 	bne.w	82860 <_svfprintf_r+0x230>
   8316c:	f8dd c0b4 	ldr.w	ip, [sp, #180]	; 0xb4
   83170:	ae38      	add	r6, sp, #224	; 0xe0
   83172:	e4bf      	b.n	82af4 <_svfprintf_r+0x4c4>
   83174:	980d      	ldr	r0, [sp, #52]	; 0x34
   83176:	990c      	ldr	r1, [sp, #48]	; 0x30
   83178:	aa2b      	add	r2, sp, #172	; 0xac
   8317a:	f004 f9cf 	bl	8751c <__ssprint_r>
   8317e:	2800      	cmp	r0, #0
   83180:	f47f ab6e 	bne.w	82860 <_svfprintf_r+0x230>
   83184:	f8dd c0b4 	ldr.w	ip, [sp, #180]	; 0xb4
   83188:	ae38      	add	r6, sp, #224	; 0xe0
   8318a:	e46d      	b.n	82a68 <_svfprintf_r+0x438>
   8318c:	980d      	ldr	r0, [sp, #52]	; 0x34
   8318e:	990c      	ldr	r1, [sp, #48]	; 0x30
   83190:	aa2b      	add	r2, sp, #172	; 0xac
   83192:	f004 f9c3 	bl	8751c <__ssprint_r>
   83196:	2800      	cmp	r0, #0
   83198:	f47f ab62 	bne.w	82860 <_svfprintf_r+0x230>
   8319c:	f8dd c0b4 	ldr.w	ip, [sp, #180]	; 0xb4
   831a0:	ae38      	add	r6, sp, #224	; 0xe0
   831a2:	e450      	b.n	82a46 <_svfprintf_r+0x416>
   831a4:	9c0a      	ldr	r4, [sp, #40]	; 0x28
   831a6:	af38      	add	r7, sp, #224	; 0xe0
   831a8:	f7ff bbd0 	b.w	8294c <_svfprintf_r+0x31c>
   831ac:	2302      	movs	r3, #2
   831ae:	f7ff bba9 	b.w	82904 <_svfprintf_r+0x2d4>
   831b2:	9b25      	ldr	r3, [sp, #148]	; 0x94
   831b4:	2b00      	cmp	r3, #0
   831b6:	f340 81dd 	ble.w	83574 <_svfprintf_r+0xf44>
   831ba:	9c11      	ldr	r4, [sp, #68]	; 0x44
   831bc:	9d14      	ldr	r5, [sp, #80]	; 0x50
   831be:	f8dd a044 	ldr.w	sl, [sp, #68]	; 0x44
   831c2:	42ac      	cmp	r4, r5
   831c4:	bfa8      	it	ge
   831c6:	462c      	movge	r4, r5
   831c8:	2c00      	cmp	r4, #0
   831ca:	44ba      	add	sl, r7
   831cc:	dd0b      	ble.n	831e6 <_svfprintf_r+0xbb6>
   831ce:	9b2c      	ldr	r3, [sp, #176]	; 0xb0
   831d0:	44a4      	add	ip, r4
   831d2:	3301      	adds	r3, #1
   831d4:	2b07      	cmp	r3, #7
   831d6:	f8cd c0b4 	str.w	ip, [sp, #180]	; 0xb4
   831da:	6037      	str	r7, [r6, #0]
   831dc:	6074      	str	r4, [r6, #4]
   831de:	932c      	str	r3, [sp, #176]	; 0xb0
   831e0:	f300 831e 	bgt.w	83820 <_svfprintf_r+0x11f0>
   831e4:	3608      	adds	r6, #8
   831e6:	9d14      	ldr	r5, [sp, #80]	; 0x50
   831e8:	ea24 74e4 	bic.w	r4, r4, r4, asr #31
   831ec:	1b2c      	subs	r4, r5, r4
   831ee:	2c00      	cmp	r4, #0
   831f0:	f340 80d7 	ble.w	833a2 <_svfprintf_r+0xd72>
   831f4:	2c10      	cmp	r4, #16
   831f6:	9b2c      	ldr	r3, [sp, #176]	; 0xb0
   831f8:	4d07      	ldr	r5, [pc, #28]	; (83218 <_svfprintf_r+0xbe8>)
   831fa:	f340 81a3 	ble.w	83544 <_svfprintf_r+0xf14>
   831fe:	970a      	str	r7, [sp, #40]	; 0x28
   83200:	f04f 0810 	mov.w	r8, #16
   83204:	462f      	mov	r7, r5
   83206:	4662      	mov	r2, ip
   83208:	4625      	mov	r5, r4
   8320a:	f8dd b034 	ldr.w	fp, [sp, #52]	; 0x34
   8320e:	9c0c      	ldr	r4, [sp, #48]	; 0x30
   83210:	e009      	b.n	83226 <_svfprintf_r+0xbf6>
   83212:	bf00      	nop
   83214:	00088014 	.word	0x00088014
   83218:	00087fc4 	.word	0x00087fc4
   8321c:	3608      	adds	r6, #8
   8321e:	3d10      	subs	r5, #16
   83220:	2d10      	cmp	r5, #16
   83222:	f340 818b 	ble.w	8353c <_svfprintf_r+0xf0c>
   83226:	3301      	adds	r3, #1
   83228:	3210      	adds	r2, #16
   8322a:	2b07      	cmp	r3, #7
   8322c:	922d      	str	r2, [sp, #180]	; 0xb4
   8322e:	932c      	str	r3, [sp, #176]	; 0xb0
   83230:	e886 0180 	stmia.w	r6, {r7, r8}
   83234:	ddf2      	ble.n	8321c <_svfprintf_r+0xbec>
   83236:	4658      	mov	r0, fp
   83238:	4621      	mov	r1, r4
   8323a:	aa2b      	add	r2, sp, #172	; 0xac
   8323c:	f004 f96e 	bl	8751c <__ssprint_r>
   83240:	2800      	cmp	r0, #0
   83242:	f47f ab0d 	bne.w	82860 <_svfprintf_r+0x230>
   83246:	9a2d      	ldr	r2, [sp, #180]	; 0xb4
   83248:	9b2c      	ldr	r3, [sp, #176]	; 0xb0
   8324a:	ae38      	add	r6, sp, #224	; 0xe0
   8324c:	e7e7      	b.n	8321e <_svfprintf_r+0xbee>
   8324e:	980d      	ldr	r0, [sp, #52]	; 0x34
   83250:	990c      	ldr	r1, [sp, #48]	; 0x30
   83252:	aa2b      	add	r2, sp, #172	; 0xac
   83254:	f004 f962 	bl	8751c <__ssprint_r>
   83258:	2800      	cmp	r0, #0
   8325a:	f47f ab01 	bne.w	82860 <_svfprintf_r+0x230>
   8325e:	f89d a08f 	ldrb.w	sl, [sp, #143]	; 0x8f
   83262:	f8dd c0b4 	ldr.w	ip, [sp, #180]	; 0xb4
   83266:	ae38      	add	r6, sp, #224	; 0xe0
   83268:	f7ff bbda 	b.w	82a20 <_svfprintf_r+0x3f0>
   8326c:	1e6f      	subs	r7, r5, #1
   8326e:	2f00      	cmp	r7, #0
   83270:	f77f af50 	ble.w	83114 <_svfprintf_r+0xae4>
   83274:	2f10      	cmp	r7, #16
   83276:	4dae      	ldr	r5, [pc, #696]	; (83530 <_svfprintf_r+0xf00>)
   83278:	dd23      	ble.n	832c2 <_svfprintf_r+0xc92>
   8327a:	4643      	mov	r3, r8
   8327c:	f04f 0a10 	mov.w	sl, #16
   83280:	f8dd 8034 	ldr.w	r8, [sp, #52]	; 0x34
   83284:	f8dd b030 	ldr.w	fp, [sp, #48]	; 0x30
   83288:	e004      	b.n	83294 <_svfprintf_r+0xc64>
   8328a:	3f10      	subs	r7, #16
   8328c:	2f10      	cmp	r7, #16
   8328e:	f106 0608 	add.w	r6, r6, #8
   83292:	dd15      	ble.n	832c0 <_svfprintf_r+0xc90>
   83294:	3401      	adds	r4, #1
   83296:	3310      	adds	r3, #16
   83298:	2c07      	cmp	r4, #7
   8329a:	932d      	str	r3, [sp, #180]	; 0xb4
   8329c:	942c      	str	r4, [sp, #176]	; 0xb0
   8329e:	e886 0420 	stmia.w	r6, {r5, sl}
   832a2:	ddf2      	ble.n	8328a <_svfprintf_r+0xc5a>
   832a4:	4640      	mov	r0, r8
   832a6:	4659      	mov	r1, fp
   832a8:	aa2b      	add	r2, sp, #172	; 0xac
   832aa:	f004 f937 	bl	8751c <__ssprint_r>
   832ae:	2800      	cmp	r0, #0
   832b0:	f47f aad6 	bne.w	82860 <_svfprintf_r+0x230>
   832b4:	3f10      	subs	r7, #16
   832b6:	2f10      	cmp	r7, #16
   832b8:	9b2d      	ldr	r3, [sp, #180]	; 0xb4
   832ba:	9c2c      	ldr	r4, [sp, #176]	; 0xb0
   832bc:	ae38      	add	r6, sp, #224	; 0xe0
   832be:	dce9      	bgt.n	83294 <_svfprintf_r+0xc64>
   832c0:	4698      	mov	r8, r3
   832c2:	3401      	adds	r4, #1
   832c4:	44b8      	add	r8, r7
   832c6:	2c07      	cmp	r4, #7
   832c8:	f8cd 80b4 	str.w	r8, [sp, #180]	; 0xb4
   832cc:	942c      	str	r4, [sp, #176]	; 0xb0
   832ce:	e886 00a0 	stmia.w	r6, {r5, r7}
   832d2:	f77f af1e 	ble.w	83112 <_svfprintf_r+0xae2>
   832d6:	980d      	ldr	r0, [sp, #52]	; 0x34
   832d8:	990c      	ldr	r1, [sp, #48]	; 0x30
   832da:	aa2b      	add	r2, sp, #172	; 0xac
   832dc:	f004 f91e 	bl	8751c <__ssprint_r>
   832e0:	2800      	cmp	r0, #0
   832e2:	f47f aabd 	bne.w	82860 <_svfprintf_r+0x230>
   832e6:	f8dd 80b4 	ldr.w	r8, [sp, #180]	; 0xb4
   832ea:	9c2c      	ldr	r4, [sp, #176]	; 0xb0
   832ec:	ae38      	add	r6, sp, #224	; 0xe0
   832ee:	e711      	b.n	83114 <_svfprintf_r+0xae4>
   832f0:	4694      	mov	ip, r2
   832f2:	3301      	adds	r3, #1
   832f4:	44a4      	add	ip, r4
   832f6:	2b07      	cmp	r3, #7
   832f8:	f8cd c0b4 	str.w	ip, [sp, #180]	; 0xb4
   832fc:	932c      	str	r3, [sp, #176]	; 0xb0
   832fe:	6035      	str	r5, [r6, #0]
   83300:	6074      	str	r4, [r6, #4]
   83302:	f77f ac06 	ble.w	82b12 <_svfprintf_r+0x4e2>
   83306:	e713      	b.n	83130 <_svfprintf_r+0xb00>
   83308:	f10d 0bdf 	add.w	fp, sp, #223	; 0xdf
   8330c:	4620      	mov	r0, r4
   8330e:	4629      	mov	r1, r5
   83310:	220a      	movs	r2, #10
   83312:	2300      	movs	r3, #0
   83314:	f004 fb4c 	bl	879b0 <__aeabi_uldivmod>
   83318:	3230      	adds	r2, #48	; 0x30
   8331a:	f88b 2000 	strb.w	r2, [fp]
   8331e:	4620      	mov	r0, r4
   83320:	4629      	mov	r1, r5
   83322:	220a      	movs	r2, #10
   83324:	2300      	movs	r3, #0
   83326:	f004 fb43 	bl	879b0 <__aeabi_uldivmod>
   8332a:	4604      	mov	r4, r0
   8332c:	460d      	mov	r5, r1
   8332e:	ea54 0c05 	orrs.w	ip, r4, r5
   83332:	465f      	mov	r7, fp
   83334:	f10b 3bff 	add.w	fp, fp, #4294967295
   83338:	d1e8      	bne.n	8330c <_svfprintf_r+0xcdc>
   8333a:	9d08      	ldr	r5, [sp, #32]
   8333c:	1bec      	subs	r4, r5, r7
   8333e:	f7ff bb05 	b.w	8294c <_svfprintf_r+0x31c>
   83342:	9d10      	ldr	r5, [sp, #64]	; 0x40
   83344:	2301      	movs	r3, #1
   83346:	682c      	ldr	r4, [r5, #0]
   83348:	3504      	adds	r5, #4
   8334a:	9510      	str	r5, [sp, #64]	; 0x40
   8334c:	2500      	movs	r5, #0
   8334e:	f7ff bad9 	b.w	82904 <_svfprintf_r+0x2d4>
   83352:	9d10      	ldr	r5, [sp, #64]	; 0x40
   83354:	682c      	ldr	r4, [r5, #0]
   83356:	3504      	adds	r5, #4
   83358:	9510      	str	r5, [sp, #64]	; 0x40
   8335a:	2500      	movs	r5, #0
   8335c:	f7ff bad2 	b.w	82904 <_svfprintf_r+0x2d4>
   83360:	9d10      	ldr	r5, [sp, #64]	; 0x40
   83362:	682c      	ldr	r4, [r5, #0]
   83364:	3504      	adds	r5, #4
   83366:	9510      	str	r5, [sp, #64]	; 0x40
   83368:	17e5      	asrs	r5, r4, #31
   8336a:	4622      	mov	r2, r4
   8336c:	462b      	mov	r3, r5
   8336e:	2a00      	cmp	r2, #0
   83370:	f173 0c00 	sbcs.w	ip, r3, #0
   83374:	f6bf ac6c 	bge.w	82c50 <_svfprintf_r+0x620>
   83378:	f04f 0a2d 	mov.w	sl, #45	; 0x2d
   8337c:	4264      	negs	r4, r4
   8337e:	eb65 0545 	sbc.w	r5, r5, r5, lsl #1
   83382:	f88d a08f 	strb.w	sl, [sp, #143]	; 0x8f
   83386:	2301      	movs	r3, #1
   83388:	f7ff bac0 	b.w	8290c <_svfprintf_r+0x2dc>
   8338c:	980d      	ldr	r0, [sp, #52]	; 0x34
   8338e:	990c      	ldr	r1, [sp, #48]	; 0x30
   83390:	aa2b      	add	r2, sp, #172	; 0xac
   83392:	f004 f8c3 	bl	8751c <__ssprint_r>
   83396:	2800      	cmp	r0, #0
   83398:	f47f aa62 	bne.w	82860 <_svfprintf_r+0x230>
   8339c:	f8dd c0b4 	ldr.w	ip, [sp, #180]	; 0xb4
   833a0:	ae38      	add	r6, sp, #224	; 0xe0
   833a2:	9d14      	ldr	r5, [sp, #80]	; 0x50
   833a4:	9c25      	ldr	r4, [sp, #148]	; 0x94
   833a6:	442f      	add	r7, r5
   833a8:	9d11      	ldr	r5, [sp, #68]	; 0x44
   833aa:	42ac      	cmp	r4, r5
   833ac:	db42      	blt.n	83434 <_svfprintf_r+0xe04>
   833ae:	9d09      	ldr	r5, [sp, #36]	; 0x24
   833b0:	07e9      	lsls	r1, r5, #31
   833b2:	d43f      	bmi.n	83434 <_svfprintf_r+0xe04>
   833b4:	9811      	ldr	r0, [sp, #68]	; 0x44
   833b6:	ebc7 050a 	rsb	r5, r7, sl
   833ba:	1b04      	subs	r4, r0, r4
   833bc:	42ac      	cmp	r4, r5
   833be:	bfb8      	it	lt
   833c0:	4625      	movlt	r5, r4
   833c2:	2d00      	cmp	r5, #0
   833c4:	dd0b      	ble.n	833de <_svfprintf_r+0xdae>
   833c6:	9b2c      	ldr	r3, [sp, #176]	; 0xb0
   833c8:	44ac      	add	ip, r5
   833ca:	3301      	adds	r3, #1
   833cc:	2b07      	cmp	r3, #7
   833ce:	f8cd c0b4 	str.w	ip, [sp, #180]	; 0xb4
   833d2:	6037      	str	r7, [r6, #0]
   833d4:	6075      	str	r5, [r6, #4]
   833d6:	932c      	str	r3, [sp, #176]	; 0xb0
   833d8:	f300 824c 	bgt.w	83874 <_svfprintf_r+0x1244>
   833dc:	3608      	adds	r6, #8
   833de:	ea25 75e5 	bic.w	r5, r5, r5, asr #31
   833e2:	1b64      	subs	r4, r4, r5
   833e4:	2c00      	cmp	r4, #0
   833e6:	f77f ab95 	ble.w	82b14 <_svfprintf_r+0x4e4>
   833ea:	2c10      	cmp	r4, #16
   833ec:	9b2c      	ldr	r3, [sp, #176]	; 0xb0
   833ee:	4d50      	ldr	r5, [pc, #320]	; (83530 <_svfprintf_r+0xf00>)
   833f0:	f77f af7f 	ble.w	832f2 <_svfprintf_r+0xcc2>
   833f4:	2710      	movs	r7, #16
   833f6:	4662      	mov	r2, ip
   833f8:	f8dd 8034 	ldr.w	r8, [sp, #52]	; 0x34
   833fc:	f8dd a030 	ldr.w	sl, [sp, #48]	; 0x30
   83400:	e004      	b.n	8340c <_svfprintf_r+0xddc>
   83402:	3608      	adds	r6, #8
   83404:	3c10      	subs	r4, #16
   83406:	2c10      	cmp	r4, #16
   83408:	f77f af72 	ble.w	832f0 <_svfprintf_r+0xcc0>
   8340c:	3301      	adds	r3, #1
   8340e:	3210      	adds	r2, #16
   83410:	2b07      	cmp	r3, #7
   83412:	922d      	str	r2, [sp, #180]	; 0xb4
   83414:	932c      	str	r3, [sp, #176]	; 0xb0
   83416:	e886 00a0 	stmia.w	r6, {r5, r7}
   8341a:	ddf2      	ble.n	83402 <_svfprintf_r+0xdd2>
   8341c:	4640      	mov	r0, r8
   8341e:	4651      	mov	r1, sl
   83420:	aa2b      	add	r2, sp, #172	; 0xac
   83422:	f004 f87b 	bl	8751c <__ssprint_r>
   83426:	2800      	cmp	r0, #0
   83428:	f47f aa1a 	bne.w	82860 <_svfprintf_r+0x230>
   8342c:	9a2d      	ldr	r2, [sp, #180]	; 0xb4
   8342e:	9b2c      	ldr	r3, [sp, #176]	; 0xb0
   83430:	ae38      	add	r6, sp, #224	; 0xe0
   83432:	e7e7      	b.n	83404 <_svfprintf_r+0xdd4>
   83434:	9d18      	ldr	r5, [sp, #96]	; 0x60
   83436:	9b2c      	ldr	r3, [sp, #176]	; 0xb0
   83438:	44ac      	add	ip, r5
   8343a:	9d15      	ldr	r5, [sp, #84]	; 0x54
   8343c:	3301      	adds	r3, #1
   8343e:	6035      	str	r5, [r6, #0]
   83440:	9d18      	ldr	r5, [sp, #96]	; 0x60
   83442:	2b07      	cmp	r3, #7
   83444:	f8cd c0b4 	str.w	ip, [sp, #180]	; 0xb4
   83448:	6075      	str	r5, [r6, #4]
   8344a:	932c      	str	r3, [sp, #176]	; 0xb0
   8344c:	f300 81f4 	bgt.w	83838 <_svfprintf_r+0x1208>
   83450:	3608      	adds	r6, #8
   83452:	e7af      	b.n	833b4 <_svfprintf_r+0xd84>
   83454:	9d09      	ldr	r5, [sp, #36]	; 0x24
   83456:	07ea      	lsls	r2, r5, #31
   83458:	f53f ae2a 	bmi.w	830b0 <_svfprintf_r+0xa80>
   8345c:	3401      	adds	r4, #1
   8345e:	f10c 0801 	add.w	r8, ip, #1
   83462:	2301      	movs	r3, #1
   83464:	2c07      	cmp	r4, #7
   83466:	f8cd 80b4 	str.w	r8, [sp, #180]	; 0xb4
   8346a:	942c      	str	r4, [sp, #176]	; 0xb0
   8346c:	6037      	str	r7, [r6, #0]
   8346e:	6073      	str	r3, [r6, #4]
   83470:	f77f ae4f 	ble.w	83112 <_svfprintf_r+0xae2>
   83474:	e72f      	b.n	832d6 <_svfprintf_r+0xca6>
   83476:	980d      	ldr	r0, [sp, #52]	; 0x34
   83478:	990c      	ldr	r1, [sp, #48]	; 0x30
   8347a:	aa2b      	add	r2, sp, #172	; 0xac
   8347c:	f004 f84e 	bl	8751c <__ssprint_r>
   83480:	2800      	cmp	r0, #0
   83482:	f47f a9ed 	bne.w	82860 <_svfprintf_r+0x230>
   83486:	9b2d      	ldr	r3, [sp, #180]	; 0xb4
   83488:	9c2c      	ldr	r4, [sp, #176]	; 0xb0
   8348a:	ae38      	add	r6, sp, #224	; 0xe0
   8348c:	e61c      	b.n	830c8 <_svfprintf_r+0xa98>
   8348e:	980d      	ldr	r0, [sp, #52]	; 0x34
   83490:	990c      	ldr	r1, [sp, #48]	; 0x30
   83492:	aa2b      	add	r2, sp, #172	; 0xac
   83494:	f004 f842 	bl	8751c <__ssprint_r>
   83498:	2800      	cmp	r0, #0
   8349a:	f47f a9e1 	bne.w	82860 <_svfprintf_r+0x230>
   8349e:	f8dd 80b4 	ldr.w	r8, [sp, #180]	; 0xb4
   834a2:	9c2c      	ldr	r4, [sp, #176]	; 0xb0
   834a4:	ae38      	add	r6, sp, #224	; 0xe0
   834a6:	e61e      	b.n	830e6 <_svfprintf_r+0xab6>
   834a8:	980d      	ldr	r0, [sp, #52]	; 0x34
   834aa:	990c      	ldr	r1, [sp, #48]	; 0x30
   834ac:	aa2b      	add	r2, sp, #172	; 0xac
   834ae:	f004 f835 	bl	8751c <__ssprint_r>
   834b2:	2800      	cmp	r0, #0
   834b4:	f47f a9d4 	bne.w	82860 <_svfprintf_r+0x230>
   834b8:	f8dd c0b4 	ldr.w	ip, [sp, #180]	; 0xb4
   834bc:	ae38      	add	r6, sp, #224	; 0xe0
   834be:	f7ff bad7 	b.w	82a70 <_svfprintf_r+0x440>
   834c2:	f7fe fb59 	bl	81b78 <__fpclassifyd>
   834c6:	2800      	cmp	r0, #0
   834c8:	f040 80bb 	bne.w	83642 <_svfprintf_r+0x1012>
   834cc:	9c09      	ldr	r4, [sp, #36]	; 0x24
   834ce:	4f19      	ldr	r7, [pc, #100]	; (83534 <_svfprintf_r+0xf04>)
   834d0:	4b19      	ldr	r3, [pc, #100]	; (83538 <_svfprintf_r+0xf08>)
   834d2:	f04f 0c03 	mov.w	ip, #3
   834d6:	f024 0480 	bic.w	r4, r4, #128	; 0x80
   834da:	9409      	str	r4, [sp, #36]	; 0x24
   834dc:	900a      	str	r0, [sp, #40]	; 0x28
   834de:	f8cd c02c 	str.w	ip, [sp, #44]	; 0x2c
   834e2:	9014      	str	r0, [sp, #80]	; 0x50
   834e4:	f1b8 0f47 	cmp.w	r8, #71	; 0x47
   834e8:	bfd8      	it	le
   834ea:	461f      	movle	r7, r3
   834ec:	4664      	mov	r4, ip
   834ee:	f89d a08f 	ldrb.w	sl, [sp, #143]	; 0x8f
   834f2:	f7ff ba34 	b.w	8295e <_svfprintf_r+0x32e>
   834f6:	9c09      	ldr	r4, [sp, #36]	; 0x24
   834f8:	0664      	lsls	r4, r4, #25
   834fa:	f140 8150 	bpl.w	8379e <_svfprintf_r+0x116e>
   834fe:	f8dd c040 	ldr.w	ip, [sp, #64]	; 0x40
   83502:	2500      	movs	r5, #0
   83504:	f8bc 4000 	ldrh.w	r4, [ip]
   83508:	f10c 0c04 	add.w	ip, ip, #4
   8350c:	f8cd c040 	str.w	ip, [sp, #64]	; 0x40
   83510:	f7ff b9e4 	b.w	828dc <_svfprintf_r+0x2ac>
   83514:	f8dd c024 	ldr.w	ip, [sp, #36]	; 0x24
   83518:	f01c 0f10 	tst.w	ip, #16
   8351c:	f000 8146 	beq.w	837ac <_svfprintf_r+0x117c>
   83520:	9c10      	ldr	r4, [sp, #64]	; 0x40
   83522:	9d0e      	ldr	r5, [sp, #56]	; 0x38
   83524:	6823      	ldr	r3, [r4, #0]
   83526:	3404      	adds	r4, #4
   83528:	9410      	str	r4, [sp, #64]	; 0x40
   8352a:	601d      	str	r5, [r3, #0]
   8352c:	f7ff b8a6 	b.w	8267c <_svfprintf_r+0x4c>
   83530:	00087fc4 	.word	0x00087fc4
   83534:	00087fe0 	.word	0x00087fe0
   83538:	00087fdc 	.word	0x00087fdc
   8353c:	462c      	mov	r4, r5
   8353e:	463d      	mov	r5, r7
   83540:	9f0a      	ldr	r7, [sp, #40]	; 0x28
   83542:	4694      	mov	ip, r2
   83544:	3301      	adds	r3, #1
   83546:	44a4      	add	ip, r4
   83548:	2b07      	cmp	r3, #7
   8354a:	f8cd c0b4 	str.w	ip, [sp, #180]	; 0xb4
   8354e:	932c      	str	r3, [sp, #176]	; 0xb0
   83550:	6035      	str	r5, [r6, #0]
   83552:	6074      	str	r4, [r6, #4]
   83554:	f73f af1a 	bgt.w	8338c <_svfprintf_r+0xd5c>
   83558:	3608      	adds	r6, #8
   8355a:	e722      	b.n	833a2 <_svfprintf_r+0xd72>
   8355c:	980d      	ldr	r0, [sp, #52]	; 0x34
   8355e:	990c      	ldr	r1, [sp, #48]	; 0x30
   83560:	aa2b      	add	r2, sp, #172	; 0xac
   83562:	f003 ffdb 	bl	8751c <__ssprint_r>
   83566:	2800      	cmp	r0, #0
   83568:	f47f a97a 	bne.w	82860 <_svfprintf_r+0x230>
   8356c:	f8dd c0b4 	ldr.w	ip, [sp, #180]	; 0xb4
   83570:	ae38      	add	r6, sp, #224	; 0xe0
   83572:	e507      	b.n	82f84 <_svfprintf_r+0x954>
   83574:	9a2c      	ldr	r2, [sp, #176]	; 0xb0
   83576:	49b7      	ldr	r1, [pc, #732]	; (83854 <_svfprintf_r+0x1224>)
   83578:	3201      	adds	r2, #1
   8357a:	f10c 0c01 	add.w	ip, ip, #1
   8357e:	2001      	movs	r0, #1
   83580:	2a07      	cmp	r2, #7
   83582:	f8cd c0b4 	str.w	ip, [sp, #180]	; 0xb4
   83586:	922c      	str	r2, [sp, #176]	; 0xb0
   83588:	6031      	str	r1, [r6, #0]
   8358a:	6070      	str	r0, [r6, #4]
   8358c:	f300 80f7 	bgt.w	8377e <_svfprintf_r+0x114e>
   83590:	3608      	adds	r6, #8
   83592:	461c      	mov	r4, r3
   83594:	b92c      	cbnz	r4, 835a2 <_svfprintf_r+0xf72>
   83596:	9d11      	ldr	r5, [sp, #68]	; 0x44
   83598:	b91d      	cbnz	r5, 835a2 <_svfprintf_r+0xf72>
   8359a:	9d09      	ldr	r5, [sp, #36]	; 0x24
   8359c:	07e8      	lsls	r0, r5, #31
   8359e:	f57f aab9 	bpl.w	82b14 <_svfprintf_r+0x4e4>
   835a2:	9b2c      	ldr	r3, [sp, #176]	; 0xb0
   835a4:	9d15      	ldr	r5, [sp, #84]	; 0x54
   835a6:	9918      	ldr	r1, [sp, #96]	; 0x60
   835a8:	3301      	adds	r3, #1
   835aa:	6035      	str	r5, [r6, #0]
   835ac:	9d18      	ldr	r5, [sp, #96]	; 0x60
   835ae:	4461      	add	r1, ip
   835b0:	2b07      	cmp	r3, #7
   835b2:	912d      	str	r1, [sp, #180]	; 0xb4
   835b4:	6075      	str	r5, [r6, #4]
   835b6:	932c      	str	r3, [sp, #176]	; 0xb0
   835b8:	f300 81de 	bgt.w	83978 <_svfprintf_r+0x1348>
   835bc:	f106 0208 	add.w	r2, r6, #8
   835c0:	4264      	negs	r4, r4
   835c2:	2c00      	cmp	r4, #0
   835c4:	f340 810b 	ble.w	837de <_svfprintf_r+0x11ae>
   835c8:	2c10      	cmp	r4, #16
   835ca:	4da3      	ldr	r5, [pc, #652]	; (83858 <_svfprintf_r+0x1228>)
   835cc:	f340 8148 	ble.w	83860 <_svfprintf_r+0x1230>
   835d0:	46a3      	mov	fp, r4
   835d2:	2610      	movs	r6, #16
   835d4:	460c      	mov	r4, r1
   835d6:	f8dd 8034 	ldr.w	r8, [sp, #52]	; 0x34
   835da:	f8dd a030 	ldr.w	sl, [sp, #48]	; 0x30
   835de:	e006      	b.n	835ee <_svfprintf_r+0xfbe>
   835e0:	3208      	adds	r2, #8
   835e2:	f1ab 0b10 	sub.w	fp, fp, #16
   835e6:	f1bb 0f10 	cmp.w	fp, #16
   835ea:	f340 8137 	ble.w	8385c <_svfprintf_r+0x122c>
   835ee:	3301      	adds	r3, #1
   835f0:	3410      	adds	r4, #16
   835f2:	2b07      	cmp	r3, #7
   835f4:	942d      	str	r4, [sp, #180]	; 0xb4
   835f6:	932c      	str	r3, [sp, #176]	; 0xb0
   835f8:	e882 0060 	stmia.w	r2, {r5, r6}
   835fc:	ddf0      	ble.n	835e0 <_svfprintf_r+0xfb0>
   835fe:	4640      	mov	r0, r8
   83600:	4651      	mov	r1, sl
   83602:	aa2b      	add	r2, sp, #172	; 0xac
   83604:	f003 ff8a 	bl	8751c <__ssprint_r>
   83608:	2800      	cmp	r0, #0
   8360a:	f47f a929 	bne.w	82860 <_svfprintf_r+0x230>
   8360e:	9c2d      	ldr	r4, [sp, #180]	; 0xb4
   83610:	9b2c      	ldr	r3, [sp, #176]	; 0xb0
   83612:	aa38      	add	r2, sp, #224	; 0xe0
   83614:	e7e5      	b.n	835e2 <_svfprintf_r+0xfb2>
   83616:	9c09      	ldr	r4, [sp, #36]	; 0x24
   83618:	f109 0901 	add.w	r9, r9, #1
   8361c:	f044 0420 	orr.w	r4, r4, #32
   83620:	9409      	str	r4, [sp, #36]	; 0x24
   83622:	f893 8001 	ldrb.w	r8, [r3, #1]
   83626:	f7ff b85f 	b.w	826e8 <_svfprintf_r+0xb8>
   8362a:	980d      	ldr	r0, [sp, #52]	; 0x34
   8362c:	990c      	ldr	r1, [sp, #48]	; 0x30
   8362e:	aa2b      	add	r2, sp, #172	; 0xac
   83630:	f003 ff74 	bl	8751c <__ssprint_r>
   83634:	2800      	cmp	r0, #0
   83636:	f47f a913 	bne.w	82860 <_svfprintf_r+0x230>
   8363a:	f8dd c0b4 	ldr.w	ip, [sp, #180]	; 0xb4
   8363e:	ae38      	add	r6, sp, #224	; 0xe0
   83640:	e4b6      	b.n	82fb0 <_svfprintf_r+0x980>
   83642:	9d0a      	ldr	r5, [sp, #40]	; 0x28
   83644:	f028 0a20 	bic.w	sl, r8, #32
   83648:	3501      	adds	r5, #1
   8364a:	f000 80a5 	beq.w	83798 <_svfprintf_r+0x1168>
   8364e:	f1ba 0f47 	cmp.w	sl, #71	; 0x47
   83652:	d104      	bne.n	8365e <_svfprintf_r+0x102e>
   83654:	9d0a      	ldr	r5, [sp, #40]	; 0x28
   83656:	2d00      	cmp	r5, #0
   83658:	bf08      	it	eq
   8365a:	2501      	moveq	r5, #1
   8365c:	950a      	str	r5, [sp, #40]	; 0x28
   8365e:	f8dd c024 	ldr.w	ip, [sp, #36]	; 0x24
   83662:	e9dd 2316 	ldrd	r2, r3, [sp, #88]	; 0x58
   83666:	f44c 7c80 	orr.w	ip, ip, #256	; 0x100
   8366a:	2b00      	cmp	r3, #0
   8366c:	f8cd c048 	str.w	ip, [sp, #72]	; 0x48
   83670:	f2c0 819c 	blt.w	839ac <_svfprintf_r+0x137c>
   83674:	e9dd 4516 	ldrd	r4, r5, [sp, #88]	; 0x58
   83678:	e9cd 4520 	strd	r4, r5, [sp, #128]	; 0x80
   8367c:	f04f 0b00 	mov.w	fp, #0
   83680:	f1b8 0f66 	cmp.w	r8, #102	; 0x66
   83684:	f000 819b 	beq.w	839be <_svfprintf_r+0x138e>
   83688:	f1b8 0f46 	cmp.w	r8, #70	; 0x46
   8368c:	f000 81a9 	beq.w	839e2 <_svfprintf_r+0x13b2>
   83690:	f1ba 0f45 	cmp.w	sl, #69	; 0x45
   83694:	bf0a      	itet	eq
   83696:	9c0a      	ldreq	r4, [sp, #40]	; 0x28
   83698:	9d0a      	ldrne	r5, [sp, #40]	; 0x28
   8369a:	1c65      	addeq	r5, r4, #1
   8369c:	2002      	movs	r0, #2
   8369e:	a925      	add	r1, sp, #148	; 0x94
   836a0:	aa26      	add	r2, sp, #152	; 0x98
   836a2:	ab29      	add	r3, sp, #164	; 0xa4
   836a4:	e88d 0021 	stmia.w	sp, {r0, r5}
   836a8:	9203      	str	r2, [sp, #12]
   836aa:	9304      	str	r3, [sp, #16]
   836ac:	9102      	str	r1, [sp, #8]
   836ae:	980d      	ldr	r0, [sp, #52]	; 0x34
   836b0:	e9dd 2320 	ldrd	r2, r3, [sp, #128]	; 0x80
   836b4:	f001 f9dc 	bl	84a70 <_dtoa_r>
   836b8:	f1b8 0f67 	cmp.w	r8, #103	; 0x67
   836bc:	4607      	mov	r7, r0
   836be:	d002      	beq.n	836c6 <_svfprintf_r+0x1096>
   836c0:	f1b8 0f47 	cmp.w	r8, #71	; 0x47
   836c4:	d105      	bne.n	836d2 <_svfprintf_r+0x10a2>
   836c6:	f8dd c024 	ldr.w	ip, [sp, #36]	; 0x24
   836ca:	f01c 0f01 	tst.w	ip, #1
   836ce:	f000 819c 	beq.w	83a0a <_svfprintf_r+0x13da>
   836d2:	f1ba 0f46 	cmp.w	sl, #70	; 0x46
   836d6:	eb07 0405 	add.w	r4, r7, r5
   836da:	f000 811c 	beq.w	83916 <_svfprintf_r+0x12e6>
   836de:	e9dd 0120 	ldrd	r0, r1, [sp, #128]	; 0x80
   836e2:	2200      	movs	r2, #0
   836e4:	2300      	movs	r3, #0
   836e6:	f7fe fe97 	bl	82418 <__aeabi_dcmpeq>
   836ea:	2800      	cmp	r0, #0
   836ec:	f040 8105 	bne.w	838fa <_svfprintf_r+0x12ca>
   836f0:	9b29      	ldr	r3, [sp, #164]	; 0xa4
   836f2:	429c      	cmp	r4, r3
   836f4:	d906      	bls.n	83704 <_svfprintf_r+0x10d4>
   836f6:	2130      	movs	r1, #48	; 0x30
   836f8:	1c5a      	adds	r2, r3, #1
   836fa:	9229      	str	r2, [sp, #164]	; 0xa4
   836fc:	7019      	strb	r1, [r3, #0]
   836fe:	9b29      	ldr	r3, [sp, #164]	; 0xa4
   83700:	429c      	cmp	r4, r3
   83702:	d8f9      	bhi.n	836f8 <_svfprintf_r+0x10c8>
   83704:	1bdb      	subs	r3, r3, r7
   83706:	f1ba 0f47 	cmp.w	sl, #71	; 0x47
   8370a:	9311      	str	r3, [sp, #68]	; 0x44
   8370c:	f000 80ed 	beq.w	838ea <_svfprintf_r+0x12ba>
   83710:	f1b8 0f65 	cmp.w	r8, #101	; 0x65
   83714:	f340 81f2 	ble.w	83afc <_svfprintf_r+0x14cc>
   83718:	f1b8 0f66 	cmp.w	r8, #102	; 0x66
   8371c:	f000 8168 	beq.w	839f0 <_svfprintf_r+0x13c0>
   83720:	9c25      	ldr	r4, [sp, #148]	; 0x94
   83722:	9414      	str	r4, [sp, #80]	; 0x50
   83724:	9c11      	ldr	r4, [sp, #68]	; 0x44
   83726:	9d14      	ldr	r5, [sp, #80]	; 0x50
   83728:	42ac      	cmp	r4, r5
   8372a:	f300 8132 	bgt.w	83992 <_svfprintf_r+0x1362>
   8372e:	f8dd c024 	ldr.w	ip, [sp, #36]	; 0x24
   83732:	f01c 0f01 	tst.w	ip, #1
   83736:	f040 81ad 	bne.w	83a94 <_svfprintf_r+0x1464>
   8373a:	ea25 73e5 	bic.w	r3, r5, r5, asr #31
   8373e:	462c      	mov	r4, r5
   83740:	f04f 0867 	mov.w	r8, #103	; 0x67
   83744:	f1bb 0f00 	cmp.w	fp, #0
   83748:	f040 80b2 	bne.w	838b0 <_svfprintf_r+0x1280>
   8374c:	9d12      	ldr	r5, [sp, #72]	; 0x48
   8374e:	930b      	str	r3, [sp, #44]	; 0x2c
   83750:	9509      	str	r5, [sp, #36]	; 0x24
   83752:	f8cd b028 	str.w	fp, [sp, #40]	; 0x28
   83756:	f89d a08f 	ldrb.w	sl, [sp, #143]	; 0x8f
   8375a:	f7ff b900 	b.w	8295e <_svfprintf_r+0x32e>
   8375e:	980d      	ldr	r0, [sp, #52]	; 0x34
   83760:	2140      	movs	r1, #64	; 0x40
   83762:	f002 fda7 	bl	862b4 <_malloc_r>
   83766:	6020      	str	r0, [r4, #0]
   83768:	6120      	str	r0, [r4, #16]
   8376a:	2800      	cmp	r0, #0
   8376c:	f000 81bf 	beq.w	83aee <_svfprintf_r+0x14be>
   83770:	f8dd c030 	ldr.w	ip, [sp, #48]	; 0x30
   83774:	2340      	movs	r3, #64	; 0x40
   83776:	f8cc 3014 	str.w	r3, [ip, #20]
   8377a:	f7fe bf6f 	b.w	8265c <_svfprintf_r+0x2c>
   8377e:	980d      	ldr	r0, [sp, #52]	; 0x34
   83780:	990c      	ldr	r1, [sp, #48]	; 0x30
   83782:	aa2b      	add	r2, sp, #172	; 0xac
   83784:	f003 feca 	bl	8751c <__ssprint_r>
   83788:	2800      	cmp	r0, #0
   8378a:	f47f a869 	bne.w	82860 <_svfprintf_r+0x230>
   8378e:	9c25      	ldr	r4, [sp, #148]	; 0x94
   83790:	f8dd c0b4 	ldr.w	ip, [sp, #180]	; 0xb4
   83794:	ae38      	add	r6, sp, #224	; 0xe0
   83796:	e6fd      	b.n	83594 <_svfprintf_r+0xf64>
   83798:	2406      	movs	r4, #6
   8379a:	940a      	str	r4, [sp, #40]	; 0x28
   8379c:	e75f      	b.n	8365e <_svfprintf_r+0x102e>
   8379e:	9d10      	ldr	r5, [sp, #64]	; 0x40
   837a0:	682c      	ldr	r4, [r5, #0]
   837a2:	3504      	adds	r5, #4
   837a4:	9510      	str	r5, [sp, #64]	; 0x40
   837a6:	2500      	movs	r5, #0
   837a8:	f7ff b898 	b.w	828dc <_svfprintf_r+0x2ac>
   837ac:	f8dd c024 	ldr.w	ip, [sp, #36]	; 0x24
   837b0:	f01c 0f40 	tst.w	ip, #64	; 0x40
   837b4:	f000 8087 	beq.w	838c6 <_svfprintf_r+0x1296>
   837b8:	9c10      	ldr	r4, [sp, #64]	; 0x40
   837ba:	9d0e      	ldr	r5, [sp, #56]	; 0x38
   837bc:	6823      	ldr	r3, [r4, #0]
   837be:	3404      	adds	r4, #4
   837c0:	9410      	str	r4, [sp, #64]	; 0x40
   837c2:	801d      	strh	r5, [r3, #0]
   837c4:	f7fe bf5a 	b.w	8267c <_svfprintf_r+0x4c>
   837c8:	980d      	ldr	r0, [sp, #52]	; 0x34
   837ca:	990c      	ldr	r1, [sp, #48]	; 0x30
   837cc:	aa2b      	add	r2, sp, #172	; 0xac
   837ce:	f003 fea5 	bl	8751c <__ssprint_r>
   837d2:	2800      	cmp	r0, #0
   837d4:	f47f a844 	bne.w	82860 <_svfprintf_r+0x230>
   837d8:	992d      	ldr	r1, [sp, #180]	; 0xb4
   837da:	9b2c      	ldr	r3, [sp, #176]	; 0xb0
   837dc:	aa38      	add	r2, sp, #224	; 0xe0
   837de:	f8dd c044 	ldr.w	ip, [sp, #68]	; 0x44
   837e2:	3301      	adds	r3, #1
   837e4:	9c11      	ldr	r4, [sp, #68]	; 0x44
   837e6:	448c      	add	ip, r1
   837e8:	2b07      	cmp	r3, #7
   837ea:	f8cd c0b4 	str.w	ip, [sp, #180]	; 0xb4
   837ee:	932c      	str	r3, [sp, #176]	; 0xb0
   837f0:	6017      	str	r7, [r2, #0]
   837f2:	6054      	str	r4, [r2, #4]
   837f4:	f73f ac9c 	bgt.w	83130 <_svfprintf_r+0xb00>
   837f8:	f102 0608 	add.w	r6, r2, #8
   837fc:	f7ff b98a 	b.w	82b14 <_svfprintf_r+0x4e4>
   83800:	f8cd a028 	str.w	sl, [sp, #40]	; 0x28
   83804:	f003 fe5a 	bl	874bc <strlen>
   83808:	9510      	str	r5, [sp, #64]	; 0x40
   8380a:	9d0a      	ldr	r5, [sp, #40]	; 0x28
   8380c:	ea20 7ce0 	bic.w	ip, r0, r0, asr #31
   83810:	4604      	mov	r4, r0
   83812:	f8cd c02c 	str.w	ip, [sp, #44]	; 0x2c
   83816:	9514      	str	r5, [sp, #80]	; 0x50
   83818:	f89d a08f 	ldrb.w	sl, [sp, #143]	; 0x8f
   8381c:	f7ff b89f 	b.w	8295e <_svfprintf_r+0x32e>
   83820:	980d      	ldr	r0, [sp, #52]	; 0x34
   83822:	990c      	ldr	r1, [sp, #48]	; 0x30
   83824:	aa2b      	add	r2, sp, #172	; 0xac
   83826:	f003 fe79 	bl	8751c <__ssprint_r>
   8382a:	2800      	cmp	r0, #0
   8382c:	f47f a818 	bne.w	82860 <_svfprintf_r+0x230>
   83830:	f8dd c0b4 	ldr.w	ip, [sp, #180]	; 0xb4
   83834:	ae38      	add	r6, sp, #224	; 0xe0
   83836:	e4d6      	b.n	831e6 <_svfprintf_r+0xbb6>
   83838:	980d      	ldr	r0, [sp, #52]	; 0x34
   8383a:	990c      	ldr	r1, [sp, #48]	; 0x30
   8383c:	aa2b      	add	r2, sp, #172	; 0xac
   8383e:	f003 fe6d 	bl	8751c <__ssprint_r>
   83842:	2800      	cmp	r0, #0
   83844:	f47f a80c 	bne.w	82860 <_svfprintf_r+0x230>
   83848:	9c25      	ldr	r4, [sp, #148]	; 0x94
   8384a:	f8dd c0b4 	ldr.w	ip, [sp, #180]	; 0xb4
   8384e:	ae38      	add	r6, sp, #224	; 0xe0
   83850:	e5b0      	b.n	833b4 <_svfprintf_r+0xd84>
   83852:	bf00      	nop
   83854:	00088014 	.word	0x00088014
   83858:	00087fc4 	.word	0x00087fc4
   8385c:	4621      	mov	r1, r4
   8385e:	465c      	mov	r4, fp
   83860:	3301      	adds	r3, #1
   83862:	4421      	add	r1, r4
   83864:	2b07      	cmp	r3, #7
   83866:	912d      	str	r1, [sp, #180]	; 0xb4
   83868:	932c      	str	r3, [sp, #176]	; 0xb0
   8386a:	6015      	str	r5, [r2, #0]
   8386c:	6054      	str	r4, [r2, #4]
   8386e:	dcab      	bgt.n	837c8 <_svfprintf_r+0x1198>
   83870:	3208      	adds	r2, #8
   83872:	e7b4      	b.n	837de <_svfprintf_r+0x11ae>
   83874:	980d      	ldr	r0, [sp, #52]	; 0x34
   83876:	990c      	ldr	r1, [sp, #48]	; 0x30
   83878:	aa2b      	add	r2, sp, #172	; 0xac
   8387a:	f003 fe4f 	bl	8751c <__ssprint_r>
   8387e:	2800      	cmp	r0, #0
   83880:	f47e afee 	bne.w	82860 <_svfprintf_r+0x230>
   83884:	9c25      	ldr	r4, [sp, #148]	; 0x94
   83886:	9911      	ldr	r1, [sp, #68]	; 0x44
   83888:	f8dd c0b4 	ldr.w	ip, [sp, #180]	; 0xb4
   8388c:	1b0c      	subs	r4, r1, r4
   8388e:	ae38      	add	r6, sp, #224	; 0xe0
   83890:	e5a5      	b.n	833de <_svfprintf_r+0xdae>
   83892:	9c0a      	ldr	r4, [sp, #40]	; 0x28
   83894:	46ba      	mov	sl, r7
   83896:	2c06      	cmp	r4, #6
   83898:	bf28      	it	cs
   8389a:	2406      	movcs	r4, #6
   8389c:	ea24 7ce4 	bic.w	ip, r4, r4, asr #31
   838a0:	970a      	str	r7, [sp, #40]	; 0x28
   838a2:	9714      	str	r7, [sp, #80]	; 0x50
   838a4:	9510      	str	r5, [sp, #64]	; 0x40
   838a6:	f8cd c02c 	str.w	ip, [sp, #44]	; 0x2c
   838aa:	4f97      	ldr	r7, [pc, #604]	; (83b08 <_svfprintf_r+0x14d8>)
   838ac:	f7ff b857 	b.w	8295e <_svfprintf_r+0x32e>
   838b0:	9d12      	ldr	r5, [sp, #72]	; 0x48
   838b2:	f04f 0a2d 	mov.w	sl, #45	; 0x2d
   838b6:	9509      	str	r5, [sp, #36]	; 0x24
   838b8:	2500      	movs	r5, #0
   838ba:	930b      	str	r3, [sp, #44]	; 0x2c
   838bc:	f88d a08f 	strb.w	sl, [sp, #143]	; 0x8f
   838c0:	950a      	str	r5, [sp, #40]	; 0x28
   838c2:	f7ff b84f 	b.w	82964 <_svfprintf_r+0x334>
   838c6:	f8dd c040 	ldr.w	ip, [sp, #64]	; 0x40
   838ca:	9c0e      	ldr	r4, [sp, #56]	; 0x38
   838cc:	f8dc 3000 	ldr.w	r3, [ip]
   838d0:	f10c 0c04 	add.w	ip, ip, #4
   838d4:	f8cd c040 	str.w	ip, [sp, #64]	; 0x40
   838d8:	601c      	str	r4, [r3, #0]
   838da:	f7fe becf 	b.w	8267c <_svfprintf_r+0x4c>
   838de:	f04f 0a2d 	mov.w	sl, #45	; 0x2d
   838e2:	f88d a08f 	strb.w	sl, [sp, #143]	; 0x8f
   838e6:	f7ff ba99 	b.w	82e1c <_svfprintf_r+0x7ec>
   838ea:	9b25      	ldr	r3, [sp, #148]	; 0x94
   838ec:	1cdc      	adds	r4, r3, #3
   838ee:	db19      	blt.n	83924 <_svfprintf_r+0x12f4>
   838f0:	9c0a      	ldr	r4, [sp, #40]	; 0x28
   838f2:	429c      	cmp	r4, r3
   838f4:	db16      	blt.n	83924 <_svfprintf_r+0x12f4>
   838f6:	9314      	str	r3, [sp, #80]	; 0x50
   838f8:	e714      	b.n	83724 <_svfprintf_r+0x10f4>
   838fa:	4623      	mov	r3, r4
   838fc:	e702      	b.n	83704 <_svfprintf_r+0x10d4>
   838fe:	ea24 7ce4 	bic.w	ip, r4, r4, asr #31
   83902:	f8cd c02c 	str.w	ip, [sp, #44]	; 0x2c
   83906:	9c0a      	ldr	r4, [sp, #40]	; 0x28
   83908:	9510      	str	r5, [sp, #64]	; 0x40
   8390a:	900a      	str	r0, [sp, #40]	; 0x28
   8390c:	9014      	str	r0, [sp, #80]	; 0x50
   8390e:	f89d a08f 	ldrb.w	sl, [sp, #143]	; 0x8f
   83912:	f7ff b824 	b.w	8295e <_svfprintf_r+0x32e>
   83916:	783b      	ldrb	r3, [r7, #0]
   83918:	2b30      	cmp	r3, #48	; 0x30
   8391a:	f000 80ad 	beq.w	83a78 <_svfprintf_r+0x1448>
   8391e:	9d25      	ldr	r5, [sp, #148]	; 0x94
   83920:	442c      	add	r4, r5
   83922:	e6dc      	b.n	836de <_svfprintf_r+0x10ae>
   83924:	f1a8 0802 	sub.w	r8, r8, #2
   83928:	1e59      	subs	r1, r3, #1
   8392a:	2900      	cmp	r1, #0
   8392c:	9125      	str	r1, [sp, #148]	; 0x94
   8392e:	bfba      	itte	lt
   83930:	4249      	neglt	r1, r1
   83932:	232d      	movlt	r3, #45	; 0x2d
   83934:	232b      	movge	r3, #43	; 0x2b
   83936:	2909      	cmp	r1, #9
   83938:	f88d 809c 	strb.w	r8, [sp, #156]	; 0x9c
   8393c:	f88d 309d 	strb.w	r3, [sp, #157]	; 0x9d
   83940:	dc65      	bgt.n	83a0e <_svfprintf_r+0x13de>
   83942:	2330      	movs	r3, #48	; 0x30
   83944:	3130      	adds	r1, #48	; 0x30
   83946:	f88d 309e 	strb.w	r3, [sp, #158]	; 0x9e
   8394a:	f88d 109f 	strb.w	r1, [sp, #159]	; 0x9f
   8394e:	ab28      	add	r3, sp, #160	; 0xa0
   83950:	9d11      	ldr	r5, [sp, #68]	; 0x44
   83952:	aa27      	add	r2, sp, #156	; 0x9c
   83954:	9c11      	ldr	r4, [sp, #68]	; 0x44
   83956:	1a9a      	subs	r2, r3, r2
   83958:	2d01      	cmp	r5, #1
   8395a:	9219      	str	r2, [sp, #100]	; 0x64
   8395c:	4414      	add	r4, r2
   8395e:	f340 80b7 	ble.w	83ad0 <_svfprintf_r+0x14a0>
   83962:	3401      	adds	r4, #1
   83964:	2500      	movs	r5, #0
   83966:	ea24 73e4 	bic.w	r3, r4, r4, asr #31
   8396a:	9514      	str	r5, [sp, #80]	; 0x50
   8396c:	e6ea      	b.n	83744 <_svfprintf_r+0x1114>
   8396e:	2400      	movs	r4, #0
   83970:	4681      	mov	r9, r0
   83972:	940a      	str	r4, [sp, #40]	; 0x28
   83974:	f7fe beba 	b.w	826ec <_svfprintf_r+0xbc>
   83978:	980d      	ldr	r0, [sp, #52]	; 0x34
   8397a:	990c      	ldr	r1, [sp, #48]	; 0x30
   8397c:	aa2b      	add	r2, sp, #172	; 0xac
   8397e:	f003 fdcd 	bl	8751c <__ssprint_r>
   83982:	2800      	cmp	r0, #0
   83984:	f47e af6c 	bne.w	82860 <_svfprintf_r+0x230>
   83988:	9c25      	ldr	r4, [sp, #148]	; 0x94
   8398a:	992d      	ldr	r1, [sp, #180]	; 0xb4
   8398c:	9b2c      	ldr	r3, [sp, #176]	; 0xb0
   8398e:	aa38      	add	r2, sp, #224	; 0xe0
   83990:	e616      	b.n	835c0 <_svfprintf_r+0xf90>
   83992:	9c14      	ldr	r4, [sp, #80]	; 0x50
   83994:	9d11      	ldr	r5, [sp, #68]	; 0x44
   83996:	2c00      	cmp	r4, #0
   83998:	bfd4      	ite	le
   8399a:	f1c4 0402 	rsble	r4, r4, #2
   8399e:	2401      	movgt	r4, #1
   839a0:	442c      	add	r4, r5
   839a2:	ea24 73e4 	bic.w	r3, r4, r4, asr #31
   839a6:	f04f 0867 	mov.w	r8, #103	; 0x67
   839aa:	e6cb      	b.n	83744 <_svfprintf_r+0x1114>
   839ac:	9917      	ldr	r1, [sp, #92]	; 0x5c
   839ae:	9816      	ldr	r0, [sp, #88]	; 0x58
   839b0:	f101 4100 	add.w	r1, r1, #2147483648	; 0x80000000
   839b4:	9020      	str	r0, [sp, #128]	; 0x80
   839b6:	9121      	str	r1, [sp, #132]	; 0x84
   839b8:	f04f 0b2d 	mov.w	fp, #45	; 0x2d
   839bc:	e660      	b.n	83680 <_svfprintf_r+0x1050>
   839be:	9d0a      	ldr	r5, [sp, #40]	; 0x28
   839c0:	2003      	movs	r0, #3
   839c2:	a925      	add	r1, sp, #148	; 0x94
   839c4:	aa26      	add	r2, sp, #152	; 0x98
   839c6:	ab29      	add	r3, sp, #164	; 0xa4
   839c8:	9501      	str	r5, [sp, #4]
   839ca:	9000      	str	r0, [sp, #0]
   839cc:	9203      	str	r2, [sp, #12]
   839ce:	9304      	str	r3, [sp, #16]
   839d0:	9102      	str	r1, [sp, #8]
   839d2:	980d      	ldr	r0, [sp, #52]	; 0x34
   839d4:	e9dd 2320 	ldrd	r2, r3, [sp, #128]	; 0x80
   839d8:	f001 f84a 	bl	84a70 <_dtoa_r>
   839dc:	9d0a      	ldr	r5, [sp, #40]	; 0x28
   839de:	4607      	mov	r7, r0
   839e0:	e677      	b.n	836d2 <_svfprintf_r+0x10a2>
   839e2:	9c0a      	ldr	r4, [sp, #40]	; 0x28
   839e4:	2003      	movs	r0, #3
   839e6:	a925      	add	r1, sp, #148	; 0x94
   839e8:	aa26      	add	r2, sp, #152	; 0x98
   839ea:	ab29      	add	r3, sp, #164	; 0xa4
   839ec:	9401      	str	r4, [sp, #4]
   839ee:	e7ec      	b.n	839ca <_svfprintf_r+0x139a>
   839f0:	9d25      	ldr	r5, [sp, #148]	; 0x94
   839f2:	9c0a      	ldr	r4, [sp, #40]	; 0x28
   839f4:	2d00      	cmp	r5, #0
   839f6:	9514      	str	r5, [sp, #80]	; 0x50
   839f8:	dd63      	ble.n	83ac2 <_svfprintf_r+0x1492>
   839fa:	bbb4      	cbnz	r4, 83a6a <_svfprintf_r+0x143a>
   839fc:	9d09      	ldr	r5, [sp, #36]	; 0x24
   839fe:	07e8      	lsls	r0, r5, #31
   83a00:	d433      	bmi.n	83a6a <_svfprintf_r+0x143a>
   83a02:	9c14      	ldr	r4, [sp, #80]	; 0x50
   83a04:	ea24 73e4 	bic.w	r3, r4, r4, asr #31
   83a08:	e69c      	b.n	83744 <_svfprintf_r+0x1114>
   83a0a:	9b29      	ldr	r3, [sp, #164]	; 0xa4
   83a0c:	e67a      	b.n	83704 <_svfprintf_r+0x10d4>
   83a0e:	f10d 02aa 	add.w	r2, sp, #170	; 0xaa
   83a12:	4d3e      	ldr	r5, [pc, #248]	; (83b0c <_svfprintf_r+0x14dc>)
   83a14:	17cb      	asrs	r3, r1, #31
   83a16:	fb85 5001 	smull	r5, r0, r5, r1
   83a1a:	ebc3 00a0 	rsb	r0, r3, r0, asr #2
   83a1e:	eb00 0380 	add.w	r3, r0, r0, lsl #2
   83a22:	eba1 0143 	sub.w	r1, r1, r3, lsl #1
   83a26:	2809      	cmp	r0, #9
   83a28:	4613      	mov	r3, r2
   83a2a:	f101 0230 	add.w	r2, r1, #48	; 0x30
   83a2e:	701a      	strb	r2, [r3, #0]
   83a30:	4601      	mov	r1, r0
   83a32:	f103 32ff 	add.w	r2, r3, #4294967295
   83a36:	dcec      	bgt.n	83a12 <_svfprintf_r+0x13e2>
   83a38:	f100 0130 	add.w	r1, r0, #48	; 0x30
   83a3c:	f10d 04ab 	add.w	r4, sp, #171	; 0xab
   83a40:	b2c9      	uxtb	r1, r1
   83a42:	4294      	cmp	r4, r2
   83a44:	f803 1c01 	strb.w	r1, [r3, #-1]
   83a48:	d95a      	bls.n	83b00 <_svfprintf_r+0x14d0>
   83a4a:	f10d 009d 	add.w	r0, sp, #157	; 0x9d
   83a4e:	461a      	mov	r2, r3
   83a50:	e001      	b.n	83a56 <_svfprintf_r+0x1426>
   83a52:	f812 1b01 	ldrb.w	r1, [r2], #1
   83a56:	42a2      	cmp	r2, r4
   83a58:	f800 1f01 	strb.w	r1, [r0, #1]!
   83a5c:	d1f9      	bne.n	83a52 <_svfprintf_r+0x1422>
   83a5e:	f50d 7c90 	add.w	ip, sp, #288	; 0x120
   83a62:	ebc3 034c 	rsb	r3, r3, ip, lsl #1
   83a66:	3bf6      	subs	r3, #246	; 0xf6
   83a68:	e772      	b.n	83950 <_svfprintf_r+0x1320>
   83a6a:	9d0a      	ldr	r5, [sp, #40]	; 0x28
   83a6c:	1c6c      	adds	r4, r5, #1
   83a6e:	9d14      	ldr	r5, [sp, #80]	; 0x50
   83a70:	442c      	add	r4, r5
   83a72:	ea24 73e4 	bic.w	r3, r4, r4, asr #31
   83a76:	e665      	b.n	83744 <_svfprintf_r+0x1114>
   83a78:	e9dd 0120 	ldrd	r0, r1, [sp, #128]	; 0x80
   83a7c:	2200      	movs	r2, #0
   83a7e:	2300      	movs	r3, #0
   83a80:	f7fe fcca 	bl	82418 <__aeabi_dcmpeq>
   83a84:	2800      	cmp	r0, #0
   83a86:	f47f af4a 	bne.w	8391e <_svfprintf_r+0x12ee>
   83a8a:	f1c5 0501 	rsb	r5, r5, #1
   83a8e:	9525      	str	r5, [sp, #148]	; 0x94
   83a90:	442c      	add	r4, r5
   83a92:	e624      	b.n	836de <_svfprintf_r+0x10ae>
   83a94:	9d14      	ldr	r5, [sp, #80]	; 0x50
   83a96:	f04f 0867 	mov.w	r8, #103	; 0x67
   83a9a:	1c6c      	adds	r4, r5, #1
   83a9c:	ea24 73e4 	bic.w	r3, r4, r4, asr #31
   83aa0:	e650      	b.n	83744 <_svfprintf_r+0x1114>
   83aa2:	9d10      	ldr	r5, [sp, #64]	; 0x40
   83aa4:	f8dd c040 	ldr.w	ip, [sp, #64]	; 0x40
   83aa8:	682d      	ldr	r5, [r5, #0]
   83aaa:	f10c 0304 	add.w	r3, ip, #4
   83aae:	2d00      	cmp	r5, #0
   83ab0:	f899 8001 	ldrb.w	r8, [r9, #1]
   83ab4:	950a      	str	r5, [sp, #40]	; 0x28
   83ab6:	9310      	str	r3, [sp, #64]	; 0x40
   83ab8:	4681      	mov	r9, r0
   83aba:	f6be ae15 	bge.w	826e8 <_svfprintf_r+0xb8>
   83abe:	f7fe be10 	b.w	826e2 <_svfprintf_r+0xb2>
   83ac2:	b97c      	cbnz	r4, 83ae4 <_svfprintf_r+0x14b4>
   83ac4:	9d09      	ldr	r5, [sp, #36]	; 0x24
   83ac6:	07e9      	lsls	r1, r5, #31
   83ac8:	d40c      	bmi.n	83ae4 <_svfprintf_r+0x14b4>
   83aca:	2301      	movs	r3, #1
   83acc:	461c      	mov	r4, r3
   83ace:	e639      	b.n	83744 <_svfprintf_r+0x1114>
   83ad0:	f8dd c024 	ldr.w	ip, [sp, #36]	; 0x24
   83ad4:	f01c 0301 	ands.w	r3, ip, #1
   83ad8:	f47f af43 	bne.w	83962 <_svfprintf_r+0x1332>
   83adc:	9314      	str	r3, [sp, #80]	; 0x50
   83ade:	ea24 73e4 	bic.w	r3, r4, r4, asr #31
   83ae2:	e62f      	b.n	83744 <_svfprintf_r+0x1114>
   83ae4:	9d0a      	ldr	r5, [sp, #40]	; 0x28
   83ae6:	1cac      	adds	r4, r5, #2
   83ae8:	ea24 73e4 	bic.w	r3, r4, r4, asr #31
   83aec:	e62a      	b.n	83744 <_svfprintf_r+0x1114>
   83aee:	9d0d      	ldr	r5, [sp, #52]	; 0x34
   83af0:	230c      	movs	r3, #12
   83af2:	602b      	str	r3, [r5, #0]
   83af4:	f04f 30ff 	mov.w	r0, #4294967295
   83af8:	f7fe beba 	b.w	82870 <_svfprintf_r+0x240>
   83afc:	9b25      	ldr	r3, [sp, #148]	; 0x94
   83afe:	e713      	b.n	83928 <_svfprintf_r+0x12f8>
   83b00:	f10d 039e 	add.w	r3, sp, #158	; 0x9e
   83b04:	e724      	b.n	83950 <_svfprintf_r+0x1320>
   83b06:	bf00      	nop
   83b08:	0008800c 	.word	0x0008800c
   83b0c:	66666667 	.word	0x66666667

00083b10 <__sprint_r.part.0>:
   83b10:	6e4b      	ldr	r3, [r1, #100]	; 0x64
   83b12:	e92d 47f0 	stmdb	sp!, {r4, r5, r6, r7, r8, r9, sl, lr}
   83b16:	049c      	lsls	r4, r3, #18
   83b18:	460e      	mov	r6, r1
   83b1a:	4680      	mov	r8, r0
   83b1c:	4691      	mov	r9, r2
   83b1e:	d52a      	bpl.n	83b76 <__sprint_r.part.0+0x66>
   83b20:	6893      	ldr	r3, [r2, #8]
   83b22:	6812      	ldr	r2, [r2, #0]
   83b24:	f102 0a08 	add.w	sl, r2, #8
   83b28:	b31b      	cbz	r3, 83b72 <__sprint_r.part.0+0x62>
   83b2a:	e91a 00a0 	ldmdb	sl, {r5, r7}
   83b2e:	08bf      	lsrs	r7, r7, #2
   83b30:	d017      	beq.n	83b62 <__sprint_r.part.0+0x52>
   83b32:	3d04      	subs	r5, #4
   83b34:	2400      	movs	r4, #0
   83b36:	e001      	b.n	83b3c <__sprint_r.part.0+0x2c>
   83b38:	42a7      	cmp	r7, r4
   83b3a:	d010      	beq.n	83b5e <__sprint_r.part.0+0x4e>
   83b3c:	4640      	mov	r0, r8
   83b3e:	f855 1f04 	ldr.w	r1, [r5, #4]!
   83b42:	4632      	mov	r2, r6
   83b44:	f002 f806 	bl	85b54 <_fputwc_r>
   83b48:	1c43      	adds	r3, r0, #1
   83b4a:	f104 0401 	add.w	r4, r4, #1
   83b4e:	d1f3      	bne.n	83b38 <__sprint_r.part.0+0x28>
   83b50:	2300      	movs	r3, #0
   83b52:	f8c9 3008 	str.w	r3, [r9, #8]
   83b56:	f8c9 3004 	str.w	r3, [r9, #4]
   83b5a:	e8bd 87f0 	ldmia.w	sp!, {r4, r5, r6, r7, r8, r9, sl, pc}
   83b5e:	f8d9 3008 	ldr.w	r3, [r9, #8]
   83b62:	eba3 0387 	sub.w	r3, r3, r7, lsl #2
   83b66:	f8c9 3008 	str.w	r3, [r9, #8]
   83b6a:	f10a 0a08 	add.w	sl, sl, #8
   83b6e:	2b00      	cmp	r3, #0
   83b70:	d1db      	bne.n	83b2a <__sprint_r.part.0+0x1a>
   83b72:	2000      	movs	r0, #0
   83b74:	e7ec      	b.n	83b50 <__sprint_r.part.0+0x40>
   83b76:	f002 f967 	bl	85e48 <__sfvwrite_r>
   83b7a:	2300      	movs	r3, #0
   83b7c:	f8c9 3008 	str.w	r3, [r9, #8]
   83b80:	f8c9 3004 	str.w	r3, [r9, #4]
   83b84:	e8bd 87f0 	ldmia.w	sp!, {r4, r5, r6, r7, r8, r9, sl, pc}

00083b88 <_vfiprintf_r>:
   83b88:	e92d 4ff0 	stmdb	sp!, {r4, r5, r6, r7, r8, r9, sl, fp, lr}
   83b8c:	b0b1      	sub	sp, #196	; 0xc4
   83b8e:	461c      	mov	r4, r3
   83b90:	9102      	str	r1, [sp, #8]
   83b92:	4690      	mov	r8, r2
   83b94:	9308      	str	r3, [sp, #32]
   83b96:	9006      	str	r0, [sp, #24]
   83b98:	b118      	cbz	r0, 83ba2 <_vfiprintf_r+0x1a>
   83b9a:	6b83      	ldr	r3, [r0, #56]	; 0x38
   83b9c:	2b00      	cmp	r3, #0
   83b9e:	f000 80e8 	beq.w	83d72 <_vfiprintf_r+0x1ea>
   83ba2:	9d02      	ldr	r5, [sp, #8]
   83ba4:	89ab      	ldrh	r3, [r5, #12]
   83ba6:	b29a      	uxth	r2, r3
   83ba8:	0490      	lsls	r0, r2, #18
   83baa:	d407      	bmi.n	83bbc <_vfiprintf_r+0x34>
   83bac:	6e6a      	ldr	r2, [r5, #100]	; 0x64
   83bae:	f443 5300 	orr.w	r3, r3, #8192	; 0x2000
   83bb2:	f422 5100 	bic.w	r1, r2, #8192	; 0x2000
   83bb6:	81ab      	strh	r3, [r5, #12]
   83bb8:	b29a      	uxth	r2, r3
   83bba:	6669      	str	r1, [r5, #100]	; 0x64
   83bbc:	0711      	lsls	r1, r2, #28
   83bbe:	f140 80b7 	bpl.w	83d30 <_vfiprintf_r+0x1a8>
   83bc2:	f8dd b008 	ldr.w	fp, [sp, #8]
   83bc6:	f8db 3010 	ldr.w	r3, [fp, #16]
   83bca:	2b00      	cmp	r3, #0
   83bcc:	f000 80b0 	beq.w	83d30 <_vfiprintf_r+0x1a8>
   83bd0:	f002 021a 	and.w	r2, r2, #26
   83bd4:	2a0a      	cmp	r2, #10
   83bd6:	f000 80b7 	beq.w	83d48 <_vfiprintf_r+0x1c0>
   83bda:	2300      	movs	r3, #0
   83bdc:	f10d 0980 	add.w	r9, sp, #128	; 0x80
   83be0:	930a      	str	r3, [sp, #40]	; 0x28
   83be2:	9315      	str	r3, [sp, #84]	; 0x54
   83be4:	9314      	str	r3, [sp, #80]	; 0x50
   83be6:	9309      	str	r3, [sp, #36]	; 0x24
   83be8:	f8cd 904c 	str.w	r9, [sp, #76]	; 0x4c
   83bec:	464e      	mov	r6, r9
   83bee:	f898 3000 	ldrb.w	r3, [r8]
   83bf2:	2b00      	cmp	r3, #0
   83bf4:	f000 84c8 	beq.w	84588 <_vfiprintf_r+0xa00>
   83bf8:	2b25      	cmp	r3, #37	; 0x25
   83bfa:	f000 84c5 	beq.w	84588 <_vfiprintf_r+0xa00>
   83bfe:	f108 0201 	add.w	r2, r8, #1
   83c02:	e001      	b.n	83c08 <_vfiprintf_r+0x80>
   83c04:	2b25      	cmp	r3, #37	; 0x25
   83c06:	d004      	beq.n	83c12 <_vfiprintf_r+0x8a>
   83c08:	7813      	ldrb	r3, [r2, #0]
   83c0a:	4614      	mov	r4, r2
   83c0c:	3201      	adds	r2, #1
   83c0e:	2b00      	cmp	r3, #0
   83c10:	d1f8      	bne.n	83c04 <_vfiprintf_r+0x7c>
   83c12:	ebc8 0504 	rsb	r5, r8, r4
   83c16:	b195      	cbz	r5, 83c3e <_vfiprintf_r+0xb6>
   83c18:	9b14      	ldr	r3, [sp, #80]	; 0x50
   83c1a:	9a15      	ldr	r2, [sp, #84]	; 0x54
   83c1c:	3301      	adds	r3, #1
   83c1e:	442a      	add	r2, r5
   83c20:	2b07      	cmp	r3, #7
   83c22:	f8c6 8000 	str.w	r8, [r6]
   83c26:	6075      	str	r5, [r6, #4]
   83c28:	9215      	str	r2, [sp, #84]	; 0x54
   83c2a:	9314      	str	r3, [sp, #80]	; 0x50
   83c2c:	dd7b      	ble.n	83d26 <_vfiprintf_r+0x19e>
   83c2e:	2a00      	cmp	r2, #0
   83c30:	f040 84d5 	bne.w	845de <_vfiprintf_r+0xa56>
   83c34:	9809      	ldr	r0, [sp, #36]	; 0x24
   83c36:	9214      	str	r2, [sp, #80]	; 0x50
   83c38:	4428      	add	r0, r5
   83c3a:	464e      	mov	r6, r9
   83c3c:	9009      	str	r0, [sp, #36]	; 0x24
   83c3e:	7823      	ldrb	r3, [r4, #0]
   83c40:	2b00      	cmp	r3, #0
   83c42:	f000 83ed 	beq.w	84420 <_vfiprintf_r+0x898>
   83c46:	2100      	movs	r1, #0
   83c48:	f04f 0200 	mov.w	r2, #0
   83c4c:	f04f 3cff 	mov.w	ip, #4294967295
   83c50:	7863      	ldrb	r3, [r4, #1]
   83c52:	f88d 2047 	strb.w	r2, [sp, #71]	; 0x47
   83c56:	9104      	str	r1, [sp, #16]
   83c58:	468a      	mov	sl, r1
   83c5a:	f104 0801 	add.w	r8, r4, #1
   83c5e:	4608      	mov	r0, r1
   83c60:	4665      	mov	r5, ip
   83c62:	f108 0801 	add.w	r8, r8, #1
   83c66:	f1a3 0220 	sub.w	r2, r3, #32
   83c6a:	2a58      	cmp	r2, #88	; 0x58
   83c6c:	f200 82d9 	bhi.w	84222 <_vfiprintf_r+0x69a>
   83c70:	e8df f012 	tbh	[pc, r2, lsl #1]
   83c74:	02d702cb 	.word	0x02d702cb
   83c78:	02d202d7 	.word	0x02d202d7
   83c7c:	02d702d7 	.word	0x02d702d7
   83c80:	02d702d7 	.word	0x02d702d7
   83c84:	02d702d7 	.word	0x02d702d7
   83c88:	028f0282 	.word	0x028f0282
   83c8c:	008402d7 	.word	0x008402d7
   83c90:	02d70293 	.word	0x02d70293
   83c94:	0196012b 	.word	0x0196012b
   83c98:	01960196 	.word	0x01960196
   83c9c:	01960196 	.word	0x01960196
   83ca0:	01960196 	.word	0x01960196
   83ca4:	01960196 	.word	0x01960196
   83ca8:	02d702d7 	.word	0x02d702d7
   83cac:	02d702d7 	.word	0x02d702d7
   83cb0:	02d702d7 	.word	0x02d702d7
   83cb4:	02d702d7 	.word	0x02d702d7
   83cb8:	02d702d7 	.word	0x02d702d7
   83cbc:	02d70130 	.word	0x02d70130
   83cc0:	02d702d7 	.word	0x02d702d7
   83cc4:	02d702d7 	.word	0x02d702d7
   83cc8:	02d702d7 	.word	0x02d702d7
   83ccc:	02d702d7 	.word	0x02d702d7
   83cd0:	017b02d7 	.word	0x017b02d7
   83cd4:	02d702d7 	.word	0x02d702d7
   83cd8:	02d702d7 	.word	0x02d702d7
   83cdc:	01a402d7 	.word	0x01a402d7
   83ce0:	02d702d7 	.word	0x02d702d7
   83ce4:	02d701bf 	.word	0x02d701bf
   83ce8:	02d702d7 	.word	0x02d702d7
   83cec:	02d702d7 	.word	0x02d702d7
   83cf0:	02d702d7 	.word	0x02d702d7
   83cf4:	02d702d7 	.word	0x02d702d7
   83cf8:	01e402d7 	.word	0x01e402d7
   83cfc:	02d701fa 	.word	0x02d701fa
   83d00:	02d702d7 	.word	0x02d702d7
   83d04:	01fa0216 	.word	0x01fa0216
   83d08:	02d702d7 	.word	0x02d702d7
   83d0c:	02d7021b 	.word	0x02d7021b
   83d10:	00890228 	.word	0x00890228
   83d14:	027d0266 	.word	0x027d0266
   83d18:	023a02d7 	.word	0x023a02d7
   83d1c:	011902d7 	.word	0x011902d7
   83d20:	02d702d7 	.word	0x02d702d7
   83d24:	02af      	.short	0x02af
   83d26:	3608      	adds	r6, #8
   83d28:	9809      	ldr	r0, [sp, #36]	; 0x24
   83d2a:	4428      	add	r0, r5
   83d2c:	9009      	str	r0, [sp, #36]	; 0x24
   83d2e:	e786      	b.n	83c3e <_vfiprintf_r+0xb6>
   83d30:	9806      	ldr	r0, [sp, #24]
   83d32:	9902      	ldr	r1, [sp, #8]
   83d34:	f000 fd90 	bl	84858 <__swsetup_r>
   83d38:	b9b0      	cbnz	r0, 83d68 <_vfiprintf_r+0x1e0>
   83d3a:	9d02      	ldr	r5, [sp, #8]
   83d3c:	89aa      	ldrh	r2, [r5, #12]
   83d3e:	f002 021a 	and.w	r2, r2, #26
   83d42:	2a0a      	cmp	r2, #10
   83d44:	f47f af49 	bne.w	83bda <_vfiprintf_r+0x52>
   83d48:	f8dd b008 	ldr.w	fp, [sp, #8]
   83d4c:	f9bb 300e 	ldrsh.w	r3, [fp, #14]
   83d50:	2b00      	cmp	r3, #0
   83d52:	f6ff af42 	blt.w	83bda <_vfiprintf_r+0x52>
   83d56:	9806      	ldr	r0, [sp, #24]
   83d58:	4659      	mov	r1, fp
   83d5a:	4642      	mov	r2, r8
   83d5c:	4623      	mov	r3, r4
   83d5e:	f000 fd3d 	bl	847dc <__sbprintf>
   83d62:	b031      	add	sp, #196	; 0xc4
   83d64:	e8bd 8ff0 	ldmia.w	sp!, {r4, r5, r6, r7, r8, r9, sl, fp, pc}
   83d68:	f04f 30ff 	mov.w	r0, #4294967295
   83d6c:	b031      	add	sp, #196	; 0xc4
   83d6e:	e8bd 8ff0 	ldmia.w	sp!, {r4, r5, r6, r7, r8, r9, sl, fp, pc}
   83d72:	f001 fe59 	bl	85a28 <__sinit>
   83d76:	e714      	b.n	83ba2 <_vfiprintf_r+0x1a>
   83d78:	4240      	negs	r0, r0
   83d7a:	9308      	str	r3, [sp, #32]
   83d7c:	f04a 0a04 	orr.w	sl, sl, #4
   83d80:	f898 3000 	ldrb.w	r3, [r8]
   83d84:	e76d      	b.n	83c62 <_vfiprintf_r+0xda>
   83d86:	f01a 0320 	ands.w	r3, sl, #32
   83d8a:	9004      	str	r0, [sp, #16]
   83d8c:	46ac      	mov	ip, r5
   83d8e:	f000 80f4 	beq.w	83f7a <_vfiprintf_r+0x3f2>
   83d92:	f8dd b020 	ldr.w	fp, [sp, #32]
   83d96:	f10b 0307 	add.w	r3, fp, #7
   83d9a:	f023 0307 	bic.w	r3, r3, #7
   83d9e:	f103 0408 	add.w	r4, r3, #8
   83da2:	9408      	str	r4, [sp, #32]
   83da4:	e9d3 4500 	ldrd	r4, r5, [r3]
   83da8:	2300      	movs	r3, #0
   83daa:	f04f 0000 	mov.w	r0, #0
   83dae:	2100      	movs	r1, #0
   83db0:	f88d 0047 	strb.w	r0, [sp, #71]	; 0x47
   83db4:	f8cd c014 	str.w	ip, [sp, #20]
   83db8:	9107      	str	r1, [sp, #28]
   83dba:	f1bc 0f00 	cmp.w	ip, #0
   83dbe:	bfa8      	it	ge
   83dc0:	f02a 0a80 	bicge.w	sl, sl, #128	; 0x80
   83dc4:	ea54 0205 	orrs.w	r2, r4, r5
   83dc8:	f040 80ad 	bne.w	83f26 <_vfiprintf_r+0x39e>
   83dcc:	f1bc 0f00 	cmp.w	ip, #0
   83dd0:	f040 80a9 	bne.w	83f26 <_vfiprintf_r+0x39e>
   83dd4:	2b00      	cmp	r3, #0
   83dd6:	f040 83c0 	bne.w	8455a <_vfiprintf_r+0x9d2>
   83dda:	f01a 0f01 	tst.w	sl, #1
   83dde:	f000 83bc 	beq.w	8455a <_vfiprintf_r+0x9d2>
   83de2:	2330      	movs	r3, #48	; 0x30
   83de4:	af30      	add	r7, sp, #192	; 0xc0
   83de6:	f807 3d41 	strb.w	r3, [r7, #-65]!
   83dea:	ebc7 0409 	rsb	r4, r7, r9
   83dee:	9405      	str	r4, [sp, #20]
   83df0:	f8dd b014 	ldr.w	fp, [sp, #20]
   83df4:	9c07      	ldr	r4, [sp, #28]
   83df6:	45e3      	cmp	fp, ip
   83df8:	bfb8      	it	lt
   83dfa:	46e3      	movlt	fp, ip
   83dfc:	f8cd b00c 	str.w	fp, [sp, #12]
   83e00:	b11c      	cbz	r4, 83e0a <_vfiprintf_r+0x282>
   83e02:	f10b 0b01 	add.w	fp, fp, #1
   83e06:	f8cd b00c 	str.w	fp, [sp, #12]
   83e0a:	f01a 0502 	ands.w	r5, sl, #2
   83e0e:	9507      	str	r5, [sp, #28]
   83e10:	d005      	beq.n	83e1e <_vfiprintf_r+0x296>
   83e12:	f8dd b00c 	ldr.w	fp, [sp, #12]
   83e16:	f10b 0b02 	add.w	fp, fp, #2
   83e1a:	f8cd b00c 	str.w	fp, [sp, #12]
   83e1e:	f01a 0384 	ands.w	r3, sl, #132	; 0x84
   83e22:	930b      	str	r3, [sp, #44]	; 0x2c
   83e24:	f040 821b 	bne.w	8425e <_vfiprintf_r+0x6d6>
   83e28:	9d04      	ldr	r5, [sp, #16]
   83e2a:	f8dd b00c 	ldr.w	fp, [sp, #12]
   83e2e:	ebcb 0405 	rsb	r4, fp, r5
   83e32:	2c00      	cmp	r4, #0
   83e34:	f340 8213 	ble.w	8425e <_vfiprintf_r+0x6d6>
   83e38:	2c10      	cmp	r4, #16
   83e3a:	f340 8489 	ble.w	84750 <_vfiprintf_r+0xbc8>
   83e3e:	4dbe      	ldr	r5, [pc, #760]	; (84138 <_vfiprintf_r+0x5b0>)
   83e40:	9a15      	ldr	r2, [sp, #84]	; 0x54
   83e42:	462b      	mov	r3, r5
   83e44:	9814      	ldr	r0, [sp, #80]	; 0x50
   83e46:	4625      	mov	r5, r4
   83e48:	f04f 0b10 	mov.w	fp, #16
   83e4c:	4664      	mov	r4, ip
   83e4e:	46b4      	mov	ip, r6
   83e50:	461e      	mov	r6, r3
   83e52:	e006      	b.n	83e62 <_vfiprintf_r+0x2da>
   83e54:	1c83      	adds	r3, r0, #2
   83e56:	f10c 0c08 	add.w	ip, ip, #8
   83e5a:	4608      	mov	r0, r1
   83e5c:	3d10      	subs	r5, #16
   83e5e:	2d10      	cmp	r5, #16
   83e60:	dd11      	ble.n	83e86 <_vfiprintf_r+0x2fe>
   83e62:	1c41      	adds	r1, r0, #1
   83e64:	3210      	adds	r2, #16
   83e66:	2907      	cmp	r1, #7
   83e68:	9215      	str	r2, [sp, #84]	; 0x54
   83e6a:	e88c 0840 	stmia.w	ip, {r6, fp}
   83e6e:	9114      	str	r1, [sp, #80]	; 0x50
   83e70:	ddf0      	ble.n	83e54 <_vfiprintf_r+0x2cc>
   83e72:	2a00      	cmp	r2, #0
   83e74:	f040 81e6 	bne.w	84244 <_vfiprintf_r+0x6bc>
   83e78:	3d10      	subs	r5, #16
   83e7a:	2d10      	cmp	r5, #16
   83e7c:	f04f 0301 	mov.w	r3, #1
   83e80:	4610      	mov	r0, r2
   83e82:	46cc      	mov	ip, r9
   83e84:	dced      	bgt.n	83e62 <_vfiprintf_r+0x2da>
   83e86:	4631      	mov	r1, r6
   83e88:	4666      	mov	r6, ip
   83e8a:	46a4      	mov	ip, r4
   83e8c:	462c      	mov	r4, r5
   83e8e:	460d      	mov	r5, r1
   83e90:	4422      	add	r2, r4
   83e92:	2b07      	cmp	r3, #7
   83e94:	9215      	str	r2, [sp, #84]	; 0x54
   83e96:	6035      	str	r5, [r6, #0]
   83e98:	6074      	str	r4, [r6, #4]
   83e9a:	9314      	str	r3, [sp, #80]	; 0x50
   83e9c:	f300 836d 	bgt.w	8457a <_vfiprintf_r+0x9f2>
   83ea0:	3608      	adds	r6, #8
   83ea2:	1c59      	adds	r1, r3, #1
   83ea4:	e1de      	b.n	84264 <_vfiprintf_r+0x6dc>
   83ea6:	f01a 0f20 	tst.w	sl, #32
   83eaa:	9004      	str	r0, [sp, #16]
   83eac:	46ac      	mov	ip, r5
   83eae:	f000 808d 	beq.w	83fcc <_vfiprintf_r+0x444>
   83eb2:	9d08      	ldr	r5, [sp, #32]
   83eb4:	1deb      	adds	r3, r5, #7
   83eb6:	f023 0307 	bic.w	r3, r3, #7
   83eba:	f103 0b08 	add.w	fp, r3, #8
   83ebe:	e9d3 4500 	ldrd	r4, r5, [r3]
   83ec2:	f8cd b020 	str.w	fp, [sp, #32]
   83ec6:	2301      	movs	r3, #1
   83ec8:	e76f      	b.n	83daa <_vfiprintf_r+0x222>
   83eca:	f04a 0a80 	orr.w	sl, sl, #128	; 0x80
   83ece:	f898 3000 	ldrb.w	r3, [r8]
   83ed2:	e6c6      	b.n	83c62 <_vfiprintf_r+0xda>
   83ed4:	f04a 0a10 	orr.w	sl, sl, #16
   83ed8:	f01a 0f20 	tst.w	sl, #32
   83edc:	9004      	str	r0, [sp, #16]
   83ede:	46ac      	mov	ip, r5
   83ee0:	f88d 1047 	strb.w	r1, [sp, #71]	; 0x47
   83ee4:	f000 80c8 	beq.w	84078 <_vfiprintf_r+0x4f0>
   83ee8:	9c08      	ldr	r4, [sp, #32]
   83eea:	1de1      	adds	r1, r4, #7
   83eec:	f021 0107 	bic.w	r1, r1, #7
   83ef0:	e9d1 2300 	ldrd	r2, r3, [r1]
   83ef4:	3108      	adds	r1, #8
   83ef6:	9108      	str	r1, [sp, #32]
   83ef8:	4614      	mov	r4, r2
   83efa:	461d      	mov	r5, r3
   83efc:	2a00      	cmp	r2, #0
   83efe:	f173 0b00 	sbcs.w	fp, r3, #0
   83f02:	f2c0 83ce 	blt.w	846a2 <_vfiprintf_r+0xb1a>
   83f06:	f1bc 0f00 	cmp.w	ip, #0
   83f0a:	f89d 0047 	ldrb.w	r0, [sp, #71]	; 0x47
   83f0e:	bfa8      	it	ge
   83f10:	f02a 0a80 	bicge.w	sl, sl, #128	; 0x80
   83f14:	ea54 0205 	orrs.w	r2, r4, r5
   83f18:	9007      	str	r0, [sp, #28]
   83f1a:	f8cd c014 	str.w	ip, [sp, #20]
   83f1e:	f04f 0301 	mov.w	r3, #1
   83f22:	f43f af53 	beq.w	83dcc <_vfiprintf_r+0x244>
   83f26:	2b01      	cmp	r3, #1
   83f28:	f000 8319 	beq.w	8455e <_vfiprintf_r+0x9d6>
   83f2c:	2b02      	cmp	r3, #2
   83f2e:	f10d 037f 	add.w	r3, sp, #127	; 0x7f
   83f32:	f040 824c 	bne.w	843ce <_vfiprintf_r+0x846>
   83f36:	f8dd b028 	ldr.w	fp, [sp, #40]	; 0x28
   83f3a:	4619      	mov	r1, r3
   83f3c:	f004 000f 	and.w	r0, r4, #15
   83f40:	0922      	lsrs	r2, r4, #4
   83f42:	f81b 0000 	ldrb.w	r0, [fp, r0]
   83f46:	ea42 7205 	orr.w	r2, r2, r5, lsl #28
   83f4a:	092b      	lsrs	r3, r5, #4
   83f4c:	7008      	strb	r0, [r1, #0]
   83f4e:	ea52 0003 	orrs.w	r0, r2, r3
   83f52:	460f      	mov	r7, r1
   83f54:	4614      	mov	r4, r2
   83f56:	461d      	mov	r5, r3
   83f58:	f101 31ff 	add.w	r1, r1, #4294967295
   83f5c:	d1ee      	bne.n	83f3c <_vfiprintf_r+0x3b4>
   83f5e:	e9cd 230e 	strd	r2, r3, [sp, #56]	; 0x38
   83f62:	ebc7 0309 	rsb	r3, r7, r9
   83f66:	9305      	str	r3, [sp, #20]
   83f68:	e742      	b.n	83df0 <_vfiprintf_r+0x268>
   83f6a:	f04a 0a10 	orr.w	sl, sl, #16
   83f6e:	f01a 0320 	ands.w	r3, sl, #32
   83f72:	9004      	str	r0, [sp, #16]
   83f74:	46ac      	mov	ip, r5
   83f76:	f47f af0c 	bne.w	83d92 <_vfiprintf_r+0x20a>
   83f7a:	f01a 0210 	ands.w	r2, sl, #16
   83f7e:	f040 8311 	bne.w	845a4 <_vfiprintf_r+0xa1c>
   83f82:	f01a 0340 	ands.w	r3, sl, #64	; 0x40
   83f86:	f000 830d 	beq.w	845a4 <_vfiprintf_r+0xa1c>
   83f8a:	f8dd b020 	ldr.w	fp, [sp, #32]
   83f8e:	4613      	mov	r3, r2
   83f90:	f8bb 4000 	ldrh.w	r4, [fp]
   83f94:	f10b 0b04 	add.w	fp, fp, #4
   83f98:	2500      	movs	r5, #0
   83f9a:	f8cd b020 	str.w	fp, [sp, #32]
   83f9e:	e704      	b.n	83daa <_vfiprintf_r+0x222>
   83fa0:	f1a3 0230 	sub.w	r2, r3, #48	; 0x30
   83fa4:	2000      	movs	r0, #0
   83fa6:	f818 3b01 	ldrb.w	r3, [r8], #1
   83faa:	eb00 0080 	add.w	r0, r0, r0, lsl #2
   83fae:	eb02 0040 	add.w	r0, r2, r0, lsl #1
   83fb2:	f1a3 0230 	sub.w	r2, r3, #48	; 0x30
   83fb6:	2a09      	cmp	r2, #9
   83fb8:	d9f5      	bls.n	83fa6 <_vfiprintf_r+0x41e>
   83fba:	e654      	b.n	83c66 <_vfiprintf_r+0xde>
   83fbc:	f04a 0a10 	orr.w	sl, sl, #16
   83fc0:	f01a 0f20 	tst.w	sl, #32
   83fc4:	9004      	str	r0, [sp, #16]
   83fc6:	46ac      	mov	ip, r5
   83fc8:	f47f af73 	bne.w	83eb2 <_vfiprintf_r+0x32a>
   83fcc:	f01a 0f10 	tst.w	sl, #16
   83fd0:	f040 82ef 	bne.w	845b2 <_vfiprintf_r+0xa2a>
   83fd4:	f01a 0f40 	tst.w	sl, #64	; 0x40
   83fd8:	f000 82eb 	beq.w	845b2 <_vfiprintf_r+0xa2a>
   83fdc:	f8dd b020 	ldr.w	fp, [sp, #32]
   83fe0:	2500      	movs	r5, #0
   83fe2:	f8bb 4000 	ldrh.w	r4, [fp]
   83fe6:	f10b 0b04 	add.w	fp, fp, #4
   83fea:	2301      	movs	r3, #1
   83fec:	f8cd b020 	str.w	fp, [sp, #32]
   83ff0:	e6db      	b.n	83daa <_vfiprintf_r+0x222>
   83ff2:	46ac      	mov	ip, r5
   83ff4:	4d51      	ldr	r5, [pc, #324]	; (8413c <_vfiprintf_r+0x5b4>)
   83ff6:	f01a 0f20 	tst.w	sl, #32
   83ffa:	9004      	str	r0, [sp, #16]
   83ffc:	f88d 1047 	strb.w	r1, [sp, #71]	; 0x47
   84000:	950a      	str	r5, [sp, #40]	; 0x28
   84002:	f000 80f0 	beq.w	841e6 <_vfiprintf_r+0x65e>
   84006:	9d08      	ldr	r5, [sp, #32]
   84008:	1dea      	adds	r2, r5, #7
   8400a:	f022 0207 	bic.w	r2, r2, #7
   8400e:	f102 0b08 	add.w	fp, r2, #8
   84012:	f8cd b020 	str.w	fp, [sp, #32]
   84016:	e9d2 4500 	ldrd	r4, r5, [r2]
   8401a:	f01a 0f01 	tst.w	sl, #1
   8401e:	f000 82aa 	beq.w	84576 <_vfiprintf_r+0x9ee>
   84022:	ea54 0b05 	orrs.w	fp, r4, r5
   84026:	f000 82a6 	beq.w	84576 <_vfiprintf_r+0x9ee>
   8402a:	2230      	movs	r2, #48	; 0x30
   8402c:	f88d 3049 	strb.w	r3, [sp, #73]	; 0x49
   84030:	f04a 0a02 	orr.w	sl, sl, #2
   84034:	f88d 2048 	strb.w	r2, [sp, #72]	; 0x48
   84038:	2302      	movs	r3, #2
   8403a:	e6b6      	b.n	83daa <_vfiprintf_r+0x222>
   8403c:	9b08      	ldr	r3, [sp, #32]
   8403e:	f8dd b020 	ldr.w	fp, [sp, #32]
   84042:	681b      	ldr	r3, [r3, #0]
   84044:	2401      	movs	r4, #1
   84046:	f04f 0500 	mov.w	r5, #0
   8404a:	f10b 0b04 	add.w	fp, fp, #4
   8404e:	9004      	str	r0, [sp, #16]
   84050:	9403      	str	r4, [sp, #12]
   84052:	f88d 5047 	strb.w	r5, [sp, #71]	; 0x47
   84056:	f88d 3058 	strb.w	r3, [sp, #88]	; 0x58
   8405a:	f8cd b020 	str.w	fp, [sp, #32]
   8405e:	9405      	str	r4, [sp, #20]
   84060:	af16      	add	r7, sp, #88	; 0x58
   84062:	f04f 0c00 	mov.w	ip, #0
   84066:	e6d0      	b.n	83e0a <_vfiprintf_r+0x282>
   84068:	f01a 0f20 	tst.w	sl, #32
   8406c:	9004      	str	r0, [sp, #16]
   8406e:	46ac      	mov	ip, r5
   84070:	f88d 1047 	strb.w	r1, [sp, #71]	; 0x47
   84074:	f47f af38 	bne.w	83ee8 <_vfiprintf_r+0x360>
   84078:	f01a 0f10 	tst.w	sl, #16
   8407c:	f040 82a7 	bne.w	845ce <_vfiprintf_r+0xa46>
   84080:	f01a 0f40 	tst.w	sl, #64	; 0x40
   84084:	f000 82a3 	beq.w	845ce <_vfiprintf_r+0xa46>
   84088:	f8dd b020 	ldr.w	fp, [sp, #32]
   8408c:	f9bb 4000 	ldrsh.w	r4, [fp]
   84090:	f10b 0b04 	add.w	fp, fp, #4
   84094:	17e5      	asrs	r5, r4, #31
   84096:	4622      	mov	r2, r4
   84098:	462b      	mov	r3, r5
   8409a:	f8cd b020 	str.w	fp, [sp, #32]
   8409e:	e72d      	b.n	83efc <_vfiprintf_r+0x374>
   840a0:	f04a 0a40 	orr.w	sl, sl, #64	; 0x40
   840a4:	f898 3000 	ldrb.w	r3, [r8]
   840a8:	e5db      	b.n	83c62 <_vfiprintf_r+0xda>
   840aa:	f898 3000 	ldrb.w	r3, [r8]
   840ae:	4642      	mov	r2, r8
   840b0:	2b6c      	cmp	r3, #108	; 0x6c
   840b2:	bf03      	ittte	eq
   840b4:	f108 0801 	addeq.w	r8, r8, #1
   840b8:	f04a 0a20 	orreq.w	sl, sl, #32
   840bc:	7853      	ldrbeq	r3, [r2, #1]
   840be:	f04a 0a10 	orrne.w	sl, sl, #16
   840c2:	e5ce      	b.n	83c62 <_vfiprintf_r+0xda>
   840c4:	f01a 0f20 	tst.w	sl, #32
   840c8:	f88d 1047 	strb.w	r1, [sp, #71]	; 0x47
   840cc:	f000 82f7 	beq.w	846be <_vfiprintf_r+0xb36>
   840d0:	9c08      	ldr	r4, [sp, #32]
   840d2:	6821      	ldr	r1, [r4, #0]
   840d4:	9c09      	ldr	r4, [sp, #36]	; 0x24
   840d6:	17e5      	asrs	r5, r4, #31
   840d8:	462b      	mov	r3, r5
   840da:	9d08      	ldr	r5, [sp, #32]
   840dc:	4622      	mov	r2, r4
   840de:	3504      	adds	r5, #4
   840e0:	9508      	str	r5, [sp, #32]
   840e2:	e9c1 2300 	strd	r2, r3, [r1]
   840e6:	e582      	b.n	83bee <_vfiprintf_r+0x66>
   840e8:	9c08      	ldr	r4, [sp, #32]
   840ea:	46ac      	mov	ip, r5
   840ec:	6827      	ldr	r7, [r4, #0]
   840ee:	f04f 0500 	mov.w	r5, #0
   840f2:	9004      	str	r0, [sp, #16]
   840f4:	f88d 5047 	strb.w	r5, [sp, #71]	; 0x47
   840f8:	3404      	adds	r4, #4
   840fa:	2f00      	cmp	r7, #0
   840fc:	f000 8332 	beq.w	84764 <_vfiprintf_r+0xbdc>
   84100:	f1bc 0f00 	cmp.w	ip, #0
   84104:	4638      	mov	r0, r7
   84106:	f2c0 8307 	blt.w	84718 <_vfiprintf_r+0xb90>
   8410a:	4662      	mov	r2, ip
   8410c:	2100      	movs	r1, #0
   8410e:	f8cd c004 	str.w	ip, [sp, #4]
   84112:	f002 fb6b 	bl	867ec <memchr>
   84116:	f8dd c004 	ldr.w	ip, [sp, #4]
   8411a:	2800      	cmp	r0, #0
   8411c:	f000 833a 	beq.w	84794 <_vfiprintf_r+0xc0c>
   84120:	1bc0      	subs	r0, r0, r7
   84122:	f89d 5047 	ldrb.w	r5, [sp, #71]	; 0x47
   84126:	4560      	cmp	r0, ip
   84128:	bfa8      	it	ge
   8412a:	4660      	movge	r0, ip
   8412c:	9005      	str	r0, [sp, #20]
   8412e:	9408      	str	r4, [sp, #32]
   84130:	9507      	str	r5, [sp, #28]
   84132:	f04f 0c00 	mov.w	ip, #0
   84136:	e65b      	b.n	83df0 <_vfiprintf_r+0x268>
   84138:	00088038 	.word	0x00088038
   8413c:	00087fe4 	.word	0x00087fe4
   84140:	9b08      	ldr	r3, [sp, #32]
   84142:	f8dd b020 	ldr.w	fp, [sp, #32]
   84146:	9004      	str	r0, [sp, #16]
   84148:	48b2      	ldr	r0, [pc, #712]	; (84414 <_vfiprintf_r+0x88c>)
   8414a:	681c      	ldr	r4, [r3, #0]
   8414c:	2230      	movs	r2, #48	; 0x30
   8414e:	2378      	movs	r3, #120	; 0x78
   84150:	f10b 0b04 	add.w	fp, fp, #4
   84154:	46ac      	mov	ip, r5
   84156:	f88d 3049 	strb.w	r3, [sp, #73]	; 0x49
   8415a:	f04a 0a02 	orr.w	sl, sl, #2
   8415e:	f8cd b020 	str.w	fp, [sp, #32]
   84162:	2500      	movs	r5, #0
   84164:	f88d 2048 	strb.w	r2, [sp, #72]	; 0x48
   84168:	900a      	str	r0, [sp, #40]	; 0x28
   8416a:	2302      	movs	r3, #2
   8416c:	e61d      	b.n	83daa <_vfiprintf_r+0x222>
   8416e:	f04a 0a20 	orr.w	sl, sl, #32
   84172:	f898 3000 	ldrb.w	r3, [r8]
   84176:	e574      	b.n	83c62 <_vfiprintf_r+0xda>
   84178:	f8dd b020 	ldr.w	fp, [sp, #32]
   8417c:	f8db 0000 	ldr.w	r0, [fp]
   84180:	f10b 0304 	add.w	r3, fp, #4
   84184:	2800      	cmp	r0, #0
   84186:	f6ff adf7 	blt.w	83d78 <_vfiprintf_r+0x1f0>
   8418a:	9308      	str	r3, [sp, #32]
   8418c:	f898 3000 	ldrb.w	r3, [r8]
   84190:	e567      	b.n	83c62 <_vfiprintf_r+0xda>
   84192:	f898 3000 	ldrb.w	r3, [r8]
   84196:	212b      	movs	r1, #43	; 0x2b
   84198:	e563      	b.n	83c62 <_vfiprintf_r+0xda>
   8419a:	f898 3000 	ldrb.w	r3, [r8]
   8419e:	f108 0401 	add.w	r4, r8, #1
   841a2:	2b2a      	cmp	r3, #42	; 0x2a
   841a4:	f000 8305 	beq.w	847b2 <_vfiprintf_r+0xc2a>
   841a8:	f1a3 0230 	sub.w	r2, r3, #48	; 0x30
   841ac:	2a09      	cmp	r2, #9
   841ae:	bf98      	it	ls
   841b0:	2500      	movls	r5, #0
   841b2:	f200 82fa 	bhi.w	847aa <_vfiprintf_r+0xc22>
   841b6:	f814 3b01 	ldrb.w	r3, [r4], #1
   841ba:	eb05 0585 	add.w	r5, r5, r5, lsl #2
   841be:	eb02 0545 	add.w	r5, r2, r5, lsl #1
   841c2:	f1a3 0230 	sub.w	r2, r3, #48	; 0x30
   841c6:	2a09      	cmp	r2, #9
   841c8:	d9f5      	bls.n	841b6 <_vfiprintf_r+0x62e>
   841ca:	ea45 75e5 	orr.w	r5, r5, r5, asr #31
   841ce:	46a0      	mov	r8, r4
   841d0:	e549      	b.n	83c66 <_vfiprintf_r+0xde>
   841d2:	4c90      	ldr	r4, [pc, #576]	; (84414 <_vfiprintf_r+0x88c>)
   841d4:	f01a 0f20 	tst.w	sl, #32
   841d8:	9004      	str	r0, [sp, #16]
   841da:	46ac      	mov	ip, r5
   841dc:	940a      	str	r4, [sp, #40]	; 0x28
   841de:	f88d 1047 	strb.w	r1, [sp, #71]	; 0x47
   841e2:	f47f af10 	bne.w	84006 <_vfiprintf_r+0x47e>
   841e6:	f01a 0f10 	tst.w	sl, #16
   841ea:	f040 81ea 	bne.w	845c2 <_vfiprintf_r+0xa3a>
   841ee:	f01a 0f40 	tst.w	sl, #64	; 0x40
   841f2:	f000 81e6 	beq.w	845c2 <_vfiprintf_r+0xa3a>
   841f6:	f8dd b020 	ldr.w	fp, [sp, #32]
   841fa:	2500      	movs	r5, #0
   841fc:	f8bb 4000 	ldrh.w	r4, [fp]
   84200:	f10b 0b04 	add.w	fp, fp, #4
   84204:	f8cd b020 	str.w	fp, [sp, #32]
   84208:	e707      	b.n	8401a <_vfiprintf_r+0x492>
   8420a:	f898 3000 	ldrb.w	r3, [r8]
   8420e:	2900      	cmp	r1, #0
   84210:	f47f ad27 	bne.w	83c62 <_vfiprintf_r+0xda>
   84214:	2120      	movs	r1, #32
   84216:	e524      	b.n	83c62 <_vfiprintf_r+0xda>
   84218:	f04a 0a01 	orr.w	sl, sl, #1
   8421c:	f898 3000 	ldrb.w	r3, [r8]
   84220:	e51f      	b.n	83c62 <_vfiprintf_r+0xda>
   84222:	9004      	str	r0, [sp, #16]
   84224:	f88d 1047 	strb.w	r1, [sp, #71]	; 0x47
   84228:	2b00      	cmp	r3, #0
   8422a:	f000 80f9 	beq.w	84420 <_vfiprintf_r+0x898>
   8422e:	2501      	movs	r5, #1
   84230:	f04f 0b00 	mov.w	fp, #0
   84234:	9503      	str	r5, [sp, #12]
   84236:	f88d 3058 	strb.w	r3, [sp, #88]	; 0x58
   8423a:	f88d b047 	strb.w	fp, [sp, #71]	; 0x47
   8423e:	9505      	str	r5, [sp, #20]
   84240:	af16      	add	r7, sp, #88	; 0x58
   84242:	e70e      	b.n	84062 <_vfiprintf_r+0x4da>
   84244:	9806      	ldr	r0, [sp, #24]
   84246:	9902      	ldr	r1, [sp, #8]
   84248:	aa13      	add	r2, sp, #76	; 0x4c
   8424a:	f7ff fc61 	bl	83b10 <__sprint_r.part.0>
   8424e:	2800      	cmp	r0, #0
   84250:	f040 80ed 	bne.w	8442e <_vfiprintf_r+0x8a6>
   84254:	9814      	ldr	r0, [sp, #80]	; 0x50
   84256:	9a15      	ldr	r2, [sp, #84]	; 0x54
   84258:	1c43      	adds	r3, r0, #1
   8425a:	46cc      	mov	ip, r9
   8425c:	e5fe      	b.n	83e5c <_vfiprintf_r+0x2d4>
   8425e:	9b14      	ldr	r3, [sp, #80]	; 0x50
   84260:	9a15      	ldr	r2, [sp, #84]	; 0x54
   84262:	1c59      	adds	r1, r3, #1
   84264:	f89d 0047 	ldrb.w	r0, [sp, #71]	; 0x47
   84268:	b168      	cbz	r0, 84286 <_vfiprintf_r+0x6fe>
   8426a:	3201      	adds	r2, #1
   8426c:	f10d 0047 	add.w	r0, sp, #71	; 0x47
   84270:	2301      	movs	r3, #1
   84272:	2907      	cmp	r1, #7
   84274:	9215      	str	r2, [sp, #84]	; 0x54
   84276:	9114      	str	r1, [sp, #80]	; 0x50
   84278:	e886 0009 	stmia.w	r6, {r0, r3}
   8427c:	f300 8160 	bgt.w	84540 <_vfiprintf_r+0x9b8>
   84280:	460b      	mov	r3, r1
   84282:	3608      	adds	r6, #8
   84284:	3101      	adds	r1, #1
   84286:	9c07      	ldr	r4, [sp, #28]
   84288:	b164      	cbz	r4, 842a4 <_vfiprintf_r+0x71c>
   8428a:	3202      	adds	r2, #2
   8428c:	a812      	add	r0, sp, #72	; 0x48
   8428e:	2302      	movs	r3, #2
   84290:	2907      	cmp	r1, #7
   84292:	9215      	str	r2, [sp, #84]	; 0x54
   84294:	9114      	str	r1, [sp, #80]	; 0x50
   84296:	e886 0009 	stmia.w	r6, {r0, r3}
   8429a:	f300 8157 	bgt.w	8454c <_vfiprintf_r+0x9c4>
   8429e:	460b      	mov	r3, r1
   842a0:	3608      	adds	r6, #8
   842a2:	3101      	adds	r1, #1
   842a4:	9d0b      	ldr	r5, [sp, #44]	; 0x2c
   842a6:	2d80      	cmp	r5, #128	; 0x80
   842a8:	f000 8101 	beq.w	844ae <_vfiprintf_r+0x926>
   842ac:	9d05      	ldr	r5, [sp, #20]
   842ae:	ebc5 040c 	rsb	r4, r5, ip
   842b2:	2c00      	cmp	r4, #0
   842b4:	dd2f      	ble.n	84316 <_vfiprintf_r+0x78e>
   842b6:	2c10      	cmp	r4, #16
   842b8:	4d57      	ldr	r5, [pc, #348]	; (84418 <_vfiprintf_r+0x890>)
   842ba:	dd22      	ble.n	84302 <_vfiprintf_r+0x77a>
   842bc:	4630      	mov	r0, r6
   842be:	f04f 0b10 	mov.w	fp, #16
   842c2:	462e      	mov	r6, r5
   842c4:	4625      	mov	r5, r4
   842c6:	9c06      	ldr	r4, [sp, #24]
   842c8:	e006      	b.n	842d8 <_vfiprintf_r+0x750>
   842ca:	f103 0c02 	add.w	ip, r3, #2
   842ce:	3008      	adds	r0, #8
   842d0:	460b      	mov	r3, r1
   842d2:	3d10      	subs	r5, #16
   842d4:	2d10      	cmp	r5, #16
   842d6:	dd10      	ble.n	842fa <_vfiprintf_r+0x772>
   842d8:	1c59      	adds	r1, r3, #1
   842da:	3210      	adds	r2, #16
   842dc:	2907      	cmp	r1, #7
   842de:	9215      	str	r2, [sp, #84]	; 0x54
   842e0:	e880 0840 	stmia.w	r0, {r6, fp}
   842e4:	9114      	str	r1, [sp, #80]	; 0x50
   842e6:	ddf0      	ble.n	842ca <_vfiprintf_r+0x742>
   842e8:	2a00      	cmp	r2, #0
   842ea:	d163      	bne.n	843b4 <_vfiprintf_r+0x82c>
   842ec:	3d10      	subs	r5, #16
   842ee:	2d10      	cmp	r5, #16
   842f0:	f04f 0c01 	mov.w	ip, #1
   842f4:	4613      	mov	r3, r2
   842f6:	4648      	mov	r0, r9
   842f8:	dcee      	bgt.n	842d8 <_vfiprintf_r+0x750>
   842fa:	462c      	mov	r4, r5
   842fc:	4661      	mov	r1, ip
   842fe:	4635      	mov	r5, r6
   84300:	4606      	mov	r6, r0
   84302:	4422      	add	r2, r4
   84304:	2907      	cmp	r1, #7
   84306:	9215      	str	r2, [sp, #84]	; 0x54
   84308:	6035      	str	r5, [r6, #0]
   8430a:	6074      	str	r4, [r6, #4]
   8430c:	9114      	str	r1, [sp, #80]	; 0x50
   8430e:	f300 80c1 	bgt.w	84494 <_vfiprintf_r+0x90c>
   84312:	3608      	adds	r6, #8
   84314:	3101      	adds	r1, #1
   84316:	9d05      	ldr	r5, [sp, #20]
   84318:	2907      	cmp	r1, #7
   8431a:	442a      	add	r2, r5
   8431c:	9215      	str	r2, [sp, #84]	; 0x54
   8431e:	6037      	str	r7, [r6, #0]
   84320:	6075      	str	r5, [r6, #4]
   84322:	9114      	str	r1, [sp, #80]	; 0x50
   84324:	f340 80c1 	ble.w	844aa <_vfiprintf_r+0x922>
   84328:	2a00      	cmp	r2, #0
   8432a:	f040 8130 	bne.w	8458e <_vfiprintf_r+0xa06>
   8432e:	9214      	str	r2, [sp, #80]	; 0x50
   84330:	464e      	mov	r6, r9
   84332:	f01a 0f04 	tst.w	sl, #4
   84336:	f000 808b 	beq.w	84450 <_vfiprintf_r+0x8c8>
   8433a:	9d04      	ldr	r5, [sp, #16]
   8433c:	f8dd b00c 	ldr.w	fp, [sp, #12]
   84340:	ebcb 0405 	rsb	r4, fp, r5
   84344:	2c00      	cmp	r4, #0
   84346:	f340 8083 	ble.w	84450 <_vfiprintf_r+0x8c8>
   8434a:	2c10      	cmp	r4, #16
   8434c:	f340 821e 	ble.w	8478c <_vfiprintf_r+0xc04>
   84350:	9914      	ldr	r1, [sp, #80]	; 0x50
   84352:	4d32      	ldr	r5, [pc, #200]	; (8441c <_vfiprintf_r+0x894>)
   84354:	2710      	movs	r7, #16
   84356:	f8dd a018 	ldr.w	sl, [sp, #24]
   8435a:	f8dd b008 	ldr.w	fp, [sp, #8]
   8435e:	e005      	b.n	8436c <_vfiprintf_r+0x7e4>
   84360:	1c88      	adds	r0, r1, #2
   84362:	3608      	adds	r6, #8
   84364:	4619      	mov	r1, r3
   84366:	3c10      	subs	r4, #16
   84368:	2c10      	cmp	r4, #16
   8436a:	dd10      	ble.n	8438e <_vfiprintf_r+0x806>
   8436c:	1c4b      	adds	r3, r1, #1
   8436e:	3210      	adds	r2, #16
   84370:	2b07      	cmp	r3, #7
   84372:	9215      	str	r2, [sp, #84]	; 0x54
   84374:	e886 00a0 	stmia.w	r6, {r5, r7}
   84378:	9314      	str	r3, [sp, #80]	; 0x50
   8437a:	ddf1      	ble.n	84360 <_vfiprintf_r+0x7d8>
   8437c:	2a00      	cmp	r2, #0
   8437e:	d17d      	bne.n	8447c <_vfiprintf_r+0x8f4>
   84380:	3c10      	subs	r4, #16
   84382:	2c10      	cmp	r4, #16
   84384:	f04f 0001 	mov.w	r0, #1
   84388:	4611      	mov	r1, r2
   8438a:	464e      	mov	r6, r9
   8438c:	dcee      	bgt.n	8436c <_vfiprintf_r+0x7e4>
   8438e:	4422      	add	r2, r4
   84390:	2807      	cmp	r0, #7
   84392:	9215      	str	r2, [sp, #84]	; 0x54
   84394:	6035      	str	r5, [r6, #0]
   84396:	6074      	str	r4, [r6, #4]
   84398:	9014      	str	r0, [sp, #80]	; 0x50
   8439a:	dd59      	ble.n	84450 <_vfiprintf_r+0x8c8>
   8439c:	2a00      	cmp	r2, #0
   8439e:	d14f      	bne.n	84440 <_vfiprintf_r+0x8b8>
   843a0:	9c09      	ldr	r4, [sp, #36]	; 0x24
   843a2:	f8dd b00c 	ldr.w	fp, [sp, #12]
   843a6:	9d04      	ldr	r5, [sp, #16]
   843a8:	45ab      	cmp	fp, r5
   843aa:	bfac      	ite	ge
   843ac:	445c      	addge	r4, fp
   843ae:	1964      	addlt	r4, r4, r5
   843b0:	9409      	str	r4, [sp, #36]	; 0x24
   843b2:	e05e      	b.n	84472 <_vfiprintf_r+0x8ea>
   843b4:	4620      	mov	r0, r4
   843b6:	9902      	ldr	r1, [sp, #8]
   843b8:	aa13      	add	r2, sp, #76	; 0x4c
   843ba:	f7ff fba9 	bl	83b10 <__sprint_r.part.0>
   843be:	2800      	cmp	r0, #0
   843c0:	d135      	bne.n	8442e <_vfiprintf_r+0x8a6>
   843c2:	9b14      	ldr	r3, [sp, #80]	; 0x50
   843c4:	9a15      	ldr	r2, [sp, #84]	; 0x54
   843c6:	f103 0c01 	add.w	ip, r3, #1
   843ca:	4648      	mov	r0, r9
   843cc:	e781      	b.n	842d2 <_vfiprintf_r+0x74a>
   843ce:	08e0      	lsrs	r0, r4, #3
   843d0:	ea40 7045 	orr.w	r0, r0, r5, lsl #29
   843d4:	f004 0207 	and.w	r2, r4, #7
   843d8:	08e9      	lsrs	r1, r5, #3
   843da:	3230      	adds	r2, #48	; 0x30
   843dc:	ea50 0b01 	orrs.w	fp, r0, r1
   843e0:	461f      	mov	r7, r3
   843e2:	701a      	strb	r2, [r3, #0]
   843e4:	4604      	mov	r4, r0
   843e6:	460d      	mov	r5, r1
   843e8:	f103 33ff 	add.w	r3, r3, #4294967295
   843ec:	d1ef      	bne.n	843ce <_vfiprintf_r+0x846>
   843ee:	f01a 0f01 	tst.w	sl, #1
   843f2:	e9cd 010c 	strd	r0, r1, [sp, #48]	; 0x30
   843f6:	4639      	mov	r1, r7
   843f8:	f000 80b9 	beq.w	8456e <_vfiprintf_r+0x9e6>
   843fc:	2a30      	cmp	r2, #48	; 0x30
   843fe:	f43f acf4 	beq.w	83dea <_vfiprintf_r+0x262>
   84402:	461f      	mov	r7, r3
   84404:	ebc7 0509 	rsb	r5, r7, r9
   84408:	2330      	movs	r3, #48	; 0x30
   8440a:	9505      	str	r5, [sp, #20]
   8440c:	f801 3c01 	strb.w	r3, [r1, #-1]
   84410:	e4ee      	b.n	83df0 <_vfiprintf_r+0x268>
   84412:	bf00      	nop
   84414:	00087ff8 	.word	0x00087ff8
   84418:	00088028 	.word	0x00088028
   8441c:	00088038 	.word	0x00088038
   84420:	9b15      	ldr	r3, [sp, #84]	; 0x54
   84422:	b123      	cbz	r3, 8442e <_vfiprintf_r+0x8a6>
   84424:	9806      	ldr	r0, [sp, #24]
   84426:	9902      	ldr	r1, [sp, #8]
   84428:	aa13      	add	r2, sp, #76	; 0x4c
   8442a:	f7ff fb71 	bl	83b10 <__sprint_r.part.0>
   8442e:	9c02      	ldr	r4, [sp, #8]
   84430:	89a3      	ldrh	r3, [r4, #12]
   84432:	065b      	lsls	r3, r3, #25
   84434:	f53f ac98 	bmi.w	83d68 <_vfiprintf_r+0x1e0>
   84438:	9809      	ldr	r0, [sp, #36]	; 0x24
   8443a:	b031      	add	sp, #196	; 0xc4
   8443c:	e8bd 8ff0 	ldmia.w	sp!, {r4, r5, r6, r7, r8, r9, sl, fp, pc}
   84440:	9806      	ldr	r0, [sp, #24]
   84442:	9902      	ldr	r1, [sp, #8]
   84444:	aa13      	add	r2, sp, #76	; 0x4c
   84446:	f7ff fb63 	bl	83b10 <__sprint_r.part.0>
   8444a:	2800      	cmp	r0, #0
   8444c:	d1ef      	bne.n	8442e <_vfiprintf_r+0x8a6>
   8444e:	9a15      	ldr	r2, [sp, #84]	; 0x54
   84450:	9c09      	ldr	r4, [sp, #36]	; 0x24
   84452:	f8dd b00c 	ldr.w	fp, [sp, #12]
   84456:	9d04      	ldr	r5, [sp, #16]
   84458:	45ab      	cmp	fp, r5
   8445a:	bfac      	ite	ge
   8445c:	445c      	addge	r4, fp
   8445e:	1964      	addlt	r4, r4, r5
   84460:	9409      	str	r4, [sp, #36]	; 0x24
   84462:	b132      	cbz	r2, 84472 <_vfiprintf_r+0x8ea>
   84464:	9806      	ldr	r0, [sp, #24]
   84466:	9902      	ldr	r1, [sp, #8]
   84468:	aa13      	add	r2, sp, #76	; 0x4c
   8446a:	f7ff fb51 	bl	83b10 <__sprint_r.part.0>
   8446e:	2800      	cmp	r0, #0
   84470:	d1dd      	bne.n	8442e <_vfiprintf_r+0x8a6>
   84472:	2000      	movs	r0, #0
   84474:	9014      	str	r0, [sp, #80]	; 0x50
   84476:	464e      	mov	r6, r9
   84478:	f7ff bbb9 	b.w	83bee <_vfiprintf_r+0x66>
   8447c:	4650      	mov	r0, sl
   8447e:	4659      	mov	r1, fp
   84480:	aa13      	add	r2, sp, #76	; 0x4c
   84482:	f7ff fb45 	bl	83b10 <__sprint_r.part.0>
   84486:	2800      	cmp	r0, #0
   84488:	d1d1      	bne.n	8442e <_vfiprintf_r+0x8a6>
   8448a:	9914      	ldr	r1, [sp, #80]	; 0x50
   8448c:	9a15      	ldr	r2, [sp, #84]	; 0x54
   8448e:	1c48      	adds	r0, r1, #1
   84490:	464e      	mov	r6, r9
   84492:	e768      	b.n	84366 <_vfiprintf_r+0x7de>
   84494:	2a00      	cmp	r2, #0
   84496:	f040 80f7 	bne.w	84688 <_vfiprintf_r+0xb00>
   8449a:	9c05      	ldr	r4, [sp, #20]
   8449c:	2301      	movs	r3, #1
   8449e:	9720      	str	r7, [sp, #128]	; 0x80
   844a0:	9421      	str	r4, [sp, #132]	; 0x84
   844a2:	9415      	str	r4, [sp, #84]	; 0x54
   844a4:	4622      	mov	r2, r4
   844a6:	9314      	str	r3, [sp, #80]	; 0x50
   844a8:	464e      	mov	r6, r9
   844aa:	3608      	adds	r6, #8
   844ac:	e741      	b.n	84332 <_vfiprintf_r+0x7aa>
   844ae:	9d04      	ldr	r5, [sp, #16]
   844b0:	f8dd b00c 	ldr.w	fp, [sp, #12]
   844b4:	ebcb 0405 	rsb	r4, fp, r5
   844b8:	2c00      	cmp	r4, #0
   844ba:	f77f aef7 	ble.w	842ac <_vfiprintf_r+0x724>
   844be:	2c10      	cmp	r4, #16
   844c0:	4da6      	ldr	r5, [pc, #664]	; (8475c <_vfiprintf_r+0xbd4>)
   844c2:	f340 8170 	ble.w	847a6 <_vfiprintf_r+0xc1e>
   844c6:	4629      	mov	r1, r5
   844c8:	f04f 0b10 	mov.w	fp, #16
   844cc:	4625      	mov	r5, r4
   844ce:	4664      	mov	r4, ip
   844d0:	46b4      	mov	ip, r6
   844d2:	460e      	mov	r6, r1
   844d4:	e006      	b.n	844e4 <_vfiprintf_r+0x95c>
   844d6:	1c98      	adds	r0, r3, #2
   844d8:	f10c 0c08 	add.w	ip, ip, #8
   844dc:	460b      	mov	r3, r1
   844de:	3d10      	subs	r5, #16
   844e0:	2d10      	cmp	r5, #16
   844e2:	dd0f      	ble.n	84504 <_vfiprintf_r+0x97c>
   844e4:	1c59      	adds	r1, r3, #1
   844e6:	3210      	adds	r2, #16
   844e8:	2907      	cmp	r1, #7
   844ea:	9215      	str	r2, [sp, #84]	; 0x54
   844ec:	e88c 0840 	stmia.w	ip, {r6, fp}
   844f0:	9114      	str	r1, [sp, #80]	; 0x50
   844f2:	ddf0      	ble.n	844d6 <_vfiprintf_r+0x94e>
   844f4:	b9ba      	cbnz	r2, 84526 <_vfiprintf_r+0x99e>
   844f6:	3d10      	subs	r5, #16
   844f8:	2d10      	cmp	r5, #16
   844fa:	f04f 0001 	mov.w	r0, #1
   844fe:	4613      	mov	r3, r2
   84500:	46cc      	mov	ip, r9
   84502:	dcef      	bgt.n	844e4 <_vfiprintf_r+0x95c>
   84504:	4633      	mov	r3, r6
   84506:	4666      	mov	r6, ip
   84508:	46a4      	mov	ip, r4
   8450a:	462c      	mov	r4, r5
   8450c:	461d      	mov	r5, r3
   8450e:	4422      	add	r2, r4
   84510:	2807      	cmp	r0, #7
   84512:	9215      	str	r2, [sp, #84]	; 0x54
   84514:	6035      	str	r5, [r6, #0]
   84516:	6074      	str	r4, [r6, #4]
   84518:	9014      	str	r0, [sp, #80]	; 0x50
   8451a:	f300 80af 	bgt.w	8467c <_vfiprintf_r+0xaf4>
   8451e:	3608      	adds	r6, #8
   84520:	1c41      	adds	r1, r0, #1
   84522:	4603      	mov	r3, r0
   84524:	e6c2      	b.n	842ac <_vfiprintf_r+0x724>
   84526:	9806      	ldr	r0, [sp, #24]
   84528:	9902      	ldr	r1, [sp, #8]
   8452a:	aa13      	add	r2, sp, #76	; 0x4c
   8452c:	f7ff faf0 	bl	83b10 <__sprint_r.part.0>
   84530:	2800      	cmp	r0, #0
   84532:	f47f af7c 	bne.w	8442e <_vfiprintf_r+0x8a6>
   84536:	9b14      	ldr	r3, [sp, #80]	; 0x50
   84538:	9a15      	ldr	r2, [sp, #84]	; 0x54
   8453a:	1c58      	adds	r0, r3, #1
   8453c:	46cc      	mov	ip, r9
   8453e:	e7ce      	b.n	844de <_vfiprintf_r+0x956>
   84540:	2a00      	cmp	r2, #0
   84542:	d179      	bne.n	84638 <_vfiprintf_r+0xab0>
   84544:	4619      	mov	r1, r3
   84546:	464e      	mov	r6, r9
   84548:	4613      	mov	r3, r2
   8454a:	e69c      	b.n	84286 <_vfiprintf_r+0x6fe>
   8454c:	2a00      	cmp	r2, #0
   8454e:	f040 8084 	bne.w	8465a <_vfiprintf_r+0xad2>
   84552:	2101      	movs	r1, #1
   84554:	4613      	mov	r3, r2
   84556:	464e      	mov	r6, r9
   84558:	e6a4      	b.n	842a4 <_vfiprintf_r+0x71c>
   8455a:	464f      	mov	r7, r9
   8455c:	e448      	b.n	83df0 <_vfiprintf_r+0x268>
   8455e:	2d00      	cmp	r5, #0
   84560:	bf08      	it	eq
   84562:	2c0a      	cmpeq	r4, #10
   84564:	d246      	bcs.n	845f4 <_vfiprintf_r+0xa6c>
   84566:	3430      	adds	r4, #48	; 0x30
   84568:	af30      	add	r7, sp, #192	; 0xc0
   8456a:	f807 4d41 	strb.w	r4, [r7, #-65]!
   8456e:	ebc7 0309 	rsb	r3, r7, r9
   84572:	9305      	str	r3, [sp, #20]
   84574:	e43c      	b.n	83df0 <_vfiprintf_r+0x268>
   84576:	2302      	movs	r3, #2
   84578:	e417      	b.n	83daa <_vfiprintf_r+0x222>
   8457a:	2a00      	cmp	r2, #0
   8457c:	f040 80af 	bne.w	846de <_vfiprintf_r+0xb56>
   84580:	4613      	mov	r3, r2
   84582:	2101      	movs	r1, #1
   84584:	464e      	mov	r6, r9
   84586:	e66d      	b.n	84264 <_vfiprintf_r+0x6dc>
   84588:	4644      	mov	r4, r8
   8458a:	f7ff bb58 	b.w	83c3e <_vfiprintf_r+0xb6>
   8458e:	9806      	ldr	r0, [sp, #24]
   84590:	9902      	ldr	r1, [sp, #8]
   84592:	aa13      	add	r2, sp, #76	; 0x4c
   84594:	f7ff fabc 	bl	83b10 <__sprint_r.part.0>
   84598:	2800      	cmp	r0, #0
   8459a:	f47f af48 	bne.w	8442e <_vfiprintf_r+0x8a6>
   8459e:	9a15      	ldr	r2, [sp, #84]	; 0x54
   845a0:	464e      	mov	r6, r9
   845a2:	e6c6      	b.n	84332 <_vfiprintf_r+0x7aa>
   845a4:	9d08      	ldr	r5, [sp, #32]
   845a6:	682c      	ldr	r4, [r5, #0]
   845a8:	3504      	adds	r5, #4
   845aa:	9508      	str	r5, [sp, #32]
   845ac:	2500      	movs	r5, #0
   845ae:	f7ff bbfc 	b.w	83daa <_vfiprintf_r+0x222>
   845b2:	9d08      	ldr	r5, [sp, #32]
   845b4:	2301      	movs	r3, #1
   845b6:	682c      	ldr	r4, [r5, #0]
   845b8:	3504      	adds	r5, #4
   845ba:	9508      	str	r5, [sp, #32]
   845bc:	2500      	movs	r5, #0
   845be:	f7ff bbf4 	b.w	83daa <_vfiprintf_r+0x222>
   845c2:	9d08      	ldr	r5, [sp, #32]
   845c4:	682c      	ldr	r4, [r5, #0]
   845c6:	3504      	adds	r5, #4
   845c8:	9508      	str	r5, [sp, #32]
   845ca:	2500      	movs	r5, #0
   845cc:	e525      	b.n	8401a <_vfiprintf_r+0x492>
   845ce:	9d08      	ldr	r5, [sp, #32]
   845d0:	682c      	ldr	r4, [r5, #0]
   845d2:	3504      	adds	r5, #4
   845d4:	9508      	str	r5, [sp, #32]
   845d6:	17e5      	asrs	r5, r4, #31
   845d8:	4622      	mov	r2, r4
   845da:	462b      	mov	r3, r5
   845dc:	e48e      	b.n	83efc <_vfiprintf_r+0x374>
   845de:	9806      	ldr	r0, [sp, #24]
   845e0:	9902      	ldr	r1, [sp, #8]
   845e2:	aa13      	add	r2, sp, #76	; 0x4c
   845e4:	f7ff fa94 	bl	83b10 <__sprint_r.part.0>
   845e8:	2800      	cmp	r0, #0
   845ea:	f47f af20 	bne.w	8442e <_vfiprintf_r+0x8a6>
   845ee:	464e      	mov	r6, r9
   845f0:	f7ff bb9a 	b.w	83d28 <_vfiprintf_r+0x1a0>
   845f4:	f10d 0b7f 	add.w	fp, sp, #127	; 0x7f
   845f8:	9603      	str	r6, [sp, #12]
   845fa:	465e      	mov	r6, fp
   845fc:	46e3      	mov	fp, ip
   845fe:	4620      	mov	r0, r4
   84600:	4629      	mov	r1, r5
   84602:	220a      	movs	r2, #10
   84604:	2300      	movs	r3, #0
   84606:	f003 f9d3 	bl	879b0 <__aeabi_uldivmod>
   8460a:	3230      	adds	r2, #48	; 0x30
   8460c:	7032      	strb	r2, [r6, #0]
   8460e:	4620      	mov	r0, r4
   84610:	4629      	mov	r1, r5
   84612:	220a      	movs	r2, #10
   84614:	2300      	movs	r3, #0
   84616:	f003 f9cb 	bl	879b0 <__aeabi_uldivmod>
   8461a:	4604      	mov	r4, r0
   8461c:	460d      	mov	r5, r1
   8461e:	ea54 0005 	orrs.w	r0, r4, r5
   84622:	4637      	mov	r7, r6
   84624:	f106 36ff 	add.w	r6, r6, #4294967295
   84628:	d1e9      	bne.n	845fe <_vfiprintf_r+0xa76>
   8462a:	ebc7 0309 	rsb	r3, r7, r9
   8462e:	46dc      	mov	ip, fp
   84630:	9e03      	ldr	r6, [sp, #12]
   84632:	9305      	str	r3, [sp, #20]
   84634:	f7ff bbdc 	b.w	83df0 <_vfiprintf_r+0x268>
   84638:	9806      	ldr	r0, [sp, #24]
   8463a:	9902      	ldr	r1, [sp, #8]
   8463c:	aa13      	add	r2, sp, #76	; 0x4c
   8463e:	f8cd c004 	str.w	ip, [sp, #4]
   84642:	f7ff fa65 	bl	83b10 <__sprint_r.part.0>
   84646:	f8dd c004 	ldr.w	ip, [sp, #4]
   8464a:	2800      	cmp	r0, #0
   8464c:	f47f aeef 	bne.w	8442e <_vfiprintf_r+0x8a6>
   84650:	9b14      	ldr	r3, [sp, #80]	; 0x50
   84652:	9a15      	ldr	r2, [sp, #84]	; 0x54
   84654:	1c59      	adds	r1, r3, #1
   84656:	464e      	mov	r6, r9
   84658:	e615      	b.n	84286 <_vfiprintf_r+0x6fe>
   8465a:	9806      	ldr	r0, [sp, #24]
   8465c:	9902      	ldr	r1, [sp, #8]
   8465e:	aa13      	add	r2, sp, #76	; 0x4c
   84660:	f8cd c004 	str.w	ip, [sp, #4]
   84664:	f7ff fa54 	bl	83b10 <__sprint_r.part.0>
   84668:	f8dd c004 	ldr.w	ip, [sp, #4]
   8466c:	2800      	cmp	r0, #0
   8466e:	f47f aede 	bne.w	8442e <_vfiprintf_r+0x8a6>
   84672:	9b14      	ldr	r3, [sp, #80]	; 0x50
   84674:	9a15      	ldr	r2, [sp, #84]	; 0x54
   84676:	1c59      	adds	r1, r3, #1
   84678:	464e      	mov	r6, r9
   8467a:	e613      	b.n	842a4 <_vfiprintf_r+0x71c>
   8467c:	2a00      	cmp	r2, #0
   8467e:	d156      	bne.n	8472e <_vfiprintf_r+0xba6>
   84680:	2101      	movs	r1, #1
   84682:	4613      	mov	r3, r2
   84684:	464e      	mov	r6, r9
   84686:	e611      	b.n	842ac <_vfiprintf_r+0x724>
   84688:	9806      	ldr	r0, [sp, #24]
   8468a:	9902      	ldr	r1, [sp, #8]
   8468c:	aa13      	add	r2, sp, #76	; 0x4c
   8468e:	f7ff fa3f 	bl	83b10 <__sprint_r.part.0>
   84692:	2800      	cmp	r0, #0
   84694:	f47f aecb 	bne.w	8442e <_vfiprintf_r+0x8a6>
   84698:	9914      	ldr	r1, [sp, #80]	; 0x50
   8469a:	9a15      	ldr	r2, [sp, #84]	; 0x54
   8469c:	3101      	adds	r1, #1
   8469e:	464e      	mov	r6, r9
   846a0:	e639      	b.n	84316 <_vfiprintf_r+0x78e>
   846a2:	f04f 0b2d 	mov.w	fp, #45	; 0x2d
   846a6:	4264      	negs	r4, r4
   846a8:	eb65 0545 	sbc.w	r5, r5, r5, lsl #1
   846ac:	f88d b047 	strb.w	fp, [sp, #71]	; 0x47
   846b0:	f8cd b01c 	str.w	fp, [sp, #28]
   846b4:	f8cd c014 	str.w	ip, [sp, #20]
   846b8:	2301      	movs	r3, #1
   846ba:	f7ff bb7e 	b.w	83dba <_vfiprintf_r+0x232>
   846be:	f01a 0f10 	tst.w	sl, #16
   846c2:	d11d      	bne.n	84700 <_vfiprintf_r+0xb78>
   846c4:	f01a 0f40 	tst.w	sl, #64	; 0x40
   846c8:	d058      	beq.n	8477c <_vfiprintf_r+0xbf4>
   846ca:	9d08      	ldr	r5, [sp, #32]
   846cc:	f8dd b024 	ldr.w	fp, [sp, #36]	; 0x24
   846d0:	682b      	ldr	r3, [r5, #0]
   846d2:	3504      	adds	r5, #4
   846d4:	9508      	str	r5, [sp, #32]
   846d6:	f8a3 b000 	strh.w	fp, [r3]
   846da:	f7ff ba88 	b.w	83bee <_vfiprintf_r+0x66>
   846de:	9806      	ldr	r0, [sp, #24]
   846e0:	9902      	ldr	r1, [sp, #8]
   846e2:	aa13      	add	r2, sp, #76	; 0x4c
   846e4:	f8cd c004 	str.w	ip, [sp, #4]
   846e8:	f7ff fa12 	bl	83b10 <__sprint_r.part.0>
   846ec:	f8dd c004 	ldr.w	ip, [sp, #4]
   846f0:	2800      	cmp	r0, #0
   846f2:	f47f ae9c 	bne.w	8442e <_vfiprintf_r+0x8a6>
   846f6:	9b14      	ldr	r3, [sp, #80]	; 0x50
   846f8:	9a15      	ldr	r2, [sp, #84]	; 0x54
   846fa:	1c59      	adds	r1, r3, #1
   846fc:	464e      	mov	r6, r9
   846fe:	e5b1      	b.n	84264 <_vfiprintf_r+0x6dc>
   84700:	f8dd b020 	ldr.w	fp, [sp, #32]
   84704:	9c09      	ldr	r4, [sp, #36]	; 0x24
   84706:	f8db 3000 	ldr.w	r3, [fp]
   8470a:	f10b 0b04 	add.w	fp, fp, #4
   8470e:	f8cd b020 	str.w	fp, [sp, #32]
   84712:	601c      	str	r4, [r3, #0]
   84714:	f7ff ba6b 	b.w	83bee <_vfiprintf_r+0x66>
   84718:	9408      	str	r4, [sp, #32]
   8471a:	f002 fecf 	bl	874bc <strlen>
   8471e:	f89d 4047 	ldrb.w	r4, [sp, #71]	; 0x47
   84722:	9005      	str	r0, [sp, #20]
   84724:	9407      	str	r4, [sp, #28]
   84726:	f04f 0c00 	mov.w	ip, #0
   8472a:	f7ff bb61 	b.w	83df0 <_vfiprintf_r+0x268>
   8472e:	9806      	ldr	r0, [sp, #24]
   84730:	9902      	ldr	r1, [sp, #8]
   84732:	aa13      	add	r2, sp, #76	; 0x4c
   84734:	f8cd c004 	str.w	ip, [sp, #4]
   84738:	f7ff f9ea 	bl	83b10 <__sprint_r.part.0>
   8473c:	f8dd c004 	ldr.w	ip, [sp, #4]
   84740:	2800      	cmp	r0, #0
   84742:	f47f ae74 	bne.w	8442e <_vfiprintf_r+0x8a6>
   84746:	9b14      	ldr	r3, [sp, #80]	; 0x50
   84748:	9a15      	ldr	r2, [sp, #84]	; 0x54
   8474a:	1c59      	adds	r1, r3, #1
   8474c:	464e      	mov	r6, r9
   8474e:	e5ad      	b.n	842ac <_vfiprintf_r+0x724>
   84750:	9b14      	ldr	r3, [sp, #80]	; 0x50
   84752:	9a15      	ldr	r2, [sp, #84]	; 0x54
   84754:	3301      	adds	r3, #1
   84756:	4d02      	ldr	r5, [pc, #8]	; (84760 <_vfiprintf_r+0xbd8>)
   84758:	f7ff bb9a 	b.w	83e90 <_vfiprintf_r+0x308>
   8475c:	00088028 	.word	0x00088028
   84760:	00088038 	.word	0x00088038
   84764:	f1bc 0f06 	cmp.w	ip, #6
   84768:	bf34      	ite	cc
   8476a:	4663      	movcc	r3, ip
   8476c:	2306      	movcs	r3, #6
   8476e:	9408      	str	r4, [sp, #32]
   84770:	ea23 74e3 	bic.w	r4, r3, r3, asr #31
   84774:	9305      	str	r3, [sp, #20]
   84776:	9403      	str	r4, [sp, #12]
   84778:	4f16      	ldr	r7, [pc, #88]	; (847d4 <_vfiprintf_r+0xc4c>)
   8477a:	e472      	b.n	84062 <_vfiprintf_r+0x4da>
   8477c:	9c08      	ldr	r4, [sp, #32]
   8477e:	9d09      	ldr	r5, [sp, #36]	; 0x24
   84780:	6823      	ldr	r3, [r4, #0]
   84782:	3404      	adds	r4, #4
   84784:	9408      	str	r4, [sp, #32]
   84786:	601d      	str	r5, [r3, #0]
   84788:	f7ff ba31 	b.w	83bee <_vfiprintf_r+0x66>
   8478c:	9814      	ldr	r0, [sp, #80]	; 0x50
   8478e:	4d12      	ldr	r5, [pc, #72]	; (847d8 <_vfiprintf_r+0xc50>)
   84790:	3001      	adds	r0, #1
   84792:	e5fc      	b.n	8438e <_vfiprintf_r+0x806>
   84794:	f89d 5047 	ldrb.w	r5, [sp, #71]	; 0x47
   84798:	f8cd c014 	str.w	ip, [sp, #20]
   8479c:	9507      	str	r5, [sp, #28]
   8479e:	9408      	str	r4, [sp, #32]
   847a0:	4684      	mov	ip, r0
   847a2:	f7ff bb25 	b.w	83df0 <_vfiprintf_r+0x268>
   847a6:	4608      	mov	r0, r1
   847a8:	e6b1      	b.n	8450e <_vfiprintf_r+0x986>
   847aa:	46a0      	mov	r8, r4
   847ac:	2500      	movs	r5, #0
   847ae:	f7ff ba5a 	b.w	83c66 <_vfiprintf_r+0xde>
   847b2:	f8dd b020 	ldr.w	fp, [sp, #32]
   847b6:	f898 3001 	ldrb.w	r3, [r8, #1]
   847ba:	f8db 5000 	ldr.w	r5, [fp]
   847be:	f10b 0204 	add.w	r2, fp, #4
   847c2:	2d00      	cmp	r5, #0
   847c4:	9208      	str	r2, [sp, #32]
   847c6:	46a0      	mov	r8, r4
   847c8:	f6bf aa4b 	bge.w	83c62 <_vfiprintf_r+0xda>
   847cc:	f04f 35ff 	mov.w	r5, #4294967295
   847d0:	f7ff ba47 	b.w	83c62 <_vfiprintf_r+0xda>
   847d4:	0008800c 	.word	0x0008800c
   847d8:	00088038 	.word	0x00088038

000847dc <__sbprintf>:
   847dc:	e92d 47f0 	stmdb	sp!, {r4, r5, r6, r7, r8, r9, sl, lr}
   847e0:	6e4f      	ldr	r7, [r1, #100]	; 0x64
   847e2:	f5ad 6d8d 	sub.w	sp, sp, #1128	; 0x468
   847e6:	4688      	mov	r8, r1
   847e8:	9719      	str	r7, [sp, #100]	; 0x64
   847ea:	f8d8 701c 	ldr.w	r7, [r8, #28]
   847ee:	f8b1 a00c 	ldrh.w	sl, [r1, #12]
   847f2:	f8b1 900e 	ldrh.w	r9, [r1, #14]
   847f6:	9707      	str	r7, [sp, #28]
   847f8:	f8d8 7024 	ldr.w	r7, [r8, #36]	; 0x24
   847fc:	ac1a      	add	r4, sp, #104	; 0x68
   847fe:	f44f 6580 	mov.w	r5, #1024	; 0x400
   84802:	f02a 0a02 	bic.w	sl, sl, #2
   84806:	2600      	movs	r6, #0
   84808:	4669      	mov	r1, sp
   8480a:	9400      	str	r4, [sp, #0]
   8480c:	9404      	str	r4, [sp, #16]
   8480e:	9502      	str	r5, [sp, #8]
   84810:	9505      	str	r5, [sp, #20]
   84812:	f8ad a00c 	strh.w	sl, [sp, #12]
   84816:	f8ad 900e 	strh.w	r9, [sp, #14]
   8481a:	9709      	str	r7, [sp, #36]	; 0x24
   8481c:	9606      	str	r6, [sp, #24]
   8481e:	4605      	mov	r5, r0
   84820:	f7ff f9b2 	bl	83b88 <_vfiprintf_r>
   84824:	1e04      	subs	r4, r0, #0
   84826:	db07      	blt.n	84838 <__sbprintf+0x5c>
   84828:	4628      	mov	r0, r5
   8482a:	4669      	mov	r1, sp
   8482c:	f001 f8e0 	bl	859f0 <_fflush_r>
   84830:	42b0      	cmp	r0, r6
   84832:	bf18      	it	ne
   84834:	f04f 34ff 	movne.w	r4, #4294967295
   84838:	f8bd 300c 	ldrh.w	r3, [sp, #12]
   8483c:	065b      	lsls	r3, r3, #25
   8483e:	d505      	bpl.n	8484c <__sbprintf+0x70>
   84840:	f8b8 300c 	ldrh.w	r3, [r8, #12]
   84844:	f043 0340 	orr.w	r3, r3, #64	; 0x40
   84848:	f8a8 300c 	strh.w	r3, [r8, #12]
   8484c:	4620      	mov	r0, r4
   8484e:	f50d 6d8d 	add.w	sp, sp, #1128	; 0x468
   84852:	e8bd 87f0 	ldmia.w	sp!, {r4, r5, r6, r7, r8, r9, sl, pc}
   84856:	bf00      	nop

00084858 <__swsetup_r>:
   84858:	4b2f      	ldr	r3, [pc, #188]	; (84918 <__swsetup_r+0xc0>)
   8485a:	b570      	push	{r4, r5, r6, lr}
   8485c:	4606      	mov	r6, r0
   8485e:	6818      	ldr	r0, [r3, #0]
   84860:	460c      	mov	r4, r1
   84862:	b110      	cbz	r0, 8486a <__swsetup_r+0x12>
   84864:	6b82      	ldr	r2, [r0, #56]	; 0x38
   84866:	2a00      	cmp	r2, #0
   84868:	d036      	beq.n	848d8 <__swsetup_r+0x80>
   8486a:	89a5      	ldrh	r5, [r4, #12]
   8486c:	b2ab      	uxth	r3, r5
   8486e:	0719      	lsls	r1, r3, #28
   84870:	d50c      	bpl.n	8488c <__swsetup_r+0x34>
   84872:	6922      	ldr	r2, [r4, #16]
   84874:	b1aa      	cbz	r2, 848a2 <__swsetup_r+0x4a>
   84876:	f013 0101 	ands.w	r1, r3, #1
   8487a:	d01e      	beq.n	848ba <__swsetup_r+0x62>
   8487c:	6963      	ldr	r3, [r4, #20]
   8487e:	2100      	movs	r1, #0
   84880:	425b      	negs	r3, r3
   84882:	61a3      	str	r3, [r4, #24]
   84884:	60a1      	str	r1, [r4, #8]
   84886:	b1f2      	cbz	r2, 848c6 <__swsetup_r+0x6e>
   84888:	2000      	movs	r0, #0
   8488a:	bd70      	pop	{r4, r5, r6, pc}
   8488c:	06da      	lsls	r2, r3, #27
   8488e:	d53a      	bpl.n	84906 <__swsetup_r+0xae>
   84890:	075b      	lsls	r3, r3, #29
   84892:	d424      	bmi.n	848de <__swsetup_r+0x86>
   84894:	6922      	ldr	r2, [r4, #16]
   84896:	f045 0308 	orr.w	r3, r5, #8
   8489a:	81a3      	strh	r3, [r4, #12]
   8489c:	b29b      	uxth	r3, r3
   8489e:	2a00      	cmp	r2, #0
   848a0:	d1e9      	bne.n	84876 <__swsetup_r+0x1e>
   848a2:	f403 7120 	and.w	r1, r3, #640	; 0x280
   848a6:	f5b1 7f00 	cmp.w	r1, #512	; 0x200
   848aa:	d0e4      	beq.n	84876 <__swsetup_r+0x1e>
   848ac:	4630      	mov	r0, r6
   848ae:	4621      	mov	r1, r4
   848b0:	f001 fc88 	bl	861c4 <__smakebuf_r>
   848b4:	89a3      	ldrh	r3, [r4, #12]
   848b6:	6922      	ldr	r2, [r4, #16]
   848b8:	e7dd      	b.n	84876 <__swsetup_r+0x1e>
   848ba:	0798      	lsls	r0, r3, #30
   848bc:	bf58      	it	pl
   848be:	6961      	ldrpl	r1, [r4, #20]
   848c0:	60a1      	str	r1, [r4, #8]
   848c2:	2a00      	cmp	r2, #0
   848c4:	d1e0      	bne.n	84888 <__swsetup_r+0x30>
   848c6:	89a3      	ldrh	r3, [r4, #12]
   848c8:	061a      	lsls	r2, r3, #24
   848ca:	d5dd      	bpl.n	84888 <__swsetup_r+0x30>
   848cc:	f043 0340 	orr.w	r3, r3, #64	; 0x40
   848d0:	81a3      	strh	r3, [r4, #12]
   848d2:	f04f 30ff 	mov.w	r0, #4294967295
   848d6:	bd70      	pop	{r4, r5, r6, pc}
   848d8:	f001 f8a6 	bl	85a28 <__sinit>
   848dc:	e7c5      	b.n	8486a <__swsetup_r+0x12>
   848de:	6b21      	ldr	r1, [r4, #48]	; 0x30
   848e0:	b149      	cbz	r1, 848f6 <__swsetup_r+0x9e>
   848e2:	f104 0340 	add.w	r3, r4, #64	; 0x40
   848e6:	4299      	cmp	r1, r3
   848e8:	d003      	beq.n	848f2 <__swsetup_r+0x9a>
   848ea:	4630      	mov	r0, r6
   848ec:	f001 f9e0 	bl	85cb0 <_free_r>
   848f0:	89a5      	ldrh	r5, [r4, #12]
   848f2:	2300      	movs	r3, #0
   848f4:	6323      	str	r3, [r4, #48]	; 0x30
   848f6:	6922      	ldr	r2, [r4, #16]
   848f8:	f025 0524 	bic.w	r5, r5, #36	; 0x24
   848fc:	2100      	movs	r1, #0
   848fe:	b2ad      	uxth	r5, r5
   84900:	6022      	str	r2, [r4, #0]
   84902:	6061      	str	r1, [r4, #4]
   84904:	e7c7      	b.n	84896 <__swsetup_r+0x3e>
   84906:	f045 0540 	orr.w	r5, r5, #64	; 0x40
   8490a:	2309      	movs	r3, #9
   8490c:	6033      	str	r3, [r6, #0]
   8490e:	f04f 30ff 	mov.w	r0, #4294967295
   84912:	81a5      	strh	r5, [r4, #12]
   84914:	bd70      	pop	{r4, r5, r6, pc}
   84916:	bf00      	nop
   84918:	20070568 	.word	0x20070568

0008491c <register_fini>:
   8491c:	4b02      	ldr	r3, [pc, #8]	; (84928 <register_fini+0xc>)
   8491e:	b113      	cbz	r3, 84926 <register_fini+0xa>
   84920:	4802      	ldr	r0, [pc, #8]	; (8492c <register_fini+0x10>)
   84922:	f000 b805 	b.w	84930 <atexit>
   84926:	4770      	bx	lr
   84928:	00000000 	.word	0x00000000
   8492c:	00085b25 	.word	0x00085b25

00084930 <atexit>:
   84930:	4601      	mov	r1, r0
   84932:	2000      	movs	r0, #0
   84934:	4602      	mov	r2, r0
   84936:	4603      	mov	r3, r0
   84938:	f002 bf0e 	b.w	87758 <__register_exitproc>

0008493c <quorem>:
   8493c:	e92d 4ff0 	stmdb	sp!, {r4, r5, r6, r7, r8, r9, sl, fp, lr}
   84940:	6903      	ldr	r3, [r0, #16]
   84942:	690d      	ldr	r5, [r1, #16]
   84944:	b083      	sub	sp, #12
   84946:	429d      	cmp	r5, r3
   84948:	4683      	mov	fp, r0
   8494a:	f300 808c 	bgt.w	84a66 <quorem+0x12a>
   8494e:	3d01      	subs	r5, #1
   84950:	f101 0414 	add.w	r4, r1, #20
   84954:	f100 0a14 	add.w	sl, r0, #20
   84958:	f854 2025 	ldr.w	r2, [r4, r5, lsl #2]
   8495c:	f85a 3025 	ldr.w	r3, [sl, r5, lsl #2]
   84960:	3201      	adds	r2, #1
   84962:	fbb3 f8f2 	udiv	r8, r3, r2
   84966:	00aa      	lsls	r2, r5, #2
   84968:	4691      	mov	r9, r2
   8496a:	9200      	str	r2, [sp, #0]
   8496c:	4452      	add	r2, sl
   8496e:	44a1      	add	r9, r4
   84970:	9201      	str	r2, [sp, #4]
   84972:	f1b8 0f00 	cmp.w	r8, #0
   84976:	d03e      	beq.n	849f6 <quorem+0xba>
   84978:	2600      	movs	r6, #0
   8497a:	4630      	mov	r0, r6
   8497c:	4622      	mov	r2, r4
   8497e:	4653      	mov	r3, sl
   84980:	468c      	mov	ip, r1
   84982:	f852 7b04 	ldr.w	r7, [r2], #4
   84986:	6819      	ldr	r1, [r3, #0]
   84988:	fa1f fe87 	uxth.w	lr, r7
   8498c:	0c3f      	lsrs	r7, r7, #16
   8498e:	fb0e 6e08 	mla	lr, lr, r8, r6
   84992:	fb07 f608 	mul.w	r6, r7, r8
   84996:	eb06 461e 	add.w	r6, r6, lr, lsr #16
   8499a:	fa1f fe8e 	uxth.w	lr, lr
   8499e:	ebce 0e00 	rsb	lr, lr, r0
   849a2:	b28f      	uxth	r7, r1
   849a4:	b2b0      	uxth	r0, r6
   849a6:	4477      	add	r7, lr
   849a8:	ebc0 4011 	rsb	r0, r0, r1, lsr #16
   849ac:	eb00 4027 	add.w	r0, r0, r7, asr #16
   849b0:	b2bf      	uxth	r7, r7
   849b2:	ea47 4700 	orr.w	r7, r7, r0, lsl #16
   849b6:	4591      	cmp	r9, r2
   849b8:	f843 7b04 	str.w	r7, [r3], #4
   849bc:	ea4f 4020 	mov.w	r0, r0, asr #16
   849c0:	ea4f 4616 	mov.w	r6, r6, lsr #16
   849c4:	d2dd      	bcs.n	84982 <quorem+0x46>
   849c6:	9a00      	ldr	r2, [sp, #0]
   849c8:	4661      	mov	r1, ip
   849ca:	f85a 3002 	ldr.w	r3, [sl, r2]
   849ce:	b993      	cbnz	r3, 849f6 <quorem+0xba>
   849d0:	9a01      	ldr	r2, [sp, #4]
   849d2:	1f13      	subs	r3, r2, #4
   849d4:	459a      	cmp	sl, r3
   849d6:	d20c      	bcs.n	849f2 <quorem+0xb6>
   849d8:	f852 3c04 	ldr.w	r3, [r2, #-4]
   849dc:	b94b      	cbnz	r3, 849f2 <quorem+0xb6>
   849de:	f1a2 0308 	sub.w	r3, r2, #8
   849e2:	e002      	b.n	849ea <quorem+0xae>
   849e4:	681a      	ldr	r2, [r3, #0]
   849e6:	3b04      	subs	r3, #4
   849e8:	b91a      	cbnz	r2, 849f2 <quorem+0xb6>
   849ea:	459a      	cmp	sl, r3
   849ec:	f105 35ff 	add.w	r5, r5, #4294967295
   849f0:	d3f8      	bcc.n	849e4 <quorem+0xa8>
   849f2:	f8cb 5010 	str.w	r5, [fp, #16]
   849f6:	4658      	mov	r0, fp
   849f8:	f002 fa3e 	bl	86e78 <__mcmp>
   849fc:	2800      	cmp	r0, #0
   849fe:	db2e      	blt.n	84a5e <quorem+0x122>
   84a00:	f108 0801 	add.w	r8, r8, #1
   84a04:	4653      	mov	r3, sl
   84a06:	2200      	movs	r2, #0
   84a08:	f854 6b04 	ldr.w	r6, [r4], #4
   84a0c:	6818      	ldr	r0, [r3, #0]
   84a0e:	b2b1      	uxth	r1, r6
   84a10:	1a51      	subs	r1, r2, r1
   84a12:	b287      	uxth	r7, r0
   84a14:	0c36      	lsrs	r6, r6, #16
   84a16:	4439      	add	r1, r7
   84a18:	ebc6 4010 	rsb	r0, r6, r0, lsr #16
   84a1c:	eb00 4221 	add.w	r2, r0, r1, asr #16
   84a20:	b289      	uxth	r1, r1
   84a22:	ea41 4102 	orr.w	r1, r1, r2, lsl #16
   84a26:	45a1      	cmp	r9, r4
   84a28:	f843 1b04 	str.w	r1, [r3], #4
   84a2c:	ea4f 4222 	mov.w	r2, r2, asr #16
   84a30:	d2ea      	bcs.n	84a08 <quorem+0xcc>
   84a32:	f85a 2025 	ldr.w	r2, [sl, r5, lsl #2]
   84a36:	eb0a 0385 	add.w	r3, sl, r5, lsl #2
   84a3a:	b982      	cbnz	r2, 84a5e <quorem+0x122>
   84a3c:	1f1a      	subs	r2, r3, #4
   84a3e:	4592      	cmp	sl, r2
   84a40:	d20b      	bcs.n	84a5a <quorem+0x11e>
   84a42:	f853 2c04 	ldr.w	r2, [r3, #-4]
   84a46:	b942      	cbnz	r2, 84a5a <quorem+0x11e>
   84a48:	3b08      	subs	r3, #8
   84a4a:	e002      	b.n	84a52 <quorem+0x116>
   84a4c:	681a      	ldr	r2, [r3, #0]
   84a4e:	3b04      	subs	r3, #4
   84a50:	b91a      	cbnz	r2, 84a5a <quorem+0x11e>
   84a52:	459a      	cmp	sl, r3
   84a54:	f105 35ff 	add.w	r5, r5, #4294967295
   84a58:	d3f8      	bcc.n	84a4c <quorem+0x110>
   84a5a:	f8cb 5010 	str.w	r5, [fp, #16]
   84a5e:	4640      	mov	r0, r8
   84a60:	b003      	add	sp, #12
   84a62:	e8bd 8ff0 	ldmia.w	sp!, {r4, r5, r6, r7, r8, r9, sl, fp, pc}
   84a66:	2000      	movs	r0, #0
   84a68:	b003      	add	sp, #12
   84a6a:	e8bd 8ff0 	ldmia.w	sp!, {r4, r5, r6, r7, r8, r9, sl, fp, pc}
   84a6e:	bf00      	nop

00084a70 <_dtoa_r>:
   84a70:	e92d 4ff0 	stmdb	sp!, {r4, r5, r6, r7, r8, r9, sl, fp, lr}
   84a74:	6c01      	ldr	r1, [r0, #64]	; 0x40
   84a76:	b09b      	sub	sp, #108	; 0x6c
   84a78:	4604      	mov	r4, r0
   84a7a:	4692      	mov	sl, r2
   84a7c:	469b      	mov	fp, r3
   84a7e:	9d27      	ldr	r5, [sp, #156]	; 0x9c
   84a80:	b141      	cbz	r1, 84a94 <_dtoa_r+0x24>
   84a82:	6c43      	ldr	r3, [r0, #68]	; 0x44
   84a84:	2201      	movs	r2, #1
   84a86:	409a      	lsls	r2, r3
   84a88:	604b      	str	r3, [r1, #4]
   84a8a:	608a      	str	r2, [r1, #8]
   84a8c:	f001 fffe 	bl	86a8c <_Bfree>
   84a90:	2300      	movs	r3, #0
   84a92:	6423      	str	r3, [r4, #64]	; 0x40
   84a94:	f1bb 0f00 	cmp.w	fp, #0
   84a98:	46d9      	mov	r9, fp
   84a9a:	db33      	blt.n	84b04 <_dtoa_r+0x94>
   84a9c:	2300      	movs	r3, #0
   84a9e:	602b      	str	r3, [r5, #0]
   84aa0:	4ba5      	ldr	r3, [pc, #660]	; (84d38 <_dtoa_r+0x2c8>)
   84aa2:	461a      	mov	r2, r3
   84aa4:	ea09 0303 	and.w	r3, r9, r3
   84aa8:	4293      	cmp	r3, r2
   84aaa:	d014      	beq.n	84ad6 <_dtoa_r+0x66>
   84aac:	4650      	mov	r0, sl
   84aae:	4659      	mov	r1, fp
   84ab0:	2200      	movs	r2, #0
   84ab2:	2300      	movs	r3, #0
   84ab4:	f7fd fcb0 	bl	82418 <__aeabi_dcmpeq>
   84ab8:	4680      	mov	r8, r0
   84aba:	b348      	cbz	r0, 84b10 <_dtoa_r+0xa0>
   84abc:	9e26      	ldr	r6, [sp, #152]	; 0x98
   84abe:	9d28      	ldr	r5, [sp, #160]	; 0xa0
   84ac0:	2301      	movs	r3, #1
   84ac2:	6033      	str	r3, [r6, #0]
   84ac4:	2d00      	cmp	r5, #0
   84ac6:	f000 80ca 	beq.w	84c5e <_dtoa_r+0x1ee>
   84aca:	489c      	ldr	r0, [pc, #624]	; (84d3c <_dtoa_r+0x2cc>)
   84acc:	6028      	str	r0, [r5, #0]
   84ace:	3801      	subs	r0, #1
   84ad0:	b01b      	add	sp, #108	; 0x6c
   84ad2:	e8bd 8ff0 	ldmia.w	sp!, {r4, r5, r6, r7, r8, r9, sl, fp, pc}
   84ad6:	9d26      	ldr	r5, [sp, #152]	; 0x98
   84ad8:	f242 730f 	movw	r3, #9999	; 0x270f
   84adc:	602b      	str	r3, [r5, #0]
   84ade:	f1ba 0f00 	cmp.w	sl, #0
   84ae2:	f000 80a5 	beq.w	84c30 <_dtoa_r+0x1c0>
   84ae6:	4896      	ldr	r0, [pc, #600]	; (84d40 <_dtoa_r+0x2d0>)
   84ae8:	9e28      	ldr	r6, [sp, #160]	; 0xa0
   84aea:	2e00      	cmp	r6, #0
   84aec:	d0f0      	beq.n	84ad0 <_dtoa_r+0x60>
   84aee:	78c3      	ldrb	r3, [r0, #3]
   84af0:	2b00      	cmp	r3, #0
   84af2:	f000 80b6 	beq.w	84c62 <_dtoa_r+0x1f2>
   84af6:	f100 0308 	add.w	r3, r0, #8
   84afa:	9d28      	ldr	r5, [sp, #160]	; 0xa0
   84afc:	602b      	str	r3, [r5, #0]
   84afe:	b01b      	add	sp, #108	; 0x6c
   84b00:	e8bd 8ff0 	ldmia.w	sp!, {r4, r5, r6, r7, r8, r9, sl, fp, pc}
   84b04:	2301      	movs	r3, #1
   84b06:	f02b 4900 	bic.w	r9, fp, #2147483648	; 0x80000000
   84b0a:	602b      	str	r3, [r5, #0]
   84b0c:	46cb      	mov	fp, r9
   84b0e:	e7c7      	b.n	84aa0 <_dtoa_r+0x30>
   84b10:	aa19      	add	r2, sp, #100	; 0x64
   84b12:	ab18      	add	r3, sp, #96	; 0x60
   84b14:	e88d 000c 	stmia.w	sp, {r2, r3}
   84b18:	4620      	mov	r0, r4
   84b1a:	4652      	mov	r2, sl
   84b1c:	465b      	mov	r3, fp
   84b1e:	f002 fa3b 	bl	86f98 <__d2b>
   84b22:	ea5f 5519 	movs.w	r5, r9, lsr #20
   84b26:	900a      	str	r0, [sp, #40]	; 0x28
   84b28:	f040 808b 	bne.w	84c42 <_dtoa_r+0x1d2>
   84b2c:	9f18      	ldr	r7, [sp, #96]	; 0x60
   84b2e:	9d19      	ldr	r5, [sp, #100]	; 0x64
   84b30:	f46f 6382 	mvn.w	r3, #1040	; 0x410
   84b34:	443d      	add	r5, r7
   84b36:	429d      	cmp	r5, r3
   84b38:	f2c0 8295 	blt.w	85066 <_dtoa_r+0x5f6>
   84b3c:	331f      	adds	r3, #31
   84b3e:	f205 4212 	addw	r2, r5, #1042	; 0x412
   84b42:	1b5b      	subs	r3, r3, r5
   84b44:	fa09 f303 	lsl.w	r3, r9, r3
   84b48:	fa2a f202 	lsr.w	r2, sl, r2
   84b4c:	ea43 0002 	orr.w	r0, r3, r2
   84b50:	f7fd f984 	bl	81e5c <__aeabi_ui2d>
   84b54:	2601      	movs	r6, #1
   84b56:	3d01      	subs	r5, #1
   84b58:	46b8      	mov	r8, r7
   84b5a:	f1a1 71f8 	sub.w	r1, r1, #32505856	; 0x1f00000
   84b5e:	9616      	str	r6, [sp, #88]	; 0x58
   84b60:	2200      	movs	r2, #0
   84b62:	4b78      	ldr	r3, [pc, #480]	; (84d44 <_dtoa_r+0x2d4>)
   84b64:	f7fd f83c 	bl	81be0 <__aeabi_dsub>
   84b68:	a36d      	add	r3, pc, #436	; (adr r3, 84d20 <_dtoa_r+0x2b0>)
   84b6a:	e9d3 2300 	ldrd	r2, r3, [r3]
   84b6e:	f7fd f9eb 	bl	81f48 <__aeabi_dmul>
   84b72:	a36d      	add	r3, pc, #436	; (adr r3, 84d28 <_dtoa_r+0x2b8>)
   84b74:	e9d3 2300 	ldrd	r2, r3, [r3]
   84b78:	f7fd f834 	bl	81be4 <__adddf3>
   84b7c:	4606      	mov	r6, r0
   84b7e:	4628      	mov	r0, r5
   84b80:	460f      	mov	r7, r1
   84b82:	f7fd f97b 	bl	81e7c <__aeabi_i2d>
   84b86:	a36a      	add	r3, pc, #424	; (adr r3, 84d30 <_dtoa_r+0x2c0>)
   84b88:	e9d3 2300 	ldrd	r2, r3, [r3]
   84b8c:	f7fd f9dc 	bl	81f48 <__aeabi_dmul>
   84b90:	4602      	mov	r2, r0
   84b92:	460b      	mov	r3, r1
   84b94:	4630      	mov	r0, r6
   84b96:	4639      	mov	r1, r7
   84b98:	f7fd f824 	bl	81be4 <__adddf3>
   84b9c:	4606      	mov	r6, r0
   84b9e:	460f      	mov	r7, r1
   84ba0:	f7fd fc6c 	bl	8247c <__aeabi_d2iz>
   84ba4:	4639      	mov	r1, r7
   84ba6:	9007      	str	r0, [sp, #28]
   84ba8:	2200      	movs	r2, #0
   84baa:	4630      	mov	r0, r6
   84bac:	2300      	movs	r3, #0
   84bae:	f7fd fc3d 	bl	8242c <__aeabi_dcmplt>
   84bb2:	2800      	cmp	r0, #0
   84bb4:	f040 8229 	bne.w	8500a <_dtoa_r+0x59a>
   84bb8:	9e07      	ldr	r6, [sp, #28]
   84bba:	2e16      	cmp	r6, #22
   84bbc:	f200 8222 	bhi.w	85004 <_dtoa_r+0x594>
   84bc0:	4961      	ldr	r1, [pc, #388]	; (84d48 <_dtoa_r+0x2d8>)
   84bc2:	4652      	mov	r2, sl
   84bc4:	eb01 01c6 	add.w	r1, r1, r6, lsl #3
   84bc8:	465b      	mov	r3, fp
   84bca:	e9d1 0100 	ldrd	r0, r1, [r1]
   84bce:	f7fd fc4b 	bl	82468 <__aeabi_dcmpgt>
   84bd2:	2800      	cmp	r0, #0
   84bd4:	f000 824c 	beq.w	85070 <_dtoa_r+0x600>
   84bd8:	3e01      	subs	r6, #1
   84bda:	9607      	str	r6, [sp, #28]
   84bdc:	2600      	movs	r6, #0
   84bde:	960e      	str	r6, [sp, #56]	; 0x38
   84be0:	ebc5 0508 	rsb	r5, r5, r8
   84be4:	3d01      	subs	r5, #1
   84be6:	9506      	str	r5, [sp, #24]
   84be8:	f100 8226 	bmi.w	85038 <_dtoa_r+0x5c8>
   84bec:	2500      	movs	r5, #0
   84bee:	9508      	str	r5, [sp, #32]
   84bf0:	9e07      	ldr	r6, [sp, #28]
   84bf2:	2e00      	cmp	r6, #0
   84bf4:	f2c0 8217 	blt.w	85026 <_dtoa_r+0x5b6>
   84bf8:	9d06      	ldr	r5, [sp, #24]
   84bfa:	960d      	str	r6, [sp, #52]	; 0x34
   84bfc:	4435      	add	r5, r6
   84bfe:	2600      	movs	r6, #0
   84c00:	9506      	str	r5, [sp, #24]
   84c02:	960c      	str	r6, [sp, #48]	; 0x30
   84c04:	9d24      	ldr	r5, [sp, #144]	; 0x90
   84c06:	2d09      	cmp	r5, #9
   84c08:	d82d      	bhi.n	84c66 <_dtoa_r+0x1f6>
   84c0a:	2d05      	cmp	r5, #5
   84c0c:	bfc4      	itt	gt
   84c0e:	3d04      	subgt	r5, #4
   84c10:	9524      	strgt	r5, [sp, #144]	; 0x90
   84c12:	9e24      	ldr	r6, [sp, #144]	; 0x90
   84c14:	bfc8      	it	gt
   84c16:	2500      	movgt	r5, #0
   84c18:	f1a6 0302 	sub.w	r3, r6, #2
   84c1c:	bfd8      	it	le
   84c1e:	2501      	movle	r5, #1
   84c20:	2b03      	cmp	r3, #3
   84c22:	d822      	bhi.n	84c6a <_dtoa_r+0x1fa>
   84c24:	e8df f013 	tbh	[pc, r3, lsl #1]
   84c28:	029e03b7 	.word	0x029e03b7
   84c2c:	049a03c0 	.word	0x049a03c0
   84c30:	4a46      	ldr	r2, [pc, #280]	; (84d4c <_dtoa_r+0x2dc>)
   84c32:	4b43      	ldr	r3, [pc, #268]	; (84d40 <_dtoa_r+0x2d0>)
   84c34:	f3c9 0013 	ubfx	r0, r9, #0, #20
   84c38:	2800      	cmp	r0, #0
   84c3a:	bf0c      	ite	eq
   84c3c:	4610      	moveq	r0, r2
   84c3e:	4618      	movne	r0, r3
   84c40:	e752      	b.n	84ae8 <_dtoa_r+0x78>
   84c42:	f3cb 0313 	ubfx	r3, fp, #0, #20
   84c46:	f043 517f 	orr.w	r1, r3, #1069547520	; 0x3fc00000
   84c4a:	f8cd 8058 	str.w	r8, [sp, #88]	; 0x58
   84c4e:	4650      	mov	r0, sl
   84c50:	f2a5 35ff 	subw	r5, r5, #1023	; 0x3ff
   84c54:	f441 1140 	orr.w	r1, r1, #3145728	; 0x300000
   84c58:	f8dd 8060 	ldr.w	r8, [sp, #96]	; 0x60
   84c5c:	e780      	b.n	84b60 <_dtoa_r+0xf0>
   84c5e:	483c      	ldr	r0, [pc, #240]	; (84d50 <_dtoa_r+0x2e0>)
   84c60:	e736      	b.n	84ad0 <_dtoa_r+0x60>
   84c62:	1cc3      	adds	r3, r0, #3
   84c64:	e749      	b.n	84afa <_dtoa_r+0x8a>
   84c66:	2500      	movs	r5, #0
   84c68:	9524      	str	r5, [sp, #144]	; 0x90
   84c6a:	2500      	movs	r5, #0
   84c6c:	6465      	str	r5, [r4, #68]	; 0x44
   84c6e:	4629      	mov	r1, r5
   84c70:	4620      	mov	r0, r4
   84c72:	f001 fee5 	bl	86a40 <_Balloc>
   84c76:	f04f 39ff 	mov.w	r9, #4294967295
   84c7a:	2601      	movs	r6, #1
   84c7c:	9009      	str	r0, [sp, #36]	; 0x24
   84c7e:	9525      	str	r5, [sp, #148]	; 0x94
   84c80:	6420      	str	r0, [r4, #64]	; 0x40
   84c82:	f8cd 903c 	str.w	r9, [sp, #60]	; 0x3c
   84c86:	960b      	str	r6, [sp, #44]	; 0x2c
   84c88:	9b19      	ldr	r3, [sp, #100]	; 0x64
   84c8a:	2b00      	cmp	r3, #0
   84c8c:	f2c0 80d2 	blt.w	84e34 <_dtoa_r+0x3c4>
   84c90:	9e07      	ldr	r6, [sp, #28]
   84c92:	2e0e      	cmp	r6, #14
   84c94:	f300 80ce 	bgt.w	84e34 <_dtoa_r+0x3c4>
   84c98:	4b2b      	ldr	r3, [pc, #172]	; (84d48 <_dtoa_r+0x2d8>)
   84c9a:	eb03 03c6 	add.w	r3, r3, r6, lsl #3
   84c9e:	e9d3 0100 	ldrd	r0, r1, [r3]
   84ca2:	e9cd 0104 	strd	r0, r1, [sp, #16]
   84ca6:	9925      	ldr	r1, [sp, #148]	; 0x94
   84ca8:	2900      	cmp	r1, #0
   84caa:	f2c0 8380 	blt.w	853ae <_dtoa_r+0x93e>
   84cae:	e9dd 2304 	ldrd	r2, r3, [sp, #16]
   84cb2:	4659      	mov	r1, fp
   84cb4:	4650      	mov	r0, sl
   84cb6:	f7fd fa71 	bl	8219c <__aeabi_ddiv>
   84cba:	f7fd fbdf 	bl	8247c <__aeabi_d2iz>
   84cbe:	4605      	mov	r5, r0
   84cc0:	f7fd f8dc 	bl	81e7c <__aeabi_i2d>
   84cc4:	e9dd 2304 	ldrd	r2, r3, [sp, #16]
   84cc8:	f7fd f93e 	bl	81f48 <__aeabi_dmul>
   84ccc:	4602      	mov	r2, r0
   84cce:	460b      	mov	r3, r1
   84cd0:	4650      	mov	r0, sl
   84cd2:	4659      	mov	r1, fp
   84cd4:	f7fc ff84 	bl	81be0 <__aeabi_dsub>
   84cd8:	9a09      	ldr	r2, [sp, #36]	; 0x24
   84cda:	f105 0330 	add.w	r3, r5, #48	; 0x30
   84cde:	f1b9 0f01 	cmp.w	r9, #1
   84ce2:	4606      	mov	r6, r0
   84ce4:	460f      	mov	r7, r1
   84ce6:	7013      	strb	r3, [r2, #0]
   84ce8:	f102 0b01 	add.w	fp, r2, #1
   84cec:	d064      	beq.n	84db8 <_dtoa_r+0x348>
   84cee:	2200      	movs	r2, #0
   84cf0:	4b18      	ldr	r3, [pc, #96]	; (84d54 <_dtoa_r+0x2e4>)
   84cf2:	f7fd f929 	bl	81f48 <__aeabi_dmul>
   84cf6:	2200      	movs	r2, #0
   84cf8:	2300      	movs	r3, #0
   84cfa:	4606      	mov	r6, r0
   84cfc:	460f      	mov	r7, r1
   84cfe:	f7fd fb8b 	bl	82418 <__aeabi_dcmpeq>
   84d02:	2800      	cmp	r0, #0
   84d04:	f040 8081 	bne.w	84e0a <_dtoa_r+0x39a>
   84d08:	f8dd 8024 	ldr.w	r8, [sp, #36]	; 0x24
   84d0c:	9d09      	ldr	r5, [sp, #36]	; 0x24
   84d0e:	44c8      	add	r8, r9
   84d10:	e9dd ab04 	ldrd	sl, fp, [sp, #16]
   84d14:	f105 0902 	add.w	r9, r5, #2
   84d18:	9403      	str	r4, [sp, #12]
   84d1a:	e028      	b.n	84d6e <_dtoa_r+0x2fe>
   84d1c:	f3af 8000 	nop.w
   84d20:	636f4361 	.word	0x636f4361
   84d24:	3fd287a7 	.word	0x3fd287a7
   84d28:	8b60c8b3 	.word	0x8b60c8b3
   84d2c:	3fc68a28 	.word	0x3fc68a28
   84d30:	509f79fb 	.word	0x509f79fb
   84d34:	3fd34413 	.word	0x3fd34413
   84d38:	7ff00000 	.word	0x7ff00000
   84d3c:	00088015 	.word	0x00088015
   84d40:	00088054 	.word	0x00088054
   84d44:	3ff80000 	.word	0x3ff80000
   84d48:	00088068 	.word	0x00088068
   84d4c:	00088048 	.word	0x00088048
   84d50:	00088014 	.word	0x00088014
   84d54:	40240000 	.word	0x40240000
   84d58:	f7fd f8f6 	bl	81f48 <__aeabi_dmul>
   84d5c:	2200      	movs	r2, #0
   84d5e:	2300      	movs	r3, #0
   84d60:	4606      	mov	r6, r0
   84d62:	460f      	mov	r7, r1
   84d64:	f7fd fb58 	bl	82418 <__aeabi_dcmpeq>
   84d68:	2800      	cmp	r0, #0
   84d6a:	f040 83c1 	bne.w	854f0 <_dtoa_r+0xa80>
   84d6e:	4652      	mov	r2, sl
   84d70:	465b      	mov	r3, fp
   84d72:	4630      	mov	r0, r6
   84d74:	4639      	mov	r1, r7
   84d76:	f7fd fa11 	bl	8219c <__aeabi_ddiv>
   84d7a:	f7fd fb7f 	bl	8247c <__aeabi_d2iz>
   84d7e:	4605      	mov	r5, r0
   84d80:	f7fd f87c 	bl	81e7c <__aeabi_i2d>
   84d84:	4652      	mov	r2, sl
   84d86:	465b      	mov	r3, fp
   84d88:	f7fd f8de 	bl	81f48 <__aeabi_dmul>
   84d8c:	4602      	mov	r2, r0
   84d8e:	460b      	mov	r3, r1
   84d90:	4630      	mov	r0, r6
   84d92:	4639      	mov	r1, r7
   84d94:	f7fc ff24 	bl	81be0 <__aeabi_dsub>
   84d98:	f105 0e30 	add.w	lr, r5, #48	; 0x30
   84d9c:	45c1      	cmp	r9, r8
   84d9e:	f809 ec01 	strb.w	lr, [r9, #-1]
   84da2:	464c      	mov	r4, r9
   84da4:	4606      	mov	r6, r0
   84da6:	460f      	mov	r7, r1
   84da8:	f04f 0200 	mov.w	r2, #0
   84dac:	4ba7      	ldr	r3, [pc, #668]	; (8504c <_dtoa_r+0x5dc>)
   84dae:	f109 0901 	add.w	r9, r9, #1
   84db2:	d1d1      	bne.n	84d58 <_dtoa_r+0x2e8>
   84db4:	46a3      	mov	fp, r4
   84db6:	9c03      	ldr	r4, [sp, #12]
   84db8:	4632      	mov	r2, r6
   84dba:	463b      	mov	r3, r7
   84dbc:	4630      	mov	r0, r6
   84dbe:	4639      	mov	r1, r7
   84dc0:	f7fc ff10 	bl	81be4 <__adddf3>
   84dc4:	4606      	mov	r6, r0
   84dc6:	460f      	mov	r7, r1
   84dc8:	4632      	mov	r2, r6
   84dca:	e9dd 0104 	ldrd	r0, r1, [sp, #16]
   84dce:	463b      	mov	r3, r7
   84dd0:	f7fd fb2c 	bl	8242c <__aeabi_dcmplt>
   84dd4:	b940      	cbnz	r0, 84de8 <_dtoa_r+0x378>
   84dd6:	e9dd 0104 	ldrd	r0, r1, [sp, #16]
   84dda:	4632      	mov	r2, r6
   84ddc:	463b      	mov	r3, r7
   84dde:	f7fd fb1b 	bl	82418 <__aeabi_dcmpeq>
   84de2:	b190      	cbz	r0, 84e0a <_dtoa_r+0x39a>
   84de4:	07eb      	lsls	r3, r5, #31
   84de6:	d510      	bpl.n	84e0a <_dtoa_r+0x39a>
   84de8:	f81b 5c01 	ldrb.w	r5, [fp, #-1]
   84dec:	9a09      	ldr	r2, [sp, #36]	; 0x24
   84dee:	e005      	b.n	84dfc <_dtoa_r+0x38c>
   84df0:	429a      	cmp	r2, r3
   84df2:	f000 8429 	beq.w	85648 <_dtoa_r+0xbd8>
   84df6:	f813 5c01 	ldrb.w	r5, [r3, #-1]
   84dfa:	469b      	mov	fp, r3
   84dfc:	2d39      	cmp	r5, #57	; 0x39
   84dfe:	f10b 33ff 	add.w	r3, fp, #4294967295
   84e02:	d0f5      	beq.n	84df0 <_dtoa_r+0x380>
   84e04:	1c6a      	adds	r2, r5, #1
   84e06:	b2d2      	uxtb	r2, r2
   84e08:	701a      	strb	r2, [r3, #0]
   84e0a:	4620      	mov	r0, r4
   84e0c:	990a      	ldr	r1, [sp, #40]	; 0x28
   84e0e:	f001 fe3d 	bl	86a8c <_Bfree>
   84e12:	9e07      	ldr	r6, [sp, #28]
   84e14:	9d26      	ldr	r5, [sp, #152]	; 0x98
   84e16:	1c73      	adds	r3, r6, #1
   84e18:	9e28      	ldr	r6, [sp, #160]	; 0xa0
   84e1a:	2200      	movs	r2, #0
   84e1c:	f88b 2000 	strb.w	r2, [fp]
   84e20:	602b      	str	r3, [r5, #0]
   84e22:	2e00      	cmp	r6, #0
   84e24:	f000 8325 	beq.w	85472 <_dtoa_r+0xa02>
   84e28:	9809      	ldr	r0, [sp, #36]	; 0x24
   84e2a:	f8c6 b000 	str.w	fp, [r6]
   84e2e:	b01b      	add	sp, #108	; 0x6c
   84e30:	e8bd 8ff0 	ldmia.w	sp!, {r4, r5, r6, r7, r8, r9, sl, fp, pc}
   84e34:	9d0b      	ldr	r5, [sp, #44]	; 0x2c
   84e36:	2d00      	cmp	r5, #0
   84e38:	f000 8103 	beq.w	85042 <_dtoa_r+0x5d2>
   84e3c:	9e24      	ldr	r6, [sp, #144]	; 0x90
   84e3e:	2e01      	cmp	r6, #1
   84e40:	f340 82dc 	ble.w	853fc <_dtoa_r+0x98c>
   84e44:	9e0c      	ldr	r6, [sp, #48]	; 0x30
   84e46:	f109 37ff 	add.w	r7, r9, #4294967295
   84e4a:	42be      	cmp	r6, r7
   84e4c:	f2c0 8389 	blt.w	85562 <_dtoa_r+0xaf2>
   84e50:	1bf7      	subs	r7, r6, r7
   84e52:	f1b9 0f00 	cmp.w	r9, #0
   84e56:	f2c0 8487 	blt.w	85768 <_dtoa_r+0xcf8>
   84e5a:	9d08      	ldr	r5, [sp, #32]
   84e5c:	464b      	mov	r3, r9
   84e5e:	9e08      	ldr	r6, [sp, #32]
   84e60:	4620      	mov	r0, r4
   84e62:	441e      	add	r6, r3
   84e64:	9608      	str	r6, [sp, #32]
   84e66:	9e06      	ldr	r6, [sp, #24]
   84e68:	2101      	movs	r1, #1
   84e6a:	441e      	add	r6, r3
   84e6c:	9606      	str	r6, [sp, #24]
   84e6e:	f001 feaf 	bl	86bd0 <__i2b>
   84e72:	4606      	mov	r6, r0
   84e74:	b165      	cbz	r5, 84e90 <_dtoa_r+0x420>
   84e76:	9806      	ldr	r0, [sp, #24]
   84e78:	2800      	cmp	r0, #0
   84e7a:	dd09      	ble.n	84e90 <_dtoa_r+0x420>
   84e7c:	4603      	mov	r3, r0
   84e7e:	9908      	ldr	r1, [sp, #32]
   84e80:	42ab      	cmp	r3, r5
   84e82:	bfa8      	it	ge
   84e84:	462b      	movge	r3, r5
   84e86:	1ac9      	subs	r1, r1, r3
   84e88:	1ac0      	subs	r0, r0, r3
   84e8a:	9108      	str	r1, [sp, #32]
   84e8c:	1aed      	subs	r5, r5, r3
   84e8e:	9006      	str	r0, [sp, #24]
   84e90:	9a0c      	ldr	r2, [sp, #48]	; 0x30
   84e92:	2a00      	cmp	r2, #0
   84e94:	dd1d      	ble.n	84ed2 <_dtoa_r+0x462>
   84e96:	9b0b      	ldr	r3, [sp, #44]	; 0x2c
   84e98:	2b00      	cmp	r3, #0
   84e9a:	f000 8358 	beq.w	8554e <_dtoa_r+0xade>
   84e9e:	2f00      	cmp	r7, #0
   84ea0:	dd11      	ble.n	84ec6 <_dtoa_r+0x456>
   84ea2:	4631      	mov	r1, r6
   84ea4:	463a      	mov	r2, r7
   84ea6:	4620      	mov	r0, r4
   84ea8:	f001 ff3a 	bl	86d20 <__pow5mult>
   84eac:	4606      	mov	r6, r0
   84eae:	4631      	mov	r1, r6
   84eb0:	9a0a      	ldr	r2, [sp, #40]	; 0x28
   84eb2:	4620      	mov	r0, r4
   84eb4:	f001 fe96 	bl	86be4 <__multiply>
   84eb8:	990a      	ldr	r1, [sp, #40]	; 0x28
   84eba:	4680      	mov	r8, r0
   84ebc:	4620      	mov	r0, r4
   84ebe:	f001 fde5 	bl	86a8c <_Bfree>
   84ec2:	f8cd 8028 	str.w	r8, [sp, #40]	; 0x28
   84ec6:	f8dd e030 	ldr.w	lr, [sp, #48]	; 0x30
   84eca:	ebbe 0207 	subs.w	r2, lr, r7
   84ece:	f040 828f 	bne.w	853f0 <_dtoa_r+0x980>
   84ed2:	4620      	mov	r0, r4
   84ed4:	2101      	movs	r1, #1
   84ed6:	f001 fe7b 	bl	86bd0 <__i2b>
   84eda:	4680      	mov	r8, r0
   84edc:	980d      	ldr	r0, [sp, #52]	; 0x34
   84ede:	2800      	cmp	r0, #0
   84ee0:	dd05      	ble.n	84eee <_dtoa_r+0x47e>
   84ee2:	4641      	mov	r1, r8
   84ee4:	4620      	mov	r0, r4
   84ee6:	9a0d      	ldr	r2, [sp, #52]	; 0x34
   84ee8:	f001 ff1a 	bl	86d20 <__pow5mult>
   84eec:	4680      	mov	r8, r0
   84eee:	9924      	ldr	r1, [sp, #144]	; 0x90
   84ef0:	2901      	cmp	r1, #1
   84ef2:	f340 82c1 	ble.w	85478 <_dtoa_r+0xa08>
   84ef6:	2700      	movs	r7, #0
   84ef8:	980d      	ldr	r0, [sp, #52]	; 0x34
   84efa:	2800      	cmp	r0, #0
   84efc:	f040 82af 	bne.w	8545e <_dtoa_r+0x9ee>
   84f00:	2001      	movs	r0, #1
   84f02:	9b06      	ldr	r3, [sp, #24]
   84f04:	4403      	add	r3, r0
   84f06:	f013 031f 	ands.w	r3, r3, #31
   84f0a:	f000 80a1 	beq.w	85050 <_dtoa_r+0x5e0>
   84f0e:	f1c3 0220 	rsb	r2, r3, #32
   84f12:	2a04      	cmp	r2, #4
   84f14:	f340 84b7 	ble.w	85886 <_dtoa_r+0xe16>
   84f18:	9908      	ldr	r1, [sp, #32]
   84f1a:	9a06      	ldr	r2, [sp, #24]
   84f1c:	f1c3 031c 	rsb	r3, r3, #28
   84f20:	4419      	add	r1, r3
   84f22:	441a      	add	r2, r3
   84f24:	9108      	str	r1, [sp, #32]
   84f26:	441d      	add	r5, r3
   84f28:	9206      	str	r2, [sp, #24]
   84f2a:	9908      	ldr	r1, [sp, #32]
   84f2c:	2900      	cmp	r1, #0
   84f2e:	dd05      	ble.n	84f3c <_dtoa_r+0x4cc>
   84f30:	990a      	ldr	r1, [sp, #40]	; 0x28
   84f32:	9a08      	ldr	r2, [sp, #32]
   84f34:	4620      	mov	r0, r4
   84f36:	f001 ff41 	bl	86dbc <__lshift>
   84f3a:	900a      	str	r0, [sp, #40]	; 0x28
   84f3c:	9a06      	ldr	r2, [sp, #24]
   84f3e:	2a00      	cmp	r2, #0
   84f40:	dd04      	ble.n	84f4c <_dtoa_r+0x4dc>
   84f42:	4641      	mov	r1, r8
   84f44:	4620      	mov	r0, r4
   84f46:	f001 ff39 	bl	86dbc <__lshift>
   84f4a:	4680      	mov	r8, r0
   84f4c:	9b0e      	ldr	r3, [sp, #56]	; 0x38
   84f4e:	2b00      	cmp	r3, #0
   84f50:	f040 826a 	bne.w	85428 <_dtoa_r+0x9b8>
   84f54:	f1b9 0f00 	cmp.w	r9, #0
   84f58:	f340 82a6 	ble.w	854a8 <_dtoa_r+0xa38>
   84f5c:	980b      	ldr	r0, [sp, #44]	; 0x2c
   84f5e:	2800      	cmp	r0, #0
   84f60:	f040 8088 	bne.w	85074 <_dtoa_r+0x604>
   84f64:	9d0b      	ldr	r5, [sp, #44]	; 0x2c
   84f66:	9f0a      	ldr	r7, [sp, #40]	; 0x28
   84f68:	f8dd b024 	ldr.w	fp, [sp, #36]	; 0x24
   84f6c:	e006      	b.n	84f7c <_dtoa_r+0x50c>
   84f6e:	4639      	mov	r1, r7
   84f70:	4620      	mov	r0, r4
   84f72:	220a      	movs	r2, #10
   84f74:	2300      	movs	r3, #0
   84f76:	f001 fd93 	bl	86aa0 <__multadd>
   84f7a:	4607      	mov	r7, r0
   84f7c:	4638      	mov	r0, r7
   84f7e:	4641      	mov	r1, r8
   84f80:	f7ff fcdc 	bl	8493c <quorem>
   84f84:	3030      	adds	r0, #48	; 0x30
   84f86:	f80b 0005 	strb.w	r0, [fp, r5]
   84f8a:	3501      	adds	r5, #1
   84f8c:	45a9      	cmp	r9, r5
   84f8e:	dcee      	bgt.n	84f6e <_dtoa_r+0x4fe>
   84f90:	f8dd b024 	ldr.w	fp, [sp, #36]	; 0x24
   84f94:	4682      	mov	sl, r0
   84f96:	970a      	str	r7, [sp, #40]	; 0x28
   84f98:	f1b9 0f01 	cmp.w	r9, #1
   84f9c:	bfac      	ite	ge
   84f9e:	44cb      	addge	fp, r9
   84fa0:	f10b 0b01 	addlt.w	fp, fp, #1
   84fa4:	2500      	movs	r5, #0
   84fa6:	990a      	ldr	r1, [sp, #40]	; 0x28
   84fa8:	2201      	movs	r2, #1
   84faa:	4620      	mov	r0, r4
   84fac:	f001 ff06 	bl	86dbc <__lshift>
   84fb0:	4641      	mov	r1, r8
   84fb2:	900a      	str	r0, [sp, #40]	; 0x28
   84fb4:	f001 ff60 	bl	86e78 <__mcmp>
   84fb8:	2800      	cmp	r0, #0
   84fba:	f340 8309 	ble.w	855d0 <_dtoa_r+0xb60>
   84fbe:	f81b 2c01 	ldrb.w	r2, [fp, #-1]
   84fc2:	9909      	ldr	r1, [sp, #36]	; 0x24
   84fc4:	e005      	b.n	84fd2 <_dtoa_r+0x562>
   84fc6:	4299      	cmp	r1, r3
   84fc8:	f000 828b 	beq.w	854e2 <_dtoa_r+0xa72>
   84fcc:	f813 2c01 	ldrb.w	r2, [r3, #-1]
   84fd0:	469b      	mov	fp, r3
   84fd2:	2a39      	cmp	r2, #57	; 0x39
   84fd4:	f10b 33ff 	add.w	r3, fp, #4294967295
   84fd8:	d0f5      	beq.n	84fc6 <_dtoa_r+0x556>
   84fda:	3201      	adds	r2, #1
   84fdc:	701a      	strb	r2, [r3, #0]
   84fde:	4641      	mov	r1, r8
   84fe0:	4620      	mov	r0, r4
   84fe2:	f001 fd53 	bl	86a8c <_Bfree>
   84fe6:	2e00      	cmp	r6, #0
   84fe8:	f43f af0f 	beq.w	84e0a <_dtoa_r+0x39a>
   84fec:	b12d      	cbz	r5, 84ffa <_dtoa_r+0x58a>
   84fee:	42b5      	cmp	r5, r6
   84ff0:	d003      	beq.n	84ffa <_dtoa_r+0x58a>
   84ff2:	4629      	mov	r1, r5
   84ff4:	4620      	mov	r0, r4
   84ff6:	f001 fd49 	bl	86a8c <_Bfree>
   84ffa:	4631      	mov	r1, r6
   84ffc:	4620      	mov	r0, r4
   84ffe:	f001 fd45 	bl	86a8c <_Bfree>
   85002:	e702      	b.n	84e0a <_dtoa_r+0x39a>
   85004:	2601      	movs	r6, #1
   85006:	960e      	str	r6, [sp, #56]	; 0x38
   85008:	e5ea      	b.n	84be0 <_dtoa_r+0x170>
   8500a:	9807      	ldr	r0, [sp, #28]
   8500c:	f7fc ff36 	bl	81e7c <__aeabi_i2d>
   85010:	4632      	mov	r2, r6
   85012:	463b      	mov	r3, r7
   85014:	f7fd fa00 	bl	82418 <__aeabi_dcmpeq>
   85018:	2800      	cmp	r0, #0
   8501a:	f47f adcd 	bne.w	84bb8 <_dtoa_r+0x148>
   8501e:	9e07      	ldr	r6, [sp, #28]
   85020:	3e01      	subs	r6, #1
   85022:	9607      	str	r6, [sp, #28]
   85024:	e5c8      	b.n	84bb8 <_dtoa_r+0x148>
   85026:	9e07      	ldr	r6, [sp, #28]
   85028:	9d08      	ldr	r5, [sp, #32]
   8502a:	1bad      	subs	r5, r5, r6
   8502c:	9508      	str	r5, [sp, #32]
   8502e:	4275      	negs	r5, r6
   85030:	2600      	movs	r6, #0
   85032:	950c      	str	r5, [sp, #48]	; 0x30
   85034:	960d      	str	r6, [sp, #52]	; 0x34
   85036:	e5e5      	b.n	84c04 <_dtoa_r+0x194>
   85038:	426d      	negs	r5, r5
   8503a:	2600      	movs	r6, #0
   8503c:	9508      	str	r5, [sp, #32]
   8503e:	9606      	str	r6, [sp, #24]
   85040:	e5d6      	b.n	84bf0 <_dtoa_r+0x180>
   85042:	9f0c      	ldr	r7, [sp, #48]	; 0x30
   85044:	9d08      	ldr	r5, [sp, #32]
   85046:	9e0b      	ldr	r6, [sp, #44]	; 0x2c
   85048:	e714      	b.n	84e74 <_dtoa_r+0x404>
   8504a:	bf00      	nop
   8504c:	40240000 	.word	0x40240000
   85050:	231c      	movs	r3, #28
   85052:	f8dd e020 	ldr.w	lr, [sp, #32]
   85056:	9806      	ldr	r0, [sp, #24]
   85058:	449e      	add	lr, r3
   8505a:	4418      	add	r0, r3
   8505c:	f8cd e020 	str.w	lr, [sp, #32]
   85060:	441d      	add	r5, r3
   85062:	9006      	str	r0, [sp, #24]
   85064:	e761      	b.n	84f2a <_dtoa_r+0x4ba>
   85066:	48a7      	ldr	r0, [pc, #668]	; (85304 <_dtoa_r+0x894>)
   85068:	1b40      	subs	r0, r0, r5
   8506a:	fa0a f000 	lsl.w	r0, sl, r0
   8506e:	e56f      	b.n	84b50 <_dtoa_r+0xe0>
   85070:	900e      	str	r0, [sp, #56]	; 0x38
   85072:	e5b5      	b.n	84be0 <_dtoa_r+0x170>
   85074:	2d00      	cmp	r5, #0
   85076:	dd05      	ble.n	85084 <_dtoa_r+0x614>
   85078:	4631      	mov	r1, r6
   8507a:	462a      	mov	r2, r5
   8507c:	4620      	mov	r0, r4
   8507e:	f001 fe9d 	bl	86dbc <__lshift>
   85082:	4606      	mov	r6, r0
   85084:	2f00      	cmp	r7, #0
   85086:	f040 82e9 	bne.w	8565c <_dtoa_r+0xbec>
   8508a:	4637      	mov	r7, r6
   8508c:	9d09      	ldr	r5, [sp, #36]	; 0x24
   8508e:	9809      	ldr	r0, [sp, #36]	; 0x24
   85090:	444d      	add	r5, r9
   85092:	9508      	str	r5, [sp, #32]
   85094:	f00a 0501 	and.w	r5, sl, #1
   85098:	950b      	str	r5, [sp, #44]	; 0x2c
   8509a:	f8dd 9028 	ldr.w	r9, [sp, #40]	; 0x28
   8509e:	1c45      	adds	r5, r0, #1
   850a0:	e00a      	b.n	850b8 <_dtoa_r+0x648>
   850a2:	f001 fcfd 	bl	86aa0 <__multadd>
   850a6:	4639      	mov	r1, r7
   850a8:	4606      	mov	r6, r0
   850aa:	220a      	movs	r2, #10
   850ac:	4620      	mov	r0, r4
   850ae:	2300      	movs	r3, #0
   850b0:	f001 fcf6 	bl	86aa0 <__multadd>
   850b4:	4607      	mov	r7, r0
   850b6:	3501      	adds	r5, #1
   850b8:	4641      	mov	r1, r8
   850ba:	4648      	mov	r0, r9
   850bc:	f7ff fc3e 	bl	8493c <quorem>
   850c0:	4631      	mov	r1, r6
   850c2:	4683      	mov	fp, r0
   850c4:	4648      	mov	r0, r9
   850c6:	f001 fed7 	bl	86e78 <__mcmp>
   850ca:	4641      	mov	r1, r8
   850cc:	9003      	str	r0, [sp, #12]
   850ce:	463a      	mov	r2, r7
   850d0:	4620      	mov	r0, r4
   850d2:	f001 fef5 	bl	86ec0 <__mdiff>
   850d6:	68c2      	ldr	r2, [r0, #12]
   850d8:	1e69      	subs	r1, r5, #1
   850da:	4603      	mov	r3, r0
   850dc:	f10b 0a30 	add.w	sl, fp, #48	; 0x30
   850e0:	9106      	str	r1, [sp, #24]
   850e2:	2a00      	cmp	r2, #0
   850e4:	f040 8193 	bne.w	8540e <_dtoa_r+0x99e>
   850e8:	4619      	mov	r1, r3
   850ea:	4648      	mov	r0, r9
   850ec:	9302      	str	r3, [sp, #8]
   850ee:	f001 fec3 	bl	86e78 <__mcmp>
   850f2:	9b02      	ldr	r3, [sp, #8]
   850f4:	4602      	mov	r2, r0
   850f6:	4619      	mov	r1, r3
   850f8:	4620      	mov	r0, r4
   850fa:	9202      	str	r2, [sp, #8]
   850fc:	f001 fcc6 	bl	86a8c <_Bfree>
   85100:	9a02      	ldr	r2, [sp, #8]
   85102:	b92a      	cbnz	r2, 85110 <_dtoa_r+0x6a0>
   85104:	9b24      	ldr	r3, [sp, #144]	; 0x90
   85106:	b91b      	cbnz	r3, 85110 <_dtoa_r+0x6a0>
   85108:	980b      	ldr	r0, [sp, #44]	; 0x2c
   8510a:	2800      	cmp	r0, #0
   8510c:	f000 8393 	beq.w	85836 <_dtoa_r+0xdc6>
   85110:	9b03      	ldr	r3, [sp, #12]
   85112:	2b00      	cmp	r3, #0
   85114:	f2c0 8234 	blt.w	85580 <_dtoa_r+0xb10>
   85118:	d105      	bne.n	85126 <_dtoa_r+0x6b6>
   8511a:	9824      	ldr	r0, [sp, #144]	; 0x90
   8511c:	b918      	cbnz	r0, 85126 <_dtoa_r+0x6b6>
   8511e:	990b      	ldr	r1, [sp, #44]	; 0x2c
   85120:	2900      	cmp	r1, #0
   85122:	f000 822d 	beq.w	85580 <_dtoa_r+0xb10>
   85126:	2a00      	cmp	r2, #0
   85128:	f300 82ac 	bgt.w	85684 <_dtoa_r+0xc14>
   8512c:	f8dd e020 	ldr.w	lr, [sp, #32]
   85130:	f805 ac01 	strb.w	sl, [r5, #-1]
   85134:	4575      	cmp	r5, lr
   85136:	46ab      	mov	fp, r5
   85138:	f000 82b4 	beq.w	856a4 <_dtoa_r+0xc34>
   8513c:	4649      	mov	r1, r9
   8513e:	220a      	movs	r2, #10
   85140:	2300      	movs	r3, #0
   85142:	4620      	mov	r0, r4
   85144:	f001 fcac 	bl	86aa0 <__multadd>
   85148:	42be      	cmp	r6, r7
   8514a:	4681      	mov	r9, r0
   8514c:	4631      	mov	r1, r6
   8514e:	4620      	mov	r0, r4
   85150:	f04f 020a 	mov.w	r2, #10
   85154:	f04f 0300 	mov.w	r3, #0
   85158:	d1a3      	bne.n	850a2 <_dtoa_r+0x632>
   8515a:	f001 fca1 	bl	86aa0 <__multadd>
   8515e:	4606      	mov	r6, r0
   85160:	4607      	mov	r7, r0
   85162:	e7a8      	b.n	850b6 <_dtoa_r+0x646>
   85164:	2600      	movs	r6, #0
   85166:	960b      	str	r6, [sp, #44]	; 0x2c
   85168:	9e07      	ldr	r6, [sp, #28]
   8516a:	f8dd e094 	ldr.w	lr, [sp, #148]	; 0x94
   8516e:	44b6      	add	lr, r6
   85170:	f10e 0901 	add.w	r9, lr, #1
   85174:	f1b9 0f00 	cmp.w	r9, #0
   85178:	f8cd e03c 	str.w	lr, [sp, #60]	; 0x3c
   8517c:	464e      	mov	r6, r9
   8517e:	f340 8150 	ble.w	85422 <_dtoa_r+0x9b2>
   85182:	2100      	movs	r1, #0
   85184:	2e17      	cmp	r6, #23
   85186:	6461      	str	r1, [r4, #68]	; 0x44
   85188:	d90a      	bls.n	851a0 <_dtoa_r+0x730>
   8518a:	2201      	movs	r2, #1
   8518c:	2304      	movs	r3, #4
   8518e:	005b      	lsls	r3, r3, #1
   85190:	f103 0014 	add.w	r0, r3, #20
   85194:	42b0      	cmp	r0, r6
   85196:	4611      	mov	r1, r2
   85198:	f102 0201 	add.w	r2, r2, #1
   8519c:	d9f7      	bls.n	8518e <_dtoa_r+0x71e>
   8519e:	6461      	str	r1, [r4, #68]	; 0x44
   851a0:	4620      	mov	r0, r4
   851a2:	f001 fc4d 	bl	86a40 <_Balloc>
   851a6:	2e0e      	cmp	r6, #14
   851a8:	9009      	str	r0, [sp, #36]	; 0x24
   851aa:	6420      	str	r0, [r4, #64]	; 0x40
   851ac:	f63f ad6c 	bhi.w	84c88 <_dtoa_r+0x218>
   851b0:	2d00      	cmp	r5, #0
   851b2:	f43f ad69 	beq.w	84c88 <_dtoa_r+0x218>
   851b6:	9d07      	ldr	r5, [sp, #28]
   851b8:	e9cd ab12 	strd	sl, fp, [sp, #72]	; 0x48
   851bc:	2d00      	cmp	r5, #0
   851be:	f340 821c 	ble.w	855fa <_dtoa_r+0xb8a>
   851c2:	4b51      	ldr	r3, [pc, #324]	; (85308 <_dtoa_r+0x898>)
   851c4:	f005 020f 	and.w	r2, r5, #15
   851c8:	eb03 03c2 	add.w	r3, r3, r2, lsl #3
   851cc:	112d      	asrs	r5, r5, #4
   851ce:	e9d3 6700 	ldrd	r6, r7, [r3]
   851d2:	06eb      	lsls	r3, r5, #27
   851d4:	f140 81cd 	bpl.w	85572 <_dtoa_r+0xb02>
   851d8:	4b4c      	ldr	r3, [pc, #304]	; (8530c <_dtoa_r+0x89c>)
   851da:	4650      	mov	r0, sl
   851dc:	4659      	mov	r1, fp
   851de:	e9d3 2308 	ldrd	r2, r3, [r3, #32]
   851e2:	f7fc ffdb 	bl	8219c <__aeabi_ddiv>
   851e6:	e9cd 0110 	strd	r0, r1, [sp, #64]	; 0x40
   851ea:	f005 050f 	and.w	r5, r5, #15
   851ee:	f04f 0803 	mov.w	r8, #3
   851f2:	b18d      	cbz	r5, 85218 <_dtoa_r+0x7a8>
   851f4:	f8df a114 	ldr.w	sl, [pc, #276]	; 8530c <_dtoa_r+0x89c>
   851f8:	4630      	mov	r0, r6
   851fa:	4639      	mov	r1, r7
   851fc:	07ee      	lsls	r6, r5, #31
   851fe:	d505      	bpl.n	8520c <_dtoa_r+0x79c>
   85200:	e9da 2300 	ldrd	r2, r3, [sl]
   85204:	f108 0801 	add.w	r8, r8, #1
   85208:	f7fc fe9e 	bl	81f48 <__aeabi_dmul>
   8520c:	106d      	asrs	r5, r5, #1
   8520e:	f10a 0a08 	add.w	sl, sl, #8
   85212:	d1f3      	bne.n	851fc <_dtoa_r+0x78c>
   85214:	4606      	mov	r6, r0
   85216:	460f      	mov	r7, r1
   85218:	e9dd 0110 	ldrd	r0, r1, [sp, #64]	; 0x40
   8521c:	4632      	mov	r2, r6
   8521e:	463b      	mov	r3, r7
   85220:	f7fc ffbc 	bl	8219c <__aeabi_ddiv>
   85224:	4682      	mov	sl, r0
   85226:	468b      	mov	fp, r1
   85228:	9d0e      	ldr	r5, [sp, #56]	; 0x38
   8522a:	b145      	cbz	r5, 8523e <_dtoa_r+0x7ce>
   8522c:	4650      	mov	r0, sl
   8522e:	4659      	mov	r1, fp
   85230:	2200      	movs	r2, #0
   85232:	4b37      	ldr	r3, [pc, #220]	; (85310 <_dtoa_r+0x8a0>)
   85234:	f7fd f8fa 	bl	8242c <__aeabi_dcmplt>
   85238:	2800      	cmp	r0, #0
   8523a:	f040 82aa 	bne.w	85792 <_dtoa_r+0xd22>
   8523e:	4640      	mov	r0, r8
   85240:	f7fc fe1c 	bl	81e7c <__aeabi_i2d>
   85244:	4652      	mov	r2, sl
   85246:	465b      	mov	r3, fp
   85248:	f7fc fe7e 	bl	81f48 <__aeabi_dmul>
   8524c:	2200      	movs	r2, #0
   8524e:	4b31      	ldr	r3, [pc, #196]	; (85314 <_dtoa_r+0x8a4>)
   85250:	f7fc fcc8 	bl	81be4 <__adddf3>
   85254:	4606      	mov	r6, r0
   85256:	f1a1 7750 	sub.w	r7, r1, #54525952	; 0x3400000
   8525a:	f1b9 0f00 	cmp.w	r9, #0
   8525e:	f000 815a 	beq.w	85516 <_dtoa_r+0xaa6>
   85262:	9d07      	ldr	r5, [sp, #28]
   85264:	46c8      	mov	r8, r9
   85266:	9517      	str	r5, [sp, #92]	; 0x5c
   85268:	9d0b      	ldr	r5, [sp, #44]	; 0x2c
   8526a:	2d00      	cmp	r5, #0
   8526c:	f000 8223 	beq.w	856b6 <_dtoa_r+0xc46>
   85270:	4b25      	ldr	r3, [pc, #148]	; (85308 <_dtoa_r+0x898>)
   85272:	2000      	movs	r0, #0
   85274:	eb03 03c8 	add.w	r3, r3, r8, lsl #3
   85278:	e953 2302 	ldrd	r2, r3, [r3, #-8]
   8527c:	4926      	ldr	r1, [pc, #152]	; (85318 <_dtoa_r+0x8a8>)
   8527e:	f7fc ff8d 	bl	8219c <__aeabi_ddiv>
   85282:	4632      	mov	r2, r6
   85284:	463b      	mov	r3, r7
   85286:	f7fc fcab 	bl	81be0 <__aeabi_dsub>
   8528a:	e9cd 0110 	strd	r0, r1, [sp, #64]	; 0x40
   8528e:	4659      	mov	r1, fp
   85290:	4650      	mov	r0, sl
   85292:	f7fd f8f3 	bl	8247c <__aeabi_d2iz>
   85296:	4605      	mov	r5, r0
   85298:	f7fc fdf0 	bl	81e7c <__aeabi_i2d>
   8529c:	4602      	mov	r2, r0
   8529e:	460b      	mov	r3, r1
   852a0:	4650      	mov	r0, sl
   852a2:	4659      	mov	r1, fp
   852a4:	f7fc fc9c 	bl	81be0 <__aeabi_dsub>
   852a8:	3530      	adds	r5, #48	; 0x30
   852aa:	9e09      	ldr	r6, [sp, #36]	; 0x24
   852ac:	e9cd 0104 	strd	r0, r1, [sp, #16]
   852b0:	e9dd 2304 	ldrd	r2, r3, [sp, #16]
   852b4:	e9dd 0110 	ldrd	r0, r1, [sp, #64]	; 0x40
   852b8:	b2ed      	uxtb	r5, r5
   852ba:	7035      	strb	r5, [r6, #0]
   852bc:	f106 0b01 	add.w	fp, r6, #1
   852c0:	f7fd f8d2 	bl	82468 <__aeabi_dcmpgt>
   852c4:	2800      	cmp	r0, #0
   852c6:	f040 82ab 	bne.w	85820 <_dtoa_r+0xdb0>
   852ca:	e9dd 2304 	ldrd	r2, r3, [sp, #16]
   852ce:	2000      	movs	r0, #0
   852d0:	490f      	ldr	r1, [pc, #60]	; (85310 <_dtoa_r+0x8a0>)
   852d2:	f7fc fc85 	bl	81be0 <__aeabi_dsub>
   852d6:	4602      	mov	r2, r0
   852d8:	460b      	mov	r3, r1
   852da:	e9dd 0110 	ldrd	r0, r1, [sp, #64]	; 0x40
   852de:	f7fd f8c3 	bl	82468 <__aeabi_dcmpgt>
   852e2:	2800      	cmp	r0, #0
   852e4:	f040 82a2 	bne.w	8582c <_dtoa_r+0xdbc>
   852e8:	f1b8 0f01 	cmp.w	r8, #1
   852ec:	f340 8181 	ble.w	855f2 <_dtoa_r+0xb82>
   852f0:	44b0      	add	r8, r6
   852f2:	f8cd 9050 	str.w	r9, [sp, #80]	; 0x50
   852f6:	46a2      	mov	sl, r4
   852f8:	46c1      	mov	r9, r8
   852fa:	e9dd 6704 	ldrd	r6, r7, [sp, #16]
   852fe:	e9dd 4510 	ldrd	r4, r5, [sp, #64]	; 0x40
   85302:	e019      	b.n	85338 <_dtoa_r+0x8c8>
   85304:	fffffbee 	.word	0xfffffbee
   85308:	00088068 	.word	0x00088068
   8530c:	00088130 	.word	0x00088130
   85310:	3ff00000 	.word	0x3ff00000
   85314:	401c0000 	.word	0x401c0000
   85318:	3fe00000 	.word	0x3fe00000
   8531c:	2000      	movs	r0, #0
   8531e:	49a8      	ldr	r1, [pc, #672]	; (855c0 <_dtoa_r+0xb50>)
   85320:	f7fc fc5e 	bl	81be0 <__aeabi_dsub>
   85324:	4622      	mov	r2, r4
   85326:	462b      	mov	r3, r5
   85328:	f7fd f880 	bl	8242c <__aeabi_dcmplt>
   8532c:	2800      	cmp	r0, #0
   8532e:	f040 827b 	bne.w	85828 <_dtoa_r+0xdb8>
   85332:	45cb      	cmp	fp, r9
   85334:	f000 815a 	beq.w	855ec <_dtoa_r+0xb7c>
   85338:	4620      	mov	r0, r4
   8533a:	4629      	mov	r1, r5
   8533c:	2200      	movs	r2, #0
   8533e:	4ba1      	ldr	r3, [pc, #644]	; (855c4 <_dtoa_r+0xb54>)
   85340:	f7fc fe02 	bl	81f48 <__aeabi_dmul>
   85344:	2200      	movs	r2, #0
   85346:	4b9f      	ldr	r3, [pc, #636]	; (855c4 <_dtoa_r+0xb54>)
   85348:	4604      	mov	r4, r0
   8534a:	460d      	mov	r5, r1
   8534c:	4630      	mov	r0, r6
   8534e:	4639      	mov	r1, r7
   85350:	f7fc fdfa 	bl	81f48 <__aeabi_dmul>
   85354:	460f      	mov	r7, r1
   85356:	4606      	mov	r6, r0
   85358:	f7fd f890 	bl	8247c <__aeabi_d2iz>
   8535c:	4680      	mov	r8, r0
   8535e:	f7fc fd8d 	bl	81e7c <__aeabi_i2d>
   85362:	4602      	mov	r2, r0
   85364:	460b      	mov	r3, r1
   85366:	4630      	mov	r0, r6
   85368:	4639      	mov	r1, r7
   8536a:	f7fc fc39 	bl	81be0 <__aeabi_dsub>
   8536e:	f108 0830 	add.w	r8, r8, #48	; 0x30
   85372:	fa5f f888 	uxtb.w	r8, r8
   85376:	4622      	mov	r2, r4
   85378:	462b      	mov	r3, r5
   8537a:	f80b 8b01 	strb.w	r8, [fp], #1
   8537e:	4606      	mov	r6, r0
   85380:	460f      	mov	r7, r1
   85382:	f7fd f853 	bl	8242c <__aeabi_dcmplt>
   85386:	4632      	mov	r2, r6
   85388:	463b      	mov	r3, r7
   8538a:	2800      	cmp	r0, #0
   8538c:	d0c6      	beq.n	8531c <_dtoa_r+0x8ac>
   8538e:	9e17      	ldr	r6, [sp, #92]	; 0x5c
   85390:	4654      	mov	r4, sl
   85392:	9607      	str	r6, [sp, #28]
   85394:	e539      	b.n	84e0a <_dtoa_r+0x39a>
   85396:	2600      	movs	r6, #0
   85398:	960b      	str	r6, [sp, #44]	; 0x2c
   8539a:	9825      	ldr	r0, [sp, #148]	; 0x94
   8539c:	2800      	cmp	r0, #0
   8539e:	dd3c      	ble.n	8541a <_dtoa_r+0x9aa>
   853a0:	4606      	mov	r6, r0
   853a2:	900f      	str	r0, [sp, #60]	; 0x3c
   853a4:	4681      	mov	r9, r0
   853a6:	e6ec      	b.n	85182 <_dtoa_r+0x712>
   853a8:	2601      	movs	r6, #1
   853aa:	960b      	str	r6, [sp, #44]	; 0x2c
   853ac:	e7f5      	b.n	8539a <_dtoa_r+0x92a>
   853ae:	f1b9 0f00 	cmp.w	r9, #0
   853b2:	f73f ac7c 	bgt.w	84cae <_dtoa_r+0x23e>
   853b6:	f040 80c6 	bne.w	85546 <_dtoa_r+0xad6>
   853ba:	e9dd 0104 	ldrd	r0, r1, [sp, #16]
   853be:	2200      	movs	r2, #0
   853c0:	4b81      	ldr	r3, [pc, #516]	; (855c8 <_dtoa_r+0xb58>)
   853c2:	f7fc fdc1 	bl	81f48 <__aeabi_dmul>
   853c6:	4652      	mov	r2, sl
   853c8:	465b      	mov	r3, fp
   853ca:	f7fd f843 	bl	82454 <__aeabi_dcmpge>
   853ce:	46c8      	mov	r8, r9
   853d0:	464e      	mov	r6, r9
   853d2:	2800      	cmp	r0, #0
   853d4:	d07c      	beq.n	854d0 <_dtoa_r+0xa60>
   853d6:	9d25      	ldr	r5, [sp, #148]	; 0x94
   853d8:	f8dd b024 	ldr.w	fp, [sp, #36]	; 0x24
   853dc:	43ed      	mvns	r5, r5
   853de:	9507      	str	r5, [sp, #28]
   853e0:	4641      	mov	r1, r8
   853e2:	4620      	mov	r0, r4
   853e4:	f001 fb52 	bl	86a8c <_Bfree>
   853e8:	2e00      	cmp	r6, #0
   853ea:	f47f ae06 	bne.w	84ffa <_dtoa_r+0x58a>
   853ee:	e50c      	b.n	84e0a <_dtoa_r+0x39a>
   853f0:	990a      	ldr	r1, [sp, #40]	; 0x28
   853f2:	4620      	mov	r0, r4
   853f4:	f001 fc94 	bl	86d20 <__pow5mult>
   853f8:	900a      	str	r0, [sp, #40]	; 0x28
   853fa:	e56a      	b.n	84ed2 <_dtoa_r+0x462>
   853fc:	9d16      	ldr	r5, [sp, #88]	; 0x58
   853fe:	2d00      	cmp	r5, #0
   85400:	f000 81b8 	beq.w	85774 <_dtoa_r+0xd04>
   85404:	f203 4333 	addw	r3, r3, #1075	; 0x433
   85408:	9f0c      	ldr	r7, [sp, #48]	; 0x30
   8540a:	9d08      	ldr	r5, [sp, #32]
   8540c:	e527      	b.n	84e5e <_dtoa_r+0x3ee>
   8540e:	4601      	mov	r1, r0
   85410:	4620      	mov	r0, r4
   85412:	f001 fb3b 	bl	86a8c <_Bfree>
   85416:	2201      	movs	r2, #1
   85418:	e67a      	b.n	85110 <_dtoa_r+0x6a0>
   8541a:	2601      	movs	r6, #1
   8541c:	9625      	str	r6, [sp, #148]	; 0x94
   8541e:	960f      	str	r6, [sp, #60]	; 0x3c
   85420:	46b1      	mov	r9, r6
   85422:	2100      	movs	r1, #0
   85424:	6461      	str	r1, [r4, #68]	; 0x44
   85426:	e6bb      	b.n	851a0 <_dtoa_r+0x730>
   85428:	980a      	ldr	r0, [sp, #40]	; 0x28
   8542a:	4641      	mov	r1, r8
   8542c:	f001 fd24 	bl	86e78 <__mcmp>
   85430:	2800      	cmp	r0, #0
   85432:	f6bf ad8f 	bge.w	84f54 <_dtoa_r+0x4e4>
   85436:	f8dd e01c 	ldr.w	lr, [sp, #28]
   8543a:	990a      	ldr	r1, [sp, #40]	; 0x28
   8543c:	f10e 3eff 	add.w	lr, lr, #4294967295
   85440:	4620      	mov	r0, r4
   85442:	220a      	movs	r2, #10
   85444:	2300      	movs	r3, #0
   85446:	f8cd e01c 	str.w	lr, [sp, #28]
   8544a:	f001 fb29 	bl	86aa0 <__multadd>
   8544e:	900a      	str	r0, [sp, #40]	; 0x28
   85450:	980b      	ldr	r0, [sp, #44]	; 0x2c
   85452:	2800      	cmp	r0, #0
   85454:	f040 8209 	bne.w	8586a <_dtoa_r+0xdfa>
   85458:	f8dd 903c 	ldr.w	r9, [sp, #60]	; 0x3c
   8545c:	e57a      	b.n	84f54 <_dtoa_r+0x4e4>
   8545e:	f8d8 3010 	ldr.w	r3, [r8, #16]
   85462:	eb08 0383 	add.w	r3, r8, r3, lsl #2
   85466:	6918      	ldr	r0, [r3, #16]
   85468:	f001 fb64 	bl	86b34 <__hi0bits>
   8546c:	f1c0 0020 	rsb	r0, r0, #32
   85470:	e547      	b.n	84f02 <_dtoa_r+0x492>
   85472:	9809      	ldr	r0, [sp, #36]	; 0x24
   85474:	f7ff bb2c 	b.w	84ad0 <_dtoa_r+0x60>
   85478:	f1ba 0f00 	cmp.w	sl, #0
   8547c:	f47f ad3b 	bne.w	84ef6 <_dtoa_r+0x486>
   85480:	f3cb 0313 	ubfx	r3, fp, #0, #20
   85484:	2b00      	cmp	r3, #0
   85486:	f040 817c 	bne.w	85782 <_dtoa_r+0xd12>
   8548a:	f02b 4700 	bic.w	r7, fp, #2147483648	; 0x80000000
   8548e:	0d3f      	lsrs	r7, r7, #20
   85490:	053f      	lsls	r7, r7, #20
   85492:	2f00      	cmp	r7, #0
   85494:	f43f ad30 	beq.w	84ef8 <_dtoa_r+0x488>
   85498:	9a08      	ldr	r2, [sp, #32]
   8549a:	9b06      	ldr	r3, [sp, #24]
   8549c:	3201      	adds	r2, #1
   8549e:	3301      	adds	r3, #1
   854a0:	9208      	str	r2, [sp, #32]
   854a2:	9306      	str	r3, [sp, #24]
   854a4:	2701      	movs	r7, #1
   854a6:	e527      	b.n	84ef8 <_dtoa_r+0x488>
   854a8:	9924      	ldr	r1, [sp, #144]	; 0x90
   854aa:	2902      	cmp	r1, #2
   854ac:	f77f ad56 	ble.w	84f5c <_dtoa_r+0x4ec>
   854b0:	f1b9 0f00 	cmp.w	r9, #0
   854b4:	d18f      	bne.n	853d6 <_dtoa_r+0x966>
   854b6:	4641      	mov	r1, r8
   854b8:	464b      	mov	r3, r9
   854ba:	2205      	movs	r2, #5
   854bc:	4620      	mov	r0, r4
   854be:	f001 faef 	bl	86aa0 <__multadd>
   854c2:	4680      	mov	r8, r0
   854c4:	4641      	mov	r1, r8
   854c6:	980a      	ldr	r0, [sp, #40]	; 0x28
   854c8:	f001 fcd6 	bl	86e78 <__mcmp>
   854cc:	2800      	cmp	r0, #0
   854ce:	dd82      	ble.n	853d6 <_dtoa_r+0x966>
   854d0:	9d07      	ldr	r5, [sp, #28]
   854d2:	2331      	movs	r3, #49	; 0x31
   854d4:	3501      	adds	r5, #1
   854d6:	9507      	str	r5, [sp, #28]
   854d8:	9d09      	ldr	r5, [sp, #36]	; 0x24
   854da:	702b      	strb	r3, [r5, #0]
   854dc:	f105 0b01 	add.w	fp, r5, #1
   854e0:	e77e      	b.n	853e0 <_dtoa_r+0x970>
   854e2:	9807      	ldr	r0, [sp, #28]
   854e4:	9909      	ldr	r1, [sp, #36]	; 0x24
   854e6:	2331      	movs	r3, #49	; 0x31
   854e8:	3001      	adds	r0, #1
   854ea:	9007      	str	r0, [sp, #28]
   854ec:	700b      	strb	r3, [r1, #0]
   854ee:	e576      	b.n	84fde <_dtoa_r+0x56e>
   854f0:	46a3      	mov	fp, r4
   854f2:	9c03      	ldr	r4, [sp, #12]
   854f4:	e489      	b.n	84e0a <_dtoa_r+0x39a>
   854f6:	4640      	mov	r0, r8
   854f8:	f7fc fcc0 	bl	81e7c <__aeabi_i2d>
   854fc:	4602      	mov	r2, r0
   854fe:	460b      	mov	r3, r1
   85500:	4650      	mov	r0, sl
   85502:	4659      	mov	r1, fp
   85504:	f7fc fd20 	bl	81f48 <__aeabi_dmul>
   85508:	2200      	movs	r2, #0
   8550a:	4b30      	ldr	r3, [pc, #192]	; (855cc <_dtoa_r+0xb5c>)
   8550c:	f7fc fb6a 	bl	81be4 <__adddf3>
   85510:	4606      	mov	r6, r0
   85512:	f1a1 7750 	sub.w	r7, r1, #54525952	; 0x3400000
   85516:	4650      	mov	r0, sl
   85518:	4659      	mov	r1, fp
   8551a:	2200      	movs	r2, #0
   8551c:	4b2a      	ldr	r3, [pc, #168]	; (855c8 <_dtoa_r+0xb58>)
   8551e:	f7fc fb5f 	bl	81be0 <__aeabi_dsub>
   85522:	4632      	mov	r2, r6
   85524:	463b      	mov	r3, r7
   85526:	4682      	mov	sl, r0
   85528:	468b      	mov	fp, r1
   8552a:	f7fc ff9d 	bl	82468 <__aeabi_dcmpgt>
   8552e:	2800      	cmp	r0, #0
   85530:	f040 80bd 	bne.w	856ae <_dtoa_r+0xc3e>
   85534:	4632      	mov	r2, r6
   85536:	f107 4300 	add.w	r3, r7, #2147483648	; 0x80000000
   8553a:	4650      	mov	r0, sl
   8553c:	4659      	mov	r1, fp
   8553e:	f7fc ff75 	bl	8242c <__aeabi_dcmplt>
   85542:	2800      	cmp	r0, #0
   85544:	d055      	beq.n	855f2 <_dtoa_r+0xb82>
   85546:	f04f 0800 	mov.w	r8, #0
   8554a:	4646      	mov	r6, r8
   8554c:	e743      	b.n	853d6 <_dtoa_r+0x966>
   8554e:	990a      	ldr	r1, [sp, #40]	; 0x28
   85550:	9a0c      	ldr	r2, [sp, #48]	; 0x30
   85552:	4620      	mov	r0, r4
   85554:	f001 fbe4 	bl	86d20 <__pow5mult>
   85558:	900a      	str	r0, [sp, #40]	; 0x28
   8555a:	e4ba      	b.n	84ed2 <_dtoa_r+0x462>
   8555c:	2601      	movs	r6, #1
   8555e:	960b      	str	r6, [sp, #44]	; 0x2c
   85560:	e602      	b.n	85168 <_dtoa_r+0x6f8>
   85562:	9d0c      	ldr	r5, [sp, #48]	; 0x30
   85564:	9e0d      	ldr	r6, [sp, #52]	; 0x34
   85566:	1b7b      	subs	r3, r7, r5
   85568:	441e      	add	r6, r3
   8556a:	970c      	str	r7, [sp, #48]	; 0x30
   8556c:	960d      	str	r6, [sp, #52]	; 0x34
   8556e:	2700      	movs	r7, #0
   85570:	e46f      	b.n	84e52 <_dtoa_r+0x3e2>
   85572:	e9dd 0112 	ldrd	r0, r1, [sp, #72]	; 0x48
   85576:	f04f 0802 	mov.w	r8, #2
   8557a:	e9cd 0110 	strd	r0, r1, [sp, #64]	; 0x40
   8557e:	e638      	b.n	851f2 <_dtoa_r+0x782>
   85580:	2a00      	cmp	r2, #0
   85582:	f8cd 9028 	str.w	r9, [sp, #40]	; 0x28
   85586:	46d9      	mov	r9, fp
   85588:	dd11      	ble.n	855ae <_dtoa_r+0xb3e>
   8558a:	990a      	ldr	r1, [sp, #40]	; 0x28
   8558c:	2201      	movs	r2, #1
   8558e:	4620      	mov	r0, r4
   85590:	f001 fc14 	bl	86dbc <__lshift>
   85594:	4641      	mov	r1, r8
   85596:	900a      	str	r0, [sp, #40]	; 0x28
   85598:	f001 fc6e 	bl	86e78 <__mcmp>
   8559c:	2800      	cmp	r0, #0
   8559e:	f340 815d 	ble.w	8585c <_dtoa_r+0xdec>
   855a2:	f1ba 0f39 	cmp.w	sl, #57	; 0x39
   855a6:	f000 811b 	beq.w	857e0 <_dtoa_r+0xd70>
   855aa:	f109 0a31 	add.w	sl, r9, #49	; 0x31
   855ae:	9b06      	ldr	r3, [sp, #24]
   855b0:	4635      	mov	r5, r6
   855b2:	f883 a000 	strb.w	sl, [r3]
   855b6:	f103 0b01 	add.w	fp, r3, #1
   855ba:	463e      	mov	r6, r7
   855bc:	e50f      	b.n	84fde <_dtoa_r+0x56e>
   855be:	bf00      	nop
   855c0:	3ff00000 	.word	0x3ff00000
   855c4:	40240000 	.word	0x40240000
   855c8:	40140000 	.word	0x40140000
   855cc:	401c0000 	.word	0x401c0000
   855d0:	d103      	bne.n	855da <_dtoa_r+0xb6a>
   855d2:	f01a 0f01 	tst.w	sl, #1
   855d6:	f47f acf2 	bne.w	84fbe <_dtoa_r+0x54e>
   855da:	465b      	mov	r3, fp
   855dc:	f813 2c01 	ldrb.w	r2, [r3, #-1]
   855e0:	469b      	mov	fp, r3
   855e2:	2a30      	cmp	r2, #48	; 0x30
   855e4:	f103 33ff 	add.w	r3, r3, #4294967295
   855e8:	d0f8      	beq.n	855dc <_dtoa_r+0xb6c>
   855ea:	e4f8      	b.n	84fde <_dtoa_r+0x56e>
   855ec:	f8dd 9050 	ldr.w	r9, [sp, #80]	; 0x50
   855f0:	4654      	mov	r4, sl
   855f2:	e9dd ab12 	ldrd	sl, fp, [sp, #72]	; 0x48
   855f6:	f7ff bb47 	b.w	84c88 <_dtoa_r+0x218>
   855fa:	9e07      	ldr	r6, [sp, #28]
   855fc:	4275      	negs	r5, r6
   855fe:	2d00      	cmp	r5, #0
   85600:	f000 80c2 	beq.w	85788 <_dtoa_r+0xd18>
   85604:	4ba3      	ldr	r3, [pc, #652]	; (85894 <_dtoa_r+0xe24>)
   85606:	f005 020f 	and.w	r2, r5, #15
   8560a:	eb03 03c2 	add.w	r3, r3, r2, lsl #3
   8560e:	e9d3 2300 	ldrd	r2, r3, [r3]
   85612:	e9dd 0112 	ldrd	r0, r1, [sp, #72]	; 0x48
   85616:	f7fc fc97 	bl	81f48 <__aeabi_dmul>
   8561a:	112d      	asrs	r5, r5, #4
   8561c:	4682      	mov	sl, r0
   8561e:	468b      	mov	fp, r1
   85620:	f000 812e 	beq.w	85880 <_dtoa_r+0xe10>
   85624:	4e9c      	ldr	r6, [pc, #624]	; (85898 <_dtoa_r+0xe28>)
   85626:	f04f 0802 	mov.w	r8, #2
   8562a:	07ea      	lsls	r2, r5, #31
   8562c:	d505      	bpl.n	8563a <_dtoa_r+0xbca>
   8562e:	e9d6 2300 	ldrd	r2, r3, [r6]
   85632:	f108 0801 	add.w	r8, r8, #1
   85636:	f7fc fc87 	bl	81f48 <__aeabi_dmul>
   8563a:	106d      	asrs	r5, r5, #1
   8563c:	f106 0608 	add.w	r6, r6, #8
   85640:	d1f3      	bne.n	8562a <_dtoa_r+0xbba>
   85642:	4682      	mov	sl, r0
   85644:	468b      	mov	fp, r1
   85646:	e5ef      	b.n	85228 <_dtoa_r+0x7b8>
   85648:	9e07      	ldr	r6, [sp, #28]
   8564a:	9d09      	ldr	r5, [sp, #36]	; 0x24
   8564c:	2230      	movs	r2, #48	; 0x30
   8564e:	702a      	strb	r2, [r5, #0]
   85650:	3601      	adds	r6, #1
   85652:	2231      	movs	r2, #49	; 0x31
   85654:	9607      	str	r6, [sp, #28]
   85656:	701a      	strb	r2, [r3, #0]
   85658:	f7ff bbd7 	b.w	84e0a <_dtoa_r+0x39a>
   8565c:	6871      	ldr	r1, [r6, #4]
   8565e:	4620      	mov	r0, r4
   85660:	f001 f9ee 	bl	86a40 <_Balloc>
   85664:	6933      	ldr	r3, [r6, #16]
   85666:	4605      	mov	r5, r0
   85668:	1c9a      	adds	r2, r3, #2
   8566a:	0092      	lsls	r2, r2, #2
   8566c:	f106 010c 	add.w	r1, r6, #12
   85670:	300c      	adds	r0, #12
   85672:	f001 f905 	bl	86880 <memcpy>
   85676:	4620      	mov	r0, r4
   85678:	4629      	mov	r1, r5
   8567a:	2201      	movs	r2, #1
   8567c:	f001 fb9e 	bl	86dbc <__lshift>
   85680:	4607      	mov	r7, r0
   85682:	e503      	b.n	8508c <_dtoa_r+0x61c>
   85684:	f1ba 0f39 	cmp.w	sl, #57	; 0x39
   85688:	f8cd 9028 	str.w	r9, [sp, #40]	; 0x28
   8568c:	f000 80a8 	beq.w	857e0 <_dtoa_r+0xd70>
   85690:	9d06      	ldr	r5, [sp, #24]
   85692:	f10a 0301 	add.w	r3, sl, #1
   85696:	702b      	strb	r3, [r5, #0]
   85698:	4635      	mov	r5, r6
   8569a:	9e06      	ldr	r6, [sp, #24]
   8569c:	f106 0b01 	add.w	fp, r6, #1
   856a0:	463e      	mov	r6, r7
   856a2:	e49c      	b.n	84fde <_dtoa_r+0x56e>
   856a4:	4635      	mov	r5, r6
   856a6:	f8cd 9028 	str.w	r9, [sp, #40]	; 0x28
   856aa:	463e      	mov	r6, r7
   856ac:	e47b      	b.n	84fa6 <_dtoa_r+0x536>
   856ae:	f04f 0800 	mov.w	r8, #0
   856b2:	4646      	mov	r6, r8
   856b4:	e70c      	b.n	854d0 <_dtoa_r+0xa60>
   856b6:	4977      	ldr	r1, [pc, #476]	; (85894 <_dtoa_r+0xe24>)
   856b8:	f108 35ff 	add.w	r5, r8, #4294967295
   856bc:	eb01 01c5 	add.w	r1, r1, r5, lsl #3
   856c0:	4632      	mov	r2, r6
   856c2:	463b      	mov	r3, r7
   856c4:	e9d1 0100 	ldrd	r0, r1, [r1]
   856c8:	9510      	str	r5, [sp, #64]	; 0x40
   856ca:	f7fc fc3d 	bl	81f48 <__aeabi_dmul>
   856ce:	e9cd 0114 	strd	r0, r1, [sp, #80]	; 0x50
   856d2:	4659      	mov	r1, fp
   856d4:	4650      	mov	r0, sl
   856d6:	f7fc fed1 	bl	8247c <__aeabi_d2iz>
   856da:	4605      	mov	r5, r0
   856dc:	f7fc fbce 	bl	81e7c <__aeabi_i2d>
   856e0:	4602      	mov	r2, r0
   856e2:	460b      	mov	r3, r1
   856e4:	4650      	mov	r0, sl
   856e6:	4659      	mov	r1, fp
   856e8:	f7fc fa7a 	bl	81be0 <__aeabi_dsub>
   856ec:	f8dd e024 	ldr.w	lr, [sp, #36]	; 0x24
   856f0:	3530      	adds	r5, #48	; 0x30
   856f2:	f1b8 0f01 	cmp.w	r8, #1
   856f6:	4606      	mov	r6, r0
   856f8:	460f      	mov	r7, r1
   856fa:	f88e 5000 	strb.w	r5, [lr]
   856fe:	f10e 0b01 	add.w	fp, lr, #1
   85702:	d01e      	beq.n	85742 <_dtoa_r+0xcd2>
   85704:	9d09      	ldr	r5, [sp, #36]	; 0x24
   85706:	1e6b      	subs	r3, r5, #1
   85708:	eb03 0a08 	add.w	sl, r3, r8
   8570c:	2200      	movs	r2, #0
   8570e:	4b63      	ldr	r3, [pc, #396]	; (8589c <_dtoa_r+0xe2c>)
   85710:	f7fc fc1a 	bl	81f48 <__aeabi_dmul>
   85714:	460f      	mov	r7, r1
   85716:	4606      	mov	r6, r0
   85718:	f7fc feb0 	bl	8247c <__aeabi_d2iz>
   8571c:	4680      	mov	r8, r0
   8571e:	f7fc fbad 	bl	81e7c <__aeabi_i2d>
   85722:	f108 0830 	add.w	r8, r8, #48	; 0x30
   85726:	4602      	mov	r2, r0
   85728:	460b      	mov	r3, r1
   8572a:	4630      	mov	r0, r6
   8572c:	4639      	mov	r1, r7
   8572e:	f7fc fa57 	bl	81be0 <__aeabi_dsub>
   85732:	f805 8f01 	strb.w	r8, [r5, #1]!
   85736:	4555      	cmp	r5, sl
   85738:	d1e8      	bne.n	8570c <_dtoa_r+0xc9c>
   8573a:	9d10      	ldr	r5, [sp, #64]	; 0x40
   8573c:	4606      	mov	r6, r0
   8573e:	460f      	mov	r7, r1
   85740:	44ab      	add	fp, r5
   85742:	2200      	movs	r2, #0
   85744:	4b56      	ldr	r3, [pc, #344]	; (858a0 <_dtoa_r+0xe30>)
   85746:	e9dd 0114 	ldrd	r0, r1, [sp, #80]	; 0x50
   8574a:	f7fc fa4b 	bl	81be4 <__adddf3>
   8574e:	4632      	mov	r2, r6
   85750:	463b      	mov	r3, r7
   85752:	f7fc fe6b 	bl	8242c <__aeabi_dcmplt>
   85756:	2800      	cmp	r0, #0
   85758:	d04d      	beq.n	857f6 <_dtoa_r+0xd86>
   8575a:	9e17      	ldr	r6, [sp, #92]	; 0x5c
   8575c:	9a09      	ldr	r2, [sp, #36]	; 0x24
   8575e:	9607      	str	r6, [sp, #28]
   85760:	f81b 5c01 	ldrb.w	r5, [fp, #-1]
   85764:	f7ff bb4a 	b.w	84dfc <_dtoa_r+0x38c>
   85768:	9e08      	ldr	r6, [sp, #32]
   8576a:	2300      	movs	r3, #0
   8576c:	ebc9 0506 	rsb	r5, r9, r6
   85770:	f7ff bb75 	b.w	84e5e <_dtoa_r+0x3ee>
   85774:	9b18      	ldr	r3, [sp, #96]	; 0x60
   85776:	9f0c      	ldr	r7, [sp, #48]	; 0x30
   85778:	f1c3 0336 	rsb	r3, r3, #54	; 0x36
   8577c:	9d08      	ldr	r5, [sp, #32]
   8577e:	f7ff bb6e 	b.w	84e5e <_dtoa_r+0x3ee>
   85782:	4657      	mov	r7, sl
   85784:	f7ff bbb8 	b.w	84ef8 <_dtoa_r+0x488>
   85788:	e9dd ab12 	ldrd	sl, fp, [sp, #72]	; 0x48
   8578c:	f04f 0802 	mov.w	r8, #2
   85790:	e54a      	b.n	85228 <_dtoa_r+0x7b8>
   85792:	f1b9 0f00 	cmp.w	r9, #0
   85796:	f43f aeae 	beq.w	854f6 <_dtoa_r+0xa86>
   8579a:	9e0f      	ldr	r6, [sp, #60]	; 0x3c
   8579c:	2e00      	cmp	r6, #0
   8579e:	f77f af28 	ble.w	855f2 <_dtoa_r+0xb82>
   857a2:	2200      	movs	r2, #0
   857a4:	4b3d      	ldr	r3, [pc, #244]	; (8589c <_dtoa_r+0xe2c>)
   857a6:	4650      	mov	r0, sl
   857a8:	4659      	mov	r1, fp
   857aa:	f7fc fbcd 	bl	81f48 <__aeabi_dmul>
   857ae:	4682      	mov	sl, r0
   857b0:	f108 0001 	add.w	r0, r8, #1
   857b4:	468b      	mov	fp, r1
   857b6:	f7fc fb61 	bl	81e7c <__aeabi_i2d>
   857ba:	4602      	mov	r2, r0
   857bc:	460b      	mov	r3, r1
   857be:	4650      	mov	r0, sl
   857c0:	4659      	mov	r1, fp
   857c2:	f7fc fbc1 	bl	81f48 <__aeabi_dmul>
   857c6:	2200      	movs	r2, #0
   857c8:	4b36      	ldr	r3, [pc, #216]	; (858a4 <_dtoa_r+0xe34>)
   857ca:	f7fc fa0b 	bl	81be4 <__adddf3>
   857ce:	9d07      	ldr	r5, [sp, #28]
   857d0:	4606      	mov	r6, r0
   857d2:	3d01      	subs	r5, #1
   857d4:	f1a1 7750 	sub.w	r7, r1, #54525952	; 0x3400000
   857d8:	9517      	str	r5, [sp, #92]	; 0x5c
   857da:	f8dd 803c 	ldr.w	r8, [sp, #60]	; 0x3c
   857de:	e543      	b.n	85268 <_dtoa_r+0x7f8>
   857e0:	4635      	mov	r5, r6
   857e2:	9b06      	ldr	r3, [sp, #24]
   857e4:	9e06      	ldr	r6, [sp, #24]
   857e6:	2239      	movs	r2, #57	; 0x39
   857e8:	7032      	strb	r2, [r6, #0]
   857ea:	f103 0b01 	add.w	fp, r3, #1
   857ee:	463e      	mov	r6, r7
   857f0:	9909      	ldr	r1, [sp, #36]	; 0x24
   857f2:	f7ff bbee 	b.w	84fd2 <_dtoa_r+0x562>
   857f6:	e9dd 2314 	ldrd	r2, r3, [sp, #80]	; 0x50
   857fa:	2000      	movs	r0, #0
   857fc:	4928      	ldr	r1, [pc, #160]	; (858a0 <_dtoa_r+0xe30>)
   857fe:	f7fc f9ef 	bl	81be0 <__aeabi_dsub>
   85802:	4632      	mov	r2, r6
   85804:	463b      	mov	r3, r7
   85806:	f7fc fe2f 	bl	82468 <__aeabi_dcmpgt>
   8580a:	2800      	cmp	r0, #0
   8580c:	f43f aef1 	beq.w	855f2 <_dtoa_r+0xb82>
   85810:	465b      	mov	r3, fp
   85812:	f813 2c01 	ldrb.w	r2, [r3, #-1]
   85816:	469b      	mov	fp, r3
   85818:	2a30      	cmp	r2, #48	; 0x30
   8581a:	f103 33ff 	add.w	r3, r3, #4294967295
   8581e:	d0f8      	beq.n	85812 <_dtoa_r+0xda2>
   85820:	9d17      	ldr	r5, [sp, #92]	; 0x5c
   85822:	9507      	str	r5, [sp, #28]
   85824:	f7ff baf1 	b.w	84e0a <_dtoa_r+0x39a>
   85828:	4645      	mov	r5, r8
   8582a:	4654      	mov	r4, sl
   8582c:	9e17      	ldr	r6, [sp, #92]	; 0x5c
   8582e:	9a09      	ldr	r2, [sp, #36]	; 0x24
   85830:	9607      	str	r6, [sp, #28]
   85832:	f7ff bae3 	b.w	84dfc <_dtoa_r+0x38c>
   85836:	f1ba 0f39 	cmp.w	sl, #57	; 0x39
   8583a:	f8cd 9028 	str.w	r9, [sp, #40]	; 0x28
   8583e:	d0cf      	beq.n	857e0 <_dtoa_r+0xd70>
   85840:	9b03      	ldr	r3, [sp, #12]
   85842:	4635      	mov	r5, r6
   85844:	2b00      	cmp	r3, #0
   85846:	9e06      	ldr	r6, [sp, #24]
   85848:	bfc8      	it	gt
   8584a:	f10b 0a31 	addgt.w	sl, fp, #49	; 0x31
   8584e:	f886 a000 	strb.w	sl, [r6]
   85852:	f106 0b01 	add.w	fp, r6, #1
   85856:	463e      	mov	r6, r7
   85858:	f7ff bbc1 	b.w	84fde <_dtoa_r+0x56e>
   8585c:	f47f aea7 	bne.w	855ae <_dtoa_r+0xb3e>
   85860:	f01a 0f01 	tst.w	sl, #1
   85864:	f43f aea3 	beq.w	855ae <_dtoa_r+0xb3e>
   85868:	e69b      	b.n	855a2 <_dtoa_r+0xb32>
   8586a:	4631      	mov	r1, r6
   8586c:	4620      	mov	r0, r4
   8586e:	220a      	movs	r2, #10
   85870:	2300      	movs	r3, #0
   85872:	f8dd 903c 	ldr.w	r9, [sp, #60]	; 0x3c
   85876:	f001 f913 	bl	86aa0 <__multadd>
   8587a:	4606      	mov	r6, r0
   8587c:	f7ff bb6a 	b.w	84f54 <_dtoa_r+0x4e4>
   85880:	f04f 0802 	mov.w	r8, #2
   85884:	e4d0      	b.n	85228 <_dtoa_r+0x7b8>
   85886:	f43f ab50 	beq.w	84f2a <_dtoa_r+0x4ba>
   8588a:	f1c3 033c 	rsb	r3, r3, #60	; 0x3c
   8588e:	f7ff bbe0 	b.w	85052 <_dtoa_r+0x5e2>
   85892:	bf00      	nop
   85894:	00088068 	.word	0x00088068
   85898:	00088130 	.word	0x00088130
   8589c:	40240000 	.word	0x40240000
   858a0:	3fe00000 	.word	0x3fe00000
   858a4:	401c0000 	.word	0x401c0000

000858a8 <__sflush_r>:
   858a8:	898b      	ldrh	r3, [r1, #12]
   858aa:	e92d 41f0 	stmdb	sp!, {r4, r5, r6, r7, r8, lr}
   858ae:	b29a      	uxth	r2, r3
   858b0:	460d      	mov	r5, r1
   858b2:	0711      	lsls	r1, r2, #28
   858b4:	4680      	mov	r8, r0
   858b6:	d43c      	bmi.n	85932 <__sflush_r+0x8a>
   858b8:	686a      	ldr	r2, [r5, #4]
   858ba:	f443 6300 	orr.w	r3, r3, #2048	; 0x800
   858be:	2a00      	cmp	r2, #0
   858c0:	81ab      	strh	r3, [r5, #12]
   858c2:	dd59      	ble.n	85978 <__sflush_r+0xd0>
   858c4:	6aac      	ldr	r4, [r5, #40]	; 0x28
   858c6:	2c00      	cmp	r4, #0
   858c8:	d04b      	beq.n	85962 <__sflush_r+0xba>
   858ca:	b29b      	uxth	r3, r3
   858cc:	f403 5280 	and.w	r2, r3, #4096	; 0x1000
   858d0:	2100      	movs	r1, #0
   858d2:	b292      	uxth	r2, r2
   858d4:	f8d8 6000 	ldr.w	r6, [r8]
   858d8:	f8c8 1000 	str.w	r1, [r8]
   858dc:	2a00      	cmp	r2, #0
   858de:	d04f      	beq.n	85980 <__sflush_r+0xd8>
   858e0:	6d2a      	ldr	r2, [r5, #80]	; 0x50
   858e2:	075f      	lsls	r7, r3, #29
   858e4:	d505      	bpl.n	858f2 <__sflush_r+0x4a>
   858e6:	6869      	ldr	r1, [r5, #4]
   858e8:	6b2b      	ldr	r3, [r5, #48]	; 0x30
   858ea:	1a52      	subs	r2, r2, r1
   858ec:	b10b      	cbz	r3, 858f2 <__sflush_r+0x4a>
   858ee:	6beb      	ldr	r3, [r5, #60]	; 0x3c
   858f0:	1ad2      	subs	r2, r2, r3
   858f2:	4640      	mov	r0, r8
   858f4:	69e9      	ldr	r1, [r5, #28]
   858f6:	2300      	movs	r3, #0
   858f8:	47a0      	blx	r4
   858fa:	1c44      	adds	r4, r0, #1
   858fc:	d04a      	beq.n	85994 <__sflush_r+0xec>
   858fe:	89ab      	ldrh	r3, [r5, #12]
   85900:	692a      	ldr	r2, [r5, #16]
   85902:	f423 6300 	bic.w	r3, r3, #2048	; 0x800
   85906:	b29b      	uxth	r3, r3
   85908:	2100      	movs	r1, #0
   8590a:	602a      	str	r2, [r5, #0]
   8590c:	04da      	lsls	r2, r3, #19
   8590e:	81ab      	strh	r3, [r5, #12]
   85910:	6069      	str	r1, [r5, #4]
   85912:	d44c      	bmi.n	859ae <__sflush_r+0x106>
   85914:	6b29      	ldr	r1, [r5, #48]	; 0x30
   85916:	f8c8 6000 	str.w	r6, [r8]
   8591a:	b311      	cbz	r1, 85962 <__sflush_r+0xba>
   8591c:	f105 0340 	add.w	r3, r5, #64	; 0x40
   85920:	4299      	cmp	r1, r3
   85922:	d002      	beq.n	8592a <__sflush_r+0x82>
   85924:	4640      	mov	r0, r8
   85926:	f000 f9c3 	bl	85cb0 <_free_r>
   8592a:	2000      	movs	r0, #0
   8592c:	6328      	str	r0, [r5, #48]	; 0x30
   8592e:	e8bd 81f0 	ldmia.w	sp!, {r4, r5, r6, r7, r8, pc}
   85932:	692e      	ldr	r6, [r5, #16]
   85934:	b1ae      	cbz	r6, 85962 <__sflush_r+0xba>
   85936:	0791      	lsls	r1, r2, #30
   85938:	682c      	ldr	r4, [r5, #0]
   8593a:	bf0c      	ite	eq
   8593c:	696b      	ldreq	r3, [r5, #20]
   8593e:	2300      	movne	r3, #0
   85940:	602e      	str	r6, [r5, #0]
   85942:	1ba4      	subs	r4, r4, r6
   85944:	60ab      	str	r3, [r5, #8]
   85946:	e00a      	b.n	8595e <__sflush_r+0xb6>
   85948:	4632      	mov	r2, r6
   8594a:	4623      	mov	r3, r4
   8594c:	6a6f      	ldr	r7, [r5, #36]	; 0x24
   8594e:	4640      	mov	r0, r8
   85950:	69e9      	ldr	r1, [r5, #28]
   85952:	47b8      	blx	r7
   85954:	2800      	cmp	r0, #0
   85956:	ebc0 0404 	rsb	r4, r0, r4
   8595a:	4406      	add	r6, r0
   8595c:	dd04      	ble.n	85968 <__sflush_r+0xc0>
   8595e:	2c00      	cmp	r4, #0
   85960:	dcf2      	bgt.n	85948 <__sflush_r+0xa0>
   85962:	2000      	movs	r0, #0
   85964:	e8bd 81f0 	ldmia.w	sp!, {r4, r5, r6, r7, r8, pc}
   85968:	89ab      	ldrh	r3, [r5, #12]
   8596a:	f04f 30ff 	mov.w	r0, #4294967295
   8596e:	f043 0340 	orr.w	r3, r3, #64	; 0x40
   85972:	81ab      	strh	r3, [r5, #12]
   85974:	e8bd 81f0 	ldmia.w	sp!, {r4, r5, r6, r7, r8, pc}
   85978:	6bea      	ldr	r2, [r5, #60]	; 0x3c
   8597a:	2a00      	cmp	r2, #0
   8597c:	dca2      	bgt.n	858c4 <__sflush_r+0x1c>
   8597e:	e7f0      	b.n	85962 <__sflush_r+0xba>
   85980:	2301      	movs	r3, #1
   85982:	4640      	mov	r0, r8
   85984:	69e9      	ldr	r1, [r5, #28]
   85986:	47a0      	blx	r4
   85988:	1c43      	adds	r3, r0, #1
   8598a:	4602      	mov	r2, r0
   8598c:	d01e      	beq.n	859cc <__sflush_r+0x124>
   8598e:	89ab      	ldrh	r3, [r5, #12]
   85990:	6aac      	ldr	r4, [r5, #40]	; 0x28
   85992:	e7a6      	b.n	858e2 <__sflush_r+0x3a>
   85994:	f8d8 3000 	ldr.w	r3, [r8]
   85998:	b95b      	cbnz	r3, 859b2 <__sflush_r+0x10a>
   8599a:	89aa      	ldrh	r2, [r5, #12]
   8599c:	6929      	ldr	r1, [r5, #16]
   8599e:	f422 6200 	bic.w	r2, r2, #2048	; 0x800
   859a2:	b292      	uxth	r2, r2
   859a4:	606b      	str	r3, [r5, #4]
   859a6:	04d3      	lsls	r3, r2, #19
   859a8:	81aa      	strh	r2, [r5, #12]
   859aa:	6029      	str	r1, [r5, #0]
   859ac:	d5b2      	bpl.n	85914 <__sflush_r+0x6c>
   859ae:	6528      	str	r0, [r5, #80]	; 0x50
   859b0:	e7b0      	b.n	85914 <__sflush_r+0x6c>
   859b2:	2b1d      	cmp	r3, #29
   859b4:	d001      	beq.n	859ba <__sflush_r+0x112>
   859b6:	2b16      	cmp	r3, #22
   859b8:	d113      	bne.n	859e2 <__sflush_r+0x13a>
   859ba:	89a9      	ldrh	r1, [r5, #12]
   859bc:	692b      	ldr	r3, [r5, #16]
   859be:	f421 6100 	bic.w	r1, r1, #2048	; 0x800
   859c2:	2200      	movs	r2, #0
   859c4:	81a9      	strh	r1, [r5, #12]
   859c6:	602b      	str	r3, [r5, #0]
   859c8:	606a      	str	r2, [r5, #4]
   859ca:	e7a3      	b.n	85914 <__sflush_r+0x6c>
   859cc:	f8d8 3000 	ldr.w	r3, [r8]
   859d0:	2b00      	cmp	r3, #0
   859d2:	d0dc      	beq.n	8598e <__sflush_r+0xe6>
   859d4:	2b1d      	cmp	r3, #29
   859d6:	d001      	beq.n	859dc <__sflush_r+0x134>
   859d8:	2b16      	cmp	r3, #22
   859da:	d1c5      	bne.n	85968 <__sflush_r+0xc0>
   859dc:	f8c8 6000 	str.w	r6, [r8]
   859e0:	e7bf      	b.n	85962 <__sflush_r+0xba>
   859e2:	89ab      	ldrh	r3, [r5, #12]
   859e4:	f043 0340 	orr.w	r3, r3, #64	; 0x40
   859e8:	81ab      	strh	r3, [r5, #12]
   859ea:	e8bd 81f0 	ldmia.w	sp!, {r4, r5, r6, r7, r8, pc}
   859ee:	bf00      	nop

000859f0 <_fflush_r>:
   859f0:	b510      	push	{r4, lr}
   859f2:	4604      	mov	r4, r0
   859f4:	b082      	sub	sp, #8
   859f6:	b108      	cbz	r0, 859fc <_fflush_r+0xc>
   859f8:	6b83      	ldr	r3, [r0, #56]	; 0x38
   859fa:	b153      	cbz	r3, 85a12 <_fflush_r+0x22>
   859fc:	f9b1 000c 	ldrsh.w	r0, [r1, #12]
   85a00:	b908      	cbnz	r0, 85a06 <_fflush_r+0x16>
   85a02:	b002      	add	sp, #8
   85a04:	bd10      	pop	{r4, pc}
   85a06:	4620      	mov	r0, r4
   85a08:	b002      	add	sp, #8
   85a0a:	e8bd 4010 	ldmia.w	sp!, {r4, lr}
   85a0e:	f7ff bf4b 	b.w	858a8 <__sflush_r>
   85a12:	9101      	str	r1, [sp, #4]
   85a14:	f000 f808 	bl	85a28 <__sinit>
   85a18:	9901      	ldr	r1, [sp, #4]
   85a1a:	e7ef      	b.n	859fc <_fflush_r+0xc>

00085a1c <_cleanup_r>:
   85a1c:	4901      	ldr	r1, [pc, #4]	; (85a24 <_cleanup_r+0x8>)
   85a1e:	f000 bb9f 	b.w	86160 <_fwalk>
   85a22:	bf00      	nop
   85a24:	00087905 	.word	0x00087905

00085a28 <__sinit>:
   85a28:	e92d 4ff0 	stmdb	sp!, {r4, r5, r6, r7, r8, r9, sl, fp, lr}
   85a2c:	6b84      	ldr	r4, [r0, #56]	; 0x38
   85a2e:	b083      	sub	sp, #12
   85a30:	4607      	mov	r7, r0
   85a32:	2c00      	cmp	r4, #0
   85a34:	d165      	bne.n	85b02 <__sinit+0xda>
   85a36:	687d      	ldr	r5, [r7, #4]
   85a38:	4833      	ldr	r0, [pc, #204]	; (85b08 <__sinit+0xe0>)
   85a3a:	2304      	movs	r3, #4
   85a3c:	2103      	movs	r1, #3
   85a3e:	f507 723b 	add.w	r2, r7, #748	; 0x2ec
   85a42:	63f8      	str	r0, [r7, #60]	; 0x3c
   85a44:	f8c7 12e4 	str.w	r1, [r7, #740]	; 0x2e4
   85a48:	f8c7 22e8 	str.w	r2, [r7, #744]	; 0x2e8
   85a4c:	f8c7 42e0 	str.w	r4, [r7, #736]	; 0x2e0
   85a50:	f105 005c 	add.w	r0, r5, #92	; 0x5c
   85a54:	81ab      	strh	r3, [r5, #12]
   85a56:	602c      	str	r4, [r5, #0]
   85a58:	606c      	str	r4, [r5, #4]
   85a5a:	60ac      	str	r4, [r5, #8]
   85a5c:	666c      	str	r4, [r5, #100]	; 0x64
   85a5e:	81ec      	strh	r4, [r5, #14]
   85a60:	612c      	str	r4, [r5, #16]
   85a62:	616c      	str	r4, [r5, #20]
   85a64:	61ac      	str	r4, [r5, #24]
   85a66:	4621      	mov	r1, r4
   85a68:	2208      	movs	r2, #8
   85a6a:	f7fc fd71 	bl	82550 <memset>
   85a6e:	f8df b09c 	ldr.w	fp, [pc, #156]	; 85b0c <__sinit+0xe4>
   85a72:	68be      	ldr	r6, [r7, #8]
   85a74:	f8df a098 	ldr.w	sl, [pc, #152]	; 85b10 <__sinit+0xe8>
   85a78:	f8df 9098 	ldr.w	r9, [pc, #152]	; 85b14 <__sinit+0xec>
   85a7c:	f8df 8098 	ldr.w	r8, [pc, #152]	; 85b18 <__sinit+0xf0>
   85a80:	2301      	movs	r3, #1
   85a82:	2209      	movs	r2, #9
   85a84:	61ed      	str	r5, [r5, #28]
   85a86:	f8c5 b020 	str.w	fp, [r5, #32]
   85a8a:	f8c5 a024 	str.w	sl, [r5, #36]	; 0x24
   85a8e:	f8c5 9028 	str.w	r9, [r5, #40]	; 0x28
   85a92:	f8c5 802c 	str.w	r8, [r5, #44]	; 0x2c
   85a96:	4621      	mov	r1, r4
   85a98:	81f3      	strh	r3, [r6, #14]
   85a9a:	81b2      	strh	r2, [r6, #12]
   85a9c:	6034      	str	r4, [r6, #0]
   85a9e:	6074      	str	r4, [r6, #4]
   85aa0:	60b4      	str	r4, [r6, #8]
   85aa2:	6674      	str	r4, [r6, #100]	; 0x64
   85aa4:	6134      	str	r4, [r6, #16]
   85aa6:	6174      	str	r4, [r6, #20]
   85aa8:	61b4      	str	r4, [r6, #24]
   85aaa:	2208      	movs	r2, #8
   85aac:	f106 005c 	add.w	r0, r6, #92	; 0x5c
   85ab0:	9301      	str	r3, [sp, #4]
   85ab2:	f7fc fd4d 	bl	82550 <memset>
   85ab6:	68fd      	ldr	r5, [r7, #12]
   85ab8:	2012      	movs	r0, #18
   85aba:	2202      	movs	r2, #2
   85abc:	61f6      	str	r6, [r6, #28]
   85abe:	f8c6 b020 	str.w	fp, [r6, #32]
   85ac2:	f8c6 a024 	str.w	sl, [r6, #36]	; 0x24
   85ac6:	f8c6 9028 	str.w	r9, [r6, #40]	; 0x28
   85aca:	f8c6 802c 	str.w	r8, [r6, #44]	; 0x2c
   85ace:	4621      	mov	r1, r4
   85ad0:	81a8      	strh	r0, [r5, #12]
   85ad2:	81ea      	strh	r2, [r5, #14]
   85ad4:	602c      	str	r4, [r5, #0]
   85ad6:	606c      	str	r4, [r5, #4]
   85ad8:	60ac      	str	r4, [r5, #8]
   85ada:	666c      	str	r4, [r5, #100]	; 0x64
   85adc:	612c      	str	r4, [r5, #16]
   85ade:	616c      	str	r4, [r5, #20]
   85ae0:	61ac      	str	r4, [r5, #24]
   85ae2:	f105 005c 	add.w	r0, r5, #92	; 0x5c
   85ae6:	2208      	movs	r2, #8
   85ae8:	f7fc fd32 	bl	82550 <memset>
   85aec:	9b01      	ldr	r3, [sp, #4]
   85aee:	61ed      	str	r5, [r5, #28]
   85af0:	f8c5 b020 	str.w	fp, [r5, #32]
   85af4:	f8c5 a024 	str.w	sl, [r5, #36]	; 0x24
   85af8:	f8c5 9028 	str.w	r9, [r5, #40]	; 0x28
   85afc:	f8c5 802c 	str.w	r8, [r5, #44]	; 0x2c
   85b00:	63bb      	str	r3, [r7, #56]	; 0x38
   85b02:	b003      	add	sp, #12
   85b04:	e8bd 8ff0 	ldmia.w	sp!, {r4, r5, r6, r7, r8, r9, sl, fp, pc}
   85b08:	00085a1d 	.word	0x00085a1d
   85b0c:	00087439 	.word	0x00087439
   85b10:	0008745d 	.word	0x0008745d
   85b14:	00087495 	.word	0x00087495
   85b18:	000874b5 	.word	0x000874b5

00085b1c <__sfp_lock_acquire>:
   85b1c:	4770      	bx	lr
   85b1e:	bf00      	nop

00085b20 <__sfp_lock_release>:
   85b20:	4770      	bx	lr
   85b22:	bf00      	nop

00085b24 <__libc_fini_array>:
   85b24:	b538      	push	{r3, r4, r5, lr}
   85b26:	4d09      	ldr	r5, [pc, #36]	; (85b4c <__libc_fini_array+0x28>)
   85b28:	4c09      	ldr	r4, [pc, #36]	; (85b50 <__libc_fini_array+0x2c>)
   85b2a:	1b64      	subs	r4, r4, r5
   85b2c:	10a4      	asrs	r4, r4, #2
   85b2e:	bf18      	it	ne
   85b30:	eb05 0584 	addne.w	r5, r5, r4, lsl #2
   85b34:	d005      	beq.n	85b42 <__libc_fini_array+0x1e>
   85b36:	3c01      	subs	r4, #1
   85b38:	f855 3d04 	ldr.w	r3, [r5, #-4]!
   85b3c:	4798      	blx	r3
   85b3e:	2c00      	cmp	r4, #0
   85b40:	d1f9      	bne.n	85b36 <__libc_fini_array+0x12>
   85b42:	e8bd 4038 	ldmia.w	sp!, {r3, r4, r5, lr}
   85b46:	f002 bb17 	b.w	88178 <_fini>
   85b4a:	bf00      	nop
   85b4c:	00088184 	.word	0x00088184
   85b50:	00088188 	.word	0x00088188

00085b54 <_fputwc_r>:
   85b54:	e92d 41f0 	stmdb	sp!, {r4, r5, r6, r7, r8, lr}
   85b58:	8993      	ldrh	r3, [r2, #12]
   85b5a:	460f      	mov	r7, r1
   85b5c:	0499      	lsls	r1, r3, #18
   85b5e:	b082      	sub	sp, #8
   85b60:	4614      	mov	r4, r2
   85b62:	4680      	mov	r8, r0
   85b64:	d406      	bmi.n	85b74 <_fputwc_r+0x20>
   85b66:	6e52      	ldr	r2, [r2, #100]	; 0x64
   85b68:	f443 5300 	orr.w	r3, r3, #8192	; 0x2000
   85b6c:	f442 5200 	orr.w	r2, r2, #8192	; 0x2000
   85b70:	81a3      	strh	r3, [r4, #12]
   85b72:	6662      	str	r2, [r4, #100]	; 0x64
   85b74:	f000 fb1c 	bl	861b0 <__locale_mb_cur_max>
   85b78:	2801      	cmp	r0, #1
   85b7a:	d03e      	beq.n	85bfa <_fputwc_r+0xa6>
   85b7c:	463a      	mov	r2, r7
   85b7e:	4640      	mov	r0, r8
   85b80:	a901      	add	r1, sp, #4
   85b82:	f104 035c 	add.w	r3, r4, #92	; 0x5c
   85b86:	f001 fd9d 	bl	876c4 <_wcrtomb_r>
   85b8a:	1c42      	adds	r2, r0, #1
   85b8c:	4606      	mov	r6, r0
   85b8e:	d02d      	beq.n	85bec <_fputwc_r+0x98>
   85b90:	2800      	cmp	r0, #0
   85b92:	d03a      	beq.n	85c0a <_fputwc_r+0xb6>
   85b94:	f89d 1004 	ldrb.w	r1, [sp, #4]
   85b98:	2500      	movs	r5, #0
   85b9a:	e009      	b.n	85bb0 <_fputwc_r+0x5c>
   85b9c:	6823      	ldr	r3, [r4, #0]
   85b9e:	7019      	strb	r1, [r3, #0]
   85ba0:	6823      	ldr	r3, [r4, #0]
   85ba2:	3301      	adds	r3, #1
   85ba4:	6023      	str	r3, [r4, #0]
   85ba6:	3501      	adds	r5, #1
   85ba8:	42b5      	cmp	r5, r6
   85baa:	d22e      	bcs.n	85c0a <_fputwc_r+0xb6>
   85bac:	ab01      	add	r3, sp, #4
   85bae:	5ce9      	ldrb	r1, [r5, r3]
   85bb0:	68a3      	ldr	r3, [r4, #8]
   85bb2:	3b01      	subs	r3, #1
   85bb4:	2b00      	cmp	r3, #0
   85bb6:	60a3      	str	r3, [r4, #8]
   85bb8:	daf0      	bge.n	85b9c <_fputwc_r+0x48>
   85bba:	69a2      	ldr	r2, [r4, #24]
   85bbc:	4293      	cmp	r3, r2
   85bbe:	db06      	blt.n	85bce <_fputwc_r+0x7a>
   85bc0:	6823      	ldr	r3, [r4, #0]
   85bc2:	7019      	strb	r1, [r3, #0]
   85bc4:	6823      	ldr	r3, [r4, #0]
   85bc6:	7819      	ldrb	r1, [r3, #0]
   85bc8:	3301      	adds	r3, #1
   85bca:	290a      	cmp	r1, #10
   85bcc:	d1ea      	bne.n	85ba4 <_fputwc_r+0x50>
   85bce:	4640      	mov	r0, r8
   85bd0:	4622      	mov	r2, r4
   85bd2:	f001 fd23 	bl	8761c <__swbuf_r>
   85bd6:	f1b0 33ff 	subs.w	r3, r0, #4294967295
   85bda:	4258      	negs	r0, r3
   85bdc:	4158      	adcs	r0, r3
   85bde:	2800      	cmp	r0, #0
   85be0:	d0e1      	beq.n	85ba6 <_fputwc_r+0x52>
   85be2:	f04f 30ff 	mov.w	r0, #4294967295
   85be6:	b002      	add	sp, #8
   85be8:	e8bd 81f0 	ldmia.w	sp!, {r4, r5, r6, r7, r8, pc}
   85bec:	89a3      	ldrh	r3, [r4, #12]
   85bee:	f043 0340 	orr.w	r3, r3, #64	; 0x40
   85bf2:	81a3      	strh	r3, [r4, #12]
   85bf4:	b002      	add	sp, #8
   85bf6:	e8bd 81f0 	ldmia.w	sp!, {r4, r5, r6, r7, r8, pc}
   85bfa:	1e7b      	subs	r3, r7, #1
   85bfc:	2bfe      	cmp	r3, #254	; 0xfe
   85bfe:	d8bd      	bhi.n	85b7c <_fputwc_r+0x28>
   85c00:	b2f9      	uxtb	r1, r7
   85c02:	4606      	mov	r6, r0
   85c04:	f88d 1004 	strb.w	r1, [sp, #4]
   85c08:	e7c6      	b.n	85b98 <_fputwc_r+0x44>
   85c0a:	4638      	mov	r0, r7
   85c0c:	b002      	add	sp, #8
   85c0e:	e8bd 81f0 	ldmia.w	sp!, {r4, r5, r6, r7, r8, pc}
   85c12:	bf00      	nop

00085c14 <_malloc_trim_r>:
   85c14:	b5f8      	push	{r3, r4, r5, r6, r7, lr}
   85c16:	4d23      	ldr	r5, [pc, #140]	; (85ca4 <_malloc_trim_r+0x90>)
   85c18:	460f      	mov	r7, r1
   85c1a:	4604      	mov	r4, r0
   85c1c:	f000 ff0c 	bl	86a38 <__malloc_lock>
   85c20:	68ab      	ldr	r3, [r5, #8]
   85c22:	685e      	ldr	r6, [r3, #4]
   85c24:	f026 0603 	bic.w	r6, r6, #3
   85c28:	1bf1      	subs	r1, r6, r7
   85c2a:	f601 71ef 	addw	r1, r1, #4079	; 0xfef
   85c2e:	f421 617f 	bic.w	r1, r1, #4080	; 0xff0
   85c32:	f021 010f 	bic.w	r1, r1, #15
   85c36:	f5a1 5780 	sub.w	r7, r1, #4096	; 0x1000
   85c3a:	f5b7 5f80 	cmp.w	r7, #4096	; 0x1000
   85c3e:	db07      	blt.n	85c50 <_malloc_trim_r+0x3c>
   85c40:	4620      	mov	r0, r4
   85c42:	2100      	movs	r1, #0
   85c44:	f001 fbe6 	bl	87414 <_sbrk_r>
   85c48:	68ab      	ldr	r3, [r5, #8]
   85c4a:	4433      	add	r3, r6
   85c4c:	4298      	cmp	r0, r3
   85c4e:	d004      	beq.n	85c5a <_malloc_trim_r+0x46>
   85c50:	4620      	mov	r0, r4
   85c52:	f000 fef3 	bl	86a3c <__malloc_unlock>
   85c56:	2000      	movs	r0, #0
   85c58:	bdf8      	pop	{r3, r4, r5, r6, r7, pc}
   85c5a:	4620      	mov	r0, r4
   85c5c:	4279      	negs	r1, r7
   85c5e:	f001 fbd9 	bl	87414 <_sbrk_r>
   85c62:	3001      	adds	r0, #1
   85c64:	d00d      	beq.n	85c82 <_malloc_trim_r+0x6e>
   85c66:	4b10      	ldr	r3, [pc, #64]	; (85ca8 <_malloc_trim_r+0x94>)
   85c68:	68aa      	ldr	r2, [r5, #8]
   85c6a:	6819      	ldr	r1, [r3, #0]
   85c6c:	1bf6      	subs	r6, r6, r7
   85c6e:	f046 0601 	orr.w	r6, r6, #1
   85c72:	4620      	mov	r0, r4
   85c74:	1bc9      	subs	r1, r1, r7
   85c76:	6056      	str	r6, [r2, #4]
   85c78:	6019      	str	r1, [r3, #0]
   85c7a:	f000 fedf 	bl	86a3c <__malloc_unlock>
   85c7e:	2001      	movs	r0, #1
   85c80:	bdf8      	pop	{r3, r4, r5, r6, r7, pc}
   85c82:	4620      	mov	r0, r4
   85c84:	2100      	movs	r1, #0
   85c86:	f001 fbc5 	bl	87414 <_sbrk_r>
   85c8a:	68ab      	ldr	r3, [r5, #8]
   85c8c:	1ac2      	subs	r2, r0, r3
   85c8e:	2a0f      	cmp	r2, #15
   85c90:	ddde      	ble.n	85c50 <_malloc_trim_r+0x3c>
   85c92:	4d06      	ldr	r5, [pc, #24]	; (85cac <_malloc_trim_r+0x98>)
   85c94:	4904      	ldr	r1, [pc, #16]	; (85ca8 <_malloc_trim_r+0x94>)
   85c96:	682d      	ldr	r5, [r5, #0]
   85c98:	f042 0201 	orr.w	r2, r2, #1
   85c9c:	1b40      	subs	r0, r0, r5
   85c9e:	605a      	str	r2, [r3, #4]
   85ca0:	6008      	str	r0, [r1, #0]
   85ca2:	e7d5      	b.n	85c50 <_malloc_trim_r+0x3c>
   85ca4:	200705c8 	.word	0x200705c8
   85ca8:	20070b34 	.word	0x20070b34
   85cac:	200709d4 	.word	0x200709d4

00085cb0 <_free_r>:
   85cb0:	e92d 41f0 	stmdb	sp!, {r4, r5, r6, r7, r8, lr}
   85cb4:	460d      	mov	r5, r1
   85cb6:	4606      	mov	r6, r0
   85cb8:	2900      	cmp	r1, #0
   85cba:	d055      	beq.n	85d68 <_free_r+0xb8>
   85cbc:	f000 febc 	bl	86a38 <__malloc_lock>
   85cc0:	f855 1c04 	ldr.w	r1, [r5, #-4]
   85cc4:	f8df c170 	ldr.w	ip, [pc, #368]	; 85e38 <_free_r+0x188>
   85cc8:	f1a5 0408 	sub.w	r4, r5, #8
   85ccc:	f021 0301 	bic.w	r3, r1, #1
   85cd0:	18e2      	adds	r2, r4, r3
   85cd2:	f8dc 0008 	ldr.w	r0, [ip, #8]
   85cd6:	6857      	ldr	r7, [r2, #4]
   85cd8:	4290      	cmp	r0, r2
   85cda:	f027 0703 	bic.w	r7, r7, #3
   85cde:	d068      	beq.n	85db2 <_free_r+0x102>
   85ce0:	f011 0101 	ands.w	r1, r1, #1
   85ce4:	6057      	str	r7, [r2, #4]
   85ce6:	d032      	beq.n	85d4e <_free_r+0x9e>
   85ce8:	2100      	movs	r1, #0
   85cea:	19d0      	adds	r0, r2, r7
   85cec:	6840      	ldr	r0, [r0, #4]
   85cee:	07c0      	lsls	r0, r0, #31
   85cf0:	d406      	bmi.n	85d00 <_free_r+0x50>
   85cf2:	443b      	add	r3, r7
   85cf4:	6890      	ldr	r0, [r2, #8]
   85cf6:	2900      	cmp	r1, #0
   85cf8:	d04d      	beq.n	85d96 <_free_r+0xe6>
   85cfa:	68d2      	ldr	r2, [r2, #12]
   85cfc:	60c2      	str	r2, [r0, #12]
   85cfe:	6090      	str	r0, [r2, #8]
   85d00:	f043 0201 	orr.w	r2, r3, #1
   85d04:	6062      	str	r2, [r4, #4]
   85d06:	50e3      	str	r3, [r4, r3]
   85d08:	b9e1      	cbnz	r1, 85d44 <_free_r+0x94>
   85d0a:	f5b3 7f00 	cmp.w	r3, #512	; 0x200
   85d0e:	d32d      	bcc.n	85d6c <_free_r+0xbc>
   85d10:	0a5a      	lsrs	r2, r3, #9
   85d12:	2a04      	cmp	r2, #4
   85d14:	d869      	bhi.n	85dea <_free_r+0x13a>
   85d16:	0998      	lsrs	r0, r3, #6
   85d18:	3038      	adds	r0, #56	; 0x38
   85d1a:	0041      	lsls	r1, r0, #1
   85d1c:	eb0c 0c81 	add.w	ip, ip, r1, lsl #2
   85d20:	f8dc 2008 	ldr.w	r2, [ip, #8]
   85d24:	4944      	ldr	r1, [pc, #272]	; (85e38 <_free_r+0x188>)
   85d26:	4562      	cmp	r2, ip
   85d28:	d065      	beq.n	85df6 <_free_r+0x146>
   85d2a:	6851      	ldr	r1, [r2, #4]
   85d2c:	f021 0103 	bic.w	r1, r1, #3
   85d30:	428b      	cmp	r3, r1
   85d32:	d202      	bcs.n	85d3a <_free_r+0x8a>
   85d34:	6892      	ldr	r2, [r2, #8]
   85d36:	4594      	cmp	ip, r2
   85d38:	d1f7      	bne.n	85d2a <_free_r+0x7a>
   85d3a:	68d3      	ldr	r3, [r2, #12]
   85d3c:	60e3      	str	r3, [r4, #12]
   85d3e:	60a2      	str	r2, [r4, #8]
   85d40:	609c      	str	r4, [r3, #8]
   85d42:	60d4      	str	r4, [r2, #12]
   85d44:	4630      	mov	r0, r6
   85d46:	e8bd 41f0 	ldmia.w	sp!, {r4, r5, r6, r7, r8, lr}
   85d4a:	f000 be77 	b.w	86a3c <__malloc_unlock>
   85d4e:	f855 5c08 	ldr.w	r5, [r5, #-8]
   85d52:	f10c 0808 	add.w	r8, ip, #8
   85d56:	1b64      	subs	r4, r4, r5
   85d58:	68a0      	ldr	r0, [r4, #8]
   85d5a:	442b      	add	r3, r5
   85d5c:	4540      	cmp	r0, r8
   85d5e:	d042      	beq.n	85de6 <_free_r+0x136>
   85d60:	68e5      	ldr	r5, [r4, #12]
   85d62:	60c5      	str	r5, [r0, #12]
   85d64:	60a8      	str	r0, [r5, #8]
   85d66:	e7c0      	b.n	85cea <_free_r+0x3a>
   85d68:	e8bd 81f0 	ldmia.w	sp!, {r4, r5, r6, r7, r8, pc}
   85d6c:	08db      	lsrs	r3, r3, #3
   85d6e:	109a      	asrs	r2, r3, #2
   85d70:	2001      	movs	r0, #1
   85d72:	4090      	lsls	r0, r2
   85d74:	f8dc 1004 	ldr.w	r1, [ip, #4]
   85d78:	eb0c 03c3 	add.w	r3, ip, r3, lsl #3
   85d7c:	689a      	ldr	r2, [r3, #8]
   85d7e:	4301      	orrs	r1, r0
   85d80:	60a2      	str	r2, [r4, #8]
   85d82:	60e3      	str	r3, [r4, #12]
   85d84:	f8cc 1004 	str.w	r1, [ip, #4]
   85d88:	4630      	mov	r0, r6
   85d8a:	609c      	str	r4, [r3, #8]
   85d8c:	60d4      	str	r4, [r2, #12]
   85d8e:	e8bd 41f0 	ldmia.w	sp!, {r4, r5, r6, r7, r8, lr}
   85d92:	f000 be53 	b.w	86a3c <__malloc_unlock>
   85d96:	4d29      	ldr	r5, [pc, #164]	; (85e3c <_free_r+0x18c>)
   85d98:	42a8      	cmp	r0, r5
   85d9a:	d1ae      	bne.n	85cfa <_free_r+0x4a>
   85d9c:	f043 0201 	orr.w	r2, r3, #1
   85da0:	f8cc 4014 	str.w	r4, [ip, #20]
   85da4:	f8cc 4010 	str.w	r4, [ip, #16]
   85da8:	60e0      	str	r0, [r4, #12]
   85daa:	60a0      	str	r0, [r4, #8]
   85dac:	6062      	str	r2, [r4, #4]
   85dae:	50e3      	str	r3, [r4, r3]
   85db0:	e7c8      	b.n	85d44 <_free_r+0x94>
   85db2:	441f      	add	r7, r3
   85db4:	07cb      	lsls	r3, r1, #31
   85db6:	d407      	bmi.n	85dc8 <_free_r+0x118>
   85db8:	f855 1c08 	ldr.w	r1, [r5, #-8]
   85dbc:	1a64      	subs	r4, r4, r1
   85dbe:	68e3      	ldr	r3, [r4, #12]
   85dc0:	68a2      	ldr	r2, [r4, #8]
   85dc2:	440f      	add	r7, r1
   85dc4:	60d3      	str	r3, [r2, #12]
   85dc6:	609a      	str	r2, [r3, #8]
   85dc8:	4b1d      	ldr	r3, [pc, #116]	; (85e40 <_free_r+0x190>)
   85dca:	f047 0201 	orr.w	r2, r7, #1
   85dce:	681b      	ldr	r3, [r3, #0]
   85dd0:	6062      	str	r2, [r4, #4]
   85dd2:	429f      	cmp	r7, r3
   85dd4:	f8cc 4008 	str.w	r4, [ip, #8]
   85dd8:	d3b4      	bcc.n	85d44 <_free_r+0x94>
   85dda:	4b1a      	ldr	r3, [pc, #104]	; (85e44 <_free_r+0x194>)
   85ddc:	4630      	mov	r0, r6
   85dde:	6819      	ldr	r1, [r3, #0]
   85de0:	f7ff ff18 	bl	85c14 <_malloc_trim_r>
   85de4:	e7ae      	b.n	85d44 <_free_r+0x94>
   85de6:	2101      	movs	r1, #1
   85de8:	e77f      	b.n	85cea <_free_r+0x3a>
   85dea:	2a14      	cmp	r2, #20
   85dec:	d80b      	bhi.n	85e06 <_free_r+0x156>
   85dee:	f102 005b 	add.w	r0, r2, #91	; 0x5b
   85df2:	0041      	lsls	r1, r0, #1
   85df4:	e792      	b.n	85d1c <_free_r+0x6c>
   85df6:	1080      	asrs	r0, r0, #2
   85df8:	2501      	movs	r5, #1
   85dfa:	4085      	lsls	r5, r0
   85dfc:	6848      	ldr	r0, [r1, #4]
   85dfe:	4613      	mov	r3, r2
   85e00:	4328      	orrs	r0, r5
   85e02:	6048      	str	r0, [r1, #4]
   85e04:	e79a      	b.n	85d3c <_free_r+0x8c>
   85e06:	2a54      	cmp	r2, #84	; 0x54
   85e08:	d803      	bhi.n	85e12 <_free_r+0x162>
   85e0a:	0b18      	lsrs	r0, r3, #12
   85e0c:	306e      	adds	r0, #110	; 0x6e
   85e0e:	0041      	lsls	r1, r0, #1
   85e10:	e784      	b.n	85d1c <_free_r+0x6c>
   85e12:	f5b2 7faa 	cmp.w	r2, #340	; 0x154
   85e16:	d803      	bhi.n	85e20 <_free_r+0x170>
   85e18:	0bd8      	lsrs	r0, r3, #15
   85e1a:	3077      	adds	r0, #119	; 0x77
   85e1c:	0041      	lsls	r1, r0, #1
   85e1e:	e77d      	b.n	85d1c <_free_r+0x6c>
   85e20:	f240 5154 	movw	r1, #1364	; 0x554
   85e24:	428a      	cmp	r2, r1
   85e26:	d803      	bhi.n	85e30 <_free_r+0x180>
   85e28:	0c98      	lsrs	r0, r3, #18
   85e2a:	307c      	adds	r0, #124	; 0x7c
   85e2c:	0041      	lsls	r1, r0, #1
   85e2e:	e775      	b.n	85d1c <_free_r+0x6c>
   85e30:	21fc      	movs	r1, #252	; 0xfc
   85e32:	207e      	movs	r0, #126	; 0x7e
   85e34:	e772      	b.n	85d1c <_free_r+0x6c>
   85e36:	bf00      	nop
   85e38:	200705c8 	.word	0x200705c8
   85e3c:	200705d0 	.word	0x200705d0
   85e40:	200709d0 	.word	0x200709d0
   85e44:	20070b30 	.word	0x20070b30

00085e48 <__sfvwrite_r>:
   85e48:	e92d 4ff0 	stmdb	sp!, {r4, r5, r6, r7, r8, r9, sl, fp, lr}
   85e4c:	6893      	ldr	r3, [r2, #8]
   85e4e:	b083      	sub	sp, #12
   85e50:	4616      	mov	r6, r2
   85e52:	4681      	mov	r9, r0
   85e54:	460c      	mov	r4, r1
   85e56:	b32b      	cbz	r3, 85ea4 <__sfvwrite_r+0x5c>
   85e58:	898b      	ldrh	r3, [r1, #12]
   85e5a:	0719      	lsls	r1, r3, #28
   85e5c:	d526      	bpl.n	85eac <__sfvwrite_r+0x64>
   85e5e:	6922      	ldr	r2, [r4, #16]
   85e60:	b322      	cbz	r2, 85eac <__sfvwrite_r+0x64>
   85e62:	f003 0202 	and.w	r2, r3, #2
   85e66:	b292      	uxth	r2, r2
   85e68:	6835      	ldr	r5, [r6, #0]
   85e6a:	2a00      	cmp	r2, #0
   85e6c:	d02c      	beq.n	85ec8 <__sfvwrite_r+0x80>
   85e6e:	f04f 0a00 	mov.w	sl, #0
   85e72:	f8df b2e8 	ldr.w	fp, [pc, #744]	; 8615c <__sfvwrite_r+0x314>
   85e76:	46d0      	mov	r8, sl
   85e78:	45d8      	cmp	r8, fp
   85e7a:	bf34      	ite	cc
   85e7c:	4643      	movcc	r3, r8
   85e7e:	465b      	movcs	r3, fp
   85e80:	4652      	mov	r2, sl
   85e82:	4648      	mov	r0, r9
   85e84:	f1b8 0f00 	cmp.w	r8, #0
   85e88:	d04f      	beq.n	85f2a <__sfvwrite_r+0xe2>
   85e8a:	69e1      	ldr	r1, [r4, #28]
   85e8c:	6a67      	ldr	r7, [r4, #36]	; 0x24
   85e8e:	47b8      	blx	r7
   85e90:	2800      	cmp	r0, #0
   85e92:	dd56      	ble.n	85f42 <__sfvwrite_r+0xfa>
   85e94:	68b3      	ldr	r3, [r6, #8]
   85e96:	4482      	add	sl, r0
   85e98:	1a1b      	subs	r3, r3, r0
   85e9a:	ebc0 0808 	rsb	r8, r0, r8
   85e9e:	60b3      	str	r3, [r6, #8]
   85ea0:	2b00      	cmp	r3, #0
   85ea2:	d1e9      	bne.n	85e78 <__sfvwrite_r+0x30>
   85ea4:	2000      	movs	r0, #0
   85ea6:	b003      	add	sp, #12
   85ea8:	e8bd 8ff0 	ldmia.w	sp!, {r4, r5, r6, r7, r8, r9, sl, fp, pc}
   85eac:	4648      	mov	r0, r9
   85eae:	4621      	mov	r1, r4
   85eb0:	f7fe fcd2 	bl	84858 <__swsetup_r>
   85eb4:	2800      	cmp	r0, #0
   85eb6:	f040 8148 	bne.w	8614a <__sfvwrite_r+0x302>
   85eba:	89a3      	ldrh	r3, [r4, #12]
   85ebc:	6835      	ldr	r5, [r6, #0]
   85ebe:	f003 0202 	and.w	r2, r3, #2
   85ec2:	b292      	uxth	r2, r2
   85ec4:	2a00      	cmp	r2, #0
   85ec6:	d1d2      	bne.n	85e6e <__sfvwrite_r+0x26>
   85ec8:	f013 0a01 	ands.w	sl, r3, #1
   85ecc:	d142      	bne.n	85f54 <__sfvwrite_r+0x10c>
   85ece:	46d0      	mov	r8, sl
   85ed0:	f1b8 0f00 	cmp.w	r8, #0
   85ed4:	d023      	beq.n	85f1e <__sfvwrite_r+0xd6>
   85ed6:	059a      	lsls	r2, r3, #22
   85ed8:	68a7      	ldr	r7, [r4, #8]
   85eda:	d576      	bpl.n	85fca <__sfvwrite_r+0x182>
   85edc:	45b8      	cmp	r8, r7
   85ede:	f0c0 80a4 	bcc.w	8602a <__sfvwrite_r+0x1e2>
   85ee2:	f413 6f90 	tst.w	r3, #1152	; 0x480
   85ee6:	f040 80b2 	bne.w	8604e <__sfvwrite_r+0x206>
   85eea:	6820      	ldr	r0, [r4, #0]
   85eec:	46bb      	mov	fp, r7
   85eee:	4651      	mov	r1, sl
   85ef0:	465a      	mov	r2, fp
   85ef2:	f000 fd3b 	bl	8696c <memmove>
   85ef6:	68a2      	ldr	r2, [r4, #8]
   85ef8:	6821      	ldr	r1, [r4, #0]
   85efa:	1bd2      	subs	r2, r2, r7
   85efc:	eb01 030b 	add.w	r3, r1, fp
   85f00:	60a2      	str	r2, [r4, #8]
   85f02:	6023      	str	r3, [r4, #0]
   85f04:	4642      	mov	r2, r8
   85f06:	68b3      	ldr	r3, [r6, #8]
   85f08:	4492      	add	sl, r2
   85f0a:	1a9b      	subs	r3, r3, r2
   85f0c:	ebc2 0808 	rsb	r8, r2, r8
   85f10:	60b3      	str	r3, [r6, #8]
   85f12:	2b00      	cmp	r3, #0
   85f14:	d0c6      	beq.n	85ea4 <__sfvwrite_r+0x5c>
   85f16:	89a3      	ldrh	r3, [r4, #12]
   85f18:	f1b8 0f00 	cmp.w	r8, #0
   85f1c:	d1db      	bne.n	85ed6 <__sfvwrite_r+0x8e>
   85f1e:	f8d5 a000 	ldr.w	sl, [r5]
   85f22:	f8d5 8004 	ldr.w	r8, [r5, #4]
   85f26:	3508      	adds	r5, #8
   85f28:	e7d2      	b.n	85ed0 <__sfvwrite_r+0x88>
   85f2a:	f8d5 a000 	ldr.w	sl, [r5]
   85f2e:	f8d5 8004 	ldr.w	r8, [r5, #4]
   85f32:	3508      	adds	r5, #8
   85f34:	e7a0      	b.n	85e78 <__sfvwrite_r+0x30>
   85f36:	4648      	mov	r0, r9
   85f38:	4621      	mov	r1, r4
   85f3a:	f7ff fd59 	bl	859f0 <_fflush_r>
   85f3e:	2800      	cmp	r0, #0
   85f40:	d059      	beq.n	85ff6 <__sfvwrite_r+0x1ae>
   85f42:	89a3      	ldrh	r3, [r4, #12]
   85f44:	f043 0340 	orr.w	r3, r3, #64	; 0x40
   85f48:	f04f 30ff 	mov.w	r0, #4294967295
   85f4c:	81a3      	strh	r3, [r4, #12]
   85f4e:	b003      	add	sp, #12
   85f50:	e8bd 8ff0 	ldmia.w	sp!, {r4, r5, r6, r7, r8, r9, sl, fp, pc}
   85f54:	4692      	mov	sl, r2
   85f56:	9201      	str	r2, [sp, #4]
   85f58:	4693      	mov	fp, r2
   85f5a:	4690      	mov	r8, r2
   85f5c:	f1b8 0f00 	cmp.w	r8, #0
   85f60:	d02b      	beq.n	85fba <__sfvwrite_r+0x172>
   85f62:	9f01      	ldr	r7, [sp, #4]
   85f64:	2f00      	cmp	r7, #0
   85f66:	d064      	beq.n	86032 <__sfvwrite_r+0x1ea>
   85f68:	6820      	ldr	r0, [r4, #0]
   85f6a:	6921      	ldr	r1, [r4, #16]
   85f6c:	45c2      	cmp	sl, r8
   85f6e:	bf34      	ite	cc
   85f70:	4653      	movcc	r3, sl
   85f72:	4643      	movcs	r3, r8
   85f74:	4288      	cmp	r0, r1
   85f76:	461f      	mov	r7, r3
   85f78:	f8d4 c008 	ldr.w	ip, [r4, #8]
   85f7c:	6962      	ldr	r2, [r4, #20]
   85f7e:	d903      	bls.n	85f88 <__sfvwrite_r+0x140>
   85f80:	4494      	add	ip, r2
   85f82:	4563      	cmp	r3, ip
   85f84:	f300 80ae 	bgt.w	860e4 <__sfvwrite_r+0x29c>
   85f88:	4293      	cmp	r3, r2
   85f8a:	db36      	blt.n	85ffa <__sfvwrite_r+0x1b2>
   85f8c:	4613      	mov	r3, r2
   85f8e:	6a67      	ldr	r7, [r4, #36]	; 0x24
   85f90:	4648      	mov	r0, r9
   85f92:	69e1      	ldr	r1, [r4, #28]
   85f94:	465a      	mov	r2, fp
   85f96:	47b8      	blx	r7
   85f98:	1e07      	subs	r7, r0, #0
   85f9a:	ddd2      	ble.n	85f42 <__sfvwrite_r+0xfa>
   85f9c:	ebba 0a07 	subs.w	sl, sl, r7
   85fa0:	d03a      	beq.n	86018 <__sfvwrite_r+0x1d0>
   85fa2:	68b3      	ldr	r3, [r6, #8]
   85fa4:	44bb      	add	fp, r7
   85fa6:	1bdb      	subs	r3, r3, r7
   85fa8:	ebc7 0808 	rsb	r8, r7, r8
   85fac:	60b3      	str	r3, [r6, #8]
   85fae:	2b00      	cmp	r3, #0
   85fb0:	f43f af78 	beq.w	85ea4 <__sfvwrite_r+0x5c>
   85fb4:	f1b8 0f00 	cmp.w	r8, #0
   85fb8:	d1d3      	bne.n	85f62 <__sfvwrite_r+0x11a>
   85fba:	2700      	movs	r7, #0
   85fbc:	f8d5 b000 	ldr.w	fp, [r5]
   85fc0:	f8d5 8004 	ldr.w	r8, [r5, #4]
   85fc4:	9701      	str	r7, [sp, #4]
   85fc6:	3508      	adds	r5, #8
   85fc8:	e7c8      	b.n	85f5c <__sfvwrite_r+0x114>
   85fca:	6820      	ldr	r0, [r4, #0]
   85fcc:	6923      	ldr	r3, [r4, #16]
   85fce:	4298      	cmp	r0, r3
   85fd0:	d802      	bhi.n	85fd8 <__sfvwrite_r+0x190>
   85fd2:	6963      	ldr	r3, [r4, #20]
   85fd4:	4598      	cmp	r8, r3
   85fd6:	d272      	bcs.n	860be <__sfvwrite_r+0x276>
   85fd8:	45b8      	cmp	r8, r7
   85fda:	bf38      	it	cc
   85fdc:	4647      	movcc	r7, r8
   85fde:	463a      	mov	r2, r7
   85fe0:	4651      	mov	r1, sl
   85fe2:	f000 fcc3 	bl	8696c <memmove>
   85fe6:	68a3      	ldr	r3, [r4, #8]
   85fe8:	6822      	ldr	r2, [r4, #0]
   85fea:	1bdb      	subs	r3, r3, r7
   85fec:	443a      	add	r2, r7
   85fee:	60a3      	str	r3, [r4, #8]
   85ff0:	6022      	str	r2, [r4, #0]
   85ff2:	2b00      	cmp	r3, #0
   85ff4:	d09f      	beq.n	85f36 <__sfvwrite_r+0xee>
   85ff6:	463a      	mov	r2, r7
   85ff8:	e785      	b.n	85f06 <__sfvwrite_r+0xbe>
   85ffa:	461a      	mov	r2, r3
   85ffc:	4659      	mov	r1, fp
   85ffe:	9300      	str	r3, [sp, #0]
   86000:	f000 fcb4 	bl	8696c <memmove>
   86004:	9b00      	ldr	r3, [sp, #0]
   86006:	68a1      	ldr	r1, [r4, #8]
   86008:	6822      	ldr	r2, [r4, #0]
   8600a:	1ac9      	subs	r1, r1, r3
   8600c:	ebba 0a07 	subs.w	sl, sl, r7
   86010:	4413      	add	r3, r2
   86012:	60a1      	str	r1, [r4, #8]
   86014:	6023      	str	r3, [r4, #0]
   86016:	d1c4      	bne.n	85fa2 <__sfvwrite_r+0x15a>
   86018:	4648      	mov	r0, r9
   8601a:	4621      	mov	r1, r4
   8601c:	f7ff fce8 	bl	859f0 <_fflush_r>
   86020:	2800      	cmp	r0, #0
   86022:	d18e      	bne.n	85f42 <__sfvwrite_r+0xfa>
   86024:	f8cd a004 	str.w	sl, [sp, #4]
   86028:	e7bb      	b.n	85fa2 <__sfvwrite_r+0x15a>
   8602a:	6820      	ldr	r0, [r4, #0]
   8602c:	4647      	mov	r7, r8
   8602e:	46c3      	mov	fp, r8
   86030:	e75d      	b.n	85eee <__sfvwrite_r+0xa6>
   86032:	4658      	mov	r0, fp
   86034:	210a      	movs	r1, #10
   86036:	4642      	mov	r2, r8
   86038:	f000 fbd8 	bl	867ec <memchr>
   8603c:	2800      	cmp	r0, #0
   8603e:	d07f      	beq.n	86140 <__sfvwrite_r+0x2f8>
   86040:	f100 0a01 	add.w	sl, r0, #1
   86044:	2701      	movs	r7, #1
   86046:	ebcb 0a0a 	rsb	sl, fp, sl
   8604a:	9701      	str	r7, [sp, #4]
   8604c:	e78c      	b.n	85f68 <__sfvwrite_r+0x120>
   8604e:	6822      	ldr	r2, [r4, #0]
   86050:	6921      	ldr	r1, [r4, #16]
   86052:	6967      	ldr	r7, [r4, #20]
   86054:	ebc1 0c02 	rsb	ip, r1, r2
   86058:	eb07 0747 	add.w	r7, r7, r7, lsl #1
   8605c:	f10c 0201 	add.w	r2, ip, #1
   86060:	eb07 77d7 	add.w	r7, r7, r7, lsr #31
   86064:	4442      	add	r2, r8
   86066:	107f      	asrs	r7, r7, #1
   86068:	4297      	cmp	r7, r2
   8606a:	bf34      	ite	cc
   8606c:	4617      	movcc	r7, r2
   8606e:	463a      	movcs	r2, r7
   86070:	055b      	lsls	r3, r3, #21
   86072:	d54f      	bpl.n	86114 <__sfvwrite_r+0x2cc>
   86074:	4611      	mov	r1, r2
   86076:	4648      	mov	r0, r9
   86078:	f8cd c000 	str.w	ip, [sp]
   8607c:	f000 f91a 	bl	862b4 <_malloc_r>
   86080:	f8dd c000 	ldr.w	ip, [sp]
   86084:	4683      	mov	fp, r0
   86086:	2800      	cmp	r0, #0
   86088:	d062      	beq.n	86150 <__sfvwrite_r+0x308>
   8608a:	4662      	mov	r2, ip
   8608c:	6921      	ldr	r1, [r4, #16]
   8608e:	f8cd c000 	str.w	ip, [sp]
   86092:	f000 fbf5 	bl	86880 <memcpy>
   86096:	89a2      	ldrh	r2, [r4, #12]
   86098:	f8dd c000 	ldr.w	ip, [sp]
   8609c:	f422 6290 	bic.w	r2, r2, #1152	; 0x480
   860a0:	f042 0280 	orr.w	r2, r2, #128	; 0x80
   860a4:	81a2      	strh	r2, [r4, #12]
   860a6:	eb0b 000c 	add.w	r0, fp, ip
   860aa:	ebcc 0207 	rsb	r2, ip, r7
   860ae:	f8c4 b010 	str.w	fp, [r4, #16]
   860b2:	6167      	str	r7, [r4, #20]
   860b4:	6020      	str	r0, [r4, #0]
   860b6:	60a2      	str	r2, [r4, #8]
   860b8:	4647      	mov	r7, r8
   860ba:	46c3      	mov	fp, r8
   860bc:	e717      	b.n	85eee <__sfvwrite_r+0xa6>
   860be:	f06f 4200 	mvn.w	r2, #2147483648	; 0x80000000
   860c2:	4590      	cmp	r8, r2
   860c4:	bf38      	it	cc
   860c6:	4642      	movcc	r2, r8
   860c8:	fb92 f2f3 	sdiv	r2, r2, r3
   860cc:	fb02 f303 	mul.w	r3, r2, r3
   860d0:	6a67      	ldr	r7, [r4, #36]	; 0x24
   860d2:	4648      	mov	r0, r9
   860d4:	69e1      	ldr	r1, [r4, #28]
   860d6:	4652      	mov	r2, sl
   860d8:	47b8      	blx	r7
   860da:	2800      	cmp	r0, #0
   860dc:	f77f af31 	ble.w	85f42 <__sfvwrite_r+0xfa>
   860e0:	4602      	mov	r2, r0
   860e2:	e710      	b.n	85f06 <__sfvwrite_r+0xbe>
   860e4:	4662      	mov	r2, ip
   860e6:	4659      	mov	r1, fp
   860e8:	f8cd c000 	str.w	ip, [sp]
   860ec:	f000 fc3e 	bl	8696c <memmove>
   860f0:	f8dd c000 	ldr.w	ip, [sp]
   860f4:	6823      	ldr	r3, [r4, #0]
   860f6:	4648      	mov	r0, r9
   860f8:	4463      	add	r3, ip
   860fa:	6023      	str	r3, [r4, #0]
   860fc:	4621      	mov	r1, r4
   860fe:	f8cd c000 	str.w	ip, [sp]
   86102:	f7ff fc75 	bl	859f0 <_fflush_r>
   86106:	f8dd c000 	ldr.w	ip, [sp]
   8610a:	2800      	cmp	r0, #0
   8610c:	f47f af19 	bne.w	85f42 <__sfvwrite_r+0xfa>
   86110:	4667      	mov	r7, ip
   86112:	e743      	b.n	85f9c <__sfvwrite_r+0x154>
   86114:	4648      	mov	r0, r9
   86116:	f8cd c000 	str.w	ip, [sp]
   8611a:	f000 ff9b 	bl	87054 <_realloc_r>
   8611e:	f8dd c000 	ldr.w	ip, [sp]
   86122:	4683      	mov	fp, r0
   86124:	2800      	cmp	r0, #0
   86126:	d1be      	bne.n	860a6 <__sfvwrite_r+0x25e>
   86128:	4648      	mov	r0, r9
   8612a:	6921      	ldr	r1, [r4, #16]
   8612c:	f7ff fdc0 	bl	85cb0 <_free_r>
   86130:	89a3      	ldrh	r3, [r4, #12]
   86132:	220c      	movs	r2, #12
   86134:	f023 0380 	bic.w	r3, r3, #128	; 0x80
   86138:	b29b      	uxth	r3, r3
   8613a:	f8c9 2000 	str.w	r2, [r9]
   8613e:	e701      	b.n	85f44 <__sfvwrite_r+0xfc>
   86140:	2701      	movs	r7, #1
   86142:	f108 0a01 	add.w	sl, r8, #1
   86146:	9701      	str	r7, [sp, #4]
   86148:	e70e      	b.n	85f68 <__sfvwrite_r+0x120>
   8614a:	f04f 30ff 	mov.w	r0, #4294967295
   8614e:	e6aa      	b.n	85ea6 <__sfvwrite_r+0x5e>
   86150:	230c      	movs	r3, #12
   86152:	f8c9 3000 	str.w	r3, [r9]
   86156:	89a3      	ldrh	r3, [r4, #12]
   86158:	e6f4      	b.n	85f44 <__sfvwrite_r+0xfc>
   8615a:	bf00      	nop
   8615c:	7ffffc00 	.word	0x7ffffc00

00086160 <_fwalk>:
   86160:	e92d 41f0 	stmdb	sp!, {r4, r5, r6, r7, r8, lr}
   86164:	f510 7738 	adds.w	r7, r0, #736	; 0x2e0
   86168:	4688      	mov	r8, r1
   8616a:	d019      	beq.n	861a0 <_fwalk+0x40>
   8616c:	2600      	movs	r6, #0
   8616e:	687d      	ldr	r5, [r7, #4]
   86170:	68bc      	ldr	r4, [r7, #8]
   86172:	3d01      	subs	r5, #1
   86174:	d40e      	bmi.n	86194 <_fwalk+0x34>
   86176:	89a3      	ldrh	r3, [r4, #12]
   86178:	3d01      	subs	r5, #1
   8617a:	2b01      	cmp	r3, #1
   8617c:	d906      	bls.n	8618c <_fwalk+0x2c>
   8617e:	f9b4 300e 	ldrsh.w	r3, [r4, #14]
   86182:	4620      	mov	r0, r4
   86184:	3301      	adds	r3, #1
   86186:	d001      	beq.n	8618c <_fwalk+0x2c>
   86188:	47c0      	blx	r8
   8618a:	4306      	orrs	r6, r0
   8618c:	1c6b      	adds	r3, r5, #1
   8618e:	f104 0468 	add.w	r4, r4, #104	; 0x68
   86192:	d1f0      	bne.n	86176 <_fwalk+0x16>
   86194:	683f      	ldr	r7, [r7, #0]
   86196:	2f00      	cmp	r7, #0
   86198:	d1e9      	bne.n	8616e <_fwalk+0xe>
   8619a:	4630      	mov	r0, r6
   8619c:	e8bd 81f0 	ldmia.w	sp!, {r4, r5, r6, r7, r8, pc}
   861a0:	463e      	mov	r6, r7
   861a2:	4630      	mov	r0, r6
   861a4:	e8bd 81f0 	ldmia.w	sp!, {r4, r5, r6, r7, r8, pc}

000861a8 <__locale_charset>:
   861a8:	4800      	ldr	r0, [pc, #0]	; (861ac <__locale_charset+0x4>)
   861aa:	4770      	bx	lr
   861ac:	200705a4 	.word	0x200705a4

000861b0 <__locale_mb_cur_max>:
   861b0:	4b01      	ldr	r3, [pc, #4]	; (861b8 <__locale_mb_cur_max+0x8>)
   861b2:	6818      	ldr	r0, [r3, #0]
   861b4:	4770      	bx	lr
   861b6:	bf00      	nop
   861b8:	200705c4 	.word	0x200705c4

000861bc <_localeconv_r>:
   861bc:	4800      	ldr	r0, [pc, #0]	; (861c0 <_localeconv_r+0x4>)
   861be:	4770      	bx	lr
   861c0:	2007056c 	.word	0x2007056c

000861c4 <__smakebuf_r>:
   861c4:	b5f0      	push	{r4, r5, r6, r7, lr}
   861c6:	898b      	ldrh	r3, [r1, #12]
   861c8:	b091      	sub	sp, #68	; 0x44
   861ca:	b29a      	uxth	r2, r3
   861cc:	0796      	lsls	r6, r2, #30
   861ce:	460c      	mov	r4, r1
   861d0:	4605      	mov	r5, r0
   861d2:	d437      	bmi.n	86244 <__smakebuf_r+0x80>
   861d4:	f9b1 100e 	ldrsh.w	r1, [r1, #14]
   861d8:	2900      	cmp	r1, #0
   861da:	db17      	blt.n	8620c <__smakebuf_r+0x48>
   861dc:	aa01      	add	r2, sp, #4
   861de:	f001 fb99 	bl	87914 <_fstat_r>
   861e2:	2800      	cmp	r0, #0
   861e4:	db10      	blt.n	86208 <__smakebuf_r+0x44>
   861e6:	9b02      	ldr	r3, [sp, #8]
   861e8:	f403 4370 	and.w	r3, r3, #61440	; 0xf000
   861ec:	f5b3 5100 	subs.w	r1, r3, #8192	; 0x2000
   861f0:	424f      	negs	r7, r1
   861f2:	414f      	adcs	r7, r1
   861f4:	f5b3 4f00 	cmp.w	r3, #32768	; 0x8000
   861f8:	d02c      	beq.n	86254 <__smakebuf_r+0x90>
   861fa:	89a3      	ldrh	r3, [r4, #12]
   861fc:	f44f 6680 	mov.w	r6, #1024	; 0x400
   86200:	f443 6300 	orr.w	r3, r3, #2048	; 0x800
   86204:	81a3      	strh	r3, [r4, #12]
   86206:	e00b      	b.n	86220 <__smakebuf_r+0x5c>
   86208:	89a3      	ldrh	r3, [r4, #12]
   8620a:	b29a      	uxth	r2, r3
   8620c:	f012 0f80 	tst.w	r2, #128	; 0x80
   86210:	f443 6300 	orr.w	r3, r3, #2048	; 0x800
   86214:	81a3      	strh	r3, [r4, #12]
   86216:	bf14      	ite	ne
   86218:	2640      	movne	r6, #64	; 0x40
   8621a:	f44f 6680 	moveq.w	r6, #1024	; 0x400
   8621e:	2700      	movs	r7, #0
   86220:	4628      	mov	r0, r5
   86222:	4631      	mov	r1, r6
   86224:	f000 f846 	bl	862b4 <_malloc_r>
   86228:	89a3      	ldrh	r3, [r4, #12]
   8622a:	2800      	cmp	r0, #0
   8622c:	d029      	beq.n	86282 <__smakebuf_r+0xbe>
   8622e:	4a1b      	ldr	r2, [pc, #108]	; (8629c <__smakebuf_r+0xd8>)
   86230:	f043 0380 	orr.w	r3, r3, #128	; 0x80
   86234:	63ea      	str	r2, [r5, #60]	; 0x3c
   86236:	81a3      	strh	r3, [r4, #12]
   86238:	6020      	str	r0, [r4, #0]
   8623a:	6120      	str	r0, [r4, #16]
   8623c:	6166      	str	r6, [r4, #20]
   8623e:	b9a7      	cbnz	r7, 8626a <__smakebuf_r+0xa6>
   86240:	b011      	add	sp, #68	; 0x44
   86242:	bdf0      	pop	{r4, r5, r6, r7, pc}
   86244:	f101 0343 	add.w	r3, r1, #67	; 0x43
   86248:	2201      	movs	r2, #1
   8624a:	600b      	str	r3, [r1, #0]
   8624c:	610b      	str	r3, [r1, #16]
   8624e:	614a      	str	r2, [r1, #20]
   86250:	b011      	add	sp, #68	; 0x44
   86252:	bdf0      	pop	{r4, r5, r6, r7, pc}
   86254:	4a12      	ldr	r2, [pc, #72]	; (862a0 <__smakebuf_r+0xdc>)
   86256:	6aa3      	ldr	r3, [r4, #40]	; 0x28
   86258:	4293      	cmp	r3, r2
   8625a:	d1ce      	bne.n	861fa <__smakebuf_r+0x36>
   8625c:	89a3      	ldrh	r3, [r4, #12]
   8625e:	f44f 6680 	mov.w	r6, #1024	; 0x400
   86262:	4333      	orrs	r3, r6
   86264:	81a3      	strh	r3, [r4, #12]
   86266:	64e6      	str	r6, [r4, #76]	; 0x4c
   86268:	e7da      	b.n	86220 <__smakebuf_r+0x5c>
   8626a:	4628      	mov	r0, r5
   8626c:	f9b4 100e 	ldrsh.w	r1, [r4, #14]
   86270:	f001 fb64 	bl	8793c <_isatty_r>
   86274:	2800      	cmp	r0, #0
   86276:	d0e3      	beq.n	86240 <__smakebuf_r+0x7c>
   86278:	89a3      	ldrh	r3, [r4, #12]
   8627a:	f043 0301 	orr.w	r3, r3, #1
   8627e:	81a3      	strh	r3, [r4, #12]
   86280:	e7de      	b.n	86240 <__smakebuf_r+0x7c>
   86282:	059a      	lsls	r2, r3, #22
   86284:	d4dc      	bmi.n	86240 <__smakebuf_r+0x7c>
   86286:	f104 0243 	add.w	r2, r4, #67	; 0x43
   8628a:	f043 0302 	orr.w	r3, r3, #2
   8628e:	2101      	movs	r1, #1
   86290:	81a3      	strh	r3, [r4, #12]
   86292:	6022      	str	r2, [r4, #0]
   86294:	6122      	str	r2, [r4, #16]
   86296:	6161      	str	r1, [r4, #20]
   86298:	e7d2      	b.n	86240 <__smakebuf_r+0x7c>
   8629a:	bf00      	nop
   8629c:	00085a1d 	.word	0x00085a1d
   862a0:	00087495 	.word	0x00087495

000862a4 <malloc>:
   862a4:	4b02      	ldr	r3, [pc, #8]	; (862b0 <malloc+0xc>)
   862a6:	4601      	mov	r1, r0
   862a8:	6818      	ldr	r0, [r3, #0]
   862aa:	f000 b803 	b.w	862b4 <_malloc_r>
   862ae:	bf00      	nop
   862b0:	20070568 	.word	0x20070568

000862b4 <_malloc_r>:
   862b4:	e92d 4ff0 	stmdb	sp!, {r4, r5, r6, r7, r8, r9, sl, fp, lr}
   862b8:	f101 050b 	add.w	r5, r1, #11
   862bc:	2d16      	cmp	r5, #22
   862be:	b083      	sub	sp, #12
   862c0:	4606      	mov	r6, r0
   862c2:	d927      	bls.n	86314 <_malloc_r+0x60>
   862c4:	f035 0507 	bics.w	r5, r5, #7
   862c8:	d427      	bmi.n	8631a <_malloc_r+0x66>
   862ca:	42a9      	cmp	r1, r5
   862cc:	d825      	bhi.n	8631a <_malloc_r+0x66>
   862ce:	4630      	mov	r0, r6
   862d0:	f000 fbb2 	bl	86a38 <__malloc_lock>
   862d4:	f5b5 7ffc 	cmp.w	r5, #504	; 0x1f8
   862d8:	d226      	bcs.n	86328 <_malloc_r+0x74>
   862da:	4fc1      	ldr	r7, [pc, #772]	; (865e0 <_malloc_r+0x32c>)
   862dc:	ea4f 0cd5 	mov.w	ip, r5, lsr #3
   862e0:	eb07 03cc 	add.w	r3, r7, ip, lsl #3
   862e4:	68dc      	ldr	r4, [r3, #12]
   862e6:	429c      	cmp	r4, r3
   862e8:	f000 81d2 	beq.w	86690 <_malloc_r+0x3dc>
   862ec:	6863      	ldr	r3, [r4, #4]
   862ee:	68e2      	ldr	r2, [r4, #12]
   862f0:	f023 0303 	bic.w	r3, r3, #3
   862f4:	4423      	add	r3, r4
   862f6:	6858      	ldr	r0, [r3, #4]
   862f8:	68a1      	ldr	r1, [r4, #8]
   862fa:	f040 0501 	orr.w	r5, r0, #1
   862fe:	60ca      	str	r2, [r1, #12]
   86300:	4630      	mov	r0, r6
   86302:	6091      	str	r1, [r2, #8]
   86304:	605d      	str	r5, [r3, #4]
   86306:	f000 fb99 	bl	86a3c <__malloc_unlock>
   8630a:	3408      	adds	r4, #8
   8630c:	4620      	mov	r0, r4
   8630e:	b003      	add	sp, #12
   86310:	e8bd 8ff0 	ldmia.w	sp!, {r4, r5, r6, r7, r8, r9, sl, fp, pc}
   86314:	2510      	movs	r5, #16
   86316:	42a9      	cmp	r1, r5
   86318:	d9d9      	bls.n	862ce <_malloc_r+0x1a>
   8631a:	2400      	movs	r4, #0
   8631c:	230c      	movs	r3, #12
   8631e:	4620      	mov	r0, r4
   86320:	6033      	str	r3, [r6, #0]
   86322:	b003      	add	sp, #12
   86324:	e8bd 8ff0 	ldmia.w	sp!, {r4, r5, r6, r7, r8, r9, sl, fp, pc}
   86328:	ea5f 2c55 	movs.w	ip, r5, lsr #9
   8632c:	f000 8089 	beq.w	86442 <_malloc_r+0x18e>
   86330:	f1bc 0f04 	cmp.w	ip, #4
   86334:	f200 8160 	bhi.w	865f8 <_malloc_r+0x344>
   86338:	ea4f 1c95 	mov.w	ip, r5, lsr #6
   8633c:	f10c 0c38 	add.w	ip, ip, #56	; 0x38
   86340:	ea4f 014c 	mov.w	r1, ip, lsl #1
   86344:	4fa6      	ldr	r7, [pc, #664]	; (865e0 <_malloc_r+0x32c>)
   86346:	eb07 0181 	add.w	r1, r7, r1, lsl #2
   8634a:	68cc      	ldr	r4, [r1, #12]
   8634c:	42a1      	cmp	r1, r4
   8634e:	d105      	bne.n	8635c <_malloc_r+0xa8>
   86350:	e00c      	b.n	8636c <_malloc_r+0xb8>
   86352:	2b00      	cmp	r3, #0
   86354:	da79      	bge.n	8644a <_malloc_r+0x196>
   86356:	68e4      	ldr	r4, [r4, #12]
   86358:	42a1      	cmp	r1, r4
   8635a:	d007      	beq.n	8636c <_malloc_r+0xb8>
   8635c:	6862      	ldr	r2, [r4, #4]
   8635e:	f022 0203 	bic.w	r2, r2, #3
   86362:	1b53      	subs	r3, r2, r5
   86364:	2b0f      	cmp	r3, #15
   86366:	ddf4      	ble.n	86352 <_malloc_r+0x9e>
   86368:	f10c 3cff 	add.w	ip, ip, #4294967295
   8636c:	f10c 0c01 	add.w	ip, ip, #1
   86370:	4b9b      	ldr	r3, [pc, #620]	; (865e0 <_malloc_r+0x32c>)
   86372:	693c      	ldr	r4, [r7, #16]
   86374:	f103 0e08 	add.w	lr, r3, #8
   86378:	4574      	cmp	r4, lr
   8637a:	f000 817e 	beq.w	8667a <_malloc_r+0x3c6>
   8637e:	6861      	ldr	r1, [r4, #4]
   86380:	f021 0103 	bic.w	r1, r1, #3
   86384:	1b4a      	subs	r2, r1, r5
   86386:	2a0f      	cmp	r2, #15
   86388:	f300 8164 	bgt.w	86654 <_malloc_r+0x3a0>
   8638c:	2a00      	cmp	r2, #0
   8638e:	f8c3 e014 	str.w	lr, [r3, #20]
   86392:	f8c3 e010 	str.w	lr, [r3, #16]
   86396:	da69      	bge.n	8646c <_malloc_r+0x1b8>
   86398:	f5b1 7f00 	cmp.w	r1, #512	; 0x200
   8639c:	f080 813a 	bcs.w	86614 <_malloc_r+0x360>
   863a0:	08c9      	lsrs	r1, r1, #3
   863a2:	108a      	asrs	r2, r1, #2
   863a4:	f04f 0801 	mov.w	r8, #1
   863a8:	fa08 f802 	lsl.w	r8, r8, r2
   863ac:	eb03 01c1 	add.w	r1, r3, r1, lsl #3
   863b0:	685a      	ldr	r2, [r3, #4]
   863b2:	6888      	ldr	r0, [r1, #8]
   863b4:	ea48 0202 	orr.w	r2, r8, r2
   863b8:	60a0      	str	r0, [r4, #8]
   863ba:	60e1      	str	r1, [r4, #12]
   863bc:	605a      	str	r2, [r3, #4]
   863be:	608c      	str	r4, [r1, #8]
   863c0:	60c4      	str	r4, [r0, #12]
   863c2:	ea4f 03ac 	mov.w	r3, ip, asr #2
   863c6:	2001      	movs	r0, #1
   863c8:	4098      	lsls	r0, r3
   863ca:	4290      	cmp	r0, r2
   863cc:	d85b      	bhi.n	86486 <_malloc_r+0x1d2>
   863ce:	4202      	tst	r2, r0
   863d0:	d106      	bne.n	863e0 <_malloc_r+0x12c>
   863d2:	f02c 0c03 	bic.w	ip, ip, #3
   863d6:	0040      	lsls	r0, r0, #1
   863d8:	4202      	tst	r2, r0
   863da:	f10c 0c04 	add.w	ip, ip, #4
   863de:	d0fa      	beq.n	863d6 <_malloc_r+0x122>
   863e0:	eb07 08cc 	add.w	r8, r7, ip, lsl #3
   863e4:	4644      	mov	r4, r8
   863e6:	46e1      	mov	r9, ip
   863e8:	68e3      	ldr	r3, [r4, #12]
   863ea:	429c      	cmp	r4, r3
   863ec:	d107      	bne.n	863fe <_malloc_r+0x14a>
   863ee:	e146      	b.n	8667e <_malloc_r+0x3ca>
   863f0:	2a00      	cmp	r2, #0
   863f2:	f280 8157 	bge.w	866a4 <_malloc_r+0x3f0>
   863f6:	68db      	ldr	r3, [r3, #12]
   863f8:	429c      	cmp	r4, r3
   863fa:	f000 8140 	beq.w	8667e <_malloc_r+0x3ca>
   863fe:	6859      	ldr	r1, [r3, #4]
   86400:	f021 0103 	bic.w	r1, r1, #3
   86404:	1b4a      	subs	r2, r1, r5
   86406:	2a0f      	cmp	r2, #15
   86408:	ddf2      	ble.n	863f0 <_malloc_r+0x13c>
   8640a:	461c      	mov	r4, r3
   8640c:	f854 cf08 	ldr.w	ip, [r4, #8]!
   86410:	68d9      	ldr	r1, [r3, #12]
   86412:	f045 0901 	orr.w	r9, r5, #1
   86416:	f042 0801 	orr.w	r8, r2, #1
   8641a:	441d      	add	r5, r3
   8641c:	f8c3 9004 	str.w	r9, [r3, #4]
   86420:	4630      	mov	r0, r6
   86422:	f8cc 100c 	str.w	r1, [ip, #12]
   86426:	f8c1 c008 	str.w	ip, [r1, #8]
   8642a:	617d      	str	r5, [r7, #20]
   8642c:	613d      	str	r5, [r7, #16]
   8642e:	f8c5 e00c 	str.w	lr, [r5, #12]
   86432:	f8c5 e008 	str.w	lr, [r5, #8]
   86436:	f8c5 8004 	str.w	r8, [r5, #4]
   8643a:	50aa      	str	r2, [r5, r2]
   8643c:	f000 fafe 	bl	86a3c <__malloc_unlock>
   86440:	e764      	b.n	8630c <_malloc_r+0x58>
   86442:	217e      	movs	r1, #126	; 0x7e
   86444:	f04f 0c3f 	mov.w	ip, #63	; 0x3f
   86448:	e77c      	b.n	86344 <_malloc_r+0x90>
   8644a:	4422      	add	r2, r4
   8644c:	6850      	ldr	r0, [r2, #4]
   8644e:	68e3      	ldr	r3, [r4, #12]
   86450:	68a1      	ldr	r1, [r4, #8]
   86452:	f040 0501 	orr.w	r5, r0, #1
   86456:	60cb      	str	r3, [r1, #12]
   86458:	4630      	mov	r0, r6
   8645a:	6099      	str	r1, [r3, #8]
   8645c:	6055      	str	r5, [r2, #4]
   8645e:	f000 faed 	bl	86a3c <__malloc_unlock>
   86462:	3408      	adds	r4, #8
   86464:	4620      	mov	r0, r4
   86466:	b003      	add	sp, #12
   86468:	e8bd 8ff0 	ldmia.w	sp!, {r4, r5, r6, r7, r8, r9, sl, fp, pc}
   8646c:	4421      	add	r1, r4
   8646e:	684b      	ldr	r3, [r1, #4]
   86470:	4630      	mov	r0, r6
   86472:	f043 0301 	orr.w	r3, r3, #1
   86476:	604b      	str	r3, [r1, #4]
   86478:	f000 fae0 	bl	86a3c <__malloc_unlock>
   8647c:	3408      	adds	r4, #8
   8647e:	4620      	mov	r0, r4
   86480:	b003      	add	sp, #12
   86482:	e8bd 8ff0 	ldmia.w	sp!, {r4, r5, r6, r7, r8, r9, sl, fp, pc}
   86486:	68bc      	ldr	r4, [r7, #8]
   86488:	6863      	ldr	r3, [r4, #4]
   8648a:	f023 0903 	bic.w	r9, r3, #3
   8648e:	45a9      	cmp	r9, r5
   86490:	d304      	bcc.n	8649c <_malloc_r+0x1e8>
   86492:	ebc5 0309 	rsb	r3, r5, r9
   86496:	2b0f      	cmp	r3, #15
   86498:	f300 8091 	bgt.w	865be <_malloc_r+0x30a>
   8649c:	4b51      	ldr	r3, [pc, #324]	; (865e4 <_malloc_r+0x330>)
   8649e:	4a52      	ldr	r2, [pc, #328]	; (865e8 <_malloc_r+0x334>)
   864a0:	6819      	ldr	r1, [r3, #0]
   864a2:	6813      	ldr	r3, [r2, #0]
   864a4:	eb05 0a01 	add.w	sl, r5, r1
   864a8:	3301      	adds	r3, #1
   864aa:	eb04 0b09 	add.w	fp, r4, r9
   864ae:	f000 8161 	beq.w	86774 <_malloc_r+0x4c0>
   864b2:	f50a 5a80 	add.w	sl, sl, #4096	; 0x1000
   864b6:	f10a 0a0f 	add.w	sl, sl, #15
   864ba:	f42a 6a7f 	bic.w	sl, sl, #4080	; 0xff0
   864be:	f02a 0a0f 	bic.w	sl, sl, #15
   864c2:	4630      	mov	r0, r6
   864c4:	4651      	mov	r1, sl
   864c6:	9201      	str	r2, [sp, #4]
   864c8:	f000 ffa4 	bl	87414 <_sbrk_r>
   864cc:	f1b0 3fff 	cmp.w	r0, #4294967295
   864d0:	4680      	mov	r8, r0
   864d2:	9a01      	ldr	r2, [sp, #4]
   864d4:	f000 8101 	beq.w	866da <_malloc_r+0x426>
   864d8:	4583      	cmp	fp, r0
   864da:	f200 80fb 	bhi.w	866d4 <_malloc_r+0x420>
   864de:	f8df c114 	ldr.w	ip, [pc, #276]	; 865f4 <_malloc_r+0x340>
   864e2:	45c3      	cmp	fp, r8
   864e4:	f8dc 3000 	ldr.w	r3, [ip]
   864e8:	4453      	add	r3, sl
   864ea:	f8cc 3000 	str.w	r3, [ip]
   864ee:	f000 814a 	beq.w	86786 <_malloc_r+0x4d2>
   864f2:	6812      	ldr	r2, [r2, #0]
   864f4:	493c      	ldr	r1, [pc, #240]	; (865e8 <_malloc_r+0x334>)
   864f6:	3201      	adds	r2, #1
   864f8:	bf1b      	ittet	ne
   864fa:	ebcb 0b08 	rsbne	fp, fp, r8
   864fe:	445b      	addne	r3, fp
   86500:	f8c1 8000 	streq.w	r8, [r1]
   86504:	f8cc 3000 	strne.w	r3, [ip]
   86508:	f018 0307 	ands.w	r3, r8, #7
   8650c:	f000 8114 	beq.w	86738 <_malloc_r+0x484>
   86510:	f1c3 0208 	rsb	r2, r3, #8
   86514:	f5c3 5380 	rsb	r3, r3, #4096	; 0x1000
   86518:	4490      	add	r8, r2
   8651a:	3308      	adds	r3, #8
   8651c:	44c2      	add	sl, r8
   8651e:	f3ca 0a0b 	ubfx	sl, sl, #0, #12
   86522:	ebca 0a03 	rsb	sl, sl, r3
   86526:	4651      	mov	r1, sl
   86528:	4630      	mov	r0, r6
   8652a:	f8cd c004 	str.w	ip, [sp, #4]
   8652e:	f000 ff71 	bl	87414 <_sbrk_r>
   86532:	1c43      	adds	r3, r0, #1
   86534:	f8dd c004 	ldr.w	ip, [sp, #4]
   86538:	f000 8135 	beq.w	867a6 <_malloc_r+0x4f2>
   8653c:	ebc8 0200 	rsb	r2, r8, r0
   86540:	4452      	add	r2, sl
   86542:	f042 0201 	orr.w	r2, r2, #1
   86546:	f8dc 3000 	ldr.w	r3, [ip]
   8654a:	42bc      	cmp	r4, r7
   8654c:	4453      	add	r3, sl
   8654e:	f8c7 8008 	str.w	r8, [r7, #8]
   86552:	f8cc 3000 	str.w	r3, [ip]
   86556:	f8c8 2004 	str.w	r2, [r8, #4]
   8655a:	f8df a098 	ldr.w	sl, [pc, #152]	; 865f4 <_malloc_r+0x340>
   8655e:	d015      	beq.n	8658c <_malloc_r+0x2d8>
   86560:	f1b9 0f0f 	cmp.w	r9, #15
   86564:	f240 80eb 	bls.w	8673e <_malloc_r+0x48a>
   86568:	6861      	ldr	r1, [r4, #4]
   8656a:	f1a9 020c 	sub.w	r2, r9, #12
   8656e:	f022 0207 	bic.w	r2, r2, #7
   86572:	f001 0101 	and.w	r1, r1, #1
   86576:	ea42 0e01 	orr.w	lr, r2, r1
   8657a:	2005      	movs	r0, #5
   8657c:	18a1      	adds	r1, r4, r2
   8657e:	2a0f      	cmp	r2, #15
   86580:	f8c4 e004 	str.w	lr, [r4, #4]
   86584:	6048      	str	r0, [r1, #4]
   86586:	6088      	str	r0, [r1, #8]
   86588:	f200 8111 	bhi.w	867ae <_malloc_r+0x4fa>
   8658c:	4a17      	ldr	r2, [pc, #92]	; (865ec <_malloc_r+0x338>)
   8658e:	68bc      	ldr	r4, [r7, #8]
   86590:	6811      	ldr	r1, [r2, #0]
   86592:	428b      	cmp	r3, r1
   86594:	bf88      	it	hi
   86596:	6013      	strhi	r3, [r2, #0]
   86598:	4a15      	ldr	r2, [pc, #84]	; (865f0 <_malloc_r+0x33c>)
   8659a:	6811      	ldr	r1, [r2, #0]
   8659c:	428b      	cmp	r3, r1
   8659e:	bf88      	it	hi
   865a0:	6013      	strhi	r3, [r2, #0]
   865a2:	6862      	ldr	r2, [r4, #4]
   865a4:	f022 0203 	bic.w	r2, r2, #3
   865a8:	4295      	cmp	r5, r2
   865aa:	ebc5 0302 	rsb	r3, r5, r2
   865ae:	d801      	bhi.n	865b4 <_malloc_r+0x300>
   865b0:	2b0f      	cmp	r3, #15
   865b2:	dc04      	bgt.n	865be <_malloc_r+0x30a>
   865b4:	4630      	mov	r0, r6
   865b6:	f000 fa41 	bl	86a3c <__malloc_unlock>
   865ba:	2400      	movs	r4, #0
   865bc:	e6a6      	b.n	8630c <_malloc_r+0x58>
   865be:	f045 0201 	orr.w	r2, r5, #1
   865c2:	f043 0301 	orr.w	r3, r3, #1
   865c6:	4425      	add	r5, r4
   865c8:	6062      	str	r2, [r4, #4]
   865ca:	4630      	mov	r0, r6
   865cc:	60bd      	str	r5, [r7, #8]
   865ce:	606b      	str	r3, [r5, #4]
   865d0:	f000 fa34 	bl	86a3c <__malloc_unlock>
   865d4:	3408      	adds	r4, #8
   865d6:	4620      	mov	r0, r4
   865d8:	b003      	add	sp, #12
   865da:	e8bd 8ff0 	ldmia.w	sp!, {r4, r5, r6, r7, r8, r9, sl, fp, pc}
   865de:	bf00      	nop
   865e0:	200705c8 	.word	0x200705c8
   865e4:	20070b30 	.word	0x20070b30
   865e8:	200709d4 	.word	0x200709d4
   865ec:	20070b2c 	.word	0x20070b2c
   865f0:	20070b28 	.word	0x20070b28
   865f4:	20070b34 	.word	0x20070b34
   865f8:	f1bc 0f14 	cmp.w	ip, #20
   865fc:	d961      	bls.n	866c2 <_malloc_r+0x40e>
   865fe:	f1bc 0f54 	cmp.w	ip, #84	; 0x54
   86602:	f200 808f 	bhi.w	86724 <_malloc_r+0x470>
   86606:	ea4f 3c15 	mov.w	ip, r5, lsr #12
   8660a:	f10c 0c6e 	add.w	ip, ip, #110	; 0x6e
   8660e:	ea4f 014c 	mov.w	r1, ip, lsl #1
   86612:	e697      	b.n	86344 <_malloc_r+0x90>
   86614:	0a4b      	lsrs	r3, r1, #9
   86616:	2b04      	cmp	r3, #4
   86618:	d958      	bls.n	866cc <_malloc_r+0x418>
   8661a:	2b14      	cmp	r3, #20
   8661c:	f200 80ad 	bhi.w	8677a <_malloc_r+0x4c6>
   86620:	f103 025b 	add.w	r2, r3, #91	; 0x5b
   86624:	0050      	lsls	r0, r2, #1
   86626:	eb07 0080 	add.w	r0, r7, r0, lsl #2
   8662a:	6883      	ldr	r3, [r0, #8]
   8662c:	f8df 81b8 	ldr.w	r8, [pc, #440]	; 867e8 <_malloc_r+0x534>
   86630:	4283      	cmp	r3, r0
   86632:	f000 808a 	beq.w	8674a <_malloc_r+0x496>
   86636:	685a      	ldr	r2, [r3, #4]
   86638:	f022 0203 	bic.w	r2, r2, #3
   8663c:	4291      	cmp	r1, r2
   8663e:	d202      	bcs.n	86646 <_malloc_r+0x392>
   86640:	689b      	ldr	r3, [r3, #8]
   86642:	4298      	cmp	r0, r3
   86644:	d1f7      	bne.n	86636 <_malloc_r+0x382>
   86646:	68d9      	ldr	r1, [r3, #12]
   86648:	687a      	ldr	r2, [r7, #4]
   8664a:	60e1      	str	r1, [r4, #12]
   8664c:	60a3      	str	r3, [r4, #8]
   8664e:	608c      	str	r4, [r1, #8]
   86650:	60dc      	str	r4, [r3, #12]
   86652:	e6b6      	b.n	863c2 <_malloc_r+0x10e>
   86654:	f045 0701 	orr.w	r7, r5, #1
   86658:	f042 0101 	orr.w	r1, r2, #1
   8665c:	4425      	add	r5, r4
   8665e:	6067      	str	r7, [r4, #4]
   86660:	4630      	mov	r0, r6
   86662:	615d      	str	r5, [r3, #20]
   86664:	611d      	str	r5, [r3, #16]
   86666:	f8c5 e00c 	str.w	lr, [r5, #12]
   8666a:	f8c5 e008 	str.w	lr, [r5, #8]
   8666e:	6069      	str	r1, [r5, #4]
   86670:	50aa      	str	r2, [r5, r2]
   86672:	3408      	adds	r4, #8
   86674:	f000 f9e2 	bl	86a3c <__malloc_unlock>
   86678:	e648      	b.n	8630c <_malloc_r+0x58>
   8667a:	685a      	ldr	r2, [r3, #4]
   8667c:	e6a1      	b.n	863c2 <_malloc_r+0x10e>
   8667e:	f109 0901 	add.w	r9, r9, #1
   86682:	f019 0f03 	tst.w	r9, #3
   86686:	f104 0408 	add.w	r4, r4, #8
   8668a:	f47f aead 	bne.w	863e8 <_malloc_r+0x134>
   8668e:	e02d      	b.n	866ec <_malloc_r+0x438>
   86690:	f104 0308 	add.w	r3, r4, #8
   86694:	6964      	ldr	r4, [r4, #20]
   86696:	42a3      	cmp	r3, r4
   86698:	bf08      	it	eq
   8669a:	f10c 0c02 	addeq.w	ip, ip, #2
   8669e:	f43f ae67 	beq.w	86370 <_malloc_r+0xbc>
   866a2:	e623      	b.n	862ec <_malloc_r+0x38>
   866a4:	4419      	add	r1, r3
   866a6:	6848      	ldr	r0, [r1, #4]
   866a8:	461c      	mov	r4, r3
   866aa:	f854 2f08 	ldr.w	r2, [r4, #8]!
   866ae:	68db      	ldr	r3, [r3, #12]
   866b0:	f040 0501 	orr.w	r5, r0, #1
   866b4:	604d      	str	r5, [r1, #4]
   866b6:	4630      	mov	r0, r6
   866b8:	60d3      	str	r3, [r2, #12]
   866ba:	609a      	str	r2, [r3, #8]
   866bc:	f000 f9be 	bl	86a3c <__malloc_unlock>
   866c0:	e624      	b.n	8630c <_malloc_r+0x58>
   866c2:	f10c 0c5b 	add.w	ip, ip, #91	; 0x5b
   866c6:	ea4f 014c 	mov.w	r1, ip, lsl #1
   866ca:	e63b      	b.n	86344 <_malloc_r+0x90>
   866cc:	098a      	lsrs	r2, r1, #6
   866ce:	3238      	adds	r2, #56	; 0x38
   866d0:	0050      	lsls	r0, r2, #1
   866d2:	e7a8      	b.n	86626 <_malloc_r+0x372>
   866d4:	42bc      	cmp	r4, r7
   866d6:	f43f af02 	beq.w	864de <_malloc_r+0x22a>
   866da:	68bc      	ldr	r4, [r7, #8]
   866dc:	6862      	ldr	r2, [r4, #4]
   866de:	f022 0203 	bic.w	r2, r2, #3
   866e2:	e761      	b.n	865a8 <_malloc_r+0x2f4>
   866e4:	f8d8 8000 	ldr.w	r8, [r8]
   866e8:	4598      	cmp	r8, r3
   866ea:	d17a      	bne.n	867e2 <_malloc_r+0x52e>
   866ec:	f01c 0f03 	tst.w	ip, #3
   866f0:	f1a8 0308 	sub.w	r3, r8, #8
   866f4:	f10c 3cff 	add.w	ip, ip, #4294967295
   866f8:	d1f4      	bne.n	866e4 <_malloc_r+0x430>
   866fa:	687b      	ldr	r3, [r7, #4]
   866fc:	ea23 0300 	bic.w	r3, r3, r0
   86700:	607b      	str	r3, [r7, #4]
   86702:	0040      	lsls	r0, r0, #1
   86704:	4298      	cmp	r0, r3
   86706:	f63f aebe 	bhi.w	86486 <_malloc_r+0x1d2>
   8670a:	2800      	cmp	r0, #0
   8670c:	f43f aebb 	beq.w	86486 <_malloc_r+0x1d2>
   86710:	4203      	tst	r3, r0
   86712:	46cc      	mov	ip, r9
   86714:	f47f ae64 	bne.w	863e0 <_malloc_r+0x12c>
   86718:	0040      	lsls	r0, r0, #1
   8671a:	4203      	tst	r3, r0
   8671c:	f10c 0c04 	add.w	ip, ip, #4
   86720:	d0fa      	beq.n	86718 <_malloc_r+0x464>
   86722:	e65d      	b.n	863e0 <_malloc_r+0x12c>
   86724:	f5bc 7faa 	cmp.w	ip, #340	; 0x154
   86728:	d819      	bhi.n	8675e <_malloc_r+0x4aa>
   8672a:	ea4f 3cd5 	mov.w	ip, r5, lsr #15
   8672e:	f10c 0c77 	add.w	ip, ip, #119	; 0x77
   86732:	ea4f 014c 	mov.w	r1, ip, lsl #1
   86736:	e605      	b.n	86344 <_malloc_r+0x90>
   86738:	f44f 5380 	mov.w	r3, #4096	; 0x1000
   8673c:	e6ee      	b.n	8651c <_malloc_r+0x268>
   8673e:	2301      	movs	r3, #1
   86740:	f8c8 3004 	str.w	r3, [r8, #4]
   86744:	4644      	mov	r4, r8
   86746:	2200      	movs	r2, #0
   86748:	e72e      	b.n	865a8 <_malloc_r+0x2f4>
   8674a:	1092      	asrs	r2, r2, #2
   8674c:	2001      	movs	r0, #1
   8674e:	4090      	lsls	r0, r2
   86750:	f8d8 2004 	ldr.w	r2, [r8, #4]
   86754:	4619      	mov	r1, r3
   86756:	4302      	orrs	r2, r0
   86758:	f8c8 2004 	str.w	r2, [r8, #4]
   8675c:	e775      	b.n	8664a <_malloc_r+0x396>
   8675e:	f240 5354 	movw	r3, #1364	; 0x554
   86762:	459c      	cmp	ip, r3
   86764:	d81b      	bhi.n	8679e <_malloc_r+0x4ea>
   86766:	ea4f 4c95 	mov.w	ip, r5, lsr #18
   8676a:	f10c 0c7c 	add.w	ip, ip, #124	; 0x7c
   8676e:	ea4f 014c 	mov.w	r1, ip, lsl #1
   86772:	e5e7      	b.n	86344 <_malloc_r+0x90>
   86774:	f10a 0a10 	add.w	sl, sl, #16
   86778:	e6a3      	b.n	864c2 <_malloc_r+0x20e>
   8677a:	2b54      	cmp	r3, #84	; 0x54
   8677c:	d81f      	bhi.n	867be <_malloc_r+0x50a>
   8677e:	0b0a      	lsrs	r2, r1, #12
   86780:	326e      	adds	r2, #110	; 0x6e
   86782:	0050      	lsls	r0, r2, #1
   86784:	e74f      	b.n	86626 <_malloc_r+0x372>
   86786:	f3cb 010b 	ubfx	r1, fp, #0, #12
   8678a:	2900      	cmp	r1, #0
   8678c:	f47f aeb1 	bne.w	864f2 <_malloc_r+0x23e>
   86790:	eb0a 0109 	add.w	r1, sl, r9
   86794:	68ba      	ldr	r2, [r7, #8]
   86796:	f041 0101 	orr.w	r1, r1, #1
   8679a:	6051      	str	r1, [r2, #4]
   8679c:	e6f6      	b.n	8658c <_malloc_r+0x2d8>
   8679e:	21fc      	movs	r1, #252	; 0xfc
   867a0:	f04f 0c7e 	mov.w	ip, #126	; 0x7e
   867a4:	e5ce      	b.n	86344 <_malloc_r+0x90>
   867a6:	2201      	movs	r2, #1
   867a8:	f04f 0a00 	mov.w	sl, #0
   867ac:	e6cb      	b.n	86546 <_malloc_r+0x292>
   867ae:	f104 0108 	add.w	r1, r4, #8
   867b2:	4630      	mov	r0, r6
   867b4:	f7ff fa7c 	bl	85cb0 <_free_r>
   867b8:	f8da 3000 	ldr.w	r3, [sl]
   867bc:	e6e6      	b.n	8658c <_malloc_r+0x2d8>
   867be:	f5b3 7faa 	cmp.w	r3, #340	; 0x154
   867c2:	d803      	bhi.n	867cc <_malloc_r+0x518>
   867c4:	0bca      	lsrs	r2, r1, #15
   867c6:	3277      	adds	r2, #119	; 0x77
   867c8:	0050      	lsls	r0, r2, #1
   867ca:	e72c      	b.n	86626 <_malloc_r+0x372>
   867cc:	f240 5254 	movw	r2, #1364	; 0x554
   867d0:	4293      	cmp	r3, r2
   867d2:	d803      	bhi.n	867dc <_malloc_r+0x528>
   867d4:	0c8a      	lsrs	r2, r1, #18
   867d6:	327c      	adds	r2, #124	; 0x7c
   867d8:	0050      	lsls	r0, r2, #1
   867da:	e724      	b.n	86626 <_malloc_r+0x372>
   867dc:	20fc      	movs	r0, #252	; 0xfc
   867de:	227e      	movs	r2, #126	; 0x7e
   867e0:	e721      	b.n	86626 <_malloc_r+0x372>
   867e2:	687b      	ldr	r3, [r7, #4]
   867e4:	e78d      	b.n	86702 <_malloc_r+0x44e>
   867e6:	bf00      	nop
   867e8:	200705c8 	.word	0x200705c8

000867ec <memchr>:
   867ec:	0783      	lsls	r3, r0, #30
   867ee:	b470      	push	{r4, r5, r6}
   867f0:	b2c9      	uxtb	r1, r1
   867f2:	d040      	beq.n	86876 <memchr+0x8a>
   867f4:	1e54      	subs	r4, r2, #1
   867f6:	b32a      	cbz	r2, 86844 <memchr+0x58>
   867f8:	7803      	ldrb	r3, [r0, #0]
   867fa:	428b      	cmp	r3, r1
   867fc:	d023      	beq.n	86846 <memchr+0x5a>
   867fe:	1c43      	adds	r3, r0, #1
   86800:	e004      	b.n	8680c <memchr+0x20>
   86802:	b1fc      	cbz	r4, 86844 <memchr+0x58>
   86804:	7805      	ldrb	r5, [r0, #0]
   86806:	4614      	mov	r4, r2
   86808:	428d      	cmp	r5, r1
   8680a:	d01c      	beq.n	86846 <memchr+0x5a>
   8680c:	f013 0f03 	tst.w	r3, #3
   86810:	4618      	mov	r0, r3
   86812:	f104 32ff 	add.w	r2, r4, #4294967295
   86816:	f103 0301 	add.w	r3, r3, #1
   8681a:	d1f2      	bne.n	86802 <memchr+0x16>
   8681c:	2c03      	cmp	r4, #3
   8681e:	d814      	bhi.n	8684a <memchr+0x5e>
   86820:	1e65      	subs	r5, r4, #1
   86822:	b354      	cbz	r4, 8687a <memchr+0x8e>
   86824:	7803      	ldrb	r3, [r0, #0]
   86826:	428b      	cmp	r3, r1
   86828:	d00d      	beq.n	86846 <memchr+0x5a>
   8682a:	1c42      	adds	r2, r0, #1
   8682c:	2300      	movs	r3, #0
   8682e:	e002      	b.n	86836 <memchr+0x4a>
   86830:	7804      	ldrb	r4, [r0, #0]
   86832:	428c      	cmp	r4, r1
   86834:	d007      	beq.n	86846 <memchr+0x5a>
   86836:	42ab      	cmp	r3, r5
   86838:	4610      	mov	r0, r2
   8683a:	f103 0301 	add.w	r3, r3, #1
   8683e:	f102 0201 	add.w	r2, r2, #1
   86842:	d1f5      	bne.n	86830 <memchr+0x44>
   86844:	2000      	movs	r0, #0
   86846:	bc70      	pop	{r4, r5, r6}
   86848:	4770      	bx	lr
   8684a:	ea41 2601 	orr.w	r6, r1, r1, lsl #8
   8684e:	4603      	mov	r3, r0
   86850:	ea46 4606 	orr.w	r6, r6, r6, lsl #16
   86854:	681a      	ldr	r2, [r3, #0]
   86856:	4618      	mov	r0, r3
   86858:	4072      	eors	r2, r6
   8685a:	f1a2 3501 	sub.w	r5, r2, #16843009	; 0x1010101
   8685e:	ea25 0202 	bic.w	r2, r5, r2
   86862:	f012 3f80 	tst.w	r2, #2155905152	; 0x80808080
   86866:	f103 0304 	add.w	r3, r3, #4
   8686a:	d1d9      	bne.n	86820 <memchr+0x34>
   8686c:	3c04      	subs	r4, #4
   8686e:	2c03      	cmp	r4, #3
   86870:	4618      	mov	r0, r3
   86872:	d8ef      	bhi.n	86854 <memchr+0x68>
   86874:	e7d4      	b.n	86820 <memchr+0x34>
   86876:	4614      	mov	r4, r2
   86878:	e7d0      	b.n	8681c <memchr+0x30>
   8687a:	4620      	mov	r0, r4
   8687c:	e7e3      	b.n	86846 <memchr+0x5a>
   8687e:	bf00      	nop

00086880 <memcpy>:
   86880:	4684      	mov	ip, r0
   86882:	ea41 0300 	orr.w	r3, r1, r0
   86886:	f013 0303 	ands.w	r3, r3, #3
   8688a:	d149      	bne.n	86920 <memcpy+0xa0>
   8688c:	3a40      	subs	r2, #64	; 0x40
   8688e:	d323      	bcc.n	868d8 <memcpy+0x58>
   86890:	680b      	ldr	r3, [r1, #0]
   86892:	6003      	str	r3, [r0, #0]
   86894:	684b      	ldr	r3, [r1, #4]
   86896:	6043      	str	r3, [r0, #4]
   86898:	688b      	ldr	r3, [r1, #8]
   8689a:	6083      	str	r3, [r0, #8]
   8689c:	68cb      	ldr	r3, [r1, #12]
   8689e:	60c3      	str	r3, [r0, #12]
   868a0:	690b      	ldr	r3, [r1, #16]
   868a2:	6103      	str	r3, [r0, #16]
   868a4:	694b      	ldr	r3, [r1, #20]
   868a6:	6143      	str	r3, [r0, #20]
   868a8:	698b      	ldr	r3, [r1, #24]
   868aa:	6183      	str	r3, [r0, #24]
   868ac:	69cb      	ldr	r3, [r1, #28]
   868ae:	61c3      	str	r3, [r0, #28]
   868b0:	6a0b      	ldr	r3, [r1, #32]
   868b2:	6203      	str	r3, [r0, #32]
   868b4:	6a4b      	ldr	r3, [r1, #36]	; 0x24
   868b6:	6243      	str	r3, [r0, #36]	; 0x24
   868b8:	6a8b      	ldr	r3, [r1, #40]	; 0x28
   868ba:	6283      	str	r3, [r0, #40]	; 0x28
   868bc:	6acb      	ldr	r3, [r1, #44]	; 0x2c
   868be:	62c3      	str	r3, [r0, #44]	; 0x2c
   868c0:	6b0b      	ldr	r3, [r1, #48]	; 0x30
   868c2:	6303      	str	r3, [r0, #48]	; 0x30
   868c4:	6b4b      	ldr	r3, [r1, #52]	; 0x34
   868c6:	6343      	str	r3, [r0, #52]	; 0x34
   868c8:	6b8b      	ldr	r3, [r1, #56]	; 0x38
   868ca:	6383      	str	r3, [r0, #56]	; 0x38
   868cc:	6bcb      	ldr	r3, [r1, #60]	; 0x3c
   868ce:	63c3      	str	r3, [r0, #60]	; 0x3c
   868d0:	3040      	adds	r0, #64	; 0x40
   868d2:	3140      	adds	r1, #64	; 0x40
   868d4:	3a40      	subs	r2, #64	; 0x40
   868d6:	d2db      	bcs.n	86890 <memcpy+0x10>
   868d8:	3230      	adds	r2, #48	; 0x30
   868da:	d30b      	bcc.n	868f4 <memcpy+0x74>
   868dc:	680b      	ldr	r3, [r1, #0]
   868de:	6003      	str	r3, [r0, #0]
   868e0:	684b      	ldr	r3, [r1, #4]
   868e2:	6043      	str	r3, [r0, #4]
   868e4:	688b      	ldr	r3, [r1, #8]
   868e6:	6083      	str	r3, [r0, #8]
   868e8:	68cb      	ldr	r3, [r1, #12]
   868ea:	60c3      	str	r3, [r0, #12]
   868ec:	3010      	adds	r0, #16
   868ee:	3110      	adds	r1, #16
   868f0:	3a10      	subs	r2, #16
   868f2:	d2f3      	bcs.n	868dc <memcpy+0x5c>
   868f4:	320c      	adds	r2, #12
   868f6:	d305      	bcc.n	86904 <memcpy+0x84>
   868f8:	f851 3b04 	ldr.w	r3, [r1], #4
   868fc:	f840 3b04 	str.w	r3, [r0], #4
   86900:	3a04      	subs	r2, #4
   86902:	d2f9      	bcs.n	868f8 <memcpy+0x78>
   86904:	3204      	adds	r2, #4
   86906:	d008      	beq.n	8691a <memcpy+0x9a>
   86908:	07d2      	lsls	r2, r2, #31
   8690a:	bf1c      	itt	ne
   8690c:	f811 3b01 	ldrbne.w	r3, [r1], #1
   86910:	f800 3b01 	strbne.w	r3, [r0], #1
   86914:	d301      	bcc.n	8691a <memcpy+0x9a>
   86916:	880b      	ldrh	r3, [r1, #0]
   86918:	8003      	strh	r3, [r0, #0]
   8691a:	4660      	mov	r0, ip
   8691c:	4770      	bx	lr
   8691e:	bf00      	nop
   86920:	2a08      	cmp	r2, #8
   86922:	d313      	bcc.n	8694c <memcpy+0xcc>
   86924:	078b      	lsls	r3, r1, #30
   86926:	d0b1      	beq.n	8688c <memcpy+0xc>
   86928:	f010 0303 	ands.w	r3, r0, #3
   8692c:	d0ae      	beq.n	8688c <memcpy+0xc>
   8692e:	f1c3 0304 	rsb	r3, r3, #4
   86932:	1ad2      	subs	r2, r2, r3
   86934:	07db      	lsls	r3, r3, #31
   86936:	bf1c      	itt	ne
   86938:	f811 3b01 	ldrbne.w	r3, [r1], #1
   8693c:	f800 3b01 	strbne.w	r3, [r0], #1
   86940:	d3a4      	bcc.n	8688c <memcpy+0xc>
   86942:	f831 3b02 	ldrh.w	r3, [r1], #2
   86946:	f820 3b02 	strh.w	r3, [r0], #2
   8694a:	e79f      	b.n	8688c <memcpy+0xc>
   8694c:	3a04      	subs	r2, #4
   8694e:	d3d9      	bcc.n	86904 <memcpy+0x84>
   86950:	3a01      	subs	r2, #1
   86952:	f811 3b01 	ldrb.w	r3, [r1], #1
   86956:	f800 3b01 	strb.w	r3, [r0], #1
   8695a:	d2f9      	bcs.n	86950 <memcpy+0xd0>
   8695c:	780b      	ldrb	r3, [r1, #0]
   8695e:	7003      	strb	r3, [r0, #0]
   86960:	784b      	ldrb	r3, [r1, #1]
   86962:	7043      	strb	r3, [r0, #1]
   86964:	788b      	ldrb	r3, [r1, #2]
   86966:	7083      	strb	r3, [r0, #2]
   86968:	4660      	mov	r0, ip
   8696a:	4770      	bx	lr

0008696c <memmove>:
   8696c:	4288      	cmp	r0, r1
   8696e:	b4f0      	push	{r4, r5, r6, r7}
   86970:	d910      	bls.n	86994 <memmove+0x28>
   86972:	188c      	adds	r4, r1, r2
   86974:	42a0      	cmp	r0, r4
   86976:	d20d      	bcs.n	86994 <memmove+0x28>
   86978:	1885      	adds	r5, r0, r2
   8697a:	1e53      	subs	r3, r2, #1
   8697c:	b142      	cbz	r2, 86990 <memmove+0x24>
   8697e:	4621      	mov	r1, r4
   86980:	462a      	mov	r2, r5
   86982:	f811 4d01 	ldrb.w	r4, [r1, #-1]!
   86986:	3b01      	subs	r3, #1
   86988:	f802 4d01 	strb.w	r4, [r2, #-1]!
   8698c:	1c5c      	adds	r4, r3, #1
   8698e:	d1f8      	bne.n	86982 <memmove+0x16>
   86990:	bcf0      	pop	{r4, r5, r6, r7}
   86992:	4770      	bx	lr
   86994:	2a0f      	cmp	r2, #15
   86996:	d944      	bls.n	86a22 <memmove+0xb6>
   86998:	ea40 0301 	orr.w	r3, r0, r1
   8699c:	079b      	lsls	r3, r3, #30
   8699e:	d144      	bne.n	86a2a <memmove+0xbe>
   869a0:	f1a2 0710 	sub.w	r7, r2, #16
   869a4:	093f      	lsrs	r7, r7, #4
   869a6:	eb00 1607 	add.w	r6, r0, r7, lsl #4
   869aa:	3610      	adds	r6, #16
   869ac:	460c      	mov	r4, r1
   869ae:	4603      	mov	r3, r0
   869b0:	6825      	ldr	r5, [r4, #0]
   869b2:	3310      	adds	r3, #16
   869b4:	f843 5c10 	str.w	r5, [r3, #-16]
   869b8:	6865      	ldr	r5, [r4, #4]
   869ba:	3410      	adds	r4, #16
   869bc:	f843 5c0c 	str.w	r5, [r3, #-12]
   869c0:	f854 5c08 	ldr.w	r5, [r4, #-8]
   869c4:	f843 5c08 	str.w	r5, [r3, #-8]
   869c8:	f854 5c04 	ldr.w	r5, [r4, #-4]
   869cc:	f843 5c04 	str.w	r5, [r3, #-4]
   869d0:	42b3      	cmp	r3, r6
   869d2:	d1ed      	bne.n	869b0 <memmove+0x44>
   869d4:	1c7b      	adds	r3, r7, #1
   869d6:	f002 0c0f 	and.w	ip, r2, #15
   869da:	011b      	lsls	r3, r3, #4
   869dc:	f1bc 0f03 	cmp.w	ip, #3
   869e0:	4419      	add	r1, r3
   869e2:	4403      	add	r3, r0
   869e4:	d923      	bls.n	86a2e <memmove+0xc2>
   869e6:	460e      	mov	r6, r1
   869e8:	461d      	mov	r5, r3
   869ea:	4664      	mov	r4, ip
   869ec:	f856 7b04 	ldr.w	r7, [r6], #4
   869f0:	3c04      	subs	r4, #4
   869f2:	2c03      	cmp	r4, #3
   869f4:	f845 7b04 	str.w	r7, [r5], #4
   869f8:	d8f8      	bhi.n	869ec <memmove+0x80>
   869fa:	f1ac 0404 	sub.w	r4, ip, #4
   869fe:	f024 0403 	bic.w	r4, r4, #3
   86a02:	3404      	adds	r4, #4
   86a04:	f002 0203 	and.w	r2, r2, #3
   86a08:	4423      	add	r3, r4
   86a0a:	4421      	add	r1, r4
   86a0c:	2a00      	cmp	r2, #0
   86a0e:	d0bf      	beq.n	86990 <memmove+0x24>
   86a10:	441a      	add	r2, r3
   86a12:	f811 4b01 	ldrb.w	r4, [r1], #1
   86a16:	f803 4b01 	strb.w	r4, [r3], #1
   86a1a:	4293      	cmp	r3, r2
   86a1c:	d1f9      	bne.n	86a12 <memmove+0xa6>
   86a1e:	bcf0      	pop	{r4, r5, r6, r7}
   86a20:	4770      	bx	lr
   86a22:	4603      	mov	r3, r0
   86a24:	2a00      	cmp	r2, #0
   86a26:	d1f3      	bne.n	86a10 <memmove+0xa4>
   86a28:	e7b2      	b.n	86990 <memmove+0x24>
   86a2a:	4603      	mov	r3, r0
   86a2c:	e7f0      	b.n	86a10 <memmove+0xa4>
   86a2e:	4662      	mov	r2, ip
   86a30:	2a00      	cmp	r2, #0
   86a32:	d1ed      	bne.n	86a10 <memmove+0xa4>
   86a34:	e7ac      	b.n	86990 <memmove+0x24>
   86a36:	bf00      	nop

00086a38 <__malloc_lock>:
   86a38:	4770      	bx	lr
   86a3a:	bf00      	nop

00086a3c <__malloc_unlock>:
   86a3c:	4770      	bx	lr
   86a3e:	bf00      	nop

00086a40 <_Balloc>:
   86a40:	6cc2      	ldr	r2, [r0, #76]	; 0x4c
   86a42:	b570      	push	{r4, r5, r6, lr}
   86a44:	4605      	mov	r5, r0
   86a46:	460c      	mov	r4, r1
   86a48:	b14a      	cbz	r2, 86a5e <_Balloc+0x1e>
   86a4a:	f852 0024 	ldr.w	r0, [r2, r4, lsl #2]
   86a4e:	b180      	cbz	r0, 86a72 <_Balloc+0x32>
   86a50:	6801      	ldr	r1, [r0, #0]
   86a52:	f842 1024 	str.w	r1, [r2, r4, lsl #2]
   86a56:	2200      	movs	r2, #0
   86a58:	6102      	str	r2, [r0, #16]
   86a5a:	60c2      	str	r2, [r0, #12]
   86a5c:	bd70      	pop	{r4, r5, r6, pc}
   86a5e:	2221      	movs	r2, #33	; 0x21
   86a60:	2104      	movs	r1, #4
   86a62:	f000 fecd 	bl	87800 <_calloc_r>
   86a66:	64e8      	str	r0, [r5, #76]	; 0x4c
   86a68:	4602      	mov	r2, r0
   86a6a:	2800      	cmp	r0, #0
   86a6c:	d1ed      	bne.n	86a4a <_Balloc+0xa>
   86a6e:	2000      	movs	r0, #0
   86a70:	bd70      	pop	{r4, r5, r6, pc}
   86a72:	2101      	movs	r1, #1
   86a74:	fa01 f604 	lsl.w	r6, r1, r4
   86a78:	1d72      	adds	r2, r6, #5
   86a7a:	4628      	mov	r0, r5
   86a7c:	0092      	lsls	r2, r2, #2
   86a7e:	f000 febf 	bl	87800 <_calloc_r>
   86a82:	2800      	cmp	r0, #0
   86a84:	d0f3      	beq.n	86a6e <_Balloc+0x2e>
   86a86:	6044      	str	r4, [r0, #4]
   86a88:	6086      	str	r6, [r0, #8]
   86a8a:	e7e4      	b.n	86a56 <_Balloc+0x16>

00086a8c <_Bfree>:
   86a8c:	b131      	cbz	r1, 86a9c <_Bfree+0x10>
   86a8e:	6cc3      	ldr	r3, [r0, #76]	; 0x4c
   86a90:	684a      	ldr	r2, [r1, #4]
   86a92:	f853 0022 	ldr.w	r0, [r3, r2, lsl #2]
   86a96:	6008      	str	r0, [r1, #0]
   86a98:	f843 1022 	str.w	r1, [r3, r2, lsl #2]
   86a9c:	4770      	bx	lr
   86a9e:	bf00      	nop

00086aa0 <__multadd>:
   86aa0:	e92d 43f0 	stmdb	sp!, {r4, r5, r6, r7, r8, r9, lr}
   86aa4:	690f      	ldr	r7, [r1, #16]
   86aa6:	b083      	sub	sp, #12
   86aa8:	4688      	mov	r8, r1
   86aaa:	4681      	mov	r9, r0
   86aac:	f101 0514 	add.w	r5, r1, #20
   86ab0:	2400      	movs	r4, #0
   86ab2:	682e      	ldr	r6, [r5, #0]
   86ab4:	3401      	adds	r4, #1
   86ab6:	b2b1      	uxth	r1, r6
   86ab8:	0c36      	lsrs	r6, r6, #16
   86aba:	fb02 3301 	mla	r3, r2, r1, r3
   86abe:	fb02 f606 	mul.w	r6, r2, r6
   86ac2:	b299      	uxth	r1, r3
   86ac4:	eb06 4313 	add.w	r3, r6, r3, lsr #16
   86ac8:	eb01 4103 	add.w	r1, r1, r3, lsl #16
   86acc:	42a7      	cmp	r7, r4
   86ace:	f845 1b04 	str.w	r1, [r5], #4
   86ad2:	ea4f 4313 	mov.w	r3, r3, lsr #16
   86ad6:	dcec      	bgt.n	86ab2 <__multadd+0x12>
   86ad8:	b14b      	cbz	r3, 86aee <__multadd+0x4e>
   86ada:	f8d8 2008 	ldr.w	r2, [r8, #8]
   86ade:	4297      	cmp	r7, r2
   86ae0:	da09      	bge.n	86af6 <__multadd+0x56>
   86ae2:	eb08 0287 	add.w	r2, r8, r7, lsl #2
   86ae6:	3701      	adds	r7, #1
   86ae8:	6153      	str	r3, [r2, #20]
   86aea:	f8c8 7010 	str.w	r7, [r8, #16]
   86aee:	4640      	mov	r0, r8
   86af0:	b003      	add	sp, #12
   86af2:	e8bd 83f0 	ldmia.w	sp!, {r4, r5, r6, r7, r8, r9, pc}
   86af6:	f8d8 1004 	ldr.w	r1, [r8, #4]
   86afa:	4648      	mov	r0, r9
   86afc:	3101      	adds	r1, #1
   86afe:	9301      	str	r3, [sp, #4]
   86b00:	f7ff ff9e 	bl	86a40 <_Balloc>
   86b04:	f8d8 2010 	ldr.w	r2, [r8, #16]
   86b08:	f108 010c 	add.w	r1, r8, #12
   86b0c:	3202      	adds	r2, #2
   86b0e:	4604      	mov	r4, r0
   86b10:	0092      	lsls	r2, r2, #2
   86b12:	300c      	adds	r0, #12
   86b14:	f7ff feb4 	bl	86880 <memcpy>
   86b18:	f8d9 204c 	ldr.w	r2, [r9, #76]	; 0x4c
   86b1c:	f8d8 1004 	ldr.w	r1, [r8, #4]
   86b20:	9b01      	ldr	r3, [sp, #4]
   86b22:	f852 0021 	ldr.w	r0, [r2, r1, lsl #2]
   86b26:	f8c8 0000 	str.w	r0, [r8]
   86b2a:	f842 8021 	str.w	r8, [r2, r1, lsl #2]
   86b2e:	46a0      	mov	r8, r4
   86b30:	e7d7      	b.n	86ae2 <__multadd+0x42>
   86b32:	bf00      	nop

00086b34 <__hi0bits>:
   86b34:	0c03      	lsrs	r3, r0, #16
   86b36:	041b      	lsls	r3, r3, #16
   86b38:	b9b3      	cbnz	r3, 86b68 <__hi0bits+0x34>
   86b3a:	0400      	lsls	r0, r0, #16
   86b3c:	2310      	movs	r3, #16
   86b3e:	f010 4f7f 	tst.w	r0, #4278190080	; 0xff000000
   86b42:	bf04      	itt	eq
   86b44:	0200      	lsleq	r0, r0, #8
   86b46:	3308      	addeq	r3, #8
   86b48:	f010 4f70 	tst.w	r0, #4026531840	; 0xf0000000
   86b4c:	bf04      	itt	eq
   86b4e:	0100      	lsleq	r0, r0, #4
   86b50:	3304      	addeq	r3, #4
   86b52:	f010 4f40 	tst.w	r0, #3221225472	; 0xc0000000
   86b56:	bf04      	itt	eq
   86b58:	0080      	lsleq	r0, r0, #2
   86b5a:	3302      	addeq	r3, #2
   86b5c:	2800      	cmp	r0, #0
   86b5e:	db07      	blt.n	86b70 <__hi0bits+0x3c>
   86b60:	0042      	lsls	r2, r0, #1
   86b62:	d403      	bmi.n	86b6c <__hi0bits+0x38>
   86b64:	2020      	movs	r0, #32
   86b66:	4770      	bx	lr
   86b68:	2300      	movs	r3, #0
   86b6a:	e7e8      	b.n	86b3e <__hi0bits+0xa>
   86b6c:	1c58      	adds	r0, r3, #1
   86b6e:	4770      	bx	lr
   86b70:	4618      	mov	r0, r3
   86b72:	4770      	bx	lr

00086b74 <__lo0bits>:
   86b74:	6803      	ldr	r3, [r0, #0]
   86b76:	f013 0207 	ands.w	r2, r3, #7
   86b7a:	d007      	beq.n	86b8c <__lo0bits+0x18>
   86b7c:	07d9      	lsls	r1, r3, #31
   86b7e:	d420      	bmi.n	86bc2 <__lo0bits+0x4e>
   86b80:	079a      	lsls	r2, r3, #30
   86b82:	d420      	bmi.n	86bc6 <__lo0bits+0x52>
   86b84:	089b      	lsrs	r3, r3, #2
   86b86:	6003      	str	r3, [r0, #0]
   86b88:	2002      	movs	r0, #2
   86b8a:	4770      	bx	lr
   86b8c:	b299      	uxth	r1, r3
   86b8e:	b909      	cbnz	r1, 86b94 <__lo0bits+0x20>
   86b90:	0c1b      	lsrs	r3, r3, #16
   86b92:	2210      	movs	r2, #16
   86b94:	f013 0fff 	tst.w	r3, #255	; 0xff
   86b98:	bf04      	itt	eq
   86b9a:	0a1b      	lsreq	r3, r3, #8
   86b9c:	3208      	addeq	r2, #8
   86b9e:	0719      	lsls	r1, r3, #28
   86ba0:	bf04      	itt	eq
   86ba2:	091b      	lsreq	r3, r3, #4
   86ba4:	3204      	addeq	r2, #4
   86ba6:	0799      	lsls	r1, r3, #30
   86ba8:	bf04      	itt	eq
   86baa:	089b      	lsreq	r3, r3, #2
   86bac:	3202      	addeq	r2, #2
   86bae:	07d9      	lsls	r1, r3, #31
   86bb0:	d404      	bmi.n	86bbc <__lo0bits+0x48>
   86bb2:	085b      	lsrs	r3, r3, #1
   86bb4:	d101      	bne.n	86bba <__lo0bits+0x46>
   86bb6:	2020      	movs	r0, #32
   86bb8:	4770      	bx	lr
   86bba:	3201      	adds	r2, #1
   86bbc:	6003      	str	r3, [r0, #0]
   86bbe:	4610      	mov	r0, r2
   86bc0:	4770      	bx	lr
   86bc2:	2000      	movs	r0, #0
   86bc4:	4770      	bx	lr
   86bc6:	085b      	lsrs	r3, r3, #1
   86bc8:	6003      	str	r3, [r0, #0]
   86bca:	2001      	movs	r0, #1
   86bcc:	4770      	bx	lr
   86bce:	bf00      	nop

00086bd0 <__i2b>:
   86bd0:	b510      	push	{r4, lr}
   86bd2:	460c      	mov	r4, r1
   86bd4:	2101      	movs	r1, #1
   86bd6:	f7ff ff33 	bl	86a40 <_Balloc>
   86bda:	2201      	movs	r2, #1
   86bdc:	6144      	str	r4, [r0, #20]
   86bde:	6102      	str	r2, [r0, #16]
   86be0:	bd10      	pop	{r4, pc}
   86be2:	bf00      	nop

00086be4 <__multiply>:
   86be4:	e92d 4ff0 	stmdb	sp!, {r4, r5, r6, r7, r8, r9, sl, fp, lr}
   86be8:	690d      	ldr	r5, [r1, #16]
   86bea:	f8d2 9010 	ldr.w	r9, [r2, #16]
   86bee:	b085      	sub	sp, #20
   86bf0:	454d      	cmp	r5, r9
   86bf2:	460c      	mov	r4, r1
   86bf4:	4692      	mov	sl, r2
   86bf6:	da04      	bge.n	86c02 <__multiply+0x1e>
   86bf8:	462a      	mov	r2, r5
   86bfa:	4654      	mov	r4, sl
   86bfc:	464d      	mov	r5, r9
   86bfe:	468a      	mov	sl, r1
   86c00:	4691      	mov	r9, r2
   86c02:	68a3      	ldr	r3, [r4, #8]
   86c04:	eb05 0709 	add.w	r7, r5, r9
   86c08:	6861      	ldr	r1, [r4, #4]
   86c0a:	429f      	cmp	r7, r3
   86c0c:	bfc8      	it	gt
   86c0e:	3101      	addgt	r1, #1
   86c10:	f7ff ff16 	bl	86a40 <_Balloc>
   86c14:	f100 0614 	add.w	r6, r0, #20
   86c18:	eb06 0887 	add.w	r8, r6, r7, lsl #2
   86c1c:	4546      	cmp	r6, r8
   86c1e:	9001      	str	r0, [sp, #4]
   86c20:	d205      	bcs.n	86c2e <__multiply+0x4a>
   86c22:	4633      	mov	r3, r6
   86c24:	2000      	movs	r0, #0
   86c26:	f843 0b04 	str.w	r0, [r3], #4
   86c2a:	4598      	cmp	r8, r3
   86c2c:	d8fb      	bhi.n	86c26 <__multiply+0x42>
   86c2e:	f10a 0c14 	add.w	ip, sl, #20
   86c32:	eb0c 0989 	add.w	r9, ip, r9, lsl #2
   86c36:	3414      	adds	r4, #20
   86c38:	45cc      	cmp	ip, r9
   86c3a:	9400      	str	r4, [sp, #0]
   86c3c:	eb04 0585 	add.w	r5, r4, r5, lsl #2
   86c40:	d25b      	bcs.n	86cfa <__multiply+0x116>
   86c42:	f8cd 8008 	str.w	r8, [sp, #8]
   86c46:	9703      	str	r7, [sp, #12]
   86c48:	46c8      	mov	r8, r9
   86c4a:	f85c 3b04 	ldr.w	r3, [ip], #4
   86c4e:	b29c      	uxth	r4, r3
   86c50:	b324      	cbz	r4, 86c9c <__multiply+0xb8>
   86c52:	9a00      	ldr	r2, [sp, #0]
   86c54:	4633      	mov	r3, r6
   86c56:	f04f 0900 	mov.w	r9, #0
   86c5a:	e000      	b.n	86c5e <__multiply+0x7a>
   86c5c:	460b      	mov	r3, r1
   86c5e:	f852 7b04 	ldr.w	r7, [r2], #4
   86c62:	6819      	ldr	r1, [r3, #0]
   86c64:	fa1f fb87 	uxth.w	fp, r7
   86c68:	fa1f fa81 	uxth.w	sl, r1
   86c6c:	0c38      	lsrs	r0, r7, #16
   86c6e:	0c09      	lsrs	r1, r1, #16
   86c70:	fb04 aa0b 	mla	sl, r4, fp, sl
   86c74:	fb04 1000 	mla	r0, r4, r0, r1
   86c78:	44d1      	add	r9, sl
   86c7a:	eb00 4019 	add.w	r0, r0, r9, lsr #16
   86c7e:	fa1f f989 	uxth.w	r9, r9
   86c82:	ea49 4700 	orr.w	r7, r9, r0, lsl #16
   86c86:	4619      	mov	r1, r3
   86c88:	4295      	cmp	r5, r2
   86c8a:	ea4f 4910 	mov.w	r9, r0, lsr #16
   86c8e:	f841 7b04 	str.w	r7, [r1], #4
   86c92:	d8e3      	bhi.n	86c5c <__multiply+0x78>
   86c94:	f8c3 9004 	str.w	r9, [r3, #4]
   86c98:	f85c 3c04 	ldr.w	r3, [ip, #-4]
   86c9c:	ea5f 4913 	movs.w	r9, r3, lsr #16
   86ca0:	d024      	beq.n	86cec <__multiply+0x108>
   86ca2:	f8d6 a000 	ldr.w	sl, [r6]
   86ca6:	9b00      	ldr	r3, [sp, #0]
   86ca8:	4650      	mov	r0, sl
   86caa:	4631      	mov	r1, r6
   86cac:	f04f 0b00 	mov.w	fp, #0
   86cb0:	e000      	b.n	86cb4 <__multiply+0xd0>
   86cb2:	4611      	mov	r1, r2
   86cb4:	881a      	ldrh	r2, [r3, #0]
   86cb6:	0c00      	lsrs	r0, r0, #16
   86cb8:	fb09 0002 	mla	r0, r9, r2, r0
   86cbc:	fa1f fa8a 	uxth.w	sl, sl
   86cc0:	4483      	add	fp, r0
   86cc2:	ea4a 400b 	orr.w	r0, sl, fp, lsl #16
   86cc6:	460a      	mov	r2, r1
   86cc8:	f842 0b04 	str.w	r0, [r2], #4
   86ccc:	f853 7b04 	ldr.w	r7, [r3], #4
   86cd0:	6848      	ldr	r0, [r1, #4]
   86cd2:	ea4f 4a17 	mov.w	sl, r7, lsr #16
   86cd6:	b284      	uxth	r4, r0
   86cd8:	fb09 4a0a 	mla	sl, r9, sl, r4
   86cdc:	429d      	cmp	r5, r3
   86cde:	eb0a 4a1b 	add.w	sl, sl, fp, lsr #16
   86ce2:	ea4f 4b1a 	mov.w	fp, sl, lsr #16
   86ce6:	d8e4      	bhi.n	86cb2 <__multiply+0xce>
   86ce8:	f8c1 a004 	str.w	sl, [r1, #4]
   86cec:	45e0      	cmp	r8, ip
   86cee:	f106 0604 	add.w	r6, r6, #4
   86cf2:	d8aa      	bhi.n	86c4a <__multiply+0x66>
   86cf4:	f8dd 8008 	ldr.w	r8, [sp, #8]
   86cf8:	9f03      	ldr	r7, [sp, #12]
   86cfa:	2f00      	cmp	r7, #0
   86cfc:	dd0a      	ble.n	86d14 <__multiply+0x130>
   86cfe:	f858 3c04 	ldr.w	r3, [r8, #-4]
   86d02:	f1a8 0804 	sub.w	r8, r8, #4
   86d06:	b11b      	cbz	r3, 86d10 <__multiply+0x12c>
   86d08:	e004      	b.n	86d14 <__multiply+0x130>
   86d0a:	f858 3d04 	ldr.w	r3, [r8, #-4]!
   86d0e:	b90b      	cbnz	r3, 86d14 <__multiply+0x130>
   86d10:	3f01      	subs	r7, #1
   86d12:	d1fa      	bne.n	86d0a <__multiply+0x126>
   86d14:	9b01      	ldr	r3, [sp, #4]
   86d16:	4618      	mov	r0, r3
   86d18:	611f      	str	r7, [r3, #16]
   86d1a:	b005      	add	sp, #20
   86d1c:	e8bd 8ff0 	ldmia.w	sp!, {r4, r5, r6, r7, r8, r9, sl, fp, pc}

00086d20 <__pow5mult>:
   86d20:	f012 0303 	ands.w	r3, r2, #3
   86d24:	e92d 41f0 	stmdb	sp!, {r4, r5, r6, r7, r8, lr}
   86d28:	4614      	mov	r4, r2
   86d2a:	4607      	mov	r7, r0
   86d2c:	460e      	mov	r6, r1
   86d2e:	d12c      	bne.n	86d8a <__pow5mult+0x6a>
   86d30:	10a4      	asrs	r4, r4, #2
   86d32:	d01c      	beq.n	86d6e <__pow5mult+0x4e>
   86d34:	6cbd      	ldr	r5, [r7, #72]	; 0x48
   86d36:	2d00      	cmp	r5, #0
   86d38:	d030      	beq.n	86d9c <__pow5mult+0x7c>
   86d3a:	f04f 0800 	mov.w	r8, #0
   86d3e:	e004      	b.n	86d4a <__pow5mult+0x2a>
   86d40:	1064      	asrs	r4, r4, #1
   86d42:	d014      	beq.n	86d6e <__pow5mult+0x4e>
   86d44:	6828      	ldr	r0, [r5, #0]
   86d46:	b1a8      	cbz	r0, 86d74 <__pow5mult+0x54>
   86d48:	4605      	mov	r5, r0
   86d4a:	07e3      	lsls	r3, r4, #31
   86d4c:	d5f8      	bpl.n	86d40 <__pow5mult+0x20>
   86d4e:	4638      	mov	r0, r7
   86d50:	4631      	mov	r1, r6
   86d52:	462a      	mov	r2, r5
   86d54:	f7ff ff46 	bl	86be4 <__multiply>
   86d58:	b1ae      	cbz	r6, 86d86 <__pow5mult+0x66>
   86d5a:	6872      	ldr	r2, [r6, #4]
   86d5c:	6cfb      	ldr	r3, [r7, #76]	; 0x4c
   86d5e:	1064      	asrs	r4, r4, #1
   86d60:	f853 1022 	ldr.w	r1, [r3, r2, lsl #2]
   86d64:	6031      	str	r1, [r6, #0]
   86d66:	f843 6022 	str.w	r6, [r3, r2, lsl #2]
   86d6a:	4606      	mov	r6, r0
   86d6c:	d1ea      	bne.n	86d44 <__pow5mult+0x24>
   86d6e:	4630      	mov	r0, r6
   86d70:	e8bd 81f0 	ldmia.w	sp!, {r4, r5, r6, r7, r8, pc}
   86d74:	4638      	mov	r0, r7
   86d76:	4629      	mov	r1, r5
   86d78:	462a      	mov	r2, r5
   86d7a:	f7ff ff33 	bl	86be4 <__multiply>
   86d7e:	6028      	str	r0, [r5, #0]
   86d80:	f8c0 8000 	str.w	r8, [r0]
   86d84:	e7e0      	b.n	86d48 <__pow5mult+0x28>
   86d86:	4606      	mov	r6, r0
   86d88:	e7da      	b.n	86d40 <__pow5mult+0x20>
   86d8a:	4a0b      	ldr	r2, [pc, #44]	; (86db8 <__pow5mult+0x98>)
   86d8c:	3b01      	subs	r3, #1
   86d8e:	f852 2023 	ldr.w	r2, [r2, r3, lsl #2]
   86d92:	2300      	movs	r3, #0
   86d94:	f7ff fe84 	bl	86aa0 <__multadd>
   86d98:	4606      	mov	r6, r0
   86d9a:	e7c9      	b.n	86d30 <__pow5mult+0x10>
   86d9c:	2101      	movs	r1, #1
   86d9e:	4638      	mov	r0, r7
   86da0:	f7ff fe4e 	bl	86a40 <_Balloc>
   86da4:	f240 2171 	movw	r1, #625	; 0x271
   86da8:	2201      	movs	r2, #1
   86daa:	2300      	movs	r3, #0
   86dac:	6141      	str	r1, [r0, #20]
   86dae:	6102      	str	r2, [r0, #16]
   86db0:	4605      	mov	r5, r0
   86db2:	64b8      	str	r0, [r7, #72]	; 0x48
   86db4:	6003      	str	r3, [r0, #0]
   86db6:	e7c0      	b.n	86d3a <__pow5mult+0x1a>
   86db8:	00088158 	.word	0x00088158

00086dbc <__lshift>:
   86dbc:	e92d 4ff8 	stmdb	sp!, {r3, r4, r5, r6, r7, r8, r9, sl, fp, lr}
   86dc0:	690b      	ldr	r3, [r1, #16]
   86dc2:	ea4f 1a62 	mov.w	sl, r2, asr #5
   86dc6:	eb0a 0903 	add.w	r9, sl, r3
   86dca:	688b      	ldr	r3, [r1, #8]
   86dcc:	f109 0601 	add.w	r6, r9, #1
   86dd0:	429e      	cmp	r6, r3
   86dd2:	460f      	mov	r7, r1
   86dd4:	4693      	mov	fp, r2
   86dd6:	4680      	mov	r8, r0
   86dd8:	6849      	ldr	r1, [r1, #4]
   86dda:	dd04      	ble.n	86de6 <__lshift+0x2a>
   86ddc:	005b      	lsls	r3, r3, #1
   86dde:	429e      	cmp	r6, r3
   86de0:	f101 0101 	add.w	r1, r1, #1
   86de4:	dcfa      	bgt.n	86ddc <__lshift+0x20>
   86de6:	4640      	mov	r0, r8
   86de8:	f7ff fe2a 	bl	86a40 <_Balloc>
   86dec:	f1ba 0f00 	cmp.w	sl, #0
   86df0:	f100 0414 	add.w	r4, r0, #20
   86df4:	dd09      	ble.n	86e0a <__lshift+0x4e>
   86df6:	2300      	movs	r3, #0
   86df8:	461a      	mov	r2, r3
   86dfa:	4625      	mov	r5, r4
   86dfc:	3301      	adds	r3, #1
   86dfe:	4553      	cmp	r3, sl
   86e00:	f845 2b04 	str.w	r2, [r5], #4
   86e04:	d1fa      	bne.n	86dfc <__lshift+0x40>
   86e06:	eb04 0483 	add.w	r4, r4, r3, lsl #2
   86e0a:	693a      	ldr	r2, [r7, #16]
   86e0c:	f107 0314 	add.w	r3, r7, #20
   86e10:	f01b 0b1f 	ands.w	fp, fp, #31
   86e14:	eb03 0c82 	add.w	ip, r3, r2, lsl #2
   86e18:	d021      	beq.n	86e5e <__lshift+0xa2>
   86e1a:	f1cb 0a20 	rsb	sl, fp, #32
   86e1e:	2200      	movs	r2, #0
   86e20:	e000      	b.n	86e24 <__lshift+0x68>
   86e22:	462c      	mov	r4, r5
   86e24:	6819      	ldr	r1, [r3, #0]
   86e26:	4625      	mov	r5, r4
   86e28:	fa01 f10b 	lsl.w	r1, r1, fp
   86e2c:	430a      	orrs	r2, r1
   86e2e:	f845 2b04 	str.w	r2, [r5], #4
   86e32:	f853 2b04 	ldr.w	r2, [r3], #4
   86e36:	4563      	cmp	r3, ip
   86e38:	fa22 f20a 	lsr.w	r2, r2, sl
   86e3c:	d3f1      	bcc.n	86e22 <__lshift+0x66>
   86e3e:	6062      	str	r2, [r4, #4]
   86e40:	b10a      	cbz	r2, 86e46 <__lshift+0x8a>
   86e42:	f109 0602 	add.w	r6, r9, #2
   86e46:	f8d8 304c 	ldr.w	r3, [r8, #76]	; 0x4c
   86e4a:	687a      	ldr	r2, [r7, #4]
   86e4c:	3e01      	subs	r6, #1
   86e4e:	f853 1022 	ldr.w	r1, [r3, r2, lsl #2]
   86e52:	6106      	str	r6, [r0, #16]
   86e54:	6039      	str	r1, [r7, #0]
   86e56:	f843 7022 	str.w	r7, [r3, r2, lsl #2]
   86e5a:	e8bd 8ff8 	ldmia.w	sp!, {r3, r4, r5, r6, r7, r8, r9, sl, fp, pc}
   86e5e:	f853 2b04 	ldr.w	r2, [r3], #4
   86e62:	459c      	cmp	ip, r3
   86e64:	f844 2b04 	str.w	r2, [r4], #4
   86e68:	d9ed      	bls.n	86e46 <__lshift+0x8a>
   86e6a:	f853 2b04 	ldr.w	r2, [r3], #4
   86e6e:	459c      	cmp	ip, r3
   86e70:	f844 2b04 	str.w	r2, [r4], #4
   86e74:	d8f3      	bhi.n	86e5e <__lshift+0xa2>
   86e76:	e7e6      	b.n	86e46 <__lshift+0x8a>

00086e78 <__mcmp>:
   86e78:	6902      	ldr	r2, [r0, #16]
   86e7a:	690b      	ldr	r3, [r1, #16]
   86e7c:	b410      	push	{r4}
   86e7e:	1ad2      	subs	r2, r2, r3
   86e80:	d115      	bne.n	86eae <__mcmp+0x36>
   86e82:	009b      	lsls	r3, r3, #2
   86e84:	3014      	adds	r0, #20
   86e86:	3114      	adds	r1, #20
   86e88:	4419      	add	r1, r3
   86e8a:	4403      	add	r3, r0
   86e8c:	e001      	b.n	86e92 <__mcmp+0x1a>
   86e8e:	4298      	cmp	r0, r3
   86e90:	d211      	bcs.n	86eb6 <__mcmp+0x3e>
   86e92:	f853 2d04 	ldr.w	r2, [r3, #-4]!
   86e96:	f851 4d04 	ldr.w	r4, [r1, #-4]!
   86e9a:	42a2      	cmp	r2, r4
   86e9c:	d0f7      	beq.n	86e8e <__mcmp+0x16>
   86e9e:	4294      	cmp	r4, r2
   86ea0:	bf94      	ite	ls
   86ea2:	2001      	movls	r0, #1
   86ea4:	f04f 30ff 	movhi.w	r0, #4294967295
   86ea8:	f85d 4b04 	ldr.w	r4, [sp], #4
   86eac:	4770      	bx	lr
   86eae:	4610      	mov	r0, r2
   86eb0:	f85d 4b04 	ldr.w	r4, [sp], #4
   86eb4:	4770      	bx	lr
   86eb6:	2000      	movs	r0, #0
   86eb8:	f85d 4b04 	ldr.w	r4, [sp], #4
   86ebc:	4770      	bx	lr
   86ebe:	bf00      	nop

00086ec0 <__mdiff>:
   86ec0:	e92d 47f0 	stmdb	sp!, {r4, r5, r6, r7, r8, r9, sl, lr}
   86ec4:	460d      	mov	r5, r1
   86ec6:	4604      	mov	r4, r0
   86ec8:	4611      	mov	r1, r2
   86eca:	4628      	mov	r0, r5
   86ecc:	4616      	mov	r6, r2
   86ece:	f7ff ffd3 	bl	86e78 <__mcmp>
   86ed2:	1e07      	subs	r7, r0, #0
   86ed4:	d056      	beq.n	86f84 <__mdiff+0xc4>
   86ed6:	db4f      	blt.n	86f78 <__mdiff+0xb8>
   86ed8:	f04f 0900 	mov.w	r9, #0
   86edc:	6869      	ldr	r1, [r5, #4]
   86ede:	4620      	mov	r0, r4
   86ee0:	f7ff fdae 	bl	86a40 <_Balloc>
   86ee4:	692f      	ldr	r7, [r5, #16]
   86ee6:	6932      	ldr	r2, [r6, #16]
   86ee8:	3514      	adds	r5, #20
   86eea:	3614      	adds	r6, #20
   86eec:	f8c0 900c 	str.w	r9, [r0, #12]
   86ef0:	f100 0314 	add.w	r3, r0, #20
   86ef4:	eb05 0c87 	add.w	ip, r5, r7, lsl #2
   86ef8:	eb06 0882 	add.w	r8, r6, r2, lsl #2
   86efc:	2100      	movs	r1, #0
   86efe:	f855 4b04 	ldr.w	r4, [r5], #4
   86f02:	f856 2b04 	ldr.w	r2, [r6], #4
   86f06:	fa1f fa84 	uxth.w	sl, r4
   86f0a:	448a      	add	sl, r1
   86f0c:	fa1f f982 	uxth.w	r9, r2
   86f10:	0c11      	lsrs	r1, r2, #16
   86f12:	ebc1 4114 	rsb	r1, r1, r4, lsr #16
   86f16:	ebc9 020a 	rsb	r2, r9, sl
   86f1a:	eb01 4122 	add.w	r1, r1, r2, asr #16
   86f1e:	b292      	uxth	r2, r2
   86f20:	ea42 4201 	orr.w	r2, r2, r1, lsl #16
   86f24:	45b0      	cmp	r8, r6
   86f26:	f843 2b04 	str.w	r2, [r3], #4
   86f2a:	ea4f 4121 	mov.w	r1, r1, asr #16
   86f2e:	462c      	mov	r4, r5
   86f30:	d8e5      	bhi.n	86efe <__mdiff+0x3e>
   86f32:	45ac      	cmp	ip, r5
   86f34:	4698      	mov	r8, r3
   86f36:	d915      	bls.n	86f64 <__mdiff+0xa4>
   86f38:	f854 6b04 	ldr.w	r6, [r4], #4
   86f3c:	b2b2      	uxth	r2, r6
   86f3e:	4411      	add	r1, r2
   86f40:	0c36      	lsrs	r6, r6, #16
   86f42:	eb06 4621 	add.w	r6, r6, r1, asr #16
   86f46:	b289      	uxth	r1, r1
   86f48:	ea41 4206 	orr.w	r2, r1, r6, lsl #16
   86f4c:	45a4      	cmp	ip, r4
   86f4e:	f843 2b04 	str.w	r2, [r3], #4
   86f52:	ea4f 4126 	mov.w	r1, r6, asr #16
   86f56:	d8ef      	bhi.n	86f38 <__mdiff+0x78>
   86f58:	43eb      	mvns	r3, r5
   86f5a:	4463      	add	r3, ip
   86f5c:	f023 0303 	bic.w	r3, r3, #3
   86f60:	3304      	adds	r3, #4
   86f62:	4443      	add	r3, r8
   86f64:	3b04      	subs	r3, #4
   86f66:	b922      	cbnz	r2, 86f72 <__mdiff+0xb2>
   86f68:	f853 2d04 	ldr.w	r2, [r3, #-4]!
   86f6c:	3f01      	subs	r7, #1
   86f6e:	2a00      	cmp	r2, #0
   86f70:	d0fa      	beq.n	86f68 <__mdiff+0xa8>
   86f72:	6107      	str	r7, [r0, #16]
   86f74:	e8bd 87f0 	ldmia.w	sp!, {r4, r5, r6, r7, r8, r9, sl, pc}
   86f78:	462b      	mov	r3, r5
   86f7a:	f04f 0901 	mov.w	r9, #1
   86f7e:	4635      	mov	r5, r6
   86f80:	461e      	mov	r6, r3
   86f82:	e7ab      	b.n	86edc <__mdiff+0x1c>
   86f84:	4620      	mov	r0, r4
   86f86:	4639      	mov	r1, r7
   86f88:	f7ff fd5a 	bl	86a40 <_Balloc>
   86f8c:	2301      	movs	r3, #1
   86f8e:	6147      	str	r7, [r0, #20]
   86f90:	6103      	str	r3, [r0, #16]
   86f92:	e8bd 87f0 	ldmia.w	sp!, {r4, r5, r6, r7, r8, r9, sl, pc}
   86f96:	bf00      	nop

00086f98 <__d2b>:
   86f98:	e92d 43f0 	stmdb	sp!, {r4, r5, r6, r7, r8, r9, lr}
   86f9c:	2101      	movs	r1, #1
   86f9e:	b083      	sub	sp, #12
   86fa0:	461d      	mov	r5, r3
   86fa2:	f3c3 560a 	ubfx	r6, r3, #20, #11
   86fa6:	4614      	mov	r4, r2
   86fa8:	9f0a      	ldr	r7, [sp, #40]	; 0x28
   86faa:	f7ff fd49 	bl	86a40 <_Balloc>
   86fae:	f3c5 0313 	ubfx	r3, r5, #0, #20
   86fb2:	4680      	mov	r8, r0
   86fb4:	b10e      	cbz	r6, 86fba <__d2b+0x22>
   86fb6:	f443 1380 	orr.w	r3, r3, #1048576	; 0x100000
   86fba:	9301      	str	r3, [sp, #4]
   86fbc:	b324      	cbz	r4, 87008 <__d2b+0x70>
   86fbe:	a802      	add	r0, sp, #8
   86fc0:	f840 4d08 	str.w	r4, [r0, #-8]!
   86fc4:	4668      	mov	r0, sp
   86fc6:	f7ff fdd5 	bl	86b74 <__lo0bits>
   86fca:	2800      	cmp	r0, #0
   86fcc:	d135      	bne.n	8703a <__d2b+0xa2>
   86fce:	e89d 000c 	ldmia.w	sp, {r2, r3}
   86fd2:	f8c8 2014 	str.w	r2, [r8, #20]
   86fd6:	2b00      	cmp	r3, #0
   86fd8:	bf0c      	ite	eq
   86fda:	2401      	moveq	r4, #1
   86fdc:	2402      	movne	r4, #2
   86fde:	f8c8 3018 	str.w	r3, [r8, #24]
   86fe2:	f8c8 4010 	str.w	r4, [r8, #16]
   86fe6:	b9de      	cbnz	r6, 87020 <__d2b+0x88>
   86fe8:	eb08 0384 	add.w	r3, r8, r4, lsl #2
   86fec:	f2a0 4032 	subw	r0, r0, #1074	; 0x432
   86ff0:	6038      	str	r0, [r7, #0]
   86ff2:	6918      	ldr	r0, [r3, #16]
   86ff4:	f7ff fd9e 	bl	86b34 <__hi0bits>
   86ff8:	9b0b      	ldr	r3, [sp, #44]	; 0x2c
   86ffa:	ebc0 1044 	rsb	r0, r0, r4, lsl #5
   86ffe:	6018      	str	r0, [r3, #0]
   87000:	4640      	mov	r0, r8
   87002:	b003      	add	sp, #12
   87004:	e8bd 83f0 	ldmia.w	sp!, {r4, r5, r6, r7, r8, r9, pc}
   87008:	a801      	add	r0, sp, #4
   8700a:	f7ff fdb3 	bl	86b74 <__lo0bits>
   8700e:	9b01      	ldr	r3, [sp, #4]
   87010:	2401      	movs	r4, #1
   87012:	3020      	adds	r0, #32
   87014:	f8c8 3014 	str.w	r3, [r8, #20]
   87018:	f8c8 4010 	str.w	r4, [r8, #16]
   8701c:	2e00      	cmp	r6, #0
   8701e:	d0e3      	beq.n	86fe8 <__d2b+0x50>
   87020:	f2a6 4933 	subw	r9, r6, #1075	; 0x433
   87024:	eb09 0300 	add.w	r3, r9, r0
   87028:	603b      	str	r3, [r7, #0]
   8702a:	9b0b      	ldr	r3, [sp, #44]	; 0x2c
   8702c:	f1c0 0035 	rsb	r0, r0, #53	; 0x35
   87030:	6018      	str	r0, [r3, #0]
   87032:	4640      	mov	r0, r8
   87034:	b003      	add	sp, #12
   87036:	e8bd 83f0 	ldmia.w	sp!, {r4, r5, r6, r7, r8, r9, pc}
   8703a:	9b01      	ldr	r3, [sp, #4]
   8703c:	f1c0 0120 	rsb	r1, r0, #32
   87040:	fa03 f101 	lsl.w	r1, r3, r1
   87044:	40c3      	lsrs	r3, r0
   87046:	9a00      	ldr	r2, [sp, #0]
   87048:	9301      	str	r3, [sp, #4]
   8704a:	430a      	orrs	r2, r1
   8704c:	f8c8 2014 	str.w	r2, [r8, #20]
   87050:	e7c1      	b.n	86fd6 <__d2b+0x3e>
   87052:	bf00      	nop

00087054 <_realloc_r>:
   87054:	e92d 4ff0 	stmdb	sp!, {r4, r5, r6, r7, r8, r9, sl, fp, lr}
   87058:	460c      	mov	r4, r1
   8705a:	b083      	sub	sp, #12
   8705c:	4690      	mov	r8, r2
   8705e:	4681      	mov	r9, r0
   87060:	2900      	cmp	r1, #0
   87062:	f000 80ba 	beq.w	871da <_realloc_r+0x186>
   87066:	f7ff fce7 	bl	86a38 <__malloc_lock>
   8706a:	f108 060b 	add.w	r6, r8, #11
   8706e:	f854 3c04 	ldr.w	r3, [r4, #-4]
   87072:	2e16      	cmp	r6, #22
   87074:	f023 0503 	bic.w	r5, r3, #3
   87078:	f1a4 0708 	sub.w	r7, r4, #8
   8707c:	d84b      	bhi.n	87116 <_realloc_r+0xc2>
   8707e:	2110      	movs	r1, #16
   87080:	460e      	mov	r6, r1
   87082:	45b0      	cmp	r8, r6
   87084:	d84c      	bhi.n	87120 <_realloc_r+0xcc>
   87086:	428d      	cmp	r5, r1
   87088:	da51      	bge.n	8712e <_realloc_r+0xda>
   8708a:	f8df b384 	ldr.w	fp, [pc, #900]	; 87410 <_realloc_r+0x3bc>
   8708e:	1978      	adds	r0, r7, r5
   87090:	f8db e008 	ldr.w	lr, [fp, #8]
   87094:	4586      	cmp	lr, r0
   87096:	f000 80a6 	beq.w	871e6 <_realloc_r+0x192>
   8709a:	6842      	ldr	r2, [r0, #4]
   8709c:	f022 0c01 	bic.w	ip, r2, #1
   870a0:	4484      	add	ip, r0
   870a2:	f8dc c004 	ldr.w	ip, [ip, #4]
   870a6:	f01c 0f01 	tst.w	ip, #1
   870aa:	d054      	beq.n	87156 <_realloc_r+0x102>
   870ac:	2200      	movs	r2, #0
   870ae:	4610      	mov	r0, r2
   870b0:	07db      	lsls	r3, r3, #31
   870b2:	d46f      	bmi.n	87194 <_realloc_r+0x140>
   870b4:	f854 3c08 	ldr.w	r3, [r4, #-8]
   870b8:	ebc3 0a07 	rsb	sl, r3, r7
   870bc:	f8da 3004 	ldr.w	r3, [sl, #4]
   870c0:	f023 0303 	bic.w	r3, r3, #3
   870c4:	442b      	add	r3, r5
   870c6:	2800      	cmp	r0, #0
   870c8:	d062      	beq.n	87190 <_realloc_r+0x13c>
   870ca:	4570      	cmp	r0, lr
   870cc:	f000 80e9 	beq.w	872a2 <_realloc_r+0x24e>
   870d0:	eb02 0e03 	add.w	lr, r2, r3
   870d4:	458e      	cmp	lr, r1
   870d6:	db5b      	blt.n	87190 <_realloc_r+0x13c>
   870d8:	68c3      	ldr	r3, [r0, #12]
   870da:	6882      	ldr	r2, [r0, #8]
   870dc:	46d0      	mov	r8, sl
   870de:	60d3      	str	r3, [r2, #12]
   870e0:	609a      	str	r2, [r3, #8]
   870e2:	f858 1f08 	ldr.w	r1, [r8, #8]!
   870e6:	f8da 300c 	ldr.w	r3, [sl, #12]
   870ea:	1f2a      	subs	r2, r5, #4
   870ec:	2a24      	cmp	r2, #36	; 0x24
   870ee:	60cb      	str	r3, [r1, #12]
   870f0:	6099      	str	r1, [r3, #8]
   870f2:	f200 8123 	bhi.w	8733c <_realloc_r+0x2e8>
   870f6:	2a13      	cmp	r2, #19
   870f8:	f240 80b0 	bls.w	8725c <_realloc_r+0x208>
   870fc:	6823      	ldr	r3, [r4, #0]
   870fe:	2a1b      	cmp	r2, #27
   87100:	f8ca 3008 	str.w	r3, [sl, #8]
   87104:	6863      	ldr	r3, [r4, #4]
   87106:	f8ca 300c 	str.w	r3, [sl, #12]
   8710a:	f200 812b 	bhi.w	87364 <_realloc_r+0x310>
   8710e:	3408      	adds	r4, #8
   87110:	f10a 0310 	add.w	r3, sl, #16
   87114:	e0a3      	b.n	8725e <_realloc_r+0x20a>
   87116:	f026 0607 	bic.w	r6, r6, #7
   8711a:	2e00      	cmp	r6, #0
   8711c:	4631      	mov	r1, r6
   8711e:	dab0      	bge.n	87082 <_realloc_r+0x2e>
   87120:	230c      	movs	r3, #12
   87122:	2000      	movs	r0, #0
   87124:	f8c9 3000 	str.w	r3, [r9]
   87128:	b003      	add	sp, #12
   8712a:	e8bd 8ff0 	ldmia.w	sp!, {r4, r5, r6, r7, r8, r9, sl, fp, pc}
   8712e:	46a0      	mov	r8, r4
   87130:	1baa      	subs	r2, r5, r6
   87132:	2a0f      	cmp	r2, #15
   87134:	f003 0301 	and.w	r3, r3, #1
   87138:	d81a      	bhi.n	87170 <_realloc_r+0x11c>
   8713a:	432b      	orrs	r3, r5
   8713c:	607b      	str	r3, [r7, #4]
   8713e:	443d      	add	r5, r7
   87140:	686b      	ldr	r3, [r5, #4]
   87142:	f043 0301 	orr.w	r3, r3, #1
   87146:	606b      	str	r3, [r5, #4]
   87148:	4648      	mov	r0, r9
   8714a:	f7ff fc77 	bl	86a3c <__malloc_unlock>
   8714e:	4640      	mov	r0, r8
   87150:	b003      	add	sp, #12
   87152:	e8bd 8ff0 	ldmia.w	sp!, {r4, r5, r6, r7, r8, r9, sl, fp, pc}
   87156:	f022 0203 	bic.w	r2, r2, #3
   8715a:	eb02 0c05 	add.w	ip, r2, r5
   8715e:	458c      	cmp	ip, r1
   87160:	dba6      	blt.n	870b0 <_realloc_r+0x5c>
   87162:	68c2      	ldr	r2, [r0, #12]
   87164:	6881      	ldr	r1, [r0, #8]
   87166:	46a0      	mov	r8, r4
   87168:	60ca      	str	r2, [r1, #12]
   8716a:	4665      	mov	r5, ip
   8716c:	6091      	str	r1, [r2, #8]
   8716e:	e7df      	b.n	87130 <_realloc_r+0xdc>
   87170:	19b9      	adds	r1, r7, r6
   87172:	4333      	orrs	r3, r6
   87174:	f042 0001 	orr.w	r0, r2, #1
   87178:	607b      	str	r3, [r7, #4]
   8717a:	440a      	add	r2, r1
   8717c:	6048      	str	r0, [r1, #4]
   8717e:	6853      	ldr	r3, [r2, #4]
   87180:	3108      	adds	r1, #8
   87182:	f043 0301 	orr.w	r3, r3, #1
   87186:	6053      	str	r3, [r2, #4]
   87188:	4648      	mov	r0, r9
   8718a:	f7fe fd91 	bl	85cb0 <_free_r>
   8718e:	e7db      	b.n	87148 <_realloc_r+0xf4>
   87190:	428b      	cmp	r3, r1
   87192:	da33      	bge.n	871fc <_realloc_r+0x1a8>
   87194:	4641      	mov	r1, r8
   87196:	4648      	mov	r0, r9
   87198:	f7ff f88c 	bl	862b4 <_malloc_r>
   8719c:	4680      	mov	r8, r0
   8719e:	2800      	cmp	r0, #0
   871a0:	d0d2      	beq.n	87148 <_realloc_r+0xf4>
   871a2:	f854 3c04 	ldr.w	r3, [r4, #-4]
   871a6:	f1a0 0108 	sub.w	r1, r0, #8
   871aa:	f023 0201 	bic.w	r2, r3, #1
   871ae:	443a      	add	r2, r7
   871b0:	4291      	cmp	r1, r2
   871b2:	f000 80bc 	beq.w	8732e <_realloc_r+0x2da>
   871b6:	1f2a      	subs	r2, r5, #4
   871b8:	2a24      	cmp	r2, #36	; 0x24
   871ba:	d86e      	bhi.n	8729a <_realloc_r+0x246>
   871bc:	2a13      	cmp	r2, #19
   871be:	d842      	bhi.n	87246 <_realloc_r+0x1f2>
   871c0:	4603      	mov	r3, r0
   871c2:	4622      	mov	r2, r4
   871c4:	6811      	ldr	r1, [r2, #0]
   871c6:	6019      	str	r1, [r3, #0]
   871c8:	6851      	ldr	r1, [r2, #4]
   871ca:	6059      	str	r1, [r3, #4]
   871cc:	6892      	ldr	r2, [r2, #8]
   871ce:	609a      	str	r2, [r3, #8]
   871d0:	4621      	mov	r1, r4
   871d2:	4648      	mov	r0, r9
   871d4:	f7fe fd6c 	bl	85cb0 <_free_r>
   871d8:	e7b6      	b.n	87148 <_realloc_r+0xf4>
   871da:	4611      	mov	r1, r2
   871dc:	b003      	add	sp, #12
   871de:	e8bd 4ff0 	ldmia.w	sp!, {r4, r5, r6, r7, r8, r9, sl, fp, lr}
   871e2:	f7ff b867 	b.w	862b4 <_malloc_r>
   871e6:	f8de 2004 	ldr.w	r2, [lr, #4]
   871ea:	f106 0c10 	add.w	ip, r6, #16
   871ee:	f022 0203 	bic.w	r2, r2, #3
   871f2:	1950      	adds	r0, r2, r5
   871f4:	4560      	cmp	r0, ip
   871f6:	da3d      	bge.n	87274 <_realloc_r+0x220>
   871f8:	4670      	mov	r0, lr
   871fa:	e759      	b.n	870b0 <_realloc_r+0x5c>
   871fc:	46d0      	mov	r8, sl
   871fe:	f858 0f08 	ldr.w	r0, [r8, #8]!
   87202:	f8da 100c 	ldr.w	r1, [sl, #12]
   87206:	1f2a      	subs	r2, r5, #4
   87208:	2a24      	cmp	r2, #36	; 0x24
   8720a:	60c1      	str	r1, [r0, #12]
   8720c:	6088      	str	r0, [r1, #8]
   8720e:	f200 80a0 	bhi.w	87352 <_realloc_r+0x2fe>
   87212:	2a13      	cmp	r2, #19
   87214:	f240 809b 	bls.w	8734e <_realloc_r+0x2fa>
   87218:	6821      	ldr	r1, [r4, #0]
   8721a:	2a1b      	cmp	r2, #27
   8721c:	f8ca 1008 	str.w	r1, [sl, #8]
   87220:	6861      	ldr	r1, [r4, #4]
   87222:	f8ca 100c 	str.w	r1, [sl, #12]
   87226:	f200 80b2 	bhi.w	8738e <_realloc_r+0x33a>
   8722a:	3408      	adds	r4, #8
   8722c:	f10a 0210 	add.w	r2, sl, #16
   87230:	6821      	ldr	r1, [r4, #0]
   87232:	461d      	mov	r5, r3
   87234:	6011      	str	r1, [r2, #0]
   87236:	6861      	ldr	r1, [r4, #4]
   87238:	4657      	mov	r7, sl
   8723a:	6051      	str	r1, [r2, #4]
   8723c:	68a3      	ldr	r3, [r4, #8]
   8723e:	6093      	str	r3, [r2, #8]
   87240:	f8da 3004 	ldr.w	r3, [sl, #4]
   87244:	e774      	b.n	87130 <_realloc_r+0xdc>
   87246:	6823      	ldr	r3, [r4, #0]
   87248:	2a1b      	cmp	r2, #27
   8724a:	6003      	str	r3, [r0, #0]
   8724c:	6863      	ldr	r3, [r4, #4]
   8724e:	6043      	str	r3, [r0, #4]
   87250:	d862      	bhi.n	87318 <_realloc_r+0x2c4>
   87252:	f100 0308 	add.w	r3, r0, #8
   87256:	f104 0208 	add.w	r2, r4, #8
   8725a:	e7b3      	b.n	871c4 <_realloc_r+0x170>
   8725c:	4643      	mov	r3, r8
   8725e:	6822      	ldr	r2, [r4, #0]
   87260:	4675      	mov	r5, lr
   87262:	601a      	str	r2, [r3, #0]
   87264:	6862      	ldr	r2, [r4, #4]
   87266:	4657      	mov	r7, sl
   87268:	605a      	str	r2, [r3, #4]
   8726a:	68a2      	ldr	r2, [r4, #8]
   8726c:	609a      	str	r2, [r3, #8]
   8726e:	f8da 3004 	ldr.w	r3, [sl, #4]
   87272:	e75d      	b.n	87130 <_realloc_r+0xdc>
   87274:	1b83      	subs	r3, r0, r6
   87276:	4437      	add	r7, r6
   87278:	f043 0301 	orr.w	r3, r3, #1
   8727c:	f8cb 7008 	str.w	r7, [fp, #8]
   87280:	607b      	str	r3, [r7, #4]
   87282:	f854 3c04 	ldr.w	r3, [r4, #-4]
   87286:	4648      	mov	r0, r9
   87288:	f003 0301 	and.w	r3, r3, #1
   8728c:	431e      	orrs	r6, r3
   8728e:	f844 6c04 	str.w	r6, [r4, #-4]
   87292:	f7ff fbd3 	bl	86a3c <__malloc_unlock>
   87296:	4620      	mov	r0, r4
   87298:	e75a      	b.n	87150 <_realloc_r+0xfc>
   8729a:	4621      	mov	r1, r4
   8729c:	f7ff fb66 	bl	8696c <memmove>
   872a0:	e796      	b.n	871d0 <_realloc_r+0x17c>
   872a2:	eb02 0c03 	add.w	ip, r2, r3
   872a6:	f106 0210 	add.w	r2, r6, #16
   872aa:	4594      	cmp	ip, r2
   872ac:	f6ff af70 	blt.w	87190 <_realloc_r+0x13c>
   872b0:	4657      	mov	r7, sl
   872b2:	f857 1f08 	ldr.w	r1, [r7, #8]!
   872b6:	f8da 300c 	ldr.w	r3, [sl, #12]
   872ba:	1f2a      	subs	r2, r5, #4
   872bc:	2a24      	cmp	r2, #36	; 0x24
   872be:	60cb      	str	r3, [r1, #12]
   872c0:	6099      	str	r1, [r3, #8]
   872c2:	f200 8086 	bhi.w	873d2 <_realloc_r+0x37e>
   872c6:	2a13      	cmp	r2, #19
   872c8:	d977      	bls.n	873ba <_realloc_r+0x366>
   872ca:	6823      	ldr	r3, [r4, #0]
   872cc:	2a1b      	cmp	r2, #27
   872ce:	f8ca 3008 	str.w	r3, [sl, #8]
   872d2:	6863      	ldr	r3, [r4, #4]
   872d4:	f8ca 300c 	str.w	r3, [sl, #12]
   872d8:	f200 8084 	bhi.w	873e4 <_realloc_r+0x390>
   872dc:	3408      	adds	r4, #8
   872de:	f10a 0310 	add.w	r3, sl, #16
   872e2:	6822      	ldr	r2, [r4, #0]
   872e4:	601a      	str	r2, [r3, #0]
   872e6:	6862      	ldr	r2, [r4, #4]
   872e8:	605a      	str	r2, [r3, #4]
   872ea:	68a2      	ldr	r2, [r4, #8]
   872ec:	609a      	str	r2, [r3, #8]
   872ee:	ebc6 020c 	rsb	r2, r6, ip
   872f2:	eb0a 0306 	add.w	r3, sl, r6
   872f6:	f042 0201 	orr.w	r2, r2, #1
   872fa:	f8cb 3008 	str.w	r3, [fp, #8]
   872fe:	605a      	str	r2, [r3, #4]
   87300:	f8da 3004 	ldr.w	r3, [sl, #4]
   87304:	4648      	mov	r0, r9
   87306:	f003 0301 	and.w	r3, r3, #1
   8730a:	431e      	orrs	r6, r3
   8730c:	f8ca 6004 	str.w	r6, [sl, #4]
   87310:	f7ff fb94 	bl	86a3c <__malloc_unlock>
   87314:	4638      	mov	r0, r7
   87316:	e71b      	b.n	87150 <_realloc_r+0xfc>
   87318:	68a3      	ldr	r3, [r4, #8]
   8731a:	2a24      	cmp	r2, #36	; 0x24
   8731c:	6083      	str	r3, [r0, #8]
   8731e:	68e3      	ldr	r3, [r4, #12]
   87320:	60c3      	str	r3, [r0, #12]
   87322:	d02b      	beq.n	8737c <_realloc_r+0x328>
   87324:	f100 0310 	add.w	r3, r0, #16
   87328:	f104 0210 	add.w	r2, r4, #16
   8732c:	e74a      	b.n	871c4 <_realloc_r+0x170>
   8732e:	f850 2c04 	ldr.w	r2, [r0, #-4]
   87332:	46a0      	mov	r8, r4
   87334:	f022 0203 	bic.w	r2, r2, #3
   87338:	4415      	add	r5, r2
   8733a:	e6f9      	b.n	87130 <_realloc_r+0xdc>
   8733c:	4621      	mov	r1, r4
   8733e:	4640      	mov	r0, r8
   87340:	4675      	mov	r5, lr
   87342:	4657      	mov	r7, sl
   87344:	f7ff fb12 	bl	8696c <memmove>
   87348:	f8da 3004 	ldr.w	r3, [sl, #4]
   8734c:	e6f0      	b.n	87130 <_realloc_r+0xdc>
   8734e:	4642      	mov	r2, r8
   87350:	e76e      	b.n	87230 <_realloc_r+0x1dc>
   87352:	4621      	mov	r1, r4
   87354:	4640      	mov	r0, r8
   87356:	461d      	mov	r5, r3
   87358:	4657      	mov	r7, sl
   8735a:	f7ff fb07 	bl	8696c <memmove>
   8735e:	f8da 3004 	ldr.w	r3, [sl, #4]
   87362:	e6e5      	b.n	87130 <_realloc_r+0xdc>
   87364:	68a3      	ldr	r3, [r4, #8]
   87366:	2a24      	cmp	r2, #36	; 0x24
   87368:	f8ca 3010 	str.w	r3, [sl, #16]
   8736c:	68e3      	ldr	r3, [r4, #12]
   8736e:	f8ca 3014 	str.w	r3, [sl, #20]
   87372:	d018      	beq.n	873a6 <_realloc_r+0x352>
   87374:	3410      	adds	r4, #16
   87376:	f10a 0318 	add.w	r3, sl, #24
   8737a:	e770      	b.n	8725e <_realloc_r+0x20a>
   8737c:	6922      	ldr	r2, [r4, #16]
   8737e:	f100 0318 	add.w	r3, r0, #24
   87382:	6102      	str	r2, [r0, #16]
   87384:	6961      	ldr	r1, [r4, #20]
   87386:	f104 0218 	add.w	r2, r4, #24
   8738a:	6141      	str	r1, [r0, #20]
   8738c:	e71a      	b.n	871c4 <_realloc_r+0x170>
   8738e:	68a1      	ldr	r1, [r4, #8]
   87390:	2a24      	cmp	r2, #36	; 0x24
   87392:	f8ca 1010 	str.w	r1, [sl, #16]
   87396:	68e1      	ldr	r1, [r4, #12]
   87398:	f8ca 1014 	str.w	r1, [sl, #20]
   8739c:	d00f      	beq.n	873be <_realloc_r+0x36a>
   8739e:	3410      	adds	r4, #16
   873a0:	f10a 0218 	add.w	r2, sl, #24
   873a4:	e744      	b.n	87230 <_realloc_r+0x1dc>
   873a6:	6922      	ldr	r2, [r4, #16]
   873a8:	f10a 0320 	add.w	r3, sl, #32
   873ac:	f8ca 2018 	str.w	r2, [sl, #24]
   873b0:	6962      	ldr	r2, [r4, #20]
   873b2:	3418      	adds	r4, #24
   873b4:	f8ca 201c 	str.w	r2, [sl, #28]
   873b8:	e751      	b.n	8725e <_realloc_r+0x20a>
   873ba:	463b      	mov	r3, r7
   873bc:	e791      	b.n	872e2 <_realloc_r+0x28e>
   873be:	6921      	ldr	r1, [r4, #16]
   873c0:	f10a 0220 	add.w	r2, sl, #32
   873c4:	f8ca 1018 	str.w	r1, [sl, #24]
   873c8:	6961      	ldr	r1, [r4, #20]
   873ca:	3418      	adds	r4, #24
   873cc:	f8ca 101c 	str.w	r1, [sl, #28]
   873d0:	e72e      	b.n	87230 <_realloc_r+0x1dc>
   873d2:	4621      	mov	r1, r4
   873d4:	4638      	mov	r0, r7
   873d6:	f8cd c004 	str.w	ip, [sp, #4]
   873da:	f7ff fac7 	bl	8696c <memmove>
   873de:	f8dd c004 	ldr.w	ip, [sp, #4]
   873e2:	e784      	b.n	872ee <_realloc_r+0x29a>
   873e4:	68a3      	ldr	r3, [r4, #8]
   873e6:	2a24      	cmp	r2, #36	; 0x24
   873e8:	f8ca 3010 	str.w	r3, [sl, #16]
   873ec:	68e3      	ldr	r3, [r4, #12]
   873ee:	f8ca 3014 	str.w	r3, [sl, #20]
   873f2:	d003      	beq.n	873fc <_realloc_r+0x3a8>
   873f4:	3410      	adds	r4, #16
   873f6:	f10a 0318 	add.w	r3, sl, #24
   873fa:	e772      	b.n	872e2 <_realloc_r+0x28e>
   873fc:	6922      	ldr	r2, [r4, #16]
   873fe:	f10a 0320 	add.w	r3, sl, #32
   87402:	f8ca 2018 	str.w	r2, [sl, #24]
   87406:	6962      	ldr	r2, [r4, #20]
   87408:	3418      	adds	r4, #24
   8740a:	f8ca 201c 	str.w	r2, [sl, #28]
   8740e:	e768      	b.n	872e2 <_realloc_r+0x28e>
   87410:	200705c8 	.word	0x200705c8

00087414 <_sbrk_r>:
   87414:	b538      	push	{r3, r4, r5, lr}
   87416:	4c07      	ldr	r4, [pc, #28]	; (87434 <_sbrk_r+0x20>)
   87418:	2300      	movs	r3, #0
   8741a:	4605      	mov	r5, r0
   8741c:	4608      	mov	r0, r1
   8741e:	6023      	str	r3, [r4, #0]
   87420:	f7f9 fe7c 	bl	8111c <_sbrk>
   87424:	1c43      	adds	r3, r0, #1
   87426:	d000      	beq.n	8742a <_sbrk_r+0x16>
   87428:	bd38      	pop	{r3, r4, r5, pc}
   8742a:	6823      	ldr	r3, [r4, #0]
   8742c:	2b00      	cmp	r3, #0
   8742e:	d0fb      	beq.n	87428 <_sbrk_r+0x14>
   87430:	602b      	str	r3, [r5, #0]
   87432:	bd38      	pop	{r3, r4, r5, pc}
   87434:	20070b78 	.word	0x20070b78

00087438 <__sread>:
   87438:	b510      	push	{r4, lr}
   8743a:	460c      	mov	r4, r1
   8743c:	f9b1 100e 	ldrsh.w	r1, [r1, #14]
   87440:	f000 faa2 	bl	87988 <_read_r>
   87444:	2800      	cmp	r0, #0
   87446:	db03      	blt.n	87450 <__sread+0x18>
   87448:	6d23      	ldr	r3, [r4, #80]	; 0x50
   8744a:	4403      	add	r3, r0
   8744c:	6523      	str	r3, [r4, #80]	; 0x50
   8744e:	bd10      	pop	{r4, pc}
   87450:	89a3      	ldrh	r3, [r4, #12]
   87452:	f423 5380 	bic.w	r3, r3, #4096	; 0x1000
   87456:	81a3      	strh	r3, [r4, #12]
   87458:	bd10      	pop	{r4, pc}
   8745a:	bf00      	nop

0008745c <__swrite>:
   8745c:	e92d 41f0 	stmdb	sp!, {r4, r5, r6, r7, r8, lr}
   87460:	460c      	mov	r4, r1
   87462:	8989      	ldrh	r1, [r1, #12]
   87464:	461d      	mov	r5, r3
   87466:	05cb      	lsls	r3, r1, #23
   87468:	4616      	mov	r6, r2
   8746a:	4607      	mov	r7, r0
   8746c:	d506      	bpl.n	8747c <__swrite+0x20>
   8746e:	f9b4 100e 	ldrsh.w	r1, [r4, #14]
   87472:	2200      	movs	r2, #0
   87474:	2302      	movs	r3, #2
   87476:	f000 fa73 	bl	87960 <_lseek_r>
   8747a:	89a1      	ldrh	r1, [r4, #12]
   8747c:	f421 5180 	bic.w	r1, r1, #4096	; 0x1000
   87480:	81a1      	strh	r1, [r4, #12]
   87482:	4638      	mov	r0, r7
   87484:	f9b4 100e 	ldrsh.w	r1, [r4, #14]
   87488:	4632      	mov	r2, r6
   8748a:	462b      	mov	r3, r5
   8748c:	e8bd 41f0 	ldmia.w	sp!, {r4, r5, r6, r7, r8, lr}
   87490:	f000 b94e 	b.w	87730 <_write_r>

00087494 <__sseek>:
   87494:	b510      	push	{r4, lr}
   87496:	460c      	mov	r4, r1
   87498:	f9b1 100e 	ldrsh.w	r1, [r1, #14]
   8749c:	f000 fa60 	bl	87960 <_lseek_r>
   874a0:	89a3      	ldrh	r3, [r4, #12]
   874a2:	1c42      	adds	r2, r0, #1
   874a4:	bf0e      	itee	eq
   874a6:	f423 5380 	biceq.w	r3, r3, #4096	; 0x1000
   874aa:	f443 5380 	orrne.w	r3, r3, #4096	; 0x1000
   874ae:	6520      	strne	r0, [r4, #80]	; 0x50
   874b0:	81a3      	strh	r3, [r4, #12]
   874b2:	bd10      	pop	{r4, pc}

000874b4 <__sclose>:
   874b4:	f9b1 100e 	ldrsh.w	r1, [r1, #14]
   874b8:	f000 b9d2 	b.w	87860 <_close_r>

000874bc <strlen>:
   874bc:	f020 0103 	bic.w	r1, r0, #3
   874c0:	f010 0003 	ands.w	r0, r0, #3
   874c4:	f1c0 0000 	rsb	r0, r0, #0
   874c8:	f851 3b04 	ldr.w	r3, [r1], #4
   874cc:	f100 0c04 	add.w	ip, r0, #4
   874d0:	ea4f 0ccc 	mov.w	ip, ip, lsl #3
   874d4:	f06f 0200 	mvn.w	r2, #0
   874d8:	bf1c      	itt	ne
   874da:	fa22 f20c 	lsrne.w	r2, r2, ip
   874de:	4313      	orrne	r3, r2
   874e0:	f04f 0c01 	mov.w	ip, #1
   874e4:	ea4c 2c0c 	orr.w	ip, ip, ip, lsl #8
   874e8:	ea4c 4c0c 	orr.w	ip, ip, ip, lsl #16
   874ec:	eba3 020c 	sub.w	r2, r3, ip
   874f0:	ea22 0203 	bic.w	r2, r2, r3
   874f4:	ea12 12cc 	ands.w	r2, r2, ip, lsl #7
   874f8:	bf04      	itt	eq
   874fa:	f851 3b04 	ldreq.w	r3, [r1], #4
   874fe:	3004      	addeq	r0, #4
   87500:	d0f4      	beq.n	874ec <strlen+0x30>
   87502:	f013 0fff 	tst.w	r3, #255	; 0xff
   87506:	bf1f      	itttt	ne
   87508:	3001      	addne	r0, #1
   8750a:	f413 4f7f 	tstne.w	r3, #65280	; 0xff00
   8750e:	3001      	addne	r0, #1
   87510:	f413 0f7f 	tstne.w	r3, #16711680	; 0xff0000
   87514:	bf18      	it	ne
   87516:	3001      	addne	r0, #1
   87518:	4770      	bx	lr
   8751a:	bf00      	nop

0008751c <__ssprint_r>:
   8751c:	e92d 4ff0 	stmdb	sp!, {r4, r5, r6, r7, r8, r9, sl, fp, lr}
   87520:	6894      	ldr	r4, [r2, #8]
   87522:	b083      	sub	sp, #12
   87524:	4692      	mov	sl, r2
   87526:	4680      	mov	r8, r0
   87528:	460d      	mov	r5, r1
   8752a:	6816      	ldr	r6, [r2, #0]
   8752c:	2c00      	cmp	r4, #0
   8752e:	d06f      	beq.n	87610 <__ssprint_r+0xf4>
   87530:	f04f 0b00 	mov.w	fp, #0
   87534:	6808      	ldr	r0, [r1, #0]
   87536:	688b      	ldr	r3, [r1, #8]
   87538:	465c      	mov	r4, fp
   8753a:	2c00      	cmp	r4, #0
   8753c:	d043      	beq.n	875c6 <__ssprint_r+0xaa>
   8753e:	429c      	cmp	r4, r3
   87540:	461f      	mov	r7, r3
   87542:	d345      	bcc.n	875d0 <__ssprint_r+0xb4>
   87544:	89ab      	ldrh	r3, [r5, #12]
   87546:	f413 6f90 	tst.w	r3, #1152	; 0x480
   8754a:	d044      	beq.n	875d6 <__ssprint_r+0xba>
   8754c:	696f      	ldr	r7, [r5, #20]
   8754e:	6929      	ldr	r1, [r5, #16]
   87550:	eb07 0747 	add.w	r7, r7, r7, lsl #1
   87554:	eb07 77d7 	add.w	r7, r7, r7, lsr #31
   87558:	ebc1 0900 	rsb	r9, r1, r0
   8755c:	1c62      	adds	r2, r4, #1
   8755e:	107f      	asrs	r7, r7, #1
   87560:	444a      	add	r2, r9
   87562:	4297      	cmp	r7, r2
   87564:	bf34      	ite	cc
   87566:	4617      	movcc	r7, r2
   87568:	463a      	movcs	r2, r7
   8756a:	055b      	lsls	r3, r3, #21
   8756c:	d535      	bpl.n	875da <__ssprint_r+0xbe>
   8756e:	4611      	mov	r1, r2
   87570:	4640      	mov	r0, r8
   87572:	f7fe fe9f 	bl	862b4 <_malloc_r>
   87576:	2800      	cmp	r0, #0
   87578:	d039      	beq.n	875ee <__ssprint_r+0xd2>
   8757a:	6929      	ldr	r1, [r5, #16]
   8757c:	464a      	mov	r2, r9
   8757e:	9001      	str	r0, [sp, #4]
   87580:	f7ff f97e 	bl	86880 <memcpy>
   87584:	89aa      	ldrh	r2, [r5, #12]
   87586:	9b01      	ldr	r3, [sp, #4]
   87588:	f422 6290 	bic.w	r2, r2, #1152	; 0x480
   8758c:	f042 0280 	orr.w	r2, r2, #128	; 0x80
   87590:	81aa      	strh	r2, [r5, #12]
   87592:	ebc9 0207 	rsb	r2, r9, r7
   87596:	eb03 0009 	add.w	r0, r3, r9
   8759a:	616f      	str	r7, [r5, #20]
   8759c:	612b      	str	r3, [r5, #16]
   8759e:	6028      	str	r0, [r5, #0]
   875a0:	60aa      	str	r2, [r5, #8]
   875a2:	4627      	mov	r7, r4
   875a4:	46a1      	mov	r9, r4
   875a6:	464a      	mov	r2, r9
   875a8:	4659      	mov	r1, fp
   875aa:	f7ff f9df 	bl	8696c <memmove>
   875ae:	f8da 2008 	ldr.w	r2, [sl, #8]
   875b2:	68ab      	ldr	r3, [r5, #8]
   875b4:	6828      	ldr	r0, [r5, #0]
   875b6:	1bdb      	subs	r3, r3, r7
   875b8:	4448      	add	r0, r9
   875ba:	1b14      	subs	r4, r2, r4
   875bc:	60ab      	str	r3, [r5, #8]
   875be:	6028      	str	r0, [r5, #0]
   875c0:	f8ca 4008 	str.w	r4, [sl, #8]
   875c4:	b324      	cbz	r4, 87610 <__ssprint_r+0xf4>
   875c6:	f8d6 b000 	ldr.w	fp, [r6]
   875ca:	6874      	ldr	r4, [r6, #4]
   875cc:	3608      	adds	r6, #8
   875ce:	e7b4      	b.n	8753a <__ssprint_r+0x1e>
   875d0:	4627      	mov	r7, r4
   875d2:	46a1      	mov	r9, r4
   875d4:	e7e7      	b.n	875a6 <__ssprint_r+0x8a>
   875d6:	46b9      	mov	r9, r7
   875d8:	e7e5      	b.n	875a6 <__ssprint_r+0x8a>
   875da:	4640      	mov	r0, r8
   875dc:	f7ff fd3a 	bl	87054 <_realloc_r>
   875e0:	4603      	mov	r3, r0
   875e2:	2800      	cmp	r0, #0
   875e4:	d1d5      	bne.n	87592 <__ssprint_r+0x76>
   875e6:	4640      	mov	r0, r8
   875e8:	6929      	ldr	r1, [r5, #16]
   875ea:	f7fe fb61 	bl	85cb0 <_free_r>
   875ee:	89aa      	ldrh	r2, [r5, #12]
   875f0:	230c      	movs	r3, #12
   875f2:	f8c8 3000 	str.w	r3, [r8]
   875f6:	f042 0240 	orr.w	r2, r2, #64	; 0x40
   875fa:	2300      	movs	r3, #0
   875fc:	f04f 30ff 	mov.w	r0, #4294967295
   87600:	81aa      	strh	r2, [r5, #12]
   87602:	f8ca 3008 	str.w	r3, [sl, #8]
   87606:	f8ca 3004 	str.w	r3, [sl, #4]
   8760a:	b003      	add	sp, #12
   8760c:	e8bd 8ff0 	ldmia.w	sp!, {r4, r5, r6, r7, r8, r9, sl, fp, pc}
   87610:	4620      	mov	r0, r4
   87612:	f8ca 4004 	str.w	r4, [sl, #4]
   87616:	b003      	add	sp, #12
   87618:	e8bd 8ff0 	ldmia.w	sp!, {r4, r5, r6, r7, r8, r9, sl, fp, pc}

0008761c <__swbuf_r>:
   8761c:	b5f8      	push	{r3, r4, r5, r6, r7, lr}
   8761e:	460d      	mov	r5, r1
   87620:	4614      	mov	r4, r2
   87622:	4607      	mov	r7, r0
   87624:	b110      	cbz	r0, 8762c <__swbuf_r+0x10>
   87626:	6b83      	ldr	r3, [r0, #56]	; 0x38
   87628:	2b00      	cmp	r3, #0
   8762a:	d048      	beq.n	876be <__swbuf_r+0xa2>
   8762c:	89a2      	ldrh	r2, [r4, #12]
   8762e:	69a0      	ldr	r0, [r4, #24]
   87630:	b293      	uxth	r3, r2
   87632:	60a0      	str	r0, [r4, #8]
   87634:	0718      	lsls	r0, r3, #28
   87636:	d538      	bpl.n	876aa <__swbuf_r+0x8e>
   87638:	6926      	ldr	r6, [r4, #16]
   8763a:	2e00      	cmp	r6, #0
   8763c:	d035      	beq.n	876aa <__swbuf_r+0x8e>
   8763e:	0499      	lsls	r1, r3, #18
   87640:	b2ed      	uxtb	r5, r5
   87642:	d515      	bpl.n	87670 <__swbuf_r+0x54>
   87644:	6823      	ldr	r3, [r4, #0]
   87646:	6962      	ldr	r2, [r4, #20]
   87648:	1b9e      	subs	r6, r3, r6
   8764a:	4296      	cmp	r6, r2
   8764c:	da1c      	bge.n	87688 <__swbuf_r+0x6c>
   8764e:	3601      	adds	r6, #1
   87650:	68a2      	ldr	r2, [r4, #8]
   87652:	1c59      	adds	r1, r3, #1
   87654:	3a01      	subs	r2, #1
   87656:	60a2      	str	r2, [r4, #8]
   87658:	6021      	str	r1, [r4, #0]
   8765a:	701d      	strb	r5, [r3, #0]
   8765c:	6963      	ldr	r3, [r4, #20]
   8765e:	42b3      	cmp	r3, r6
   87660:	d01a      	beq.n	87698 <__swbuf_r+0x7c>
   87662:	89a3      	ldrh	r3, [r4, #12]
   87664:	07db      	lsls	r3, r3, #31
   87666:	d501      	bpl.n	8766c <__swbuf_r+0x50>
   87668:	2d0a      	cmp	r5, #10
   8766a:	d015      	beq.n	87698 <__swbuf_r+0x7c>
   8766c:	4628      	mov	r0, r5
   8766e:	bdf8      	pop	{r3, r4, r5, r6, r7, pc}
   87670:	6e63      	ldr	r3, [r4, #100]	; 0x64
   87672:	f442 5200 	orr.w	r2, r2, #8192	; 0x2000
   87676:	f423 5300 	bic.w	r3, r3, #8192	; 0x2000
   8767a:	6663      	str	r3, [r4, #100]	; 0x64
   8767c:	6823      	ldr	r3, [r4, #0]
   8767e:	81a2      	strh	r2, [r4, #12]
   87680:	6962      	ldr	r2, [r4, #20]
   87682:	1b9e      	subs	r6, r3, r6
   87684:	4296      	cmp	r6, r2
   87686:	dbe2      	blt.n	8764e <__swbuf_r+0x32>
   87688:	4638      	mov	r0, r7
   8768a:	4621      	mov	r1, r4
   8768c:	f7fe f9b0 	bl	859f0 <_fflush_r>
   87690:	b940      	cbnz	r0, 876a4 <__swbuf_r+0x88>
   87692:	6823      	ldr	r3, [r4, #0]
   87694:	2601      	movs	r6, #1
   87696:	e7db      	b.n	87650 <__swbuf_r+0x34>
   87698:	4638      	mov	r0, r7
   8769a:	4621      	mov	r1, r4
   8769c:	f7fe f9a8 	bl	859f0 <_fflush_r>
   876a0:	2800      	cmp	r0, #0
   876a2:	d0e3      	beq.n	8766c <__swbuf_r+0x50>
   876a4:	f04f 30ff 	mov.w	r0, #4294967295
   876a8:	bdf8      	pop	{r3, r4, r5, r6, r7, pc}
   876aa:	4638      	mov	r0, r7
   876ac:	4621      	mov	r1, r4
   876ae:	f7fd f8d3 	bl	84858 <__swsetup_r>
   876b2:	2800      	cmp	r0, #0
   876b4:	d1f6      	bne.n	876a4 <__swbuf_r+0x88>
   876b6:	89a2      	ldrh	r2, [r4, #12]
   876b8:	6926      	ldr	r6, [r4, #16]
   876ba:	b293      	uxth	r3, r2
   876bc:	e7bf      	b.n	8763e <__swbuf_r+0x22>
   876be:	f7fe f9b3 	bl	85a28 <__sinit>
   876c2:	e7b3      	b.n	8762c <__swbuf_r+0x10>

000876c4 <_wcrtomb_r>:
   876c4:	e92d 41f0 	stmdb	sp!, {r4, r5, r6, r7, r8, lr}
   876c8:	461e      	mov	r6, r3
   876ca:	b086      	sub	sp, #24
   876cc:	460c      	mov	r4, r1
   876ce:	4605      	mov	r5, r0
   876d0:	4617      	mov	r7, r2
   876d2:	4b0f      	ldr	r3, [pc, #60]	; (87710 <_wcrtomb_r+0x4c>)
   876d4:	b191      	cbz	r1, 876fc <_wcrtomb_r+0x38>
   876d6:	f8d3 8000 	ldr.w	r8, [r3]
   876da:	f7fe fd65 	bl	861a8 <__locale_charset>
   876de:	9600      	str	r6, [sp, #0]
   876e0:	4603      	mov	r3, r0
   876e2:	4621      	mov	r1, r4
   876e4:	463a      	mov	r2, r7
   876e6:	4628      	mov	r0, r5
   876e8:	47c0      	blx	r8
   876ea:	1c43      	adds	r3, r0, #1
   876ec:	d103      	bne.n	876f6 <_wcrtomb_r+0x32>
   876ee:	2200      	movs	r2, #0
   876f0:	238a      	movs	r3, #138	; 0x8a
   876f2:	6032      	str	r2, [r6, #0]
   876f4:	602b      	str	r3, [r5, #0]
   876f6:	b006      	add	sp, #24
   876f8:	e8bd 81f0 	ldmia.w	sp!, {r4, r5, r6, r7, r8, pc}
   876fc:	681f      	ldr	r7, [r3, #0]
   876fe:	f7fe fd53 	bl	861a8 <__locale_charset>
   87702:	9600      	str	r6, [sp, #0]
   87704:	4603      	mov	r3, r0
   87706:	4622      	mov	r2, r4
   87708:	4628      	mov	r0, r5
   8770a:	a903      	add	r1, sp, #12
   8770c:	47b8      	blx	r7
   8770e:	e7ec      	b.n	876ea <_wcrtomb_r+0x26>
   87710:	200709d8 	.word	0x200709d8

00087714 <__ascii_wctomb>:
   87714:	b121      	cbz	r1, 87720 <__ascii_wctomb+0xc>
   87716:	2aff      	cmp	r2, #255	; 0xff
   87718:	d804      	bhi.n	87724 <__ascii_wctomb+0x10>
   8771a:	700a      	strb	r2, [r1, #0]
   8771c:	2001      	movs	r0, #1
   8771e:	4770      	bx	lr
   87720:	4608      	mov	r0, r1
   87722:	4770      	bx	lr
   87724:	238a      	movs	r3, #138	; 0x8a
   87726:	6003      	str	r3, [r0, #0]
   87728:	f04f 30ff 	mov.w	r0, #4294967295
   8772c:	4770      	bx	lr
   8772e:	bf00      	nop

00087730 <_write_r>:
   87730:	b570      	push	{r4, r5, r6, lr}
   87732:	4c08      	ldr	r4, [pc, #32]	; (87754 <_write_r+0x24>)
   87734:	4606      	mov	r6, r0
   87736:	2500      	movs	r5, #0
   87738:	4608      	mov	r0, r1
   8773a:	4611      	mov	r1, r2
   8773c:	461a      	mov	r2, r3
   8773e:	6025      	str	r5, [r4, #0]
   87740:	f7f8 fd84 	bl	8024c <_write>
   87744:	1c43      	adds	r3, r0, #1
   87746:	d000      	beq.n	8774a <_write_r+0x1a>
   87748:	bd70      	pop	{r4, r5, r6, pc}
   8774a:	6823      	ldr	r3, [r4, #0]
   8774c:	2b00      	cmp	r3, #0
   8774e:	d0fb      	beq.n	87748 <_write_r+0x18>
   87750:	6033      	str	r3, [r6, #0]
   87752:	bd70      	pop	{r4, r5, r6, pc}
   87754:	20070b78 	.word	0x20070b78

00087758 <__register_exitproc>:
   87758:	b5f0      	push	{r4, r5, r6, r7, lr}
   8775a:	4c27      	ldr	r4, [pc, #156]	; (877f8 <__register_exitproc+0xa0>)
   8775c:	b085      	sub	sp, #20
   8775e:	6826      	ldr	r6, [r4, #0]
   87760:	4607      	mov	r7, r0
   87762:	f8d6 4148 	ldr.w	r4, [r6, #328]	; 0x148
   87766:	2c00      	cmp	r4, #0
   87768:	d040      	beq.n	877ec <__register_exitproc+0x94>
   8776a:	6865      	ldr	r5, [r4, #4]
   8776c:	2d1f      	cmp	r5, #31
   8776e:	dd1e      	ble.n	877ae <__register_exitproc+0x56>
   87770:	4822      	ldr	r0, [pc, #136]	; (877fc <__register_exitproc+0xa4>)
   87772:	b918      	cbnz	r0, 8777c <__register_exitproc+0x24>
   87774:	f04f 30ff 	mov.w	r0, #4294967295
   87778:	b005      	add	sp, #20
   8777a:	bdf0      	pop	{r4, r5, r6, r7, pc}
   8777c:	f44f 70c8 	mov.w	r0, #400	; 0x190
   87780:	9103      	str	r1, [sp, #12]
   87782:	9202      	str	r2, [sp, #8]
   87784:	9301      	str	r3, [sp, #4]
   87786:	f7fe fd8d 	bl	862a4 <malloc>
   8778a:	9903      	ldr	r1, [sp, #12]
   8778c:	4604      	mov	r4, r0
   8778e:	9a02      	ldr	r2, [sp, #8]
   87790:	9b01      	ldr	r3, [sp, #4]
   87792:	2800      	cmp	r0, #0
   87794:	d0ee      	beq.n	87774 <__register_exitproc+0x1c>
   87796:	f8d6 5148 	ldr.w	r5, [r6, #328]	; 0x148
   8779a:	2000      	movs	r0, #0
   8779c:	6025      	str	r5, [r4, #0]
   8779e:	6060      	str	r0, [r4, #4]
   877a0:	4605      	mov	r5, r0
   877a2:	f8c6 4148 	str.w	r4, [r6, #328]	; 0x148
   877a6:	f8c4 0188 	str.w	r0, [r4, #392]	; 0x188
   877aa:	f8c4 018c 	str.w	r0, [r4, #396]	; 0x18c
   877ae:	b93f      	cbnz	r7, 877c0 <__register_exitproc+0x68>
   877b0:	1c6b      	adds	r3, r5, #1
   877b2:	2000      	movs	r0, #0
   877b4:	3502      	adds	r5, #2
   877b6:	6063      	str	r3, [r4, #4]
   877b8:	f844 1025 	str.w	r1, [r4, r5, lsl #2]
   877bc:	b005      	add	sp, #20
   877be:	bdf0      	pop	{r4, r5, r6, r7, pc}
   877c0:	2601      	movs	r6, #1
   877c2:	40ae      	lsls	r6, r5
   877c4:	eb04 0085 	add.w	r0, r4, r5, lsl #2
   877c8:	f8c0 2088 	str.w	r2, [r0, #136]	; 0x88
   877cc:	f8d4 2188 	ldr.w	r2, [r4, #392]	; 0x188
   877d0:	2f02      	cmp	r7, #2
   877d2:	ea42 0206 	orr.w	r2, r2, r6
   877d6:	f8c4 2188 	str.w	r2, [r4, #392]	; 0x188
   877da:	f8c0 3108 	str.w	r3, [r0, #264]	; 0x108
   877de:	d1e7      	bne.n	877b0 <__register_exitproc+0x58>
   877e0:	f8d4 318c 	ldr.w	r3, [r4, #396]	; 0x18c
   877e4:	431e      	orrs	r6, r3
   877e6:	f8c4 618c 	str.w	r6, [r4, #396]	; 0x18c
   877ea:	e7e1      	b.n	877b0 <__register_exitproc+0x58>
   877ec:	f506 74a6 	add.w	r4, r6, #332	; 0x14c
   877f0:	f8c6 4148 	str.w	r4, [r6, #328]	; 0x148
   877f4:	e7b9      	b.n	8776a <__register_exitproc+0x12>
   877f6:	bf00      	nop
   877f8:	00087fc0 	.word	0x00087fc0
   877fc:	000862a5 	.word	0x000862a5

00087800 <_calloc_r>:
   87800:	b510      	push	{r4, lr}
   87802:	fb02 f101 	mul.w	r1, r2, r1
   87806:	f7fe fd55 	bl	862b4 <_malloc_r>
   8780a:	4604      	mov	r4, r0
   8780c:	b168      	cbz	r0, 8782a <_calloc_r+0x2a>
   8780e:	f850 2c04 	ldr.w	r2, [r0, #-4]
   87812:	f022 0203 	bic.w	r2, r2, #3
   87816:	3a04      	subs	r2, #4
   87818:	2a24      	cmp	r2, #36	; 0x24
   8781a:	d818      	bhi.n	8784e <_calloc_r+0x4e>
   8781c:	2a13      	cmp	r2, #19
   8781e:	d806      	bhi.n	8782e <_calloc_r+0x2e>
   87820:	4603      	mov	r3, r0
   87822:	2200      	movs	r2, #0
   87824:	601a      	str	r2, [r3, #0]
   87826:	605a      	str	r2, [r3, #4]
   87828:	609a      	str	r2, [r3, #8]
   8782a:	4620      	mov	r0, r4
   8782c:	bd10      	pop	{r4, pc}
   8782e:	2300      	movs	r3, #0
   87830:	2a1b      	cmp	r2, #27
   87832:	6003      	str	r3, [r0, #0]
   87834:	6043      	str	r3, [r0, #4]
   87836:	d90f      	bls.n	87858 <_calloc_r+0x58>
   87838:	2a24      	cmp	r2, #36	; 0x24
   8783a:	6083      	str	r3, [r0, #8]
   8783c:	60c3      	str	r3, [r0, #12]
   8783e:	bf05      	ittet	eq
   87840:	6103      	streq	r3, [r0, #16]
   87842:	6143      	streq	r3, [r0, #20]
   87844:	f100 0310 	addne.w	r3, r0, #16
   87848:	f100 0318 	addeq.w	r3, r0, #24
   8784c:	e7e9      	b.n	87822 <_calloc_r+0x22>
   8784e:	2100      	movs	r1, #0
   87850:	f7fa fe7e 	bl	82550 <memset>
   87854:	4620      	mov	r0, r4
   87856:	bd10      	pop	{r4, pc}
   87858:	f100 0308 	add.w	r3, r0, #8
   8785c:	e7e1      	b.n	87822 <_calloc_r+0x22>
   8785e:	bf00      	nop

00087860 <_close_r>:
   87860:	b538      	push	{r3, r4, r5, lr}
   87862:	4c07      	ldr	r4, [pc, #28]	; (87880 <_close_r+0x20>)
   87864:	2300      	movs	r3, #0
   87866:	4605      	mov	r5, r0
   87868:	4608      	mov	r0, r1
   8786a:	6023      	str	r3, [r4, #0]
   8786c:	f7f9 fc70 	bl	81150 <_close>
   87870:	1c43      	adds	r3, r0, #1
   87872:	d000      	beq.n	87876 <_close_r+0x16>
   87874:	bd38      	pop	{r3, r4, r5, pc}
   87876:	6823      	ldr	r3, [r4, #0]
   87878:	2b00      	cmp	r3, #0
   8787a:	d0fb      	beq.n	87874 <_close_r+0x14>
   8787c:	602b      	str	r3, [r5, #0]
   8787e:	bd38      	pop	{r3, r4, r5, pc}
   87880:	20070b78 	.word	0x20070b78

00087884 <_fclose_r>:
   87884:	b570      	push	{r4, r5, r6, lr}
   87886:	460c      	mov	r4, r1
   87888:	4605      	mov	r5, r0
   8788a:	b131      	cbz	r1, 8789a <_fclose_r+0x16>
   8788c:	b110      	cbz	r0, 87894 <_fclose_r+0x10>
   8788e:	6b83      	ldr	r3, [r0, #56]	; 0x38
   87890:	2b00      	cmp	r3, #0
   87892:	d02f      	beq.n	878f4 <_fclose_r+0x70>
   87894:	f9b4 300c 	ldrsh.w	r3, [r4, #12]
   87898:	b90b      	cbnz	r3, 8789e <_fclose_r+0x1a>
   8789a:	2000      	movs	r0, #0
   8789c:	bd70      	pop	{r4, r5, r6, pc}
   8789e:	4628      	mov	r0, r5
   878a0:	4621      	mov	r1, r4
   878a2:	f7fe f8a5 	bl	859f0 <_fflush_r>
   878a6:	6ae3      	ldr	r3, [r4, #44]	; 0x2c
   878a8:	4606      	mov	r6, r0
   878aa:	b133      	cbz	r3, 878ba <_fclose_r+0x36>
   878ac:	4628      	mov	r0, r5
   878ae:	69e1      	ldr	r1, [r4, #28]
   878b0:	4798      	blx	r3
   878b2:	2800      	cmp	r0, #0
   878b4:	bfb8      	it	lt
   878b6:	f04f 36ff 	movlt.w	r6, #4294967295
   878ba:	89a3      	ldrh	r3, [r4, #12]
   878bc:	061b      	lsls	r3, r3, #24
   878be:	d41c      	bmi.n	878fa <_fclose_r+0x76>
   878c0:	6b21      	ldr	r1, [r4, #48]	; 0x30
   878c2:	b141      	cbz	r1, 878d6 <_fclose_r+0x52>
   878c4:	f104 0340 	add.w	r3, r4, #64	; 0x40
   878c8:	4299      	cmp	r1, r3
   878ca:	d002      	beq.n	878d2 <_fclose_r+0x4e>
   878cc:	4628      	mov	r0, r5
   878ce:	f7fe f9ef 	bl	85cb0 <_free_r>
   878d2:	2300      	movs	r3, #0
   878d4:	6323      	str	r3, [r4, #48]	; 0x30
   878d6:	6c61      	ldr	r1, [r4, #68]	; 0x44
   878d8:	b121      	cbz	r1, 878e4 <_fclose_r+0x60>
   878da:	4628      	mov	r0, r5
   878dc:	f7fe f9e8 	bl	85cb0 <_free_r>
   878e0:	2300      	movs	r3, #0
   878e2:	6463      	str	r3, [r4, #68]	; 0x44
   878e4:	f7fe f91a 	bl	85b1c <__sfp_lock_acquire>
   878e8:	2300      	movs	r3, #0
   878ea:	81a3      	strh	r3, [r4, #12]
   878ec:	f7fe f918 	bl	85b20 <__sfp_lock_release>
   878f0:	4630      	mov	r0, r6
   878f2:	bd70      	pop	{r4, r5, r6, pc}
   878f4:	f7fe f898 	bl	85a28 <__sinit>
   878f8:	e7cc      	b.n	87894 <_fclose_r+0x10>
   878fa:	4628      	mov	r0, r5
   878fc:	6921      	ldr	r1, [r4, #16]
   878fe:	f7fe f9d7 	bl	85cb0 <_free_r>
   87902:	e7dd      	b.n	878c0 <_fclose_r+0x3c>

00087904 <fclose>:
   87904:	4b02      	ldr	r3, [pc, #8]	; (87910 <fclose+0xc>)
   87906:	4601      	mov	r1, r0
   87908:	6818      	ldr	r0, [r3, #0]
   8790a:	f7ff bfbb 	b.w	87884 <_fclose_r>
   8790e:	bf00      	nop
   87910:	20070568 	.word	0x20070568

00087914 <_fstat_r>:
   87914:	b538      	push	{r3, r4, r5, lr}
   87916:	4c08      	ldr	r4, [pc, #32]	; (87938 <_fstat_r+0x24>)
   87918:	2300      	movs	r3, #0
   8791a:	4605      	mov	r5, r0
   8791c:	4608      	mov	r0, r1
   8791e:	4611      	mov	r1, r2
   87920:	6023      	str	r3, [r4, #0]
   87922:	f7f9 fc19 	bl	81158 <_fstat>
   87926:	1c43      	adds	r3, r0, #1
   87928:	d000      	beq.n	8792c <_fstat_r+0x18>
   8792a:	bd38      	pop	{r3, r4, r5, pc}
   8792c:	6823      	ldr	r3, [r4, #0]
   8792e:	2b00      	cmp	r3, #0
   87930:	d0fb      	beq.n	8792a <_fstat_r+0x16>
   87932:	602b      	str	r3, [r5, #0]
   87934:	bd38      	pop	{r3, r4, r5, pc}
   87936:	bf00      	nop
   87938:	20070b78 	.word	0x20070b78

0008793c <_isatty_r>:
   8793c:	b538      	push	{r3, r4, r5, lr}
   8793e:	4c07      	ldr	r4, [pc, #28]	; (8795c <_isatty_r+0x20>)
   87940:	2300      	movs	r3, #0
   87942:	4605      	mov	r5, r0
   87944:	4608      	mov	r0, r1
   87946:	6023      	str	r3, [r4, #0]
   87948:	f7f9 fc0c 	bl	81164 <_isatty>
   8794c:	1c43      	adds	r3, r0, #1
   8794e:	d000      	beq.n	87952 <_isatty_r+0x16>
   87950:	bd38      	pop	{r3, r4, r5, pc}
   87952:	6823      	ldr	r3, [r4, #0]
   87954:	2b00      	cmp	r3, #0
   87956:	d0fb      	beq.n	87950 <_isatty_r+0x14>
   87958:	602b      	str	r3, [r5, #0]
   8795a:	bd38      	pop	{r3, r4, r5, pc}
   8795c:	20070b78 	.word	0x20070b78

00087960 <_lseek_r>:
   87960:	b570      	push	{r4, r5, r6, lr}
   87962:	4c08      	ldr	r4, [pc, #32]	; (87984 <_lseek_r+0x24>)
   87964:	4606      	mov	r6, r0
   87966:	2500      	movs	r5, #0
   87968:	4608      	mov	r0, r1
   8796a:	4611      	mov	r1, r2
   8796c:	461a      	mov	r2, r3
   8796e:	6025      	str	r5, [r4, #0]
   87970:	f7f9 fbfa 	bl	81168 <_lseek>
   87974:	1c43      	adds	r3, r0, #1
   87976:	d000      	beq.n	8797a <_lseek_r+0x1a>
   87978:	bd70      	pop	{r4, r5, r6, pc}
   8797a:	6823      	ldr	r3, [r4, #0]
   8797c:	2b00      	cmp	r3, #0
   8797e:	d0fb      	beq.n	87978 <_lseek_r+0x18>
   87980:	6033      	str	r3, [r6, #0]
   87982:	bd70      	pop	{r4, r5, r6, pc}
   87984:	20070b78 	.word	0x20070b78

00087988 <_read_r>:
   87988:	b570      	push	{r4, r5, r6, lr}
   8798a:	4c08      	ldr	r4, [pc, #32]	; (879ac <_read_r+0x24>)
   8798c:	4606      	mov	r6, r0
   8798e:	2500      	movs	r5, #0
   87990:	4608      	mov	r0, r1
   87992:	4611      	mov	r1, r2
   87994:	461a      	mov	r2, r3
   87996:	6025      	str	r5, [r4, #0]
   87998:	f7f8 fc38 	bl	8020c <_read>
   8799c:	1c43      	adds	r3, r0, #1
   8799e:	d000      	beq.n	879a2 <_read_r+0x1a>
   879a0:	bd70      	pop	{r4, r5, r6, pc}
   879a2:	6823      	ldr	r3, [r4, #0]
   879a4:	2b00      	cmp	r3, #0
   879a6:	d0fb      	beq.n	879a0 <_read_r+0x18>
   879a8:	6033      	str	r3, [r6, #0]
   879aa:	bd70      	pop	{r4, r5, r6, pc}
   879ac:	20070b78 	.word	0x20070b78

000879b0 <__aeabi_uldivmod>:
   879b0:	b94b      	cbnz	r3, 879c6 <__aeabi_uldivmod+0x16>
   879b2:	b942      	cbnz	r2, 879c6 <__aeabi_uldivmod+0x16>
   879b4:	2900      	cmp	r1, #0
   879b6:	bf08      	it	eq
   879b8:	2800      	cmpeq	r0, #0
   879ba:	d002      	beq.n	879c2 <__aeabi_uldivmod+0x12>
   879bc:	f04f 31ff 	mov.w	r1, #4294967295
   879c0:	4608      	mov	r0, r1
   879c2:	f000 b83b 	b.w	87a3c <__aeabi_idiv0>
   879c6:	b082      	sub	sp, #8
   879c8:	46ec      	mov	ip, sp
   879ca:	e92d 5000 	stmdb	sp!, {ip, lr}
   879ce:	f000 f81d 	bl	87a0c <__gnu_uldivmod_helper>
   879d2:	f8dd e004 	ldr.w	lr, [sp, #4]
   879d6:	b002      	add	sp, #8
   879d8:	bc0c      	pop	{r2, r3}
   879da:	4770      	bx	lr

000879dc <__gnu_ldivmod_helper>:
   879dc:	e92d 4f70 	stmdb	sp!, {r4, r5, r6, r8, r9, sl, fp, lr}
   879e0:	9e08      	ldr	r6, [sp, #32]
   879e2:	4614      	mov	r4, r2
   879e4:	461d      	mov	r5, r3
   879e6:	4680      	mov	r8, r0
   879e8:	4689      	mov	r9, r1
   879ea:	f000 f829 	bl	87a40 <__divdi3>
   879ee:	fb04 f301 	mul.w	r3, r4, r1
   879f2:	fba4 ab00 	umull	sl, fp, r4, r0
   879f6:	fb00 3205 	mla	r2, r0, r5, r3
   879fa:	4493      	add	fp, r2
   879fc:	ebb8 080a 	subs.w	r8, r8, sl
   87a00:	eb69 090b 	sbc.w	r9, r9, fp
   87a04:	e9c6 8900 	strd	r8, r9, [r6]
   87a08:	e8bd 8f70 	ldmia.w	sp!, {r4, r5, r6, r8, r9, sl, fp, pc}

00087a0c <__gnu_uldivmod_helper>:
   87a0c:	e92d 4f70 	stmdb	sp!, {r4, r5, r6, r8, r9, sl, fp, lr}
   87a10:	9e08      	ldr	r6, [sp, #32]
   87a12:	4614      	mov	r4, r2
   87a14:	461d      	mov	r5, r3
   87a16:	4680      	mov	r8, r0
   87a18:	4689      	mov	r9, r1
   87a1a:	f000 f961 	bl	87ce0 <__udivdi3>
   87a1e:	fb00 f505 	mul.w	r5, r0, r5
   87a22:	fba0 ab04 	umull	sl, fp, r0, r4
   87a26:	fb04 5401 	mla	r4, r4, r1, r5
   87a2a:	44a3      	add	fp, r4
   87a2c:	ebb8 080a 	subs.w	r8, r8, sl
   87a30:	eb69 090b 	sbc.w	r9, r9, fp
   87a34:	e9c6 8900 	strd	r8, r9, [r6]
   87a38:	e8bd 8f70 	ldmia.w	sp!, {r4, r5, r6, r8, r9, sl, fp, pc}

00087a3c <__aeabi_idiv0>:
   87a3c:	4770      	bx	lr
   87a3e:	bf00      	nop

00087a40 <__divdi3>:
   87a40:	2900      	cmp	r1, #0
   87a42:	e92d 0ff0 	stmdb	sp!, {r4, r5, r6, r7, r8, r9, sl, fp}
   87a46:	f2c0 80a1 	blt.w	87b8c <__divdi3+0x14c>
   87a4a:	2400      	movs	r4, #0
   87a4c:	2b00      	cmp	r3, #0
   87a4e:	f2c0 8098 	blt.w	87b82 <__divdi3+0x142>
   87a52:	4615      	mov	r5, r2
   87a54:	4606      	mov	r6, r0
   87a56:	460f      	mov	r7, r1
   87a58:	2b00      	cmp	r3, #0
   87a5a:	d13f      	bne.n	87adc <__divdi3+0x9c>
   87a5c:	428a      	cmp	r2, r1
   87a5e:	d958      	bls.n	87b12 <__divdi3+0xd2>
   87a60:	fab2 f382 	clz	r3, r2
   87a64:	b14b      	cbz	r3, 87a7a <__divdi3+0x3a>
   87a66:	f1c3 0220 	rsb	r2, r3, #32
   87a6a:	fa01 f703 	lsl.w	r7, r1, r3
   87a6e:	fa20 f202 	lsr.w	r2, r0, r2
   87a72:	409d      	lsls	r5, r3
   87a74:	fa00 f603 	lsl.w	r6, r0, r3
   87a78:	4317      	orrs	r7, r2
   87a7a:	0c29      	lsrs	r1, r5, #16
   87a7c:	fbb7 f2f1 	udiv	r2, r7, r1
   87a80:	fb01 7712 	mls	r7, r1, r2, r7
   87a84:	b2a8      	uxth	r0, r5
   87a86:	fb00 f302 	mul.w	r3, r0, r2
   87a8a:	ea4f 4c16 	mov.w	ip, r6, lsr #16
   87a8e:	ea4c 4707 	orr.w	r7, ip, r7, lsl #16
   87a92:	42bb      	cmp	r3, r7
   87a94:	d909      	bls.n	87aaa <__divdi3+0x6a>
   87a96:	197f      	adds	r7, r7, r5
   87a98:	f102 3cff 	add.w	ip, r2, #4294967295
   87a9c:	f080 8105 	bcs.w	87caa <__divdi3+0x26a>
   87aa0:	42bb      	cmp	r3, r7
   87aa2:	f240 8102 	bls.w	87caa <__divdi3+0x26a>
   87aa6:	3a02      	subs	r2, #2
   87aa8:	442f      	add	r7, r5
   87aaa:	1aff      	subs	r7, r7, r3
   87aac:	fbb7 f3f1 	udiv	r3, r7, r1
   87ab0:	fb01 7113 	mls	r1, r1, r3, r7
   87ab4:	fb00 f003 	mul.w	r0, r0, r3
   87ab8:	b2b6      	uxth	r6, r6
   87aba:	ea46 4101 	orr.w	r1, r6, r1, lsl #16
   87abe:	4288      	cmp	r0, r1
   87ac0:	d908      	bls.n	87ad4 <__divdi3+0x94>
   87ac2:	1949      	adds	r1, r1, r5
   87ac4:	f103 37ff 	add.w	r7, r3, #4294967295
   87ac8:	f080 80f1 	bcs.w	87cae <__divdi3+0x26e>
   87acc:	4288      	cmp	r0, r1
   87ace:	f240 80ee 	bls.w	87cae <__divdi3+0x26e>
   87ad2:	3b02      	subs	r3, #2
   87ad4:	ea43 4202 	orr.w	r2, r3, r2, lsl #16
   87ad8:	2300      	movs	r3, #0
   87ada:	e003      	b.n	87ae4 <__divdi3+0xa4>
   87adc:	428b      	cmp	r3, r1
   87ade:	d90a      	bls.n	87af6 <__divdi3+0xb6>
   87ae0:	2300      	movs	r3, #0
   87ae2:	461a      	mov	r2, r3
   87ae4:	4610      	mov	r0, r2
   87ae6:	4619      	mov	r1, r3
   87ae8:	b114      	cbz	r4, 87af0 <__divdi3+0xb0>
   87aea:	4240      	negs	r0, r0
   87aec:	eb61 0141 	sbc.w	r1, r1, r1, lsl #1
   87af0:	e8bd 0ff0 	ldmia.w	sp!, {r4, r5, r6, r7, r8, r9, sl, fp}
   87af4:	4770      	bx	lr
   87af6:	fab3 f883 	clz	r8, r3
   87afa:	f1b8 0f00 	cmp.w	r8, #0
   87afe:	f040 8088 	bne.w	87c12 <__divdi3+0x1d2>
   87b02:	428b      	cmp	r3, r1
   87b04:	d302      	bcc.n	87b0c <__divdi3+0xcc>
   87b06:	4282      	cmp	r2, r0
   87b08:	f200 80e2 	bhi.w	87cd0 <__divdi3+0x290>
   87b0c:	2300      	movs	r3, #0
   87b0e:	2201      	movs	r2, #1
   87b10:	e7e8      	b.n	87ae4 <__divdi3+0xa4>
   87b12:	b912      	cbnz	r2, 87b1a <__divdi3+0xda>
   87b14:	2301      	movs	r3, #1
   87b16:	fbb3 f5f2 	udiv	r5, r3, r2
   87b1a:	fab5 f285 	clz	r2, r5
   87b1e:	2a00      	cmp	r2, #0
   87b20:	d13a      	bne.n	87b98 <__divdi3+0x158>
   87b22:	1b7f      	subs	r7, r7, r5
   87b24:	0c28      	lsrs	r0, r5, #16
   87b26:	fa1f fc85 	uxth.w	ip, r5
   87b2a:	2301      	movs	r3, #1
   87b2c:	fbb7 f1f0 	udiv	r1, r7, r0
   87b30:	fb00 7711 	mls	r7, r0, r1, r7
   87b34:	fb0c f201 	mul.w	r2, ip, r1
   87b38:	ea4f 4816 	mov.w	r8, r6, lsr #16
   87b3c:	ea48 4707 	orr.w	r7, r8, r7, lsl #16
   87b40:	42ba      	cmp	r2, r7
   87b42:	d907      	bls.n	87b54 <__divdi3+0x114>
   87b44:	197f      	adds	r7, r7, r5
   87b46:	f101 38ff 	add.w	r8, r1, #4294967295
   87b4a:	d202      	bcs.n	87b52 <__divdi3+0x112>
   87b4c:	42ba      	cmp	r2, r7
   87b4e:	f200 80c4 	bhi.w	87cda <__divdi3+0x29a>
   87b52:	4641      	mov	r1, r8
   87b54:	1abf      	subs	r7, r7, r2
   87b56:	fbb7 f2f0 	udiv	r2, r7, r0
   87b5a:	fb00 7012 	mls	r0, r0, r2, r7
   87b5e:	fb0c fc02 	mul.w	ip, ip, r2
   87b62:	b2b6      	uxth	r6, r6
   87b64:	ea46 4000 	orr.w	r0, r6, r0, lsl #16
   87b68:	4584      	cmp	ip, r0
   87b6a:	d907      	bls.n	87b7c <__divdi3+0x13c>
   87b6c:	1940      	adds	r0, r0, r5
   87b6e:	f102 37ff 	add.w	r7, r2, #4294967295
   87b72:	d202      	bcs.n	87b7a <__divdi3+0x13a>
   87b74:	4584      	cmp	ip, r0
   87b76:	f200 80ae 	bhi.w	87cd6 <__divdi3+0x296>
   87b7a:	463a      	mov	r2, r7
   87b7c:	ea42 4201 	orr.w	r2, r2, r1, lsl #16
   87b80:	e7b0      	b.n	87ae4 <__divdi3+0xa4>
   87b82:	43e4      	mvns	r4, r4
   87b84:	4252      	negs	r2, r2
   87b86:	eb63 0343 	sbc.w	r3, r3, r3, lsl #1
   87b8a:	e762      	b.n	87a52 <__divdi3+0x12>
   87b8c:	4240      	negs	r0, r0
   87b8e:	eb61 0141 	sbc.w	r1, r1, r1, lsl #1
   87b92:	f04f 34ff 	mov.w	r4, #4294967295
   87b96:	e759      	b.n	87a4c <__divdi3+0xc>
   87b98:	4095      	lsls	r5, r2
   87b9a:	f1c2 0920 	rsb	r9, r2, #32
   87b9e:	fa27 f109 	lsr.w	r1, r7, r9
   87ba2:	fa26 f909 	lsr.w	r9, r6, r9
   87ba6:	4097      	lsls	r7, r2
   87ba8:	0c28      	lsrs	r0, r5, #16
   87baa:	fbb1 f8f0 	udiv	r8, r1, r0
   87bae:	fb00 1118 	mls	r1, r0, r8, r1
   87bb2:	fa1f fc85 	uxth.w	ip, r5
   87bb6:	fb0c f308 	mul.w	r3, ip, r8
   87bba:	ea49 0907 	orr.w	r9, r9, r7
   87bbe:	ea4f 4719 	mov.w	r7, r9, lsr #16
   87bc2:	ea47 4101 	orr.w	r1, r7, r1, lsl #16
   87bc6:	428b      	cmp	r3, r1
   87bc8:	fa06 f602 	lsl.w	r6, r6, r2
   87bcc:	d908      	bls.n	87be0 <__divdi3+0x1a0>
   87bce:	1949      	adds	r1, r1, r5
   87bd0:	f108 32ff 	add.w	r2, r8, #4294967295
   87bd4:	d27a      	bcs.n	87ccc <__divdi3+0x28c>
   87bd6:	428b      	cmp	r3, r1
   87bd8:	d978      	bls.n	87ccc <__divdi3+0x28c>
   87bda:	f1a8 0802 	sub.w	r8, r8, #2
   87bde:	4429      	add	r1, r5
   87be0:	1ac9      	subs	r1, r1, r3
   87be2:	fbb1 f3f0 	udiv	r3, r1, r0
   87be6:	fb00 1713 	mls	r7, r0, r3, r1
   87bea:	fb0c f203 	mul.w	r2, ip, r3
   87bee:	fa1f f989 	uxth.w	r9, r9
   87bf2:	ea49 4707 	orr.w	r7, r9, r7, lsl #16
   87bf6:	42ba      	cmp	r2, r7
   87bf8:	d907      	bls.n	87c0a <__divdi3+0x1ca>
   87bfa:	197f      	adds	r7, r7, r5
   87bfc:	f103 31ff 	add.w	r1, r3, #4294967295
   87c00:	d260      	bcs.n	87cc4 <__divdi3+0x284>
   87c02:	42ba      	cmp	r2, r7
   87c04:	d95e      	bls.n	87cc4 <__divdi3+0x284>
   87c06:	3b02      	subs	r3, #2
   87c08:	442f      	add	r7, r5
   87c0a:	1abf      	subs	r7, r7, r2
   87c0c:	ea43 4308 	orr.w	r3, r3, r8, lsl #16
   87c10:	e78c      	b.n	87b2c <__divdi3+0xec>
   87c12:	f1c8 0220 	rsb	r2, r8, #32
   87c16:	fa25 f102 	lsr.w	r1, r5, r2
   87c1a:	fa03 fc08 	lsl.w	ip, r3, r8
   87c1e:	fa27 f302 	lsr.w	r3, r7, r2
   87c22:	fa20 f202 	lsr.w	r2, r0, r2
   87c26:	fa07 f708 	lsl.w	r7, r7, r8
   87c2a:	ea41 0c0c 	orr.w	ip, r1, ip
   87c2e:	ea4f 491c 	mov.w	r9, ip, lsr #16
   87c32:	fbb3 f1f9 	udiv	r1, r3, r9
   87c36:	fb09 3311 	mls	r3, r9, r1, r3
   87c3a:	fa1f fa8c 	uxth.w	sl, ip
   87c3e:	fb0a fb01 	mul.w	fp, sl, r1
   87c42:	4317      	orrs	r7, r2
   87c44:	0c3a      	lsrs	r2, r7, #16
   87c46:	ea42 4303 	orr.w	r3, r2, r3, lsl #16
   87c4a:	459b      	cmp	fp, r3
   87c4c:	fa05 f008 	lsl.w	r0, r5, r8
   87c50:	d908      	bls.n	87c64 <__divdi3+0x224>
   87c52:	eb13 030c 	adds.w	r3, r3, ip
   87c56:	f101 32ff 	add.w	r2, r1, #4294967295
   87c5a:	d235      	bcs.n	87cc8 <__divdi3+0x288>
   87c5c:	459b      	cmp	fp, r3
   87c5e:	d933      	bls.n	87cc8 <__divdi3+0x288>
   87c60:	3902      	subs	r1, #2
   87c62:	4463      	add	r3, ip
   87c64:	ebcb 0303 	rsb	r3, fp, r3
   87c68:	fbb3 f2f9 	udiv	r2, r3, r9
   87c6c:	fb09 3312 	mls	r3, r9, r2, r3
   87c70:	fb0a fa02 	mul.w	sl, sl, r2
   87c74:	b2bf      	uxth	r7, r7
   87c76:	ea47 4703 	orr.w	r7, r7, r3, lsl #16
   87c7a:	45ba      	cmp	sl, r7
   87c7c:	d908      	bls.n	87c90 <__divdi3+0x250>
   87c7e:	eb17 070c 	adds.w	r7, r7, ip
   87c82:	f102 33ff 	add.w	r3, r2, #4294967295
   87c86:	d21b      	bcs.n	87cc0 <__divdi3+0x280>
   87c88:	45ba      	cmp	sl, r7
   87c8a:	d919      	bls.n	87cc0 <__divdi3+0x280>
   87c8c:	3a02      	subs	r2, #2
   87c8e:	4467      	add	r7, ip
   87c90:	ea42 4501 	orr.w	r5, r2, r1, lsl #16
   87c94:	fba5 0100 	umull	r0, r1, r5, r0
   87c98:	ebca 0707 	rsb	r7, sl, r7
   87c9c:	428f      	cmp	r7, r1
   87c9e:	f04f 0300 	mov.w	r3, #0
   87ca2:	d30a      	bcc.n	87cba <__divdi3+0x27a>
   87ca4:	d005      	beq.n	87cb2 <__divdi3+0x272>
   87ca6:	462a      	mov	r2, r5
   87ca8:	e71c      	b.n	87ae4 <__divdi3+0xa4>
   87caa:	4662      	mov	r2, ip
   87cac:	e6fd      	b.n	87aaa <__divdi3+0x6a>
   87cae:	463b      	mov	r3, r7
   87cb0:	e710      	b.n	87ad4 <__divdi3+0x94>
   87cb2:	fa06 f608 	lsl.w	r6, r6, r8
   87cb6:	4286      	cmp	r6, r0
   87cb8:	d2f5      	bcs.n	87ca6 <__divdi3+0x266>
   87cba:	1e6a      	subs	r2, r5, #1
   87cbc:	2300      	movs	r3, #0
   87cbe:	e711      	b.n	87ae4 <__divdi3+0xa4>
   87cc0:	461a      	mov	r2, r3
   87cc2:	e7e5      	b.n	87c90 <__divdi3+0x250>
   87cc4:	460b      	mov	r3, r1
   87cc6:	e7a0      	b.n	87c0a <__divdi3+0x1ca>
   87cc8:	4611      	mov	r1, r2
   87cca:	e7cb      	b.n	87c64 <__divdi3+0x224>
   87ccc:	4690      	mov	r8, r2
   87cce:	e787      	b.n	87be0 <__divdi3+0x1a0>
   87cd0:	4643      	mov	r3, r8
   87cd2:	4642      	mov	r2, r8
   87cd4:	e706      	b.n	87ae4 <__divdi3+0xa4>
   87cd6:	3a02      	subs	r2, #2
   87cd8:	e750      	b.n	87b7c <__divdi3+0x13c>
   87cda:	3902      	subs	r1, #2
   87cdc:	442f      	add	r7, r5
   87cde:	e739      	b.n	87b54 <__divdi3+0x114>

00087ce0 <__udivdi3>:
   87ce0:	e92d 0ff0 	stmdb	sp!, {r4, r5, r6, r7, r8, r9, sl, fp}
   87ce4:	4614      	mov	r4, r2
   87ce6:	4605      	mov	r5, r0
   87ce8:	460e      	mov	r6, r1
   87cea:	2b00      	cmp	r3, #0
   87cec:	d143      	bne.n	87d76 <__udivdi3+0x96>
   87cee:	428a      	cmp	r2, r1
   87cf0:	d953      	bls.n	87d9a <__udivdi3+0xba>
   87cf2:	fab2 f782 	clz	r7, r2
   87cf6:	b157      	cbz	r7, 87d0e <__udivdi3+0x2e>
   87cf8:	f1c7 0620 	rsb	r6, r7, #32
   87cfc:	fa20 f606 	lsr.w	r6, r0, r6
   87d00:	fa01 f307 	lsl.w	r3, r1, r7
   87d04:	fa02 f407 	lsl.w	r4, r2, r7
   87d08:	fa00 f507 	lsl.w	r5, r0, r7
   87d0c:	431e      	orrs	r6, r3
   87d0e:	0c21      	lsrs	r1, r4, #16
   87d10:	fbb6 f2f1 	udiv	r2, r6, r1
   87d14:	fb01 6612 	mls	r6, r1, r2, r6
   87d18:	b2a0      	uxth	r0, r4
   87d1a:	fb00 f302 	mul.w	r3, r0, r2
   87d1e:	0c2f      	lsrs	r7, r5, #16
   87d20:	ea47 4606 	orr.w	r6, r7, r6, lsl #16
   87d24:	42b3      	cmp	r3, r6
   87d26:	d909      	bls.n	87d3c <__udivdi3+0x5c>
   87d28:	1936      	adds	r6, r6, r4
   87d2a:	f102 37ff 	add.w	r7, r2, #4294967295
   87d2e:	f080 80fd 	bcs.w	87f2c <__udivdi3+0x24c>
   87d32:	42b3      	cmp	r3, r6
   87d34:	f240 80fa 	bls.w	87f2c <__udivdi3+0x24c>
   87d38:	3a02      	subs	r2, #2
   87d3a:	4426      	add	r6, r4
   87d3c:	1af6      	subs	r6, r6, r3
   87d3e:	fbb6 f3f1 	udiv	r3, r6, r1
   87d42:	fb01 6113 	mls	r1, r1, r3, r6
   87d46:	fb00 f003 	mul.w	r0, r0, r3
   87d4a:	b2ad      	uxth	r5, r5
   87d4c:	ea45 4101 	orr.w	r1, r5, r1, lsl #16
   87d50:	4288      	cmp	r0, r1
   87d52:	d908      	bls.n	87d66 <__udivdi3+0x86>
   87d54:	1909      	adds	r1, r1, r4
   87d56:	f103 36ff 	add.w	r6, r3, #4294967295
   87d5a:	f080 80e9 	bcs.w	87f30 <__udivdi3+0x250>
   87d5e:	4288      	cmp	r0, r1
   87d60:	f240 80e6 	bls.w	87f30 <__udivdi3+0x250>
   87d64:	3b02      	subs	r3, #2
   87d66:	ea43 4202 	orr.w	r2, r3, r2, lsl #16
   87d6a:	2300      	movs	r3, #0
   87d6c:	4610      	mov	r0, r2
   87d6e:	4619      	mov	r1, r3
   87d70:	e8bd 0ff0 	ldmia.w	sp!, {r4, r5, r6, r7, r8, r9, sl, fp}
   87d74:	4770      	bx	lr
   87d76:	428b      	cmp	r3, r1
   87d78:	d84c      	bhi.n	87e14 <__udivdi3+0x134>
   87d7a:	fab3 f683 	clz	r6, r3
   87d7e:	2e00      	cmp	r6, #0
   87d80:	d14f      	bne.n	87e22 <__udivdi3+0x142>
   87d82:	428b      	cmp	r3, r1
   87d84:	d302      	bcc.n	87d8c <__udivdi3+0xac>
   87d86:	4282      	cmp	r2, r0
   87d88:	f200 80dd 	bhi.w	87f46 <__udivdi3+0x266>
   87d8c:	e8bd 0ff0 	ldmia.w	sp!, {r4, r5, r6, r7, r8, r9, sl, fp}
   87d90:	2300      	movs	r3, #0
   87d92:	2201      	movs	r2, #1
   87d94:	4610      	mov	r0, r2
   87d96:	4619      	mov	r1, r3
   87d98:	4770      	bx	lr
   87d9a:	b912      	cbnz	r2, 87da2 <__udivdi3+0xc2>
   87d9c:	2401      	movs	r4, #1
   87d9e:	fbb4 f4f2 	udiv	r4, r4, r2
   87da2:	fab4 f284 	clz	r2, r4
   87da6:	2a00      	cmp	r2, #0
   87da8:	f040 8082 	bne.w	87eb0 <__udivdi3+0x1d0>
   87dac:	1b09      	subs	r1, r1, r4
   87dae:	0c26      	lsrs	r6, r4, #16
   87db0:	b2a7      	uxth	r7, r4
   87db2:	2301      	movs	r3, #1
   87db4:	fbb1 f0f6 	udiv	r0, r1, r6
   87db8:	fb06 1110 	mls	r1, r6, r0, r1
   87dbc:	fb07 f200 	mul.w	r2, r7, r0
   87dc0:	ea4f 4c15 	mov.w	ip, r5, lsr #16
   87dc4:	ea4c 4101 	orr.w	r1, ip, r1, lsl #16
   87dc8:	428a      	cmp	r2, r1
   87dca:	d907      	bls.n	87ddc <__udivdi3+0xfc>
   87dcc:	1909      	adds	r1, r1, r4
   87dce:	f100 3cff 	add.w	ip, r0, #4294967295
   87dd2:	d202      	bcs.n	87dda <__udivdi3+0xfa>
   87dd4:	428a      	cmp	r2, r1
   87dd6:	f200 80c8 	bhi.w	87f6a <__udivdi3+0x28a>
   87dda:	4660      	mov	r0, ip
   87ddc:	1a89      	subs	r1, r1, r2
   87dde:	fbb1 f2f6 	udiv	r2, r1, r6
   87de2:	fb06 1112 	mls	r1, r6, r2, r1
   87de6:	fb07 f702 	mul.w	r7, r7, r2
   87dea:	b2ad      	uxth	r5, r5
   87dec:	ea45 4501 	orr.w	r5, r5, r1, lsl #16
   87df0:	42af      	cmp	r7, r5
   87df2:	d908      	bls.n	87e06 <__udivdi3+0x126>
   87df4:	192c      	adds	r4, r5, r4
   87df6:	f102 31ff 	add.w	r1, r2, #4294967295
   87dfa:	f080 809b 	bcs.w	87f34 <__udivdi3+0x254>
   87dfe:	42a7      	cmp	r7, r4
   87e00:	f240 8098 	bls.w	87f34 <__udivdi3+0x254>
   87e04:	3a02      	subs	r2, #2
   87e06:	ea42 4200 	orr.w	r2, r2, r0, lsl #16
   87e0a:	4610      	mov	r0, r2
   87e0c:	4619      	mov	r1, r3
   87e0e:	e8bd 0ff0 	ldmia.w	sp!, {r4, r5, r6, r7, r8, r9, sl, fp}
   87e12:	4770      	bx	lr
   87e14:	2300      	movs	r3, #0
   87e16:	461a      	mov	r2, r3
   87e18:	4610      	mov	r0, r2
   87e1a:	4619      	mov	r1, r3
   87e1c:	e8bd 0ff0 	ldmia.w	sp!, {r4, r5, r6, r7, r8, r9, sl, fp}
   87e20:	4770      	bx	lr
   87e22:	f1c6 0520 	rsb	r5, r6, #32
   87e26:	fa22 f705 	lsr.w	r7, r2, r5
   87e2a:	fa03 f406 	lsl.w	r4, r3, r6
   87e2e:	fa21 f305 	lsr.w	r3, r1, r5
   87e32:	fa01 fb06 	lsl.w	fp, r1, r6
   87e36:	fa20 f505 	lsr.w	r5, r0, r5
   87e3a:	433c      	orrs	r4, r7
   87e3c:	ea4f 4814 	mov.w	r8, r4, lsr #16
   87e40:	fbb3 fcf8 	udiv	ip, r3, r8
   87e44:	fb08 331c 	mls	r3, r8, ip, r3
   87e48:	fa1f f984 	uxth.w	r9, r4
   87e4c:	fb09 fa0c 	mul.w	sl, r9, ip
   87e50:	ea45 0b0b 	orr.w	fp, r5, fp
   87e54:	ea4f 451b 	mov.w	r5, fp, lsr #16
   87e58:	ea45 4303 	orr.w	r3, r5, r3, lsl #16
   87e5c:	459a      	cmp	sl, r3
   87e5e:	fa02 f206 	lsl.w	r2, r2, r6
   87e62:	d904      	bls.n	87e6e <__udivdi3+0x18e>
   87e64:	191b      	adds	r3, r3, r4
   87e66:	f10c 35ff 	add.w	r5, ip, #4294967295
   87e6a:	d36f      	bcc.n	87f4c <__udivdi3+0x26c>
   87e6c:	46ac      	mov	ip, r5
   87e6e:	ebca 0303 	rsb	r3, sl, r3
   87e72:	fbb3 f5f8 	udiv	r5, r3, r8
   87e76:	fb08 3315 	mls	r3, r8, r5, r3
   87e7a:	fb09 f905 	mul.w	r9, r9, r5
   87e7e:	fa1f fb8b 	uxth.w	fp, fp
   87e82:	ea4b 4703 	orr.w	r7, fp, r3, lsl #16
   87e86:	45b9      	cmp	r9, r7
   87e88:	d904      	bls.n	87e94 <__udivdi3+0x1b4>
   87e8a:	193f      	adds	r7, r7, r4
   87e8c:	f105 33ff 	add.w	r3, r5, #4294967295
   87e90:	d362      	bcc.n	87f58 <__udivdi3+0x278>
   87e92:	461d      	mov	r5, r3
   87e94:	ea45 4c0c 	orr.w	ip, r5, ip, lsl #16
   87e98:	fbac 2302 	umull	r2, r3, ip, r2
   87e9c:	ebc9 0707 	rsb	r7, r9, r7
   87ea0:	429f      	cmp	r7, r3
   87ea2:	f04f 0500 	mov.w	r5, #0
   87ea6:	d34a      	bcc.n	87f3e <__udivdi3+0x25e>
   87ea8:	d046      	beq.n	87f38 <__udivdi3+0x258>
   87eaa:	4662      	mov	r2, ip
   87eac:	462b      	mov	r3, r5
   87eae:	e75d      	b.n	87d6c <__udivdi3+0x8c>
   87eb0:	4094      	lsls	r4, r2
   87eb2:	f1c2 0920 	rsb	r9, r2, #32
   87eb6:	fa21 fc09 	lsr.w	ip, r1, r9
   87eba:	4091      	lsls	r1, r2
   87ebc:	fa20 f909 	lsr.w	r9, r0, r9
   87ec0:	0c26      	lsrs	r6, r4, #16
   87ec2:	fbbc f8f6 	udiv	r8, ip, r6
   87ec6:	fb06 cc18 	mls	ip, r6, r8, ip
   87eca:	b2a7      	uxth	r7, r4
   87ecc:	fb07 f308 	mul.w	r3, r7, r8
   87ed0:	ea49 0901 	orr.w	r9, r9, r1
   87ed4:	ea4f 4119 	mov.w	r1, r9, lsr #16
   87ed8:	ea41 4c0c 	orr.w	ip, r1, ip, lsl #16
   87edc:	4563      	cmp	r3, ip
   87ede:	fa00 f502 	lsl.w	r5, r0, r2
   87ee2:	d909      	bls.n	87ef8 <__udivdi3+0x218>
   87ee4:	eb1c 0c04 	adds.w	ip, ip, r4
   87ee8:	f108 32ff 	add.w	r2, r8, #4294967295
   87eec:	d23b      	bcs.n	87f66 <__udivdi3+0x286>
   87eee:	4563      	cmp	r3, ip
   87ef0:	d939      	bls.n	87f66 <__udivdi3+0x286>
   87ef2:	f1a8 0802 	sub.w	r8, r8, #2
   87ef6:	44a4      	add	ip, r4
   87ef8:	ebc3 0c0c 	rsb	ip, r3, ip
   87efc:	fbbc f3f6 	udiv	r3, ip, r6
   87f00:	fb06 c113 	mls	r1, r6, r3, ip
   87f04:	fb07 f203 	mul.w	r2, r7, r3
   87f08:	fa1f f989 	uxth.w	r9, r9
   87f0c:	ea49 4101 	orr.w	r1, r9, r1, lsl #16
   87f10:	428a      	cmp	r2, r1
   87f12:	d907      	bls.n	87f24 <__udivdi3+0x244>
   87f14:	1909      	adds	r1, r1, r4
   87f16:	f103 30ff 	add.w	r0, r3, #4294967295
   87f1a:	d222      	bcs.n	87f62 <__udivdi3+0x282>
   87f1c:	428a      	cmp	r2, r1
   87f1e:	d920      	bls.n	87f62 <__udivdi3+0x282>
   87f20:	3b02      	subs	r3, #2
   87f22:	4421      	add	r1, r4
   87f24:	1a89      	subs	r1, r1, r2
   87f26:	ea43 4308 	orr.w	r3, r3, r8, lsl #16
   87f2a:	e743      	b.n	87db4 <__udivdi3+0xd4>
   87f2c:	463a      	mov	r2, r7
   87f2e:	e705      	b.n	87d3c <__udivdi3+0x5c>
   87f30:	4633      	mov	r3, r6
   87f32:	e718      	b.n	87d66 <__udivdi3+0x86>
   87f34:	460a      	mov	r2, r1
   87f36:	e766      	b.n	87e06 <__udivdi3+0x126>
   87f38:	40b0      	lsls	r0, r6
   87f3a:	4290      	cmp	r0, r2
   87f3c:	d2b5      	bcs.n	87eaa <__udivdi3+0x1ca>
   87f3e:	f10c 32ff 	add.w	r2, ip, #4294967295
   87f42:	2300      	movs	r3, #0
   87f44:	e712      	b.n	87d6c <__udivdi3+0x8c>
   87f46:	4633      	mov	r3, r6
   87f48:	4632      	mov	r2, r6
   87f4a:	e70f      	b.n	87d6c <__udivdi3+0x8c>
   87f4c:	459a      	cmp	sl, r3
   87f4e:	d98d      	bls.n	87e6c <__udivdi3+0x18c>
   87f50:	f1ac 0c02 	sub.w	ip, ip, #2
   87f54:	4423      	add	r3, r4
   87f56:	e78a      	b.n	87e6e <__udivdi3+0x18e>
   87f58:	45b9      	cmp	r9, r7
   87f5a:	d99a      	bls.n	87e92 <__udivdi3+0x1b2>
   87f5c:	3d02      	subs	r5, #2
   87f5e:	4427      	add	r7, r4
   87f60:	e798      	b.n	87e94 <__udivdi3+0x1b4>
   87f62:	4603      	mov	r3, r0
   87f64:	e7de      	b.n	87f24 <__udivdi3+0x244>
   87f66:	4690      	mov	r8, r2
   87f68:	e7c6      	b.n	87ef8 <__udivdi3+0x218>
   87f6a:	3802      	subs	r0, #2
   87f6c:	4421      	add	r1, r4
   87f6e:	e735      	b.n	87ddc <__udivdi3+0xfc>
   87f70:	6e69560a 	.word	0x6e69560a
   87f74:	3a6c656b 	.word	0x3a6c656b
   87f78:	00642520 	.word	0x00642520
   87f7c:	6369540a 	.word	0x6369540a
   87f80:	203a736b 	.word	0x203a736b
   87f84:	00006625 	.word	0x00006625
   87f88:	66696478 	.word	0x66696478
   87f8c:	25203a66 	.word	0x25203a66
   87f90:	64790a64 	.word	0x64790a64
   87f94:	3a666669 	.word	0x3a666669
   87f98:	0a642520 	.word	0x0a642520
   87f9c:	65726964 	.word	0x65726964
   87fa0:	6f697463 	.word	0x6f697463
   87fa4:	25203a6e 	.word	0x25203a6e
   87fa8:	00000a64 	.word	0x00000a64
   87fac:	736f6361 	.word	0x736f6361
   87fb0:	00000000 	.word	0x00000000
   87fb4:	74727173 	.word	0x74727173
   87fb8:	00000000 	.word	0x00000000
   87fbc:	00000043 	.word	0x00000043

00087fc0 <_global_impure_ptr>:
   87fc0:	20070140                                @.. 

00087fc4 <zeroes.6763>:
   87fc4:	30303030 30303030 30303030 30303030     0000000000000000
   87fd4:	00464e49 00666e69 004e414e 006e616e     INF.inf.NAN.nan.
   87fe4:	33323130 37363534 42413938 46454443     0123456789ABCDEF
   87ff4:	00000000 33323130 37363534 62613938     ....0123456789ab
   88004:	66656463 00000000 6c756e28 0000296c     cdef....(null)..
   88014:	00000030                                0...

00088018 <blanks.6762>:
   88018:	20202020 20202020 20202020 20202020                     

00088028 <zeroes.6721>:
   88028:	30303030 30303030 30303030 30303030     0000000000000000

00088038 <blanks.6720>:
   88038:	20202020 20202020 20202020 20202020                     
   88048:	69666e49 7974696e 00000000 004e614e     Infinity....NaN.
   88058:	49534f50 00000058 0000002e 00000000     POSIX...........

00088068 <__mprec_tens>:
   88068:	00000000 3ff00000 00000000 40240000     .......?......$@
   88078:	00000000 40590000 00000000 408f4000     ......Y@.....@.@
   88088:	00000000 40c38800 00000000 40f86a00     .......@.....j.@
   88098:	00000000 412e8480 00000000 416312d0     .......A......cA
   880a8:	00000000 4197d784 00000000 41cdcd65     .......A....e..A
   880b8:	20000000 4202a05f e8000000 42374876     ... _..B....vH7B
   880c8:	a2000000 426d1a94 e5400000 42a2309c     ......mB..@..0.B
   880d8:	1e900000 42d6bcc4 26340000 430c6bf5     .......B..4&.k.C
   880e8:	37e08000 4341c379 85d8a000 43763457     ...7y.AC....W4vC
   880f8:	674ec800 43abc16d 60913d00 43e158e4     ..Ngm..C.=.`.X.C
   88108:	78b58c40 4415af1d d6e2ef50 444b1ae4     @..x...DP.....KD
   88118:	064dd592 4480f0cf c7e14af6 44b52d02     ..M....D.J...-.D
   88128:	79d99db4 44ea7843                       ...yCx.D

00088130 <__mprec_bigtens>:
   88130:	37e08000 4341c379 b5056e17 4693b8b5     ...7y.AC.n.....F
   88140:	e93ff9f5 4d384f03 f9301d32 5a827748     ..?..O8M2.0.Hw.Z
   88150:	7f73bf3c 75154fdd                       <.s..O.u

00088158 <p05.5269>:
   88158:	00000005 00000019 0000007d              ........}...

00088164 <_init>:
   88164:	b5f8      	push	{r3, r4, r5, r6, r7, lr}
   88166:	bf00      	nop
   88168:	bcf8      	pop	{r3, r4, r5, r6, r7}
   8816a:	bc08      	pop	{r3}
   8816c:	469e      	mov	lr, r3
   8816e:	4770      	bx	lr

00088170 <__init_array_start>:
   88170:	0008491d 	.word	0x0008491d

00088174 <__frame_dummy_init_array_entry>:
   88174:	00080119                                ....

00088178 <_fini>:
   88178:	b5f8      	push	{r3, r4, r5, r6, r7, lr}
   8817a:	bf00      	nop
   8817c:	bcf8      	pop	{r3, r4, r5, r6, r7}
   8817e:	bc08      	pop	{r3}
   88180:	469e      	mov	lr, r3
   88182:	4770      	bx	lr

00088184 <__fini_array_start>:
   88184:	000800f5 	.word	0x000800f5

Disassembly of section .relocate:

20070000 <SystemInit>:
__no_inline
RAMFUNC
void SystemInit(void)
{
	/* Set FWS according to SYS_BOARD_MCKR configuration */
	EFC0->EEFC_FMR = EEFC_FMR_FWS(4);
20070000:	f44f 6380 	mov.w	r3, #1024	; 0x400
20070004:	4a20      	ldr	r2, [pc, #128]	; (20070088 <SystemInit+0x88>)
20070006:	6013      	str	r3, [r2, #0]
	EFC1->EEFC_FMR = EEFC_FMR_FWS(4);
20070008:	f502 7200 	add.w	r2, r2, #512	; 0x200
2007000c:	6013      	str	r3, [r2, #0]

	/* Initialize main oscillator */
	if (!(PMC->CKGR_MOR & CKGR_MOR_MOSCSEL)) {
2007000e:	4b1f      	ldr	r3, [pc, #124]	; (2007008c <SystemInit+0x8c>)
20070010:	6a1b      	ldr	r3, [r3, #32]
20070012:	f013 7f80 	tst.w	r3, #16777216	; 0x1000000
20070016:	d107      	bne.n	20070028 <SystemInit+0x28>
		PMC->CKGR_MOR = SYS_CKGR_MOR_KEY_VALUE | SYS_BOARD_OSCOUNT | 
20070018:	4a1d      	ldr	r2, [pc, #116]	; (20070090 <SystemInit+0x90>)
2007001a:	4b1c      	ldr	r3, [pc, #112]	; (2007008c <SystemInit+0x8c>)
2007001c:	621a      	str	r2, [r3, #32]
			                     CKGR_MOR_MOSCRCEN | CKGR_MOR_MOSCXTEN;
		while (!(PMC->PMC_SR & PMC_SR_MOSCXTS)) {
2007001e:	461a      	mov	r2, r3
20070020:	6e93      	ldr	r3, [r2, #104]	; 0x68
20070022:	f013 0f01 	tst.w	r3, #1
20070026:	d0fb      	beq.n	20070020 <SystemInit+0x20>
		}
	}

	/* Switch to 3-20MHz Xtal oscillator */
	PMC->CKGR_MOR = SYS_CKGR_MOR_KEY_VALUE | SYS_BOARD_OSCOUNT | 
20070028:	4a1a      	ldr	r2, [pc, #104]	; (20070094 <SystemInit+0x94>)
2007002a:	4b18      	ldr	r3, [pc, #96]	; (2007008c <SystemInit+0x8c>)
2007002c:	621a      	str	r2, [r3, #32]
	                           CKGR_MOR_MOSCRCEN | CKGR_MOR_MOSCXTEN | CKGR_MOR_MOSCSEL;

	while (!(PMC->PMC_SR & PMC_SR_MOSCSELS)) {
2007002e:	461a      	mov	r2, r3
20070030:	6e93      	ldr	r3, [r2, #104]	; 0x68
20070032:	f413 3f80 	tst.w	r3, #65536	; 0x10000
20070036:	d0fb      	beq.n	20070030 <SystemInit+0x30>
	}
 	PMC->PMC_MCKR = (PMC->PMC_MCKR & ~(uint32_t)PMC_MCKR_CSS_Msk) | 
20070038:	4b14      	ldr	r3, [pc, #80]	; (2007008c <SystemInit+0x8c>)
2007003a:	6b1a      	ldr	r2, [r3, #48]	; 0x30
2007003c:	f022 0203 	bic.w	r2, r2, #3
20070040:	f042 0201 	orr.w	r2, r2, #1
20070044:	631a      	str	r2, [r3, #48]	; 0x30
		                     PMC_MCKR_CSS_MAIN_CLK;
	while (!(PMC->PMC_SR & PMC_SR_MCKRDY)) {
20070046:	461a      	mov	r2, r3
20070048:	6e93      	ldr	r3, [r2, #104]	; 0x68
2007004a:	f013 0f08 	tst.w	r3, #8
2007004e:	d0fb      	beq.n	20070048 <SystemInit+0x48>
	}

	/* Initialize PLLA */
	PMC->CKGR_PLLAR = SYS_BOARD_PLLAR;
20070050:	4a11      	ldr	r2, [pc, #68]	; (20070098 <SystemInit+0x98>)
20070052:	4b0e      	ldr	r3, [pc, #56]	; (2007008c <SystemInit+0x8c>)
20070054:	629a      	str	r2, [r3, #40]	; 0x28
	while (!(PMC->PMC_SR & PMC_SR_LOCKA)) {
20070056:	461a      	mov	r2, r3
20070058:	6e93      	ldr	r3, [r2, #104]	; 0x68
2007005a:	f013 0f02 	tst.w	r3, #2
2007005e:	d0fb      	beq.n	20070058 <SystemInit+0x58>
	}

	/* Switch to main clock */
	PMC->PMC_MCKR = (SYS_BOARD_MCKR & ~PMC_MCKR_CSS_Msk) | PMC_MCKR_CSS_MAIN_CLK;
20070060:	2211      	movs	r2, #17
20070062:	4b0a      	ldr	r3, [pc, #40]	; (2007008c <SystemInit+0x8c>)
20070064:	631a      	str	r2, [r3, #48]	; 0x30
	while (!(PMC->PMC_SR & PMC_SR_MCKRDY)) {
20070066:	461a      	mov	r2, r3
20070068:	6e93      	ldr	r3, [r2, #104]	; 0x68
2007006a:	f013 0f08 	tst.w	r3, #8
2007006e:	d0fb      	beq.n	20070068 <SystemInit+0x68>
	}

	/* Switch to PLLA */
	PMC->PMC_MCKR = SYS_BOARD_MCKR;
20070070:	2212      	movs	r2, #18
20070072:	4b06      	ldr	r3, [pc, #24]	; (2007008c <SystemInit+0x8c>)
20070074:	631a      	str	r2, [r3, #48]	; 0x30
	while (!(PMC->PMC_SR & PMC_SR_MCKRDY)) {
20070076:	461a      	mov	r2, r3
20070078:	6e93      	ldr	r3, [r2, #104]	; 0x68
2007007a:	f013 0f08 	tst.w	r3, #8
2007007e:	d0fb      	beq.n	20070078 <SystemInit+0x78>
	}

	SystemCoreClock = CHIP_FREQ_CPU_MAX;
20070080:	4a06      	ldr	r2, [pc, #24]	; (2007009c <SystemInit+0x9c>)
20070082:	4b07      	ldr	r3, [pc, #28]	; (200700a0 <SystemInit+0xa0>)
20070084:	601a      	str	r2, [r3, #0]
20070086:	4770      	bx	lr
20070088:	400e0a00 	.word	0x400e0a00
2007008c:	400e0600 	.word	0x400e0600
20070090:	00370809 	.word	0x00370809
20070094:	01370809 	.word	0x01370809
20070098:	200d3f01 	.word	0x200d3f01
2007009c:	0501bd00 	.word	0x0501bd00
200700a0:	20070138 	.word	0x20070138

200700a4 <system_init_flash>:
__no_inline
RAMFUNC
void system_init_flash(uint32_t ul_clk)
{
	/* Set FWS for embedded Flash access according to operating frequency */
	if (ul_clk < CHIP_FREQ_FWS_0) {
200700a4:	4b1b      	ldr	r3, [pc, #108]	; (20070114 <system_init_flash+0x70>)
200700a6:	4298      	cmp	r0, r3
200700a8:	d806      	bhi.n	200700b8 <system_init_flash+0x14>
		EFC0->EEFC_FMR = EEFC_FMR_FWS(0);
200700aa:	2300      	movs	r3, #0
200700ac:	4a1a      	ldr	r2, [pc, #104]	; (20070118 <system_init_flash+0x74>)
200700ae:	6013      	str	r3, [r2, #0]
		EFC1->EEFC_FMR = EEFC_FMR_FWS(0);
200700b0:	f502 7200 	add.w	r2, r2, #512	; 0x200
200700b4:	6013      	str	r3, [r2, #0]
200700b6:	4770      	bx	lr
	} else if (ul_clk < CHIP_FREQ_FWS_1) {
200700b8:	4b18      	ldr	r3, [pc, #96]	; (2007011c <system_init_flash+0x78>)
200700ba:	4298      	cmp	r0, r3
200700bc:	d807      	bhi.n	200700ce <system_init_flash+0x2a>
		EFC0->EEFC_FMR = EEFC_FMR_FWS(1);
200700be:	f44f 7380 	mov.w	r3, #256	; 0x100
200700c2:	4a15      	ldr	r2, [pc, #84]	; (20070118 <system_init_flash+0x74>)
200700c4:	6013      	str	r3, [r2, #0]
		EFC1->EEFC_FMR = EEFC_FMR_FWS(1);
200700c6:	f502 7200 	add.w	r2, r2, #512	; 0x200
200700ca:	6013      	str	r3, [r2, #0]
200700cc:	4770      	bx	lr
	} else if (ul_clk < CHIP_FREQ_FWS_2) {
200700ce:	4b14      	ldr	r3, [pc, #80]	; (20070120 <system_init_flash+0x7c>)
200700d0:	4298      	cmp	r0, r3
200700d2:	d807      	bhi.n	200700e4 <system_init_flash+0x40>
		EFC0->EEFC_FMR = EEFC_FMR_FWS(2);
200700d4:	f44f 7300 	mov.w	r3, #512	; 0x200
200700d8:	4a0f      	ldr	r2, [pc, #60]	; (20070118 <system_init_flash+0x74>)
200700da:	6013      	str	r3, [r2, #0]
		EFC1->EEFC_FMR = EEFC_FMR_FWS(2);
200700dc:	f502 7200 	add.w	r2, r2, #512	; 0x200
200700e0:	6013      	str	r3, [r2, #0]
200700e2:	4770      	bx	lr
	} else if (ul_clk < CHIP_FREQ_FWS_3) {
200700e4:	4b0f      	ldr	r3, [pc, #60]	; (20070124 <system_init_flash+0x80>)
200700e6:	4298      	cmp	r0, r3
200700e8:	d807      	bhi.n	200700fa <system_init_flash+0x56>
		EFC0->EEFC_FMR = EEFC_FMR_FWS(3);
200700ea:	f44f 7340 	mov.w	r3, #768	; 0x300
200700ee:	4a0a      	ldr	r2, [pc, #40]	; (20070118 <system_init_flash+0x74>)
200700f0:	6013      	str	r3, [r2, #0]
		EFC1->EEFC_FMR = EEFC_FMR_FWS(3);
200700f2:	f502 7200 	add.w	r2, r2, #512	; 0x200
200700f6:	6013      	str	r3, [r2, #0]
200700f8:	4770      	bx	lr
	} else if (ul_clk < CHIP_FREQ_FWS_4) {
200700fa:	4b0b      	ldr	r3, [pc, #44]	; (20070128 <system_init_flash+0x84>)
200700fc:	4298      	cmp	r0, r3
		EFC0->EEFC_FMR = EEFC_FMR_FWS(4);
200700fe:	bf94      	ite	ls
20070100:	f44f 6380 	movls.w	r3, #1024	; 0x400
		EFC1->EEFC_FMR = EEFC_FMR_FWS(4);	
	} else {
		EFC0->EEFC_FMR = EEFC_FMR_FWS(5);
20070104:	f44f 63a0 	movhi.w	r3, #1280	; 0x500
20070108:	4a03      	ldr	r2, [pc, #12]	; (20070118 <system_init_flash+0x74>)
2007010a:	6013      	str	r3, [r2, #0]
		EFC1->EEFC_FMR = EEFC_FMR_FWS(5);
2007010c:	f502 7200 	add.w	r2, r2, #512	; 0x200
20070110:	6013      	str	r3, [r2, #0]
20070112:	4770      	bx	lr
20070114:	0121eabf 	.word	0x0121eabf
20070118:	400e0a00 	.word	0x400e0a00
2007011c:	02faf07f 	.word	0x02faf07f
20070120:	03d08fff 	.word	0x03d08fff
20070124:	04c4b3ff 	.word	0x04c4b3ff
20070128:	055d4a7f 	.word	0x055d4a7f

2007012c <Kp>:
2007012c:	00000004                                ....

20070130 <speed>:
20070130:	00000672                                r...

20070134 <g_interrupt_enabled>:
20070134:	00000001                                ....

20070138 <SystemCoreClock>:
20070138:	003d0900                                ..=.

2007013c <__fdlib_version>:
2007013c:	00000001                                ....

20070140 <impure_data>:
20070140:	00000000 2007042c 20070494 200704fc     ....,.. ... ... 
	...
20070174:	00087fbc 00000000 00000000 00000000     ................
	...
200701e8:	00000001 00000000 abcd330e e66d1234     .........3..4.m.
200701f8:	0005deec 0000000b 00000000 00000000     ................
	...

20070568 <_impure_ptr>:
20070568:	20070140                                @.. 

2007056c <lconv>:
2007056c:	00088060 00087ff4 00087ff4 00087ff4     `...............
2007057c:	00087ff4 00087ff4 00087ff4 00087ff4     ................
2007058c:	00087ff4 00087ff4 ffffffff ffffffff     ................
2007059c:	ffffffff 0000ffff                       ........

200705a4 <lc_ctype_charset>:
200705a4:	49435341 00000049 00000000 00000000     ASCII...........
	...

200705c4 <__mb_cur_max>:
200705c4:	00000001                                ....

200705c8 <__malloc_av_>:
	...
200705d0:	200705c8 200705c8 200705d0 200705d0     ... ... ... ... 
200705e0:	200705d8 200705d8 200705e0 200705e0     ... ... ... ... 
200705f0:	200705e8 200705e8 200705f0 200705f0     ... ... ... ... 
20070600:	200705f8 200705f8 20070600 20070600     ... ... ... ... 
20070610:	20070608 20070608 20070610 20070610     ... ... ... ... 
20070620:	20070618 20070618 20070620 20070620     ... ...  ..  .. 
20070630:	20070628 20070628 20070630 20070630     (.. (.. 0.. 0.. 
20070640:	20070638 20070638 20070640 20070640     8.. 8.. @.. @.. 
20070650:	20070648 20070648 20070650 20070650     H.. H.. P.. P.. 
20070660:	20070658 20070658 20070660 20070660     X.. X.. `.. `.. 
20070670:	20070668 20070668 20070670 20070670     h.. h.. p.. p.. 
20070680:	20070678 20070678 20070680 20070680     x.. x.. ... ... 
20070690:	20070688 20070688 20070690 20070690     ... ... ... ... 
200706a0:	20070698 20070698 200706a0 200706a0     ... ... ... ... 
200706b0:	200706a8 200706a8 200706b0 200706b0     ... ... ... ... 
200706c0:	200706b8 200706b8 200706c0 200706c0     ... ... ... ... 
200706d0:	200706c8 200706c8 200706d0 200706d0     ... ... ... ... 
200706e0:	200706d8 200706d8 200706e0 200706e0     ... ... ... ... 
200706f0:	200706e8 200706e8 200706f0 200706f0     ... ... ... ... 
20070700:	200706f8 200706f8 20070700 20070700     ... ... ... ... 
20070710:	20070708 20070708 20070710 20070710     ... ... ... ... 
20070720:	20070718 20070718 20070720 20070720     ... ...  ..  .. 
20070730:	20070728 20070728 20070730 20070730     (.. (.. 0.. 0.. 
20070740:	20070738 20070738 20070740 20070740     8.. 8.. @.. @.. 
20070750:	20070748 20070748 20070750 20070750     H.. H.. P.. P.. 
20070760:	20070758 20070758 20070760 20070760     X.. X.. `.. `.. 
20070770:	20070768 20070768 20070770 20070770     h.. h.. p.. p.. 
20070780:	20070778 20070778 20070780 20070780     x.. x.. ... ... 
20070790:	20070788 20070788 20070790 20070790     ... ... ... ... 
200707a0:	20070798 20070798 200707a0 200707a0     ... ... ... ... 
200707b0:	200707a8 200707a8 200707b0 200707b0     ... ... ... ... 
200707c0:	200707b8 200707b8 200707c0 200707c0     ... ... ... ... 
200707d0:	200707c8 200707c8 200707d0 200707d0     ... ... ... ... 
200707e0:	200707d8 200707d8 200707e0 200707e0     ... ... ... ... 
200707f0:	200707e8 200707e8 200707f0 200707f0     ... ... ... ... 
20070800:	200707f8 200707f8 20070800 20070800     ... ... ... ... 
20070810:	20070808 20070808 20070810 20070810     ... ... ... ... 
20070820:	20070818 20070818 20070820 20070820     ... ...  ..  .. 
20070830:	20070828 20070828 20070830 20070830     (.. (.. 0.. 0.. 
20070840:	20070838 20070838 20070840 20070840     8.. 8.. @.. @.. 
20070850:	20070848 20070848 20070850 20070850     H.. H.. P.. P.. 
20070860:	20070858 20070858 20070860 20070860     X.. X.. `.. `.. 
20070870:	20070868 20070868 20070870 20070870     h.. h.. p.. p.. 
20070880:	20070878 20070878 20070880 20070880     x.. x.. ... ... 
20070890:	20070888 20070888 20070890 20070890     ... ... ... ... 
200708a0:	20070898 20070898 200708a0 200708a0     ... ... ... ... 
200708b0:	200708a8 200708a8 200708b0 200708b0     ... ... ... ... 
200708c0:	200708b8 200708b8 200708c0 200708c0     ... ... ... ... 
200708d0:	200708c8 200708c8 200708d0 200708d0     ... ... ... ... 
200708e0:	200708d8 200708d8 200708e0 200708e0     ... ... ... ... 
200708f0:	200708e8 200708e8 200708f0 200708f0     ... ... ... ... 
20070900:	200708f8 200708f8 20070900 20070900     ... ... ... ... 
20070910:	20070908 20070908 20070910 20070910     ... ... ... ... 
20070920:	20070918 20070918 20070920 20070920     ... ...  ..  .. 
20070930:	20070928 20070928 20070930 20070930     (.. (.. 0.. 0.. 
20070940:	20070938 20070938 20070940 20070940     8.. 8.. @.. @.. 
20070950:	20070948 20070948 20070950 20070950     H.. H.. P.. P.. 
20070960:	20070958 20070958 20070960 20070960     X.. X.. `.. `.. 
20070970:	20070968 20070968 20070970 20070970     h.. h.. p.. p.. 
20070980:	20070978 20070978 20070980 20070980     x.. x.. ... ... 
20070990:	20070988 20070988 20070990 20070990     ... ... ... ... 
200709a0:	20070998 20070998 200709a0 200709a0     ... ... ... ... 
200709b0:	200709a8 200709a8 200709b0 200709b0     ... ... ... ... 
200709c0:	200709b8 200709b8 200709c0 200709c0     ... ... ... ... 

200709d0 <__malloc_trim_threshold>:
200709d0:	00020000                                ....

200709d4 <__malloc_sbrk_base>:
200709d4:	ffffffff                                ....

200709d8 <__wctomb>:
200709d8:	00087715                                .w..
