
Test_AA.elf:     file format elf32-littlearm

Sections:
Idx Name          Size      VMA       LMA       File off  Algn
  0 .text         00006128  00080000  00080000  00008000  2**3
                  CONTENTS, ALLOC, LOAD, READONLY, CODE
  1 .ARM.exidx    00000008  00086128  00086128  0000e128  2**2
                  CONTENTS, ALLOC, LOAD, READONLY, DATA
  2 .relocate     000009ac  20070000  00086130  00010000  2**3
                  CONTENTS, ALLOC, LOAD, CODE
  3 .bss          00000210  200709ac  00086adc  000109ac  2**2
                  ALLOC
  4 .stack        00002004  20070bbc  00086cec  000109ac  2**0
                  ALLOC
  5 .ARM.attributes 00000029  00000000  00000000  000109ac  2**0
                  CONTENTS, READONLY
  6 .comment      0000005b  00000000  00000000  000109d5  2**0
                  CONTENTS, READONLY
  7 .debug_info   00015d3c  00000000  00000000  00010a30  2**0
                  CONTENTS, READONLY, DEBUGGING
  8 .debug_abbrev 00003715  00000000  00000000  0002676c  2**0
                  CONTENTS, READONLY, DEBUGGING
  9 .debug_loc    00006ff8  00000000  00000000  00029e81  2**0
                  CONTENTS, READONLY, DEBUGGING
 10 .debug_aranges 00000d08  00000000  00000000  00030e79  2**0
                  CONTENTS, READONLY, DEBUGGING
 11 .debug_ranges 00000e20  00000000  00000000  00031b81  2**0
                  CONTENTS, READONLY, DEBUGGING
 12 .debug_macro  0000a2c9  00000000  00000000  000329a1  2**0
                  CONTENTS, READONLY, DEBUGGING
 13 .debug_line   00015b5b  00000000  00000000  0003cc6a  2**0
                  CONTENTS, READONLY, DEBUGGING
 14 .debug_str    0006ddd1  00000000  00000000  000527c5  2**0
                  CONTENTS, READONLY, DEBUGGING
 15 .debug_frame  00002880  00000000  00000000  000c0598  2**2
                  CONTENTS, READONLY, DEBUGGING

Disassembly of section .text:

00080000 <_sfixed>:
   80000:	20072bc0 	.word	0x20072bc0
   80004:	00081941 	.word	0x00081941
   80008:	0008193d 	.word	0x0008193d
   8000c:	0008193d 	.word	0x0008193d
   80010:	0008193d 	.word	0x0008193d
   80014:	0008193d 	.word	0x0008193d
   80018:	0008193d 	.word	0x0008193d
	...
   8002c:	0008193d 	.word	0x0008193d
   80030:	0008193d 	.word	0x0008193d
   80034:	00000000 	.word	0x00000000
   80038:	0008193d 	.word	0x0008193d
   8003c:	0008193d 	.word	0x0008193d
   80040:	0008193d 	.word	0x0008193d
   80044:	0008193d 	.word	0x0008193d
   80048:	0008193d 	.word	0x0008193d
   8004c:	0008193d 	.word	0x0008193d
   80050:	0008193d 	.word	0x0008193d
   80054:	0008193d 	.word	0x0008193d
   80058:	0008193d 	.word	0x0008193d
   8005c:	0008193d 	.word	0x0008193d
   80060:	0008193d 	.word	0x0008193d
   80064:	0008193d 	.word	0x0008193d
   80068:	00000000 	.word	0x00000000
   8006c:	000817ad 	.word	0x000817ad
   80070:	000817c1 	.word	0x000817c1
   80074:	000817d5 	.word	0x000817d5
   80078:	000817e9 	.word	0x000817e9
	...
   80084:	00080ce9 	.word	0x00080ce9
   80088:	0008193d 	.word	0x0008193d
   8008c:	0008193d 	.word	0x0008193d
   80090:	0008193d 	.word	0x0008193d
   80094:	0008193d 	.word	0x0008193d
   80098:	0008193d 	.word	0x0008193d
   8009c:	0008193d 	.word	0x0008193d
   800a0:	0008193d 	.word	0x0008193d
   800a4:	00000000 	.word	0x00000000
   800a8:	0008193d 	.word	0x0008193d
   800ac:	0008193d 	.word	0x0008193d
   800b0:	0008193d 	.word	0x0008193d
   800b4:	0008193d 	.word	0x0008193d
   800b8:	0008193d 	.word	0x0008193d
   800bc:	0008193d 	.word	0x0008193d
   800c0:	0008193d 	.word	0x0008193d
   800c4:	0008193d 	.word	0x0008193d
   800c8:	0008193d 	.word	0x0008193d
   800cc:	0008193d 	.word	0x0008193d
   800d0:	0008193d 	.word	0x0008193d
   800d4:	0008193d 	.word	0x0008193d
   800d8:	0008193d 	.word	0x0008193d
   800dc:	0008193d 	.word	0x0008193d
   800e0:	0008193d 	.word	0x0008193d
   800e4:	0008193d 	.word	0x0008193d
   800e8:	0008193d 	.word	0x0008193d
   800ec:	0008193d 	.word	0x0008193d
   800f0:	0008193d 	.word	0x0008193d

000800f4 <__do_global_dtors_aux>:
   800f4:	b510      	push	{r4, lr}
   800f6:	4c05      	ldr	r4, [pc, #20]	; (8010c <__do_global_dtors_aux+0x18>)
   800f8:	7823      	ldrb	r3, [r4, #0]
   800fa:	b933      	cbnz	r3, 8010a <__do_global_dtors_aux+0x16>
   800fc:	4b04      	ldr	r3, [pc, #16]	; (80110 <__do_global_dtors_aux+0x1c>)
   800fe:	b113      	cbz	r3, 80106 <__do_global_dtors_aux+0x12>
   80100:	4804      	ldr	r0, [pc, #16]	; (80114 <__do_global_dtors_aux+0x20>)
   80102:	f3af 8000 	nop.w
   80106:	2301      	movs	r3, #1
   80108:	7023      	strb	r3, [r4, #0]
   8010a:	bd10      	pop	{r4, pc}
   8010c:	200709ac 	.word	0x200709ac
   80110:	00000000 	.word	0x00000000
   80114:	00086130 	.word	0x00086130

00080118 <frame_dummy>:
   80118:	b508      	push	{r3, lr}
   8011a:	4b06      	ldr	r3, [pc, #24]	; (80134 <frame_dummy+0x1c>)
   8011c:	b11b      	cbz	r3, 80126 <frame_dummy+0xe>
   8011e:	4806      	ldr	r0, [pc, #24]	; (80138 <frame_dummy+0x20>)
   80120:	4906      	ldr	r1, [pc, #24]	; (8013c <frame_dummy+0x24>)
   80122:	f3af 8000 	nop.w
   80126:	4806      	ldr	r0, [pc, #24]	; (80140 <frame_dummy+0x28>)
   80128:	6803      	ldr	r3, [r0, #0]
   8012a:	b113      	cbz	r3, 80132 <frame_dummy+0x1a>
   8012c:	4b05      	ldr	r3, [pc, #20]	; (80144 <frame_dummy+0x2c>)
   8012e:	b103      	cbz	r3, 80132 <frame_dummy+0x1a>
   80130:	4798      	blx	r3
   80132:	bd08      	pop	{r3, pc}
   80134:	00000000 	.word	0x00000000
   80138:	00086130 	.word	0x00086130
   8013c:	200709b0 	.word	0x200709b0
   80140:	00086130 	.word	0x00086130
   80144:	00000000 	.word	0x00000000

00080148 <test_getX_diff>:
#include "CalculateAngle.h"
#include "test_CalculateAngle.h"



void test_getX_diff(void){
   80148:	b508      	push	{r3, lr}
	TEST_ASSERT_TRUE(getX_diff(5,2));
   8014a:	2005      	movs	r0, #5
   8014c:	2102      	movs	r1, #2
   8014e:	4b04      	ldr	r3, [pc, #16]	; (80160 <test_getX_diff+0x18>)
   80150:	4798      	blx	r3
   80152:	b918      	cbnz	r0, 8015c <test_getX_diff+0x14>
   80154:	4803      	ldr	r0, [pc, #12]	; (80164 <test_getX_diff+0x1c>)
   80156:	210f      	movs	r1, #15
   80158:	4b03      	ldr	r3, [pc, #12]	; (80168 <test_getX_diff+0x20>)
   8015a:	4798      	blx	r3
   8015c:	bd08      	pop	{r3, pc}
   8015e:	bf00      	nop
   80160:	00080d49 	.word	0x00080d49
   80164:	00085f58 	.word	0x00085f58
   80168:	0008094d 	.word	0x0008094d

0008016c <test_getY_diff>:
}
void test_getY_diff(void){
   8016c:	b508      	push	{r3, lr}
	TEST_ASSERT_TRUE(getY_diff(2,5));
   8016e:	2002      	movs	r0, #2
   80170:	2105      	movs	r1, #5
   80172:	4b04      	ldr	r3, [pc, #16]	; (80184 <test_getY_diff+0x18>)
   80174:	4798      	blx	r3
   80176:	b918      	cbnz	r0, 80180 <test_getY_diff+0x14>
   80178:	4803      	ldr	r0, [pc, #12]	; (80188 <test_getY_diff+0x1c>)
   8017a:	2112      	movs	r1, #18
   8017c:	4b03      	ldr	r3, [pc, #12]	; (8018c <test_getY_diff+0x20>)
   8017e:	4798      	blx	r3
   80180:	bd08      	pop	{r3, pc}
   80182:	bf00      	nop
   80184:	00080d4d 	.word	0x00080d4d
   80188:	00085f58 	.word	0x00085f58
   8018c:	0008094d 	.word	0x0008094d

00080190 <test_CalculateAngle>:
}
void test_CalculateAngle(void){
   80190:	b508      	push	{r3, lr}
	TEST_ASSERT_FALSE(calculateAngle(2,2));
   80192:	2002      	movs	r0, #2
   80194:	4601      	mov	r1, r0
   80196:	4b04      	ldr	r3, [pc, #16]	; (801a8 <test_CalculateAngle+0x18>)
   80198:	4798      	blx	r3
   8019a:	b118      	cbz	r0, 801a4 <test_CalculateAngle+0x14>
   8019c:	4803      	ldr	r0, [pc, #12]	; (801ac <test_CalculateAngle+0x1c>)
   8019e:	2115      	movs	r1, #21
   801a0:	4b03      	ldr	r3, [pc, #12]	; (801b0 <test_CalculateAngle+0x20>)
   801a2:	4798      	blx	r3
   801a4:	bd08      	pop	{r3, pc}
   801a6:	bf00      	nop
   801a8:	00080d51 	.word	0x00080d51
   801ac:	00085f74 	.word	0x00085f74
   801b0:	0008094d 	.word	0x0008094d

000801b4 <test_CalculatesetPoint>:
}
void test_CalculatesetPoint(void){
   801b4:	b508      	push	{r3, lr}
	TEST_ASSERT_TRUE(calculateSetPoint(0,0));
   801b6:	2000      	movs	r0, #0
   801b8:	4601      	mov	r1, r0
   801ba:	4b04      	ldr	r3, [pc, #16]	; (801cc <test_CalculatesetPoint+0x18>)
   801bc:	4798      	blx	r3
   801be:	b918      	cbnz	r0, 801c8 <test_CalculatesetPoint+0x14>
   801c0:	4803      	ldr	r0, [pc, #12]	; (801d0 <test_CalculatesetPoint+0x1c>)
   801c2:	2118      	movs	r1, #24
   801c4:	4b03      	ldr	r3, [pc, #12]	; (801d4 <test_CalculatesetPoint+0x20>)
   801c6:	4798      	blx	r3
   801c8:	bd08      	pop	{r3, pc}
   801ca:	bf00      	nop
   801cc:	00080dd9 	.word	0x00080dd9
   801d0:	00085f58 	.word	0x00085f58
   801d4:	0008094d 	.word	0x0008094d

000801d8 <test_CalculateDistance>:
}
void test_CalculateDistance(void){
   801d8:	b508      	push	{r3, lr}
	TEST_ASSERT_FALSE(calculateDistance(0,0));
   801da:	2000      	movs	r0, #0
   801dc:	4601      	mov	r1, r0
   801de:	4b04      	ldr	r3, [pc, #16]	; (801f0 <test_CalculateDistance+0x18>)
   801e0:	4798      	blx	r3
   801e2:	b118      	cbz	r0, 801ec <test_CalculateDistance+0x14>
   801e4:	4803      	ldr	r0, [pc, #12]	; (801f4 <test_CalculateDistance+0x1c>)
   801e6:	211b      	movs	r1, #27
   801e8:	4b03      	ldr	r3, [pc, #12]	; (801f8 <test_CalculateDistance+0x20>)
   801ea:	4798      	blx	r3
   801ec:	bd08      	pop	{r3, pc}
   801ee:	bf00      	nop
   801f0:	00080ddd 	.word	0x00080ddd
   801f4:	00085f74 	.word	0x00085f74
   801f8:	0008094d 	.word	0x0008094d

000801fc <setUp>:
// 	
// 	UnityBegin("../Test/test_CalculateAngle.c");
// 	RUN_TEST(test_getX_diff,10);
// }
void setUp(void)
{
   801fc:	4770      	bx	lr
   801fe:	bf00      	nop

00080200 <tearDown>:
	/* Do nothing */
}

void tearDown(void)
{
   80200:	4770      	bx	lr
   80202:	bf00      	nop

00080204 <UnityPrintNumber>:
}

//-----------------------------------------------
/// basically do an itoa using as little ram as possible
void UnityPrintNumber(const _U_SINT number_to_print)
{
   80204:	e92d 41f0 	stmdb	sp!, {r4, r5, r6, r7, r8, lr}
   80208:	4605      	mov	r5, r0
    _U_SINT divisor = 1;
    _U_SINT next_divisor;
    _U_UINT number;

    if (number_to_print == (1l << (UNITY_LONG_WIDTH-1)))
   8020a:	f1b0 4f00 	cmp.w	r0, #2147483648	; 0x80000000
   8020e:	d132      	bne.n	80276 <UnityPrintNumber+0x72>
    {
        //The largest representable negative number
        UNITY_OUTPUT_CHAR('-');
   80210:	4b5f      	ldr	r3, [pc, #380]	; (80390 <UnityPrintNumber+0x18c>)
   80212:	6818      	ldr	r0, [r3, #0]
   80214:	6882      	ldr	r2, [r0, #8]
   80216:	6893      	ldr	r3, [r2, #8]
   80218:	3b01      	subs	r3, #1
   8021a:	6093      	str	r3, [r2, #8]
   8021c:	2b00      	cmp	r3, #0
   8021e:	da1d      	bge.n	8025c <UnityPrintNumber+0x58>
   80220:	6882      	ldr	r2, [r0, #8]
   80222:	6891      	ldr	r1, [r2, #8]
   80224:	6993      	ldr	r3, [r2, #24]
   80226:	4299      	cmp	r1, r3
   80228:	db12      	blt.n	80250 <UnityPrintNumber+0x4c>
   8022a:	6813      	ldr	r3, [r2, #0]
   8022c:	222d      	movs	r2, #45	; 0x2d
   8022e:	701a      	strb	r2, [r3, #0]
   80230:	4b57      	ldr	r3, [pc, #348]	; (80390 <UnityPrintNumber+0x18c>)
   80232:	6818      	ldr	r0, [r3, #0]
   80234:	6882      	ldr	r2, [r0, #8]
   80236:	6813      	ldr	r3, [r2, #0]
   80238:	7819      	ldrb	r1, [r3, #0]
   8023a:	290a      	cmp	r1, #10
   8023c:	d002      	beq.n	80244 <UnityPrintNumber+0x40>
   8023e:	3301      	adds	r3, #1
   80240:	6013      	str	r3, [r2, #0]
   80242:	e04f      	b.n	802e4 <UnityPrintNumber+0xe0>
   80244:	210a      	movs	r1, #10
   80246:	4b53      	ldr	r3, [pc, #332]	; (80394 <UnityPrintNumber+0x190>)
   80248:	4798      	blx	r3
        number = (1ul << (UNITY_LONG_WIDTH-1));
   8024a:	f04f 4500 	mov.w	r5, #2147483648	; 0x80000000
   8024e:	e049      	b.n	802e4 <UnityPrintNumber+0xe0>
    _U_UINT number;

    if (number_to_print == (1l << (UNITY_LONG_WIDTH-1)))
    {
        //The largest representable negative number
        UNITY_OUTPUT_CHAR('-');
   80250:	212d      	movs	r1, #45	; 0x2d
   80252:	4b50      	ldr	r3, [pc, #320]	; (80394 <UnityPrintNumber+0x190>)
   80254:	4798      	blx	r3
        number = (1ul << (UNITY_LONG_WIDTH-1));
   80256:	f04f 4500 	mov.w	r5, #2147483648	; 0x80000000
   8025a:	e043      	b.n	802e4 <UnityPrintNumber+0xe0>
    _U_UINT number;

    if (number_to_print == (1l << (UNITY_LONG_WIDTH-1)))
    {
        //The largest representable negative number
        UNITY_OUTPUT_CHAR('-');
   8025c:	6883      	ldr	r3, [r0, #8]
   8025e:	681b      	ldr	r3, [r3, #0]
   80260:	222d      	movs	r2, #45	; 0x2d
   80262:	701a      	strb	r2, [r3, #0]
   80264:	4b4a      	ldr	r3, [pc, #296]	; (80390 <UnityPrintNumber+0x18c>)
   80266:	681b      	ldr	r3, [r3, #0]
   80268:	689b      	ldr	r3, [r3, #8]
   8026a:	681a      	ldr	r2, [r3, #0]
   8026c:	3201      	adds	r2, #1
   8026e:	601a      	str	r2, [r3, #0]
        number = (1ul << (UNITY_LONG_WIDTH-1));
   80270:	f04f 4500 	mov.w	r5, #2147483648	; 0x80000000
   80274:	e036      	b.n	802e4 <UnityPrintNumber+0xe0>
    }
    else if (number_to_print < 0)
   80276:	2800      	cmp	r0, #0
   80278:	da34      	bge.n	802e4 <UnityPrintNumber+0xe0>
    {
        //Some other negative number
        UNITY_OUTPUT_CHAR('-');
   8027a:	4b45      	ldr	r3, [pc, #276]	; (80390 <UnityPrintNumber+0x18c>)
   8027c:	6818      	ldr	r0, [r3, #0]
   8027e:	6882      	ldr	r2, [r0, #8]
   80280:	6893      	ldr	r3, [r2, #8]
   80282:	3b01      	subs	r3, #1
   80284:	6093      	str	r3, [r2, #8]
   80286:	2b00      	cmp	r3, #0
   80288:	da19      	bge.n	802be <UnityPrintNumber+0xba>
   8028a:	6882      	ldr	r2, [r0, #8]
   8028c:	6891      	ldr	r1, [r2, #8]
   8028e:	6993      	ldr	r3, [r2, #24]
   80290:	4299      	cmp	r1, r3
   80292:	db10      	blt.n	802b6 <UnityPrintNumber+0xb2>
   80294:	6813      	ldr	r3, [r2, #0]
   80296:	222d      	movs	r2, #45	; 0x2d
   80298:	701a      	strb	r2, [r3, #0]
   8029a:	4b3d      	ldr	r3, [pc, #244]	; (80390 <UnityPrintNumber+0x18c>)
   8029c:	6818      	ldr	r0, [r3, #0]
   8029e:	6882      	ldr	r2, [r0, #8]
   802a0:	6813      	ldr	r3, [r2, #0]
   802a2:	7819      	ldrb	r1, [r3, #0]
   802a4:	290a      	cmp	r1, #10
   802a6:	d002      	beq.n	802ae <UnityPrintNumber+0xaa>
   802a8:	3301      	adds	r3, #1
   802aa:	6013      	str	r3, [r2, #0]
   802ac:	e011      	b.n	802d2 <UnityPrintNumber+0xce>
   802ae:	210a      	movs	r1, #10
   802b0:	4b38      	ldr	r3, [pc, #224]	; (80394 <UnityPrintNumber+0x190>)
   802b2:	4798      	blx	r3
   802b4:	e00d      	b.n	802d2 <UnityPrintNumber+0xce>
   802b6:	212d      	movs	r1, #45	; 0x2d
   802b8:	4b36      	ldr	r3, [pc, #216]	; (80394 <UnityPrintNumber+0x190>)
   802ba:	4798      	blx	r3
   802bc:	e009      	b.n	802d2 <UnityPrintNumber+0xce>
   802be:	6883      	ldr	r3, [r0, #8]
   802c0:	681b      	ldr	r3, [r3, #0]
   802c2:	222d      	movs	r2, #45	; 0x2d
   802c4:	701a      	strb	r2, [r3, #0]
   802c6:	4b32      	ldr	r3, [pc, #200]	; (80390 <UnityPrintNumber+0x18c>)
   802c8:	681b      	ldr	r3, [r3, #0]
   802ca:	689b      	ldr	r3, [r3, #8]
   802cc:	681a      	ldr	r2, [r3, #0]
   802ce:	3201      	adds	r2, #1
   802d0:	601a      	str	r2, [r3, #0]
        number = (_U_UINT)(-number_to_print);
   802d2:	426d      	negs	r5, r5
   802d4:	e006      	b.n	802e4 <UnityPrintNumber+0xe0>
    }

    // figure out initial divisor
    while (number / divisor > 9)
    {
        next_divisor = divisor * 10;
   802d6:	eb04 0384 	add.w	r3, r4, r4, lsl #2
   802da:	005b      	lsls	r3, r3, #1
        if (next_divisor > divisor)
   802dc:	429c      	cmp	r4, r3
   802de:	da06      	bge.n	802ee <UnityPrintNumber+0xea>
            divisor = next_divisor;
   802e0:	461c      	mov	r4, r3
   802e2:	e000      	b.n	802e6 <UnityPrintNumber+0xe2>

    if (number_to_print == (1l << (UNITY_LONG_WIDTH-1)))
    {
        //The largest representable negative number
        UNITY_OUTPUT_CHAR('-');
        number = (1ul << (UNITY_LONG_WIDTH-1));
   802e4:	2401      	movs	r4, #1
        //Positive number
        number = (_U_UINT)number_to_print;
    }

    // figure out initial divisor
    while (number / divisor > 9)
   802e6:	fbb5 f3f4 	udiv	r3, r5, r4
   802ea:	2b09      	cmp	r3, #9
   802ec:	d8f3      	bhi.n	802d6 <UnityPrintNumber+0xd2>
    }

    // now mod and print, then divide divisor
    do
    {
        UNITY_OUTPUT_CHAR((char)('0' + (number / divisor % 10)));
   802ee:	4e28      	ldr	r6, [pc, #160]	; (80390 <UnityPrintNumber+0x18c>)
   802f0:	4f29      	ldr	r7, [pc, #164]	; (80398 <UnityPrintNumber+0x194>)
   802f2:	f8df 80a0 	ldr.w	r8, [pc, #160]	; 80394 <UnityPrintNumber+0x190>
   802f6:	6830      	ldr	r0, [r6, #0]
   802f8:	6882      	ldr	r2, [r0, #8]
   802fa:	6893      	ldr	r3, [r2, #8]
   802fc:	3b01      	subs	r3, #1
   802fe:	6093      	str	r3, [r2, #8]
   80300:	2b00      	cmp	r3, #0
   80302:	da29      	bge.n	80358 <UnityPrintNumber+0x154>
   80304:	6882      	ldr	r2, [r0, #8]
   80306:	6891      	ldr	r1, [r2, #8]
   80308:	6993      	ldr	r3, [r2, #24]
   8030a:	4299      	cmp	r1, r3
   8030c:	db17      	blt.n	8033e <UnityPrintNumber+0x13a>
   8030e:	6811      	ldr	r1, [r2, #0]
   80310:	fbb5 f3f4 	udiv	r3, r5, r4
   80314:	fba7 0203 	umull	r0, r2, r7, r3
   80318:	08d2      	lsrs	r2, r2, #3
   8031a:	eb02 0282 	add.w	r2, r2, r2, lsl #2
   8031e:	eba3 0342 	sub.w	r3, r3, r2, lsl #1
   80322:	3330      	adds	r3, #48	; 0x30
   80324:	700b      	strb	r3, [r1, #0]
   80326:	6830      	ldr	r0, [r6, #0]
   80328:	6882      	ldr	r2, [r0, #8]
   8032a:	6813      	ldr	r3, [r2, #0]
   8032c:	7819      	ldrb	r1, [r3, #0]
   8032e:	290a      	cmp	r1, #10
   80330:	d002      	beq.n	80338 <UnityPrintNumber+0x134>
   80332:	3301      	adds	r3, #1
   80334:	6013      	str	r3, [r2, #0]
   80336:	e021      	b.n	8037c <UnityPrintNumber+0x178>
   80338:	210a      	movs	r1, #10
   8033a:	47c0      	blx	r8
   8033c:	e01e      	b.n	8037c <UnityPrintNumber+0x178>
   8033e:	fbb5 f3f4 	udiv	r3, r5, r4
   80342:	fba7 e103 	umull	lr, r1, r7, r3
   80346:	08c9      	lsrs	r1, r1, #3
   80348:	eb01 0181 	add.w	r1, r1, r1, lsl #2
   8034c:	eba3 0141 	sub.w	r1, r3, r1, lsl #1
   80350:	3130      	adds	r1, #48	; 0x30
   80352:	b2c9      	uxtb	r1, r1
   80354:	47c0      	blx	r8
   80356:	e011      	b.n	8037c <UnityPrintNumber+0x178>
   80358:	6883      	ldr	r3, [r0, #8]
   8035a:	6819      	ldr	r1, [r3, #0]
   8035c:	fbb5 f3f4 	udiv	r3, r5, r4
   80360:	fba7 0203 	umull	r0, r2, r7, r3
   80364:	08d2      	lsrs	r2, r2, #3
   80366:	eb02 0282 	add.w	r2, r2, r2, lsl #2
   8036a:	eba3 0342 	sub.w	r3, r3, r2, lsl #1
   8036e:	3330      	adds	r3, #48	; 0x30
   80370:	700b      	strb	r3, [r1, #0]
   80372:	6833      	ldr	r3, [r6, #0]
   80374:	689b      	ldr	r3, [r3, #8]
   80376:	681a      	ldr	r2, [r3, #0]
   80378:	3201      	adds	r2, #1
   8037a:	601a      	str	r2, [r3, #0]
        divisor /= 10;
   8037c:	4b07      	ldr	r3, [pc, #28]	; (8039c <UnityPrintNumber+0x198>)
   8037e:	fb83 2304 	smull	r2, r3, r3, r4
   80382:	17e4      	asrs	r4, r4, #31
   80384:	ebc4 04a3 	rsb	r4, r4, r3, asr #2
    }
    while (divisor > 0);
   80388:	2c00      	cmp	r4, #0
   8038a:	dcb4      	bgt.n	802f6 <UnityPrintNumber+0xf2>
}
   8038c:	e8bd 81f0 	ldmia.w	sp!, {r4, r5, r6, r7, r8, pc}
   80390:	20070570 	.word	0x20070570
   80394:	00083f29 	.word	0x00083f29
   80398:	cccccccd 	.word	0xcccccccd
   8039c:	66666667 	.word	0x66666667

000803a0 <UnityPrintNumberHex>:
    while (divisor > 0);
}

//-----------------------------------------------
void UnityPrintNumberHex(const _U_UINT number, const char nibbles_to_print)
{
   803a0:	e92d 43f8 	stmdb	sp!, {r3, r4, r5, r6, r7, r8, r9, lr}
   803a4:	4606      	mov	r6, r0
   803a6:	460c      	mov	r4, r1
    _U_UINT nibble;
    char nibbles = nibbles_to_print;
    UNITY_OUTPUT_CHAR('0');
   803a8:	4b5e      	ldr	r3, [pc, #376]	; (80524 <UnityPrintNumberHex+0x184>)
   803aa:	6818      	ldr	r0, [r3, #0]
   803ac:	6882      	ldr	r2, [r0, #8]
   803ae:	6893      	ldr	r3, [r2, #8]
   803b0:	3b01      	subs	r3, #1
   803b2:	6093      	str	r3, [r2, #8]
   803b4:	2b00      	cmp	r3, #0
   803b6:	da19      	bge.n	803ec <UnityPrintNumberHex+0x4c>
   803b8:	6882      	ldr	r2, [r0, #8]
   803ba:	6891      	ldr	r1, [r2, #8]
   803bc:	6993      	ldr	r3, [r2, #24]
   803be:	4299      	cmp	r1, r3
   803c0:	db10      	blt.n	803e4 <UnityPrintNumberHex+0x44>
   803c2:	6813      	ldr	r3, [r2, #0]
   803c4:	2230      	movs	r2, #48	; 0x30
   803c6:	701a      	strb	r2, [r3, #0]
   803c8:	4b56      	ldr	r3, [pc, #344]	; (80524 <UnityPrintNumberHex+0x184>)
   803ca:	6818      	ldr	r0, [r3, #0]
   803cc:	6882      	ldr	r2, [r0, #8]
   803ce:	6813      	ldr	r3, [r2, #0]
   803d0:	7819      	ldrb	r1, [r3, #0]
   803d2:	290a      	cmp	r1, #10
   803d4:	d002      	beq.n	803dc <UnityPrintNumberHex+0x3c>
   803d6:	3301      	adds	r3, #1
   803d8:	6013      	str	r3, [r2, #0]
   803da:	e011      	b.n	80400 <UnityPrintNumberHex+0x60>
   803dc:	210a      	movs	r1, #10
   803de:	4b52      	ldr	r3, [pc, #328]	; (80528 <UnityPrintNumberHex+0x188>)
   803e0:	4798      	blx	r3
   803e2:	e00d      	b.n	80400 <UnityPrintNumberHex+0x60>
   803e4:	2130      	movs	r1, #48	; 0x30
   803e6:	4b50      	ldr	r3, [pc, #320]	; (80528 <UnityPrintNumberHex+0x188>)
   803e8:	4798      	blx	r3
   803ea:	e009      	b.n	80400 <UnityPrintNumberHex+0x60>
   803ec:	6883      	ldr	r3, [r0, #8]
   803ee:	681b      	ldr	r3, [r3, #0]
   803f0:	2230      	movs	r2, #48	; 0x30
   803f2:	701a      	strb	r2, [r3, #0]
   803f4:	4b4b      	ldr	r3, [pc, #300]	; (80524 <UnityPrintNumberHex+0x184>)
   803f6:	681b      	ldr	r3, [r3, #0]
   803f8:	689b      	ldr	r3, [r3, #8]
   803fa:	681a      	ldr	r2, [r3, #0]
   803fc:	3201      	adds	r2, #1
   803fe:	601a      	str	r2, [r3, #0]
    UNITY_OUTPUT_CHAR('x');
   80400:	4b48      	ldr	r3, [pc, #288]	; (80524 <UnityPrintNumberHex+0x184>)
   80402:	6818      	ldr	r0, [r3, #0]
   80404:	6882      	ldr	r2, [r0, #8]
   80406:	6893      	ldr	r3, [r2, #8]
   80408:	3b01      	subs	r3, #1
   8040a:	6093      	str	r3, [r2, #8]
   8040c:	2b00      	cmp	r3, #0
   8040e:	da1b      	bge.n	80448 <UnityPrintNumberHex+0xa8>
   80410:	6882      	ldr	r2, [r0, #8]
   80412:	6891      	ldr	r1, [r2, #8]
   80414:	6993      	ldr	r3, [r2, #24]
   80416:	4299      	cmp	r1, r3
   80418:	db10      	blt.n	8043c <UnityPrintNumberHex+0x9c>
   8041a:	6813      	ldr	r3, [r2, #0]
   8041c:	2278      	movs	r2, #120	; 0x78
   8041e:	701a      	strb	r2, [r3, #0]
   80420:	4b40      	ldr	r3, [pc, #256]	; (80524 <UnityPrintNumberHex+0x184>)
   80422:	6818      	ldr	r0, [r3, #0]
   80424:	6882      	ldr	r2, [r0, #8]
   80426:	6813      	ldr	r3, [r2, #0]
   80428:	7819      	ldrb	r1, [r3, #0]
   8042a:	290a      	cmp	r1, #10
   8042c:	d002      	beq.n	80434 <UnityPrintNumberHex+0x94>
   8042e:	3301      	adds	r3, #1
   80430:	6013      	str	r3, [r2, #0]
   80432:	e006      	b.n	80442 <UnityPrintNumberHex+0xa2>
   80434:	210a      	movs	r1, #10
   80436:	4b3c      	ldr	r3, [pc, #240]	; (80528 <UnityPrintNumberHex+0x188>)
   80438:	4798      	blx	r3
   8043a:	e002      	b.n	80442 <UnityPrintNumberHex+0xa2>
   8043c:	2178      	movs	r1, #120	; 0x78
   8043e:	4b3a      	ldr	r3, [pc, #232]	; (80528 <UnityPrintNumberHex+0x188>)
   80440:	4798      	blx	r3

    while (nibbles > 0)
   80442:	b964      	cbnz	r4, 8045e <UnityPrintNumberHex+0xbe>
   80444:	e8bd 83f8 	ldmia.w	sp!, {r3, r4, r5, r6, r7, r8, r9, pc}
void UnityPrintNumberHex(const _U_UINT number, const char nibbles_to_print)
{
    _U_UINT nibble;
    char nibbles = nibbles_to_print;
    UNITY_OUTPUT_CHAR('0');
    UNITY_OUTPUT_CHAR('x');
   80448:	6883      	ldr	r3, [r0, #8]
   8044a:	681b      	ldr	r3, [r3, #0]
   8044c:	2278      	movs	r2, #120	; 0x78
   8044e:	701a      	strb	r2, [r3, #0]
   80450:	4b34      	ldr	r3, [pc, #208]	; (80524 <UnityPrintNumberHex+0x184>)
   80452:	681b      	ldr	r3, [r3, #0]
   80454:	689b      	ldr	r3, [r3, #8]
   80456:	681a      	ldr	r2, [r3, #0]
   80458:	3201      	adds	r2, #1
   8045a:	601a      	str	r2, [r3, #0]
   8045c:	e7f1      	b.n	80442 <UnityPrintNumberHex+0xa2>
        {
            UNITY_OUTPUT_CHAR((char)('0' + nibble));
        }
        else
        {
            UNITY_OUTPUT_CHAR((char)('A' - 10 + nibble));
   8045e:	4d31      	ldr	r5, [pc, #196]	; (80524 <UnityPrintNumberHex+0x184>)
   80460:	f8df 90c4 	ldr.w	r9, [pc, #196]	; 80528 <UnityPrintNumberHex+0x188>
   80464:	f04f 080a 	mov.w	r8, #10
    UNITY_OUTPUT_CHAR('0');
    UNITY_OUTPUT_CHAR('x');

    while (nibbles > 0)
    {
        nibble = (number >> (--nibbles << 2)) & 0x0000000F;
   80468:	3c01      	subs	r4, #1
   8046a:	b2e4      	uxtb	r4, r4
   8046c:	00a3      	lsls	r3, r4, #2
   8046e:	fa26 f303 	lsr.w	r3, r6, r3
   80472:	f003 030f 	and.w	r3, r3, #15
        if (nibble <= 9)
   80476:	2b09      	cmp	r3, #9
   80478:	d828      	bhi.n	804cc <UnityPrintNumberHex+0x12c>
        {
            UNITY_OUTPUT_CHAR((char)('0' + nibble));
   8047a:	6828      	ldr	r0, [r5, #0]
   8047c:	6881      	ldr	r1, [r0, #8]
   8047e:	688a      	ldr	r2, [r1, #8]
   80480:	3a01      	subs	r2, #1
   80482:	608a      	str	r2, [r1, #8]
   80484:	2a00      	cmp	r2, #0
   80486:	da17      	bge.n	804b8 <UnityPrintNumberHex+0x118>
   80488:	6882      	ldr	r2, [r0, #8]
   8048a:	6891      	ldr	r1, [r2, #8]
   8048c:	6997      	ldr	r7, [r2, #24]
   8048e:	42b9      	cmp	r1, r7
   80490:	db0e      	blt.n	804b0 <UnityPrintNumberHex+0x110>
   80492:	6812      	ldr	r2, [r2, #0]
   80494:	3330      	adds	r3, #48	; 0x30
   80496:	7013      	strb	r3, [r2, #0]
   80498:	6828      	ldr	r0, [r5, #0]
   8049a:	6882      	ldr	r2, [r0, #8]
   8049c:	6813      	ldr	r3, [r2, #0]
   8049e:	7819      	ldrb	r1, [r3, #0]
   804a0:	290a      	cmp	r1, #10
   804a2:	d002      	beq.n	804aa <UnityPrintNumberHex+0x10a>
   804a4:	3301      	adds	r3, #1
   804a6:	6013      	str	r3, [r2, #0]
   804a8:	e038      	b.n	8051c <UnityPrintNumberHex+0x17c>
   804aa:	4641      	mov	r1, r8
   804ac:	47c8      	blx	r9
   804ae:	e035      	b.n	8051c <UnityPrintNumberHex+0x17c>
   804b0:	f103 0130 	add.w	r1, r3, #48	; 0x30
   804b4:	47c8      	blx	r9
   804b6:	e031      	b.n	8051c <UnityPrintNumberHex+0x17c>
   804b8:	6882      	ldr	r2, [r0, #8]
   804ba:	6812      	ldr	r2, [r2, #0]
   804bc:	3330      	adds	r3, #48	; 0x30
   804be:	7013      	strb	r3, [r2, #0]
   804c0:	682b      	ldr	r3, [r5, #0]
   804c2:	689b      	ldr	r3, [r3, #8]
   804c4:	681a      	ldr	r2, [r3, #0]
   804c6:	3201      	adds	r2, #1
   804c8:	601a      	str	r2, [r3, #0]
   804ca:	e027      	b.n	8051c <UnityPrintNumberHex+0x17c>
        }
        else
        {
            UNITY_OUTPUT_CHAR((char)('A' - 10 + nibble));
   804cc:	6828      	ldr	r0, [r5, #0]
   804ce:	6881      	ldr	r1, [r0, #8]
   804d0:	688a      	ldr	r2, [r1, #8]
   804d2:	3a01      	subs	r2, #1
   804d4:	608a      	str	r2, [r1, #8]
   804d6:	2a00      	cmp	r2, #0
   804d8:	da17      	bge.n	8050a <UnityPrintNumberHex+0x16a>
   804da:	6882      	ldr	r2, [r0, #8]
   804dc:	6891      	ldr	r1, [r2, #8]
   804de:	6997      	ldr	r7, [r2, #24]
   804e0:	42b9      	cmp	r1, r7
   804e2:	db0e      	blt.n	80502 <UnityPrintNumberHex+0x162>
   804e4:	6812      	ldr	r2, [r2, #0]
   804e6:	3337      	adds	r3, #55	; 0x37
   804e8:	7013      	strb	r3, [r2, #0]
   804ea:	6828      	ldr	r0, [r5, #0]
   804ec:	6882      	ldr	r2, [r0, #8]
   804ee:	6813      	ldr	r3, [r2, #0]
   804f0:	7819      	ldrb	r1, [r3, #0]
   804f2:	290a      	cmp	r1, #10
   804f4:	d002      	beq.n	804fc <UnityPrintNumberHex+0x15c>
   804f6:	3301      	adds	r3, #1
   804f8:	6013      	str	r3, [r2, #0]
   804fa:	e00f      	b.n	8051c <UnityPrintNumberHex+0x17c>
   804fc:	4641      	mov	r1, r8
   804fe:	47c8      	blx	r9
   80500:	e00c      	b.n	8051c <UnityPrintNumberHex+0x17c>
   80502:	f103 0137 	add.w	r1, r3, #55	; 0x37
   80506:	47c8      	blx	r9
   80508:	e008      	b.n	8051c <UnityPrintNumberHex+0x17c>
   8050a:	6882      	ldr	r2, [r0, #8]
   8050c:	6812      	ldr	r2, [r2, #0]
   8050e:	3337      	adds	r3, #55	; 0x37
   80510:	7013      	strb	r3, [r2, #0]
   80512:	682b      	ldr	r3, [r5, #0]
   80514:	689b      	ldr	r3, [r3, #8]
   80516:	681a      	ldr	r2, [r3, #0]
   80518:	3201      	adds	r2, #1
   8051a:	601a      	str	r2, [r3, #0]
    _U_UINT nibble;
    char nibbles = nibbles_to_print;
    UNITY_OUTPUT_CHAR('0');
    UNITY_OUTPUT_CHAR('x');

    while (nibbles > 0)
   8051c:	2c00      	cmp	r4, #0
   8051e:	d1a3      	bne.n	80468 <UnityPrintNumberHex+0xc8>
   80520:	e8bd 83f8 	ldmia.w	sp!, {r3, r4, r5, r6, r7, r8, r9, pc}
   80524:	20070570 	.word	0x20070570
   80528:	00083f29 	.word	0x00083f29

0008052c <UnityPrint>:
//-----------------------------------------------
// Pretty Printers & Test Result Output Handlers
//-----------------------------------------------

void UnityPrint(const char* string)
{
   8052c:	b5f8      	push	{r3, r4, r5, r6, r7, lr}
    const char* pch = string;

    if (pch != NULL)
   8052e:	2800      	cmp	r0, #0
   80530:	f000 810a 	beq.w	80748 <UnityPrint+0x21c>
    {
        while (*pch)
   80534:	7803      	ldrb	r3, [r0, #0]
   80536:	2b00      	cmp	r3, #0
   80538:	f000 8106 	beq.w	80748 <UnityPrint+0x21c>
   8053c:	1c44      	adds	r4, r0, #1
                UNITY_OUTPUT_CHAR('n');
            }
            // unprintable characters are shown as codes
            else
            {
                UNITY_OUTPUT_CHAR('\\');
   8053e:	4d83      	ldr	r5, [pc, #524]	; (8074c <UnityPrint+0x220>)
                UnityPrintNumberHex((_U_UINT)*pch, 2);
   80540:	4e83      	ldr	r6, [pc, #524]	; (80750 <UnityPrint+0x224>)
                UNITY_OUTPUT_CHAR('n');
            }
            // unprintable characters are shown as codes
            else
            {
                UNITY_OUTPUT_CHAR('\\');
   80542:	4f84      	ldr	r7, [pc, #528]	; (80754 <UnityPrint+0x228>)
    if (pch != NULL)
    {
        while (*pch)
        {
            // printable characters plus CR & LF are printed
            if ((*pch <= 126) && (*pch >= 32))
   80544:	f1a3 0220 	sub.w	r2, r3, #32
   80548:	b2d2      	uxtb	r2, r2
   8054a:	2a5e      	cmp	r2, #94	; 0x5e
   8054c:	d82a      	bhi.n	805a4 <UnityPrint+0x78>
            {
                UNITY_OUTPUT_CHAR(*pch);
   8054e:	6828      	ldr	r0, [r5, #0]
   80550:	6882      	ldr	r2, [r0, #8]
   80552:	6893      	ldr	r3, [r2, #8]
   80554:	3b01      	subs	r3, #1
   80556:	6093      	str	r3, [r2, #8]
   80558:	2b00      	cmp	r3, #0
   8055a:	da18      	bge.n	8058e <UnityPrint+0x62>
   8055c:	6882      	ldr	r2, [r0, #8]
   8055e:	6891      	ldr	r1, [r2, #8]
   80560:	6993      	ldr	r3, [r2, #24]
   80562:	4299      	cmp	r1, r3
   80564:	db0f      	blt.n	80586 <UnityPrint+0x5a>
   80566:	6813      	ldr	r3, [r2, #0]
   80568:	f814 2c01 	ldrb.w	r2, [r4, #-1]
   8056c:	701a      	strb	r2, [r3, #0]
   8056e:	6828      	ldr	r0, [r5, #0]
   80570:	6882      	ldr	r2, [r0, #8]
   80572:	6813      	ldr	r3, [r2, #0]
   80574:	7819      	ldrb	r1, [r3, #0]
   80576:	290a      	cmp	r1, #10
   80578:	d002      	beq.n	80580 <UnityPrint+0x54>
   8057a:	3301      	adds	r3, #1
   8057c:	6013      	str	r3, [r2, #0]
   8057e:	e0de      	b.n	8073e <UnityPrint+0x212>
   80580:	210a      	movs	r1, #10
   80582:	47b8      	blx	r7
   80584:	e0db      	b.n	8073e <UnityPrint+0x212>
   80586:	f814 1c01 	ldrb.w	r1, [r4, #-1]
   8058a:	47b8      	blx	r7
   8058c:	e0d7      	b.n	8073e <UnityPrint+0x212>
   8058e:	6883      	ldr	r3, [r0, #8]
   80590:	681b      	ldr	r3, [r3, #0]
   80592:	f814 2c01 	ldrb.w	r2, [r4, #-1]
   80596:	701a      	strb	r2, [r3, #0]
   80598:	682b      	ldr	r3, [r5, #0]
   8059a:	689b      	ldr	r3, [r3, #8]
   8059c:	681a      	ldr	r2, [r3, #0]
   8059e:	3201      	adds	r2, #1
   805a0:	601a      	str	r2, [r3, #0]
   805a2:	e0cc      	b.n	8073e <UnityPrint+0x212>
            }
            //write escaped carriage returns
            else if (*pch == 13)
   805a4:	2b0d      	cmp	r3, #13
   805a6:	d14e      	bne.n	80646 <UnityPrint+0x11a>
            {
                UNITY_OUTPUT_CHAR('\\');
   805a8:	6828      	ldr	r0, [r5, #0]
   805aa:	6882      	ldr	r2, [r0, #8]
   805ac:	6893      	ldr	r3, [r2, #8]
   805ae:	3b01      	subs	r3, #1
   805b0:	6093      	str	r3, [r2, #8]
   805b2:	2b00      	cmp	r3, #0
   805b4:	da16      	bge.n	805e4 <UnityPrint+0xb8>
   805b6:	6882      	ldr	r2, [r0, #8]
   805b8:	6891      	ldr	r1, [r2, #8]
   805ba:	6993      	ldr	r3, [r2, #24]
   805bc:	4299      	cmp	r1, r3
   805be:	db0e      	blt.n	805de <UnityPrint+0xb2>
   805c0:	6813      	ldr	r3, [r2, #0]
   805c2:	225c      	movs	r2, #92	; 0x5c
   805c4:	701a      	strb	r2, [r3, #0]
   805c6:	6828      	ldr	r0, [r5, #0]
   805c8:	6882      	ldr	r2, [r0, #8]
   805ca:	6813      	ldr	r3, [r2, #0]
   805cc:	7819      	ldrb	r1, [r3, #0]
   805ce:	290a      	cmp	r1, #10
   805d0:	d002      	beq.n	805d8 <UnityPrint+0xac>
   805d2:	3301      	adds	r3, #1
   805d4:	6013      	str	r3, [r2, #0]
   805d6:	e00e      	b.n	805f6 <UnityPrint+0xca>
   805d8:	210a      	movs	r1, #10
   805da:	47b8      	blx	r7
   805dc:	e00b      	b.n	805f6 <UnityPrint+0xca>
   805de:	215c      	movs	r1, #92	; 0x5c
   805e0:	47b8      	blx	r7
   805e2:	e008      	b.n	805f6 <UnityPrint+0xca>
   805e4:	6883      	ldr	r3, [r0, #8]
   805e6:	681b      	ldr	r3, [r3, #0]
   805e8:	225c      	movs	r2, #92	; 0x5c
   805ea:	701a      	strb	r2, [r3, #0]
   805ec:	682b      	ldr	r3, [r5, #0]
   805ee:	689b      	ldr	r3, [r3, #8]
   805f0:	681a      	ldr	r2, [r3, #0]
   805f2:	3201      	adds	r2, #1
   805f4:	601a      	str	r2, [r3, #0]
                UNITY_OUTPUT_CHAR('r');
   805f6:	6828      	ldr	r0, [r5, #0]
   805f8:	6882      	ldr	r2, [r0, #8]
   805fa:	6893      	ldr	r3, [r2, #8]
   805fc:	3b01      	subs	r3, #1
   805fe:	6093      	str	r3, [r2, #8]
   80600:	2b00      	cmp	r3, #0
   80602:	da16      	bge.n	80632 <UnityPrint+0x106>
   80604:	6882      	ldr	r2, [r0, #8]
   80606:	6891      	ldr	r1, [r2, #8]
   80608:	6993      	ldr	r3, [r2, #24]
   8060a:	4299      	cmp	r1, r3
   8060c:	db0e      	blt.n	8062c <UnityPrint+0x100>
   8060e:	6813      	ldr	r3, [r2, #0]
   80610:	2272      	movs	r2, #114	; 0x72
   80612:	701a      	strb	r2, [r3, #0]
   80614:	6828      	ldr	r0, [r5, #0]
   80616:	6882      	ldr	r2, [r0, #8]
   80618:	6813      	ldr	r3, [r2, #0]
   8061a:	7819      	ldrb	r1, [r3, #0]
   8061c:	290a      	cmp	r1, #10
   8061e:	d002      	beq.n	80626 <UnityPrint+0xfa>
   80620:	3301      	adds	r3, #1
   80622:	6013      	str	r3, [r2, #0]
   80624:	e08b      	b.n	8073e <UnityPrint+0x212>
   80626:	210a      	movs	r1, #10
   80628:	47b8      	blx	r7
   8062a:	e088      	b.n	8073e <UnityPrint+0x212>
   8062c:	2172      	movs	r1, #114	; 0x72
   8062e:	47b8      	blx	r7
   80630:	e085      	b.n	8073e <UnityPrint+0x212>
   80632:	6883      	ldr	r3, [r0, #8]
   80634:	681b      	ldr	r3, [r3, #0]
   80636:	2272      	movs	r2, #114	; 0x72
   80638:	701a      	strb	r2, [r3, #0]
   8063a:	682b      	ldr	r3, [r5, #0]
   8063c:	689b      	ldr	r3, [r3, #8]
   8063e:	681a      	ldr	r2, [r3, #0]
   80640:	3201      	adds	r2, #1
   80642:	601a      	str	r2, [r3, #0]
   80644:	e07b      	b.n	8073e <UnityPrint+0x212>
            }
            //write escaped line feeds
            else if (*pch == 10)
   80646:	2b0a      	cmp	r3, #10
   80648:	d14e      	bne.n	806e8 <UnityPrint+0x1bc>
            {
                UNITY_OUTPUT_CHAR('\\');
   8064a:	6828      	ldr	r0, [r5, #0]
   8064c:	6882      	ldr	r2, [r0, #8]
   8064e:	6893      	ldr	r3, [r2, #8]
   80650:	3b01      	subs	r3, #1
   80652:	6093      	str	r3, [r2, #8]
   80654:	2b00      	cmp	r3, #0
   80656:	da16      	bge.n	80686 <UnityPrint+0x15a>
   80658:	6882      	ldr	r2, [r0, #8]
   8065a:	6891      	ldr	r1, [r2, #8]
   8065c:	6993      	ldr	r3, [r2, #24]
   8065e:	4299      	cmp	r1, r3
   80660:	db0e      	blt.n	80680 <UnityPrint+0x154>
   80662:	6813      	ldr	r3, [r2, #0]
   80664:	225c      	movs	r2, #92	; 0x5c
   80666:	701a      	strb	r2, [r3, #0]
   80668:	6828      	ldr	r0, [r5, #0]
   8066a:	6882      	ldr	r2, [r0, #8]
   8066c:	6813      	ldr	r3, [r2, #0]
   8066e:	7819      	ldrb	r1, [r3, #0]
   80670:	290a      	cmp	r1, #10
   80672:	d002      	beq.n	8067a <UnityPrint+0x14e>
   80674:	3301      	adds	r3, #1
   80676:	6013      	str	r3, [r2, #0]
   80678:	e00e      	b.n	80698 <UnityPrint+0x16c>
   8067a:	210a      	movs	r1, #10
   8067c:	47b8      	blx	r7
   8067e:	e00b      	b.n	80698 <UnityPrint+0x16c>
   80680:	215c      	movs	r1, #92	; 0x5c
   80682:	47b8      	blx	r7
   80684:	e008      	b.n	80698 <UnityPrint+0x16c>
   80686:	6883      	ldr	r3, [r0, #8]
   80688:	681b      	ldr	r3, [r3, #0]
   8068a:	225c      	movs	r2, #92	; 0x5c
   8068c:	701a      	strb	r2, [r3, #0]
   8068e:	682b      	ldr	r3, [r5, #0]
   80690:	689b      	ldr	r3, [r3, #8]
   80692:	681a      	ldr	r2, [r3, #0]
   80694:	3201      	adds	r2, #1
   80696:	601a      	str	r2, [r3, #0]
                UNITY_OUTPUT_CHAR('n');
   80698:	6828      	ldr	r0, [r5, #0]
   8069a:	6882      	ldr	r2, [r0, #8]
   8069c:	6893      	ldr	r3, [r2, #8]
   8069e:	3b01      	subs	r3, #1
   806a0:	6093      	str	r3, [r2, #8]
   806a2:	2b00      	cmp	r3, #0
   806a4:	da16      	bge.n	806d4 <UnityPrint+0x1a8>
   806a6:	6882      	ldr	r2, [r0, #8]
   806a8:	6891      	ldr	r1, [r2, #8]
   806aa:	6993      	ldr	r3, [r2, #24]
   806ac:	4299      	cmp	r1, r3
   806ae:	db0e      	blt.n	806ce <UnityPrint+0x1a2>
   806b0:	6813      	ldr	r3, [r2, #0]
   806b2:	226e      	movs	r2, #110	; 0x6e
   806b4:	701a      	strb	r2, [r3, #0]
   806b6:	6828      	ldr	r0, [r5, #0]
   806b8:	6882      	ldr	r2, [r0, #8]
   806ba:	6813      	ldr	r3, [r2, #0]
   806bc:	7819      	ldrb	r1, [r3, #0]
   806be:	290a      	cmp	r1, #10
   806c0:	d002      	beq.n	806c8 <UnityPrint+0x19c>
   806c2:	3301      	adds	r3, #1
   806c4:	6013      	str	r3, [r2, #0]
   806c6:	e03a      	b.n	8073e <UnityPrint+0x212>
   806c8:	210a      	movs	r1, #10
   806ca:	47b8      	blx	r7
   806cc:	e037      	b.n	8073e <UnityPrint+0x212>
   806ce:	216e      	movs	r1, #110	; 0x6e
   806d0:	47b8      	blx	r7
   806d2:	e034      	b.n	8073e <UnityPrint+0x212>
   806d4:	6883      	ldr	r3, [r0, #8]
   806d6:	681b      	ldr	r3, [r3, #0]
   806d8:	226e      	movs	r2, #110	; 0x6e
   806da:	701a      	strb	r2, [r3, #0]
   806dc:	682b      	ldr	r3, [r5, #0]
   806de:	689b      	ldr	r3, [r3, #8]
   806e0:	681a      	ldr	r2, [r3, #0]
   806e2:	3201      	adds	r2, #1
   806e4:	601a      	str	r2, [r3, #0]
   806e6:	e02a      	b.n	8073e <UnityPrint+0x212>
            }
            // unprintable characters are shown as codes
            else
            {
                UNITY_OUTPUT_CHAR('\\');
   806e8:	6828      	ldr	r0, [r5, #0]
   806ea:	6882      	ldr	r2, [r0, #8]
   806ec:	6893      	ldr	r3, [r2, #8]
   806ee:	3b01      	subs	r3, #1
   806f0:	6093      	str	r3, [r2, #8]
   806f2:	2b00      	cmp	r3, #0
   806f4:	da16      	bge.n	80724 <UnityPrint+0x1f8>
   806f6:	6882      	ldr	r2, [r0, #8]
   806f8:	6891      	ldr	r1, [r2, #8]
   806fa:	6993      	ldr	r3, [r2, #24]
   806fc:	4299      	cmp	r1, r3
   806fe:	db0e      	blt.n	8071e <UnityPrint+0x1f2>
   80700:	6813      	ldr	r3, [r2, #0]
   80702:	225c      	movs	r2, #92	; 0x5c
   80704:	701a      	strb	r2, [r3, #0]
   80706:	6828      	ldr	r0, [r5, #0]
   80708:	6882      	ldr	r2, [r0, #8]
   8070a:	6813      	ldr	r3, [r2, #0]
   8070c:	7819      	ldrb	r1, [r3, #0]
   8070e:	290a      	cmp	r1, #10
   80710:	d002      	beq.n	80718 <UnityPrint+0x1ec>
   80712:	3301      	adds	r3, #1
   80714:	6013      	str	r3, [r2, #0]
   80716:	e00e      	b.n	80736 <UnityPrint+0x20a>
   80718:	210a      	movs	r1, #10
   8071a:	47b8      	blx	r7
   8071c:	e00b      	b.n	80736 <UnityPrint+0x20a>
   8071e:	215c      	movs	r1, #92	; 0x5c
   80720:	47b8      	blx	r7
   80722:	e008      	b.n	80736 <UnityPrint+0x20a>
   80724:	6883      	ldr	r3, [r0, #8]
   80726:	681b      	ldr	r3, [r3, #0]
   80728:	225c      	movs	r2, #92	; 0x5c
   8072a:	701a      	strb	r2, [r3, #0]
   8072c:	682b      	ldr	r3, [r5, #0]
   8072e:	689b      	ldr	r3, [r3, #8]
   80730:	681a      	ldr	r2, [r3, #0]
   80732:	3201      	adds	r2, #1
   80734:	601a      	str	r2, [r3, #0]
                UnityPrintNumberHex((_U_UINT)*pch, 2);
   80736:	f814 0c01 	ldrb.w	r0, [r4, #-1]
   8073a:	2102      	movs	r1, #2
   8073c:	47b0      	blx	r6
{
    const char* pch = string;

    if (pch != NULL)
    {
        while (*pch)
   8073e:	f814 3b01 	ldrb.w	r3, [r4], #1
   80742:	2b00      	cmp	r3, #0
   80744:	f47f aefe 	bne.w	80544 <UnityPrint+0x18>
   80748:	bdf8      	pop	{r3, r4, r5, r6, r7, pc}
   8074a:	bf00      	nop
   8074c:	20070570 	.word	0x20070570
   80750:	000803a1 	.word	0x000803a1
   80754:	00083f29 	.word	0x00083f29

00080758 <UnityTestResultsBegin>:
    UnityPrint(UnityStrOk);
}

//-----------------------------------------------
static void UnityTestResultsBegin(const char* file, const UNITY_LINE_TYPE line)
{
   80758:	b538      	push	{r3, r4, r5, lr}
   8075a:	460d      	mov	r5, r1
    UnityPrint(file);
   8075c:	4b46      	ldr	r3, [pc, #280]	; (80878 <UnityTestResultsBegin+0x120>)
   8075e:	4798      	blx	r3
    UNITY_OUTPUT_CHAR(':');
   80760:	4b46      	ldr	r3, [pc, #280]	; (8087c <UnityTestResultsBegin+0x124>)
   80762:	6818      	ldr	r0, [r3, #0]
   80764:	6884      	ldr	r4, [r0, #8]
   80766:	68a2      	ldr	r2, [r4, #8]
   80768:	3a01      	subs	r2, #1
   8076a:	60a2      	str	r2, [r4, #8]
   8076c:	2a00      	cmp	r2, #0
   8076e:	da19      	bge.n	807a4 <UnityTestResultsBegin+0x4c>
   80770:	6882      	ldr	r2, [r0, #8]
   80772:	6893      	ldr	r3, [r2, #8]
   80774:	6991      	ldr	r1, [r2, #24]
   80776:	428b      	cmp	r3, r1
   80778:	db10      	blt.n	8079c <UnityTestResultsBegin+0x44>
   8077a:	6813      	ldr	r3, [r2, #0]
   8077c:	223a      	movs	r2, #58	; 0x3a
   8077e:	701a      	strb	r2, [r3, #0]
   80780:	4b3e      	ldr	r3, [pc, #248]	; (8087c <UnityTestResultsBegin+0x124>)
   80782:	6818      	ldr	r0, [r3, #0]
   80784:	6882      	ldr	r2, [r0, #8]
   80786:	6813      	ldr	r3, [r2, #0]
   80788:	7819      	ldrb	r1, [r3, #0]
   8078a:	290a      	cmp	r1, #10
   8078c:	d002      	beq.n	80794 <UnityTestResultsBegin+0x3c>
   8078e:	3301      	adds	r3, #1
   80790:	6013      	str	r3, [r2, #0]
   80792:	e011      	b.n	807b8 <UnityTestResultsBegin+0x60>
   80794:	210a      	movs	r1, #10
   80796:	4b3a      	ldr	r3, [pc, #232]	; (80880 <UnityTestResultsBegin+0x128>)
   80798:	4798      	blx	r3
   8079a:	e00d      	b.n	807b8 <UnityTestResultsBegin+0x60>
   8079c:	213a      	movs	r1, #58	; 0x3a
   8079e:	4b38      	ldr	r3, [pc, #224]	; (80880 <UnityTestResultsBegin+0x128>)
   807a0:	4798      	blx	r3
   807a2:	e009      	b.n	807b8 <UnityTestResultsBegin+0x60>
   807a4:	6883      	ldr	r3, [r0, #8]
   807a6:	681b      	ldr	r3, [r3, #0]
   807a8:	223a      	movs	r2, #58	; 0x3a
   807aa:	701a      	strb	r2, [r3, #0]
   807ac:	4b33      	ldr	r3, [pc, #204]	; (8087c <UnityTestResultsBegin+0x124>)
   807ae:	681b      	ldr	r3, [r3, #0]
   807b0:	689b      	ldr	r3, [r3, #8]
   807b2:	681a      	ldr	r2, [r3, #0]
   807b4:	3201      	adds	r2, #1
   807b6:	601a      	str	r2, [r3, #0]
    UnityPrintNumber((_U_SINT)line);
   807b8:	4628      	mov	r0, r5
   807ba:	4b32      	ldr	r3, [pc, #200]	; (80884 <UnityTestResultsBegin+0x12c>)
   807bc:	4798      	blx	r3
    UNITY_OUTPUT_CHAR(':');
   807be:	4b2f      	ldr	r3, [pc, #188]	; (8087c <UnityTestResultsBegin+0x124>)
   807c0:	6818      	ldr	r0, [r3, #0]
   807c2:	6882      	ldr	r2, [r0, #8]
   807c4:	6893      	ldr	r3, [r2, #8]
   807c6:	3b01      	subs	r3, #1
   807c8:	6093      	str	r3, [r2, #8]
   807ca:	2b00      	cmp	r3, #0
   807cc:	da19      	bge.n	80802 <UnityTestResultsBegin+0xaa>
   807ce:	6882      	ldr	r2, [r0, #8]
   807d0:	6891      	ldr	r1, [r2, #8]
   807d2:	6993      	ldr	r3, [r2, #24]
   807d4:	4299      	cmp	r1, r3
   807d6:	db10      	blt.n	807fa <UnityTestResultsBegin+0xa2>
   807d8:	6813      	ldr	r3, [r2, #0]
   807da:	223a      	movs	r2, #58	; 0x3a
   807dc:	701a      	strb	r2, [r3, #0]
   807de:	4b27      	ldr	r3, [pc, #156]	; (8087c <UnityTestResultsBegin+0x124>)
   807e0:	6818      	ldr	r0, [r3, #0]
   807e2:	6882      	ldr	r2, [r0, #8]
   807e4:	6813      	ldr	r3, [r2, #0]
   807e6:	7819      	ldrb	r1, [r3, #0]
   807e8:	290a      	cmp	r1, #10
   807ea:	d002      	beq.n	807f2 <UnityTestResultsBegin+0x9a>
   807ec:	3301      	adds	r3, #1
   807ee:	6013      	str	r3, [r2, #0]
   807f0:	e011      	b.n	80816 <UnityTestResultsBegin+0xbe>
   807f2:	210a      	movs	r1, #10
   807f4:	4b22      	ldr	r3, [pc, #136]	; (80880 <UnityTestResultsBegin+0x128>)
   807f6:	4798      	blx	r3
   807f8:	e00d      	b.n	80816 <UnityTestResultsBegin+0xbe>
   807fa:	213a      	movs	r1, #58	; 0x3a
   807fc:	4b20      	ldr	r3, [pc, #128]	; (80880 <UnityTestResultsBegin+0x128>)
   807fe:	4798      	blx	r3
   80800:	e009      	b.n	80816 <UnityTestResultsBegin+0xbe>
   80802:	6883      	ldr	r3, [r0, #8]
   80804:	681b      	ldr	r3, [r3, #0]
   80806:	223a      	movs	r2, #58	; 0x3a
   80808:	701a      	strb	r2, [r3, #0]
   8080a:	4b1c      	ldr	r3, [pc, #112]	; (8087c <UnityTestResultsBegin+0x124>)
   8080c:	681b      	ldr	r3, [r3, #0]
   8080e:	689b      	ldr	r3, [r3, #8]
   80810:	681a      	ldr	r2, [r3, #0]
   80812:	3201      	adds	r2, #1
   80814:	601a      	str	r2, [r3, #0]
    UnityPrint(Unity.CurrentTestName);
   80816:	4b1c      	ldr	r3, [pc, #112]	; (80888 <UnityTestResultsBegin+0x130>)
   80818:	6858      	ldr	r0, [r3, #4]
   8081a:	4b17      	ldr	r3, [pc, #92]	; (80878 <UnityTestResultsBegin+0x120>)
   8081c:	4798      	blx	r3
    UNITY_OUTPUT_CHAR(':');
   8081e:	4b17      	ldr	r3, [pc, #92]	; (8087c <UnityTestResultsBegin+0x124>)
   80820:	6818      	ldr	r0, [r3, #0]
   80822:	6882      	ldr	r2, [r0, #8]
   80824:	6893      	ldr	r3, [r2, #8]
   80826:	3b01      	subs	r3, #1
   80828:	6093      	str	r3, [r2, #8]
   8082a:	2b00      	cmp	r3, #0
   8082c:	da19      	bge.n	80862 <UnityTestResultsBegin+0x10a>
   8082e:	6882      	ldr	r2, [r0, #8]
   80830:	6891      	ldr	r1, [r2, #8]
   80832:	6993      	ldr	r3, [r2, #24]
   80834:	4299      	cmp	r1, r3
   80836:	db10      	blt.n	8085a <UnityTestResultsBegin+0x102>
   80838:	6813      	ldr	r3, [r2, #0]
   8083a:	223a      	movs	r2, #58	; 0x3a
   8083c:	701a      	strb	r2, [r3, #0]
   8083e:	4b0f      	ldr	r3, [pc, #60]	; (8087c <UnityTestResultsBegin+0x124>)
   80840:	6818      	ldr	r0, [r3, #0]
   80842:	6882      	ldr	r2, [r0, #8]
   80844:	6813      	ldr	r3, [r2, #0]
   80846:	7819      	ldrb	r1, [r3, #0]
   80848:	290a      	cmp	r1, #10
   8084a:	d002      	beq.n	80852 <UnityTestResultsBegin+0xfa>
   8084c:	3301      	adds	r3, #1
   8084e:	6013      	str	r3, [r2, #0]
   80850:	bd38      	pop	{r3, r4, r5, pc}
   80852:	210a      	movs	r1, #10
   80854:	4b0a      	ldr	r3, [pc, #40]	; (80880 <UnityTestResultsBegin+0x128>)
   80856:	4798      	blx	r3
   80858:	bd38      	pop	{r3, r4, r5, pc}
   8085a:	213a      	movs	r1, #58	; 0x3a
   8085c:	4b08      	ldr	r3, [pc, #32]	; (80880 <UnityTestResultsBegin+0x128>)
   8085e:	4798      	blx	r3
   80860:	bd38      	pop	{r3, r4, r5, pc}
   80862:	6883      	ldr	r3, [r0, #8]
   80864:	681b      	ldr	r3, [r3, #0]
   80866:	223a      	movs	r2, #58	; 0x3a
   80868:	701a      	strb	r2, [r3, #0]
   8086a:	4b04      	ldr	r3, [pc, #16]	; (8087c <UnityTestResultsBegin+0x124>)
   8086c:	681b      	ldr	r3, [r3, #0]
   8086e:	689b      	ldr	r3, [r3, #8]
   80870:	681a      	ldr	r2, [r3, #0]
   80872:	3201      	adds	r2, #1
   80874:	601a      	str	r2, [r3, #0]
   80876:	bd38      	pop	{r3, r4, r5, pc}
   80878:	0008052d 	.word	0x0008052d
   8087c:	20070570 	.word	0x20070570
   80880:	00083f29 	.word	0x00083f29
   80884:	00080205 	.word	0x00080205
   80888:	20070b30 	.word	0x20070b30

0008088c <UnityPrintFail>:
#endif

//-----------------------------------------------

void UnityPrintFail(void)
{
   8088c:	b508      	push	{r3, lr}
    UnityPrint(UnityStrFail);
   8088e:	4802      	ldr	r0, [pc, #8]	; (80898 <UnityPrintFail+0xc>)
   80890:	4b02      	ldr	r3, [pc, #8]	; (8089c <UnityPrintFail+0x10>)
   80892:	4798      	blx	r3
   80894:	bd08      	pop	{r3, pc}
   80896:	bf00      	nop
   80898:	00085f90 	.word	0x00085f90
   8089c:	0008052d 	.word	0x0008052d

000808a0 <UnityConcludeTest>:
    UNITY_OUTPUT_CHAR(':');
}

//-----------------------------------------------
void UnityConcludeTest(void)
{
   808a0:	b508      	push	{r3, lr}
    if (Unity.CurrentTestIgnored)
   808a2:	4b24      	ldr	r3, [pc, #144]	; (80934 <UnityConcludeTest+0x94>)
   808a4:	69db      	ldr	r3, [r3, #28]
   808a6:	b123      	cbz	r3, 808b2 <UnityConcludeTest+0x12>
    {
        Unity.TestIgnores++;
   808a8:	4b22      	ldr	r3, [pc, #136]	; (80934 <UnityConcludeTest+0x94>)
   808aa:	695a      	ldr	r2, [r3, #20]
   808ac:	3201      	adds	r2, #1
   808ae:	615a      	str	r2, [r3, #20]
   808b0:	e00f      	b.n	808d2 <UnityConcludeTest+0x32>
    }
    else if (!Unity.CurrentTestFailed)
   808b2:	4b20      	ldr	r3, [pc, #128]	; (80934 <UnityConcludeTest+0x94>)
   808b4:	699b      	ldr	r3, [r3, #24]
   808b6:	b943      	cbnz	r3, 808ca <UnityConcludeTest+0x2a>
    {
        UnityTestResultsBegin(Unity.TestFile, Unity.CurrentTestLineNumber);
   808b8:	4b1e      	ldr	r3, [pc, #120]	; (80934 <UnityConcludeTest+0x94>)
   808ba:	6818      	ldr	r0, [r3, #0]
   808bc:	6899      	ldr	r1, [r3, #8]
   808be:	4b1e      	ldr	r3, [pc, #120]	; (80938 <UnityConcludeTest+0x98>)
   808c0:	4798      	blx	r3
        UnityPrint(UnityStrPass);
   808c2:	481e      	ldr	r0, [pc, #120]	; (8093c <UnityConcludeTest+0x9c>)
   808c4:	4b1e      	ldr	r3, [pc, #120]	; (80940 <UnityConcludeTest+0xa0>)
   808c6:	4798      	blx	r3
   808c8:	e003      	b.n	808d2 <UnityConcludeTest+0x32>
    }
    else
    {
        Unity.TestFailures++;
   808ca:	4b1a      	ldr	r3, [pc, #104]	; (80934 <UnityConcludeTest+0x94>)
   808cc:	691a      	ldr	r2, [r3, #16]
   808ce:	3201      	adds	r2, #1
   808d0:	611a      	str	r2, [r3, #16]
    }

    Unity.CurrentTestFailed = 0;
   808d2:	4b18      	ldr	r3, [pc, #96]	; (80934 <UnityConcludeTest+0x94>)
   808d4:	2200      	movs	r2, #0
   808d6:	619a      	str	r2, [r3, #24]
    Unity.CurrentTestIgnored = 0;
   808d8:	61da      	str	r2, [r3, #28]
    UNITY_PRINT_EOL;
   808da:	4b1a      	ldr	r3, [pc, #104]	; (80944 <UnityConcludeTest+0xa4>)
   808dc:	6818      	ldr	r0, [r3, #0]
   808de:	6882      	ldr	r2, [r0, #8]
   808e0:	6893      	ldr	r3, [r2, #8]
   808e2:	3b01      	subs	r3, #1
   808e4:	6093      	str	r3, [r2, #8]
   808e6:	2b00      	cmp	r3, #0
   808e8:	da19      	bge.n	8091e <UnityConcludeTest+0x7e>
   808ea:	6882      	ldr	r2, [r0, #8]
   808ec:	6891      	ldr	r1, [r2, #8]
   808ee:	6993      	ldr	r3, [r2, #24]
   808f0:	4299      	cmp	r1, r3
   808f2:	db10      	blt.n	80916 <UnityConcludeTest+0x76>
   808f4:	6813      	ldr	r3, [r2, #0]
   808f6:	220a      	movs	r2, #10
   808f8:	701a      	strb	r2, [r3, #0]
   808fa:	4b12      	ldr	r3, [pc, #72]	; (80944 <UnityConcludeTest+0xa4>)
   808fc:	6818      	ldr	r0, [r3, #0]
   808fe:	6882      	ldr	r2, [r0, #8]
   80900:	6813      	ldr	r3, [r2, #0]
   80902:	7819      	ldrb	r1, [r3, #0]
   80904:	290a      	cmp	r1, #10
   80906:	d002      	beq.n	8090e <UnityConcludeTest+0x6e>
   80908:	3301      	adds	r3, #1
   8090a:	6013      	str	r3, [r2, #0]
   8090c:	bd08      	pop	{r3, pc}
   8090e:	210a      	movs	r1, #10
   80910:	4b0d      	ldr	r3, [pc, #52]	; (80948 <UnityConcludeTest+0xa8>)
   80912:	4798      	blx	r3
   80914:	bd08      	pop	{r3, pc}
   80916:	210a      	movs	r1, #10
   80918:	4b0b      	ldr	r3, [pc, #44]	; (80948 <UnityConcludeTest+0xa8>)
   8091a:	4798      	blx	r3
   8091c:	bd08      	pop	{r3, pc}
   8091e:	6883      	ldr	r3, [r0, #8]
   80920:	681b      	ldr	r3, [r3, #0]
   80922:	220a      	movs	r2, #10
   80924:	701a      	strb	r2, [r3, #0]
   80926:	4b07      	ldr	r3, [pc, #28]	; (80944 <UnityConcludeTest+0xa4>)
   80928:	681b      	ldr	r3, [r3, #0]
   8092a:	689b      	ldr	r3, [r3, #8]
   8092c:	681a      	ldr	r2, [r3, #0]
   8092e:	3201      	adds	r2, #1
   80930:	601a      	str	r2, [r3, #0]
   80932:	bd08      	pop	{r3, pc}
   80934:	20070b30 	.word	0x20070b30
   80938:	00080759 	.word	0x00080759
   8093c:	00085f98 	.word	0x00085f98
   80940:	0008052d 	.word	0x0008052d
   80944:	20070570 	.word	0x20070570
   80948:	00083f29 	.word	0x00083f29

0008094c <UnityFail>:
//-----------------------------------------------
// Control Functions
//-----------------------------------------------

void UnityFail(const char* msg, const UNITY_LINE_TYPE line)
{
   8094c:	b510      	push	{r4, lr}
   8094e:	4604      	mov	r4, r0
    UNITY_SKIP_EXECUTION;
   80950:	4b3a      	ldr	r3, [pc, #232]	; (80a3c <UnityFail+0xf0>)
   80952:	699b      	ldr	r3, [r3, #24]
   80954:	2b00      	cmp	r3, #0
   80956:	d16f      	bne.n	80a38 <UnityFail+0xec>
   80958:	4b38      	ldr	r3, [pc, #224]	; (80a3c <UnityFail+0xf0>)
   8095a:	69db      	ldr	r3, [r3, #28]
   8095c:	2b00      	cmp	r3, #0
   8095e:	d16b      	bne.n	80a38 <UnityFail+0xec>

    UnityTestResultsBegin(Unity.TestFile, line);
   80960:	4b36      	ldr	r3, [pc, #216]	; (80a3c <UnityFail+0xf0>)
   80962:	6818      	ldr	r0, [r3, #0]
   80964:	4b36      	ldr	r3, [pc, #216]	; (80a40 <UnityFail+0xf4>)
   80966:	4798      	blx	r3
    UnityPrintFail();
   80968:	4b36      	ldr	r3, [pc, #216]	; (80a44 <UnityFail+0xf8>)
   8096a:	4798      	blx	r3
    if (msg != NULL)
   8096c:	2c00      	cmp	r4, #0
   8096e:	d05d      	beq.n	80a2c <UnityFail+0xe0>
    {
      UNITY_OUTPUT_CHAR(':');
   80970:	4b35      	ldr	r3, [pc, #212]	; (80a48 <UnityFail+0xfc>)
   80972:	6818      	ldr	r0, [r3, #0]
   80974:	6882      	ldr	r2, [r0, #8]
   80976:	6893      	ldr	r3, [r2, #8]
   80978:	3b01      	subs	r3, #1
   8097a:	6093      	str	r3, [r2, #8]
   8097c:	2b00      	cmp	r3, #0
   8097e:	da19      	bge.n	809b4 <UnityFail+0x68>
   80980:	6882      	ldr	r2, [r0, #8]
   80982:	6891      	ldr	r1, [r2, #8]
   80984:	6993      	ldr	r3, [r2, #24]
   80986:	4299      	cmp	r1, r3
   80988:	db10      	blt.n	809ac <UnityFail+0x60>
   8098a:	6813      	ldr	r3, [r2, #0]
   8098c:	223a      	movs	r2, #58	; 0x3a
   8098e:	701a      	strb	r2, [r3, #0]
   80990:	4b2d      	ldr	r3, [pc, #180]	; (80a48 <UnityFail+0xfc>)
   80992:	6818      	ldr	r0, [r3, #0]
   80994:	6882      	ldr	r2, [r0, #8]
   80996:	6813      	ldr	r3, [r2, #0]
   80998:	7819      	ldrb	r1, [r3, #0]
   8099a:	290a      	cmp	r1, #10
   8099c:	d002      	beq.n	809a4 <UnityFail+0x58>
   8099e:	3301      	adds	r3, #1
   809a0:	6013      	str	r3, [r2, #0]
   809a2:	e011      	b.n	809c8 <UnityFail+0x7c>
   809a4:	210a      	movs	r1, #10
   809a6:	4b29      	ldr	r3, [pc, #164]	; (80a4c <UnityFail+0x100>)
   809a8:	4798      	blx	r3
   809aa:	e00d      	b.n	809c8 <UnityFail+0x7c>
   809ac:	213a      	movs	r1, #58	; 0x3a
   809ae:	4b27      	ldr	r3, [pc, #156]	; (80a4c <UnityFail+0x100>)
   809b0:	4798      	blx	r3
   809b2:	e009      	b.n	809c8 <UnityFail+0x7c>
   809b4:	6883      	ldr	r3, [r0, #8]
   809b6:	681b      	ldr	r3, [r3, #0]
   809b8:	223a      	movs	r2, #58	; 0x3a
   809ba:	701a      	strb	r2, [r3, #0]
   809bc:	4b22      	ldr	r3, [pc, #136]	; (80a48 <UnityFail+0xfc>)
   809be:	681b      	ldr	r3, [r3, #0]
   809c0:	689b      	ldr	r3, [r3, #8]
   809c2:	681a      	ldr	r2, [r3, #0]
   809c4:	3201      	adds	r2, #1
   809c6:	601a      	str	r2, [r3, #0]
      if (msg[0] != ' ')
   809c8:	7823      	ldrb	r3, [r4, #0]
   809ca:	2b20      	cmp	r3, #32
   809cc:	d02b      	beq.n	80a26 <UnityFail+0xda>
      {
        UNITY_OUTPUT_CHAR(' ');
   809ce:	4b1e      	ldr	r3, [pc, #120]	; (80a48 <UnityFail+0xfc>)
   809d0:	6818      	ldr	r0, [r3, #0]
   809d2:	6882      	ldr	r2, [r0, #8]
   809d4:	6893      	ldr	r3, [r2, #8]
   809d6:	3b01      	subs	r3, #1
   809d8:	6093      	str	r3, [r2, #8]
   809da:	2b00      	cmp	r3, #0
   809dc:	da19      	bge.n	80a12 <UnityFail+0xc6>
   809de:	6882      	ldr	r2, [r0, #8]
   809e0:	6891      	ldr	r1, [r2, #8]
   809e2:	6993      	ldr	r3, [r2, #24]
   809e4:	4299      	cmp	r1, r3
   809e6:	db10      	blt.n	80a0a <UnityFail+0xbe>
   809e8:	6813      	ldr	r3, [r2, #0]
   809ea:	2220      	movs	r2, #32
   809ec:	701a      	strb	r2, [r3, #0]
   809ee:	4b16      	ldr	r3, [pc, #88]	; (80a48 <UnityFail+0xfc>)
   809f0:	6818      	ldr	r0, [r3, #0]
   809f2:	6882      	ldr	r2, [r0, #8]
   809f4:	6813      	ldr	r3, [r2, #0]
   809f6:	7819      	ldrb	r1, [r3, #0]
   809f8:	290a      	cmp	r1, #10
   809fa:	d002      	beq.n	80a02 <UnityFail+0xb6>
   809fc:	3301      	adds	r3, #1
   809fe:	6013      	str	r3, [r2, #0]
   80a00:	e011      	b.n	80a26 <UnityFail+0xda>
   80a02:	210a      	movs	r1, #10
   80a04:	4b11      	ldr	r3, [pc, #68]	; (80a4c <UnityFail+0x100>)
   80a06:	4798      	blx	r3
   80a08:	e00d      	b.n	80a26 <UnityFail+0xda>
   80a0a:	2120      	movs	r1, #32
   80a0c:	4b0f      	ldr	r3, [pc, #60]	; (80a4c <UnityFail+0x100>)
   80a0e:	4798      	blx	r3
   80a10:	e009      	b.n	80a26 <UnityFail+0xda>
   80a12:	6883      	ldr	r3, [r0, #8]
   80a14:	681b      	ldr	r3, [r3, #0]
   80a16:	2220      	movs	r2, #32
   80a18:	701a      	strb	r2, [r3, #0]
   80a1a:	4b0b      	ldr	r3, [pc, #44]	; (80a48 <UnityFail+0xfc>)
   80a1c:	681b      	ldr	r3, [r3, #0]
   80a1e:	689b      	ldr	r3, [r3, #8]
   80a20:	681a      	ldr	r2, [r3, #0]
   80a22:	3201      	adds	r2, #1
   80a24:	601a      	str	r2, [r3, #0]
      }
      UnityPrint(msg);
   80a26:	4620      	mov	r0, r4
   80a28:	4b09      	ldr	r3, [pc, #36]	; (80a50 <UnityFail+0x104>)
   80a2a:	4798      	blx	r3
    }
    UNITY_FAIL_AND_BAIL;
   80a2c:	4803      	ldr	r0, [pc, #12]	; (80a3c <UnityFail+0xf0>)
   80a2e:	2101      	movs	r1, #1
   80a30:	6181      	str	r1, [r0, #24]
   80a32:	3020      	adds	r0, #32
   80a34:	4b07      	ldr	r3, [pc, #28]	; (80a54 <UnityFail+0x108>)
   80a36:	4798      	blx	r3
   80a38:	bd10      	pop	{r4, pc}
   80a3a:	bf00      	nop
   80a3c:	20070b30 	.word	0x20070b30
   80a40:	00080759 	.word	0x00080759
   80a44:	0008088d 	.word	0x0008088d
   80a48:	20070570 	.word	0x20070570
   80a4c:	00083f29 	.word	0x00083f29
   80a50:	0008052d 	.word	0x0008052d
   80a54:	000830d1 	.word	0x000830d1

00080a58 <UnityDefaultTestRun>:
    void setUp(void);
    void tearDown(void);
#endif
//-----------------------------------------------
void UnityDefaultTestRun(UnityTestFunction Func, const char* FuncName, const int FuncLineNum)
{
   80a58:	b500      	push	{lr}
   80a5a:	b083      	sub	sp, #12
   80a5c:	9001      	str	r0, [sp, #4]
    Unity.CurrentTestName = FuncName;
   80a5e:	480e      	ldr	r0, [pc, #56]	; (80a98 <UnityDefaultTestRun+0x40>)
   80a60:	6041      	str	r1, [r0, #4]
    Unity.CurrentTestLineNumber = (UNITY_LINE_TYPE)FuncLineNum;
   80a62:	6082      	str	r2, [r0, #8]
    Unity.NumberOfTests++;
   80a64:	68c3      	ldr	r3, [r0, #12]
   80a66:	3301      	adds	r3, #1
   80a68:	60c3      	str	r3, [r0, #12]
    if (TEST_PROTECT())
   80a6a:	3020      	adds	r0, #32
   80a6c:	4b0b      	ldr	r3, [pc, #44]	; (80a9c <UnityDefaultTestRun+0x44>)
   80a6e:	4798      	blx	r3
   80a70:	b918      	cbnz	r0, 80a7a <UnityDefaultTestRun+0x22>
    {
        setUp();
   80a72:	4b0b      	ldr	r3, [pc, #44]	; (80aa0 <UnityDefaultTestRun+0x48>)
   80a74:	4798      	blx	r3
        Func();
   80a76:	9b01      	ldr	r3, [sp, #4]
   80a78:	4798      	blx	r3
    }
    if (TEST_PROTECT() && !(Unity.CurrentTestIgnored))
   80a7a:	480a      	ldr	r0, [pc, #40]	; (80aa4 <UnityDefaultTestRun+0x4c>)
   80a7c:	4b07      	ldr	r3, [pc, #28]	; (80a9c <UnityDefaultTestRun+0x44>)
   80a7e:	4798      	blx	r3
   80a80:	b920      	cbnz	r0, 80a8c <UnityDefaultTestRun+0x34>
   80a82:	4b05      	ldr	r3, [pc, #20]	; (80a98 <UnityDefaultTestRun+0x40>)
   80a84:	69db      	ldr	r3, [r3, #28]
   80a86:	b90b      	cbnz	r3, 80a8c <UnityDefaultTestRun+0x34>
    {
        tearDown();
   80a88:	4b07      	ldr	r3, [pc, #28]	; (80aa8 <UnityDefaultTestRun+0x50>)
   80a8a:	4798      	blx	r3
    }
    UnityConcludeTest();
   80a8c:	4b07      	ldr	r3, [pc, #28]	; (80aac <UnityDefaultTestRun+0x54>)
   80a8e:	4798      	blx	r3
}
   80a90:	b003      	add	sp, #12
   80a92:	f85d fb04 	ldr.w	pc, [sp], #4
   80a96:	bf00      	nop
   80a98:	20070b30 	.word	0x20070b30
   80a9c:	000830c5 	.word	0x000830c5
   80aa0:	000801fd 	.word	0x000801fd
   80aa4:	20070b50 	.word	0x20070b50
   80aa8:	00080201 	.word	0x00080201
   80aac:	000808a1 	.word	0x000808a1

00080ab0 <UnityBegin>:

//-----------------------------------------------
void UnityBegin(const char* filename)
{
    Unity.TestFile = filename;
   80ab0:	4b05      	ldr	r3, [pc, #20]	; (80ac8 <UnityBegin+0x18>)
   80ab2:	6018      	str	r0, [r3, #0]
    Unity.CurrentTestName = NULL;
   80ab4:	2200      	movs	r2, #0
   80ab6:	605a      	str	r2, [r3, #4]
    Unity.CurrentTestLineNumber = 0;
   80ab8:	609a      	str	r2, [r3, #8]
    Unity.NumberOfTests = 0;
   80aba:	60da      	str	r2, [r3, #12]
    Unity.TestFailures = 0;
   80abc:	611a      	str	r2, [r3, #16]
    Unity.TestIgnores = 0;
   80abe:	615a      	str	r2, [r3, #20]
    Unity.CurrentTestFailed = 0;
   80ac0:	619a      	str	r2, [r3, #24]
    Unity.CurrentTestIgnored = 0;
   80ac2:	61da      	str	r2, [r3, #28]
   80ac4:	4770      	bx	lr
   80ac6:	bf00      	nop
   80ac8:	20070b30 	.word	0x20070b30

00080acc <usart_serial_read_packet>:
 * \param len    Length of data
 *
 */
status_code_t usart_serial_read_packet(usart_if usart, uint8_t *data,
		size_t len)
{
   80acc:	e92d 4ff0 	stmdb	sp!, {r4, r5, r6, r7, r8, r9, sl, fp, lr}
   80ad0:	b083      	sub	sp, #12
   80ad2:	4605      	mov	r5, r0
	while (len) {
   80ad4:	4690      	mov	r8, r2
   80ad6:	2a00      	cmp	r2, #0
   80ad8:	d047      	beq.n	80b6a <usart_serial_read_packet+0x9e>
   80ada:	1c4e      	adds	r6, r1, #1
		while (usart_read(p_usart, &val));
		*data = (uint8_t)(val & 0xFF);
	}
# endif
# ifdef USART3
	if (USART3 == p_usart) {
   80adc:	4f25      	ldr	r7, [pc, #148]	; (80b74 <usart_serial_read_packet+0xa8>)
		while (usart_read(p_usart, &val));
   80ade:	4c26      	ldr	r4, [pc, #152]	; (80b78 <usart_serial_read_packet+0xac>)
		while (usart_read(p_usart, &val));
		*data = (uint8_t)(val & 0xFF);
	}
# endif
# ifdef USART2
	if (USART2 == p_usart) {
   80ae0:	f8df a0a8 	ldr.w	sl, [pc, #168]	; 80b8c <usart_serial_read_packet+0xc0>
	/* Avoid Cppcheck Warning */
	UNUSED(val);

#ifdef UART
	if (UART == (Uart*)p_usart) {
		while (uart_read((Uart*)p_usart, data));
   80ae4:	f8df b094 	ldr.w	fp, [pc, #148]	; 80b7c <usart_serial_read_packet+0xb0>
   80ae8:	f106 39ff 	add.w	r9, r6, #4294967295
 * \param data   Data to read
 *
 */
static inline void usart_serial_getchar(usart_if p_usart, uint8_t *data)
{
	uint32_t val = 0;
   80aec:	2300      	movs	r3, #0
   80aee:	9301      	str	r3, [sp, #4]

	/* Avoid Cppcheck Warning */
	UNUSED(val);

#ifdef UART
	if (UART == (Uart*)p_usart) {
   80af0:	4b22      	ldr	r3, [pc, #136]	; (80b7c <usart_serial_read_packet+0xb0>)
   80af2:	429d      	cmp	r5, r3
   80af4:	d106      	bne.n	80b04 <usart_serial_read_packet+0x38>
		while (uart_read((Uart*)p_usart, data));
   80af6:	4658      	mov	r0, fp
   80af8:	4649      	mov	r1, r9
   80afa:	4b21      	ldr	r3, [pc, #132]	; (80b80 <usart_serial_read_packet+0xb4>)
   80afc:	4798      	blx	r3
   80afe:	2800      	cmp	r0, #0
   80b00:	d1f9      	bne.n	80af6 <usart_serial_read_packet+0x2a>
   80b02:	e019      	b.n	80b38 <usart_serial_read_packet+0x6c>
		while (usart_read(p_usart, &val));
		*data = (uint8_t)(val & 0xFF);
	}
#else
# ifdef USART0
	if (USART0 == p_usart) {
   80b04:	4b1f      	ldr	r3, [pc, #124]	; (80b84 <usart_serial_read_packet+0xb8>)
   80b06:	429d      	cmp	r5, r3
   80b08:	d109      	bne.n	80b1e <usart_serial_read_packet+0x52>
		while (usart_read(p_usart, &val));
   80b0a:	4699      	mov	r9, r3
   80b0c:	4648      	mov	r0, r9
   80b0e:	a901      	add	r1, sp, #4
   80b10:	47a0      	blx	r4
   80b12:	2800      	cmp	r0, #0
   80b14:	d1fa      	bne.n	80b0c <usart_serial_read_packet+0x40>
		*data = (uint8_t)(val & 0xFF);
   80b16:	9b01      	ldr	r3, [sp, #4]
   80b18:	f806 3c01 	strb.w	r3, [r6, #-1]
   80b1c:	e017      	b.n	80b4e <usart_serial_read_packet+0x82>
	}
# endif
# ifdef USART1
	if (USART1 == p_usart) {
   80b1e:	4b1a      	ldr	r3, [pc, #104]	; (80b88 <usart_serial_read_packet+0xbc>)
   80b20:	429d      	cmp	r5, r3
   80b22:	d109      	bne.n	80b38 <usart_serial_read_packet+0x6c>
		while (usart_read(p_usart, &val));
   80b24:	4699      	mov	r9, r3
   80b26:	4648      	mov	r0, r9
   80b28:	a901      	add	r1, sp, #4
   80b2a:	47a0      	blx	r4
   80b2c:	2800      	cmp	r0, #0
   80b2e:	d1fa      	bne.n	80b26 <usart_serial_read_packet+0x5a>
		*data = (uint8_t)(val & 0xFF);
   80b30:	9b01      	ldr	r3, [sp, #4]
   80b32:	f806 3c01 	strb.w	r3, [r6, #-1]
   80b36:	e014      	b.n	80b62 <usart_serial_read_packet+0x96>
	}
# endif
# ifdef USART2
	if (USART2 == p_usart) {
   80b38:	4555      	cmp	r5, sl
   80b3a:	d108      	bne.n	80b4e <usart_serial_read_packet+0x82>
		while (usart_read(p_usart, &val));
   80b3c:	4650      	mov	r0, sl
   80b3e:	a901      	add	r1, sp, #4
   80b40:	47a0      	blx	r4
   80b42:	2800      	cmp	r0, #0
   80b44:	d1fa      	bne.n	80b3c <usart_serial_read_packet+0x70>
		*data = (uint8_t)(val & 0xFF);
   80b46:	9b01      	ldr	r3, [sp, #4]
   80b48:	f806 3c01 	strb.w	r3, [r6, #-1]
   80b4c:	e009      	b.n	80b62 <usart_serial_read_packet+0x96>
	}
# endif
# ifdef USART3
	if (USART3 == p_usart) {
   80b4e:	42bd      	cmp	r5, r7
   80b50:	d107      	bne.n	80b62 <usart_serial_read_packet+0x96>
		while (usart_read(p_usart, &val));
   80b52:	4638      	mov	r0, r7
   80b54:	a901      	add	r1, sp, #4
   80b56:	47a0      	blx	r4
   80b58:	2800      	cmp	r0, #0
   80b5a:	d1fa      	bne.n	80b52 <usart_serial_read_packet+0x86>
		*data = (uint8_t)(val & 0xFF);
   80b5c:	9b01      	ldr	r3, [sp, #4]
   80b5e:	f806 3c01 	strb.w	r3, [r6, #-1]
   80b62:	3601      	adds	r6, #1
   80b64:	f1b8 0801 	subs.w	r8, r8, #1
   80b68:	d1be      	bne.n	80ae8 <usart_serial_read_packet+0x1c>
		usart_serial_getchar(usart, data);
		len--;
		data++;
	}
	return STATUS_OK;
}
   80b6a:	2000      	movs	r0, #0
   80b6c:	b003      	add	sp, #12
   80b6e:	e8bd 8ff0 	ldmia.w	sp!, {r4, r5, r6, r7, r8, r9, sl, fp, pc}
   80b72:	bf00      	nop
   80b74:	400a4000 	.word	0x400a4000
   80b78:	00080cd1 	.word	0x00080cd1
   80b7c:	400e0800 	.word	0x400e0800
   80b80:	00080ca9 	.word	0x00080ca9
   80b84:	40098000 	.word	0x40098000
   80b88:	4009c000 	.word	0x4009c000
   80b8c:	400a0000 	.word	0x400a0000

00080b90 <_read>:
   80b90:	e92d 41f0 	stmdb	sp!, {r4, r5, r6, r7, r8, lr}
   80b94:	460c      	mov	r4, r1
   80b96:	4690      	mov	r8, r2
   80b98:	b960      	cbnz	r0, 80bb4 <_read+0x24>
   80b9a:	2a00      	cmp	r2, #0
   80b9c:	dd0e      	ble.n	80bbc <_read+0x2c>
   80b9e:	188f      	adds	r7, r1, r2
   80ba0:	4e09      	ldr	r6, [pc, #36]	; (80bc8 <_read+0x38>)
   80ba2:	4d0a      	ldr	r5, [pc, #40]	; (80bcc <_read+0x3c>)
   80ba4:	6830      	ldr	r0, [r6, #0]
   80ba6:	4621      	mov	r1, r4
   80ba8:	682b      	ldr	r3, [r5, #0]
   80baa:	4798      	blx	r3
   80bac:	3401      	adds	r4, #1
   80bae:	42bc      	cmp	r4, r7
   80bb0:	d1f8      	bne.n	80ba4 <_read+0x14>
   80bb2:	e006      	b.n	80bc2 <_read+0x32>
   80bb4:	f04f 30ff 	mov.w	r0, #4294967295
   80bb8:	e8bd 81f0 	ldmia.w	sp!, {r4, r5, r6, r7, r8, pc}
   80bbc:	2000      	movs	r0, #0
   80bbe:	e8bd 81f0 	ldmia.w	sp!, {r4, r5, r6, r7, r8, pc}
   80bc2:	4640      	mov	r0, r8
   80bc4:	e8bd 81f0 	ldmia.w	sp!, {r4, r5, r6, r7, r8, pc}
   80bc8:	20070bb4 	.word	0x20070bb4
   80bcc:	20070bac 	.word	0x20070bac

00080bd0 <_write>:
   80bd0:	e92d 41f0 	stmdb	sp!, {r4, r5, r6, r7, r8, lr}
   80bd4:	460e      	mov	r6, r1
   80bd6:	4615      	mov	r5, r2
   80bd8:	3801      	subs	r0, #1
   80bda:	2802      	cmp	r0, #2
   80bdc:	d80f      	bhi.n	80bfe <_write+0x2e>
   80bde:	b192      	cbz	r2, 80c06 <_write+0x36>
   80be0:	2400      	movs	r4, #0
   80be2:	f8df 803c 	ldr.w	r8, [pc, #60]	; 80c20 <_write+0x50>
   80be6:	4f0d      	ldr	r7, [pc, #52]	; (80c1c <_write+0x4c>)
   80be8:	f8d8 0000 	ldr.w	r0, [r8]
   80bec:	5d31      	ldrb	r1, [r6, r4]
   80bee:	683b      	ldr	r3, [r7, #0]
   80bf0:	4798      	blx	r3
   80bf2:	2800      	cmp	r0, #0
   80bf4:	db0a      	blt.n	80c0c <_write+0x3c>
   80bf6:	3401      	adds	r4, #1
   80bf8:	42a5      	cmp	r5, r4
   80bfa:	d1f5      	bne.n	80be8 <_write+0x18>
   80bfc:	e00a      	b.n	80c14 <_write+0x44>
   80bfe:	f04f 30ff 	mov.w	r0, #4294967295
   80c02:	e8bd 81f0 	ldmia.w	sp!, {r4, r5, r6, r7, r8, pc}
   80c06:	2000      	movs	r0, #0
   80c08:	e8bd 81f0 	ldmia.w	sp!, {r4, r5, r6, r7, r8, pc}
   80c0c:	f04f 30ff 	mov.w	r0, #4294967295
   80c10:	e8bd 81f0 	ldmia.w	sp!, {r4, r5, r6, r7, r8, pc}
   80c14:	4620      	mov	r0, r4
   80c16:	e8bd 81f0 	ldmia.w	sp!, {r4, r5, r6, r7, r8, pc}
   80c1a:	bf00      	nop
   80c1c:	20070bb0 	.word	0x20070bb0
   80c20:	20070bb4 	.word	0x20070bb4

00080c24 <tc_init>:
   80c24:	b410      	push	{r4}
   80c26:	0189      	lsls	r1, r1, #6
   80c28:	1843      	adds	r3, r0, r1
   80c2a:	2402      	movs	r4, #2
   80c2c:	5044      	str	r4, [r0, r1]
   80c2e:	f04f 31ff 	mov.w	r1, #4294967295
   80c32:	6299      	str	r1, [r3, #40]	; 0x28
   80c34:	6a19      	ldr	r1, [r3, #32]
   80c36:	605a      	str	r2, [r3, #4]
   80c38:	f85d 4b04 	ldr.w	r4, [sp], #4
   80c3c:	4770      	bx	lr
   80c3e:	bf00      	nop

00080c40 <tc_set_block_mode>:
   80c40:	f8c0 10c4 	str.w	r1, [r0, #196]	; 0xc4
   80c44:	4770      	bx	lr
   80c46:	bf00      	nop

00080c48 <tc_start>:
   80c48:	0189      	lsls	r1, r1, #6
   80c4a:	2305      	movs	r3, #5
   80c4c:	5043      	str	r3, [r0, r1]
   80c4e:	4770      	bx	lr

00080c50 <tc_stop>:
   80c50:	0189      	lsls	r1, r1, #6
   80c52:	2302      	movs	r3, #2
   80c54:	5043      	str	r3, [r0, r1]
   80c56:	4770      	bx	lr

00080c58 <tc_read_cv>:
   80c58:	eb00 1181 	add.w	r1, r0, r1, lsl #6
   80c5c:	6908      	ldr	r0, [r1, #16]
   80c5e:	4770      	bx	lr

00080c60 <uart_init>:
   80c60:	b410      	push	{r4}
   80c62:	23ac      	movs	r3, #172	; 0xac
   80c64:	6003      	str	r3, [r0, #0]
   80c66:	680a      	ldr	r2, [r1, #0]
   80c68:	684b      	ldr	r3, [r1, #4]
   80c6a:	fbb2 f3f3 	udiv	r3, r2, r3
   80c6e:	091b      	lsrs	r3, r3, #4
   80c70:	1e5c      	subs	r4, r3, #1
   80c72:	f64f 72fe 	movw	r2, #65534	; 0xfffe
   80c76:	4294      	cmp	r4, r2
   80c78:	d80a      	bhi.n	80c90 <uart_init+0x30>
   80c7a:	6203      	str	r3, [r0, #32]
   80c7c:	688b      	ldr	r3, [r1, #8]
   80c7e:	6043      	str	r3, [r0, #4]
   80c80:	f240 2302 	movw	r3, #514	; 0x202
   80c84:	f8c0 3120 	str.w	r3, [r0, #288]	; 0x120
   80c88:	2350      	movs	r3, #80	; 0x50
   80c8a:	6003      	str	r3, [r0, #0]
   80c8c:	2000      	movs	r0, #0
   80c8e:	e000      	b.n	80c92 <uart_init+0x32>
   80c90:	2001      	movs	r0, #1
   80c92:	f85d 4b04 	ldr.w	r4, [sp], #4
   80c96:	4770      	bx	lr

00080c98 <uart_write>:
   80c98:	6943      	ldr	r3, [r0, #20]
   80c9a:	f013 0f02 	tst.w	r3, #2
   80c9e:	bf1a      	itte	ne
   80ca0:	61c1      	strne	r1, [r0, #28]
   80ca2:	2000      	movne	r0, #0
   80ca4:	2001      	moveq	r0, #1
   80ca6:	4770      	bx	lr

00080ca8 <uart_read>:
   80ca8:	6943      	ldr	r3, [r0, #20]
   80caa:	f013 0f01 	tst.w	r3, #1
   80cae:	bf1d      	ittte	ne
   80cb0:	6983      	ldrne	r3, [r0, #24]
   80cb2:	700b      	strbne	r3, [r1, #0]
   80cb4:	2000      	movne	r0, #0
   80cb6:	2001      	moveq	r0, #1
   80cb8:	4770      	bx	lr
   80cba:	bf00      	nop

00080cbc <usart_write>:
   80cbc:	6943      	ldr	r3, [r0, #20]
   80cbe:	f013 0f02 	tst.w	r3, #2
   80cc2:	bf1d      	ittte	ne
   80cc4:	f3c1 0108 	ubfxne	r1, r1, #0, #9
   80cc8:	61c1      	strne	r1, [r0, #28]
   80cca:	2000      	movne	r0, #0
   80ccc:	2001      	moveq	r0, #1
   80cce:	4770      	bx	lr

00080cd0 <usart_read>:
   80cd0:	6943      	ldr	r3, [r0, #20]
   80cd2:	f013 0f01 	tst.w	r3, #1
   80cd6:	d005      	beq.n	80ce4 <usart_read+0x14>
   80cd8:	6983      	ldr	r3, [r0, #24]
   80cda:	f3c3 0308 	ubfx	r3, r3, #0, #9
   80cde:	600b      	str	r3, [r1, #0]
   80ce0:	2000      	movs	r0, #0
   80ce2:	4770      	bx	lr
   80ce4:	2001      	movs	r0, #1
   80ce6:	4770      	bx	lr

00080ce8 <USART0_Handler>:
#if SAMD || SAMR21 || SAML21
void USART_HOST_ISR_VECT(uint8_t instance)
#else
USART_HOST_ISR_VECT()
#endif
{
   80ce8:	b500      	push	{lr}
   80cea:	b083      	sub	sp, #12
	uint8_t temp;
#if SAMD || SAMR21 || SAML21
	usart_serial_read_packet(&host_uart_module, &temp, 1);
#else
	usart_serial_read_packet(USART_HOST, &temp, 1);
   80cec:	4811      	ldr	r0, [pc, #68]	; (80d34 <USART0_Handler+0x4c>)
   80cee:	f10d 0107 	add.w	r1, sp, #7
   80cf2:	2201      	movs	r2, #1
   80cf4:	4b10      	ldr	r3, [pc, #64]	; (80d38 <USART0_Handler+0x50>)
   80cf6:	4798      	blx	r3
  This function disables IRQ interrupts by setting the I-bit in the CPSR.
  Can only be executed in Privileged modes.
 */
__attribute__( ( always_inline ) ) __STATIC_INLINE void __disable_irq(void)
{
  __ASM volatile ("cpsid i" : : : "memory");
   80cf8:	b672      	cpsid	i
    This function ensures the apparent order of the explicit memory operations before
    and after the instruction, without ensuring their completion.
 */
__attribute__( ( always_inline ) ) __STATIC_INLINE void __DMB(void)
{
  __ASM volatile ("dmb");
   80cfa:	f3bf 8f5f 	dmb	sy
#endif

	/* Introducing critical section to avoid buffer corruption. */
	cpu_irq_disable();
   80cfe:	2200      	movs	r2, #0
   80d00:	4b0e      	ldr	r3, [pc, #56]	; (80d3c <USART0_Handler+0x54>)
   80d02:	701a      	strb	r2, [r3, #0]

	/* The number of data in the receive buffer is incremented and the
	 * buffer is updated. */

	serial_rx_buf[serial_rx_buf_tail] = temp;
   80d04:	4b0e      	ldr	r3, [pc, #56]	; (80d40 <USART0_Handler+0x58>)
   80d06:	781b      	ldrb	r3, [r3, #0]
   80d08:	f89d 1007 	ldrb.w	r1, [sp, #7]
   80d0c:	4a0d      	ldr	r2, [pc, #52]	; (80d44 <USART0_Handler+0x5c>)
   80d0e:	54d1      	strb	r1, [r2, r3]

	if ((SERIAL_RX_BUF_SIZE_HOST - 1) == serial_rx_buf_tail) {
   80d10:	2b9b      	cmp	r3, #155	; 0x9b
   80d12:	d103      	bne.n	80d1c <USART0_Handler+0x34>
		/* Reached the end of buffer, revert back to beginning of
		 * buffer. */
		serial_rx_buf_tail = 0x00;
   80d14:	2200      	movs	r2, #0
   80d16:	4b0a      	ldr	r3, [pc, #40]	; (80d40 <USART0_Handler+0x58>)
   80d18:	701a      	strb	r2, [r3, #0]
   80d1a:	e002      	b.n	80d22 <USART0_Handler+0x3a>
	} else {
		serial_rx_buf_tail++;
   80d1c:	3301      	adds	r3, #1
   80d1e:	4a08      	ldr	r2, [pc, #32]	; (80d40 <USART0_Handler+0x58>)
   80d20:	7013      	strb	r3, [r2, #0]
	}

	cpu_irq_enable();
   80d22:	2201      	movs	r2, #1
   80d24:	4b05      	ldr	r3, [pc, #20]	; (80d3c <USART0_Handler+0x54>)
   80d26:	701a      	strb	r2, [r3, #0]
   80d28:	f3bf 8f5f 	dmb	sy
  This function enables IRQ interrupts by clearing the I-bit in the CPSR.
  Can only be executed in Privileged modes.
 */
__attribute__( ( always_inline ) ) __STATIC_INLINE void __enable_irq(void)
{
  __ASM volatile ("cpsie i" : : : "memory");
   80d2c:	b662      	cpsie	i
}
   80d2e:	b003      	add	sp, #12
   80d30:	f85d fb04 	ldr.w	pc, [sp], #4
   80d34:	40098000 	.word	0x40098000
   80d38:	00080acd 	.word	0x00080acd
   80d3c:	20070134 	.word	0x20070134
   80d40:	20070a64 	.word	0x20070a64
   80d44:	200709c8 	.word	0x200709c8

00080d48 <getX_diff>:
   80d48:	1a40      	subs	r0, r0, r1
   80d4a:	4770      	bx	lr

00080d4c <getY_diff>:
   80d4c:	1a40      	subs	r0, r0, r1
   80d4e:	4770      	bx	lr

00080d50 <calculateAngle>:
   80d50:	e92d 41f0 	stmdb	sp!, {r4, r5, r6, r7, r8, lr}
   80d54:	4607      	mov	r7, r0
   80d56:	460e      	mov	r6, r1
   80d58:	fb01 f401 	mul.w	r4, r1, r1
   80d5c:	fb00 4400 	mla	r4, r0, r0, r4
   80d60:	f8df 8070 	ldr.w	r8, [pc, #112]	; 80dd4 <calculateAngle+0x84>
   80d64:	4620      	mov	r0, r4
   80d66:	47c0      	blx	r8
   80d68:	4b15      	ldr	r3, [pc, #84]	; (80dc0 <calculateAngle+0x70>)
   80d6a:	4798      	blx	r3
   80d6c:	4604      	mov	r4, r0
   80d6e:	460d      	mov	r5, r1
   80d70:	4630      	mov	r0, r6
   80d72:	47c0      	blx	r8
   80d74:	4622      	mov	r2, r4
   80d76:	462b      	mov	r3, r5
   80d78:	4c12      	ldr	r4, [pc, #72]	; (80dc4 <calculateAngle+0x74>)
   80d7a:	47a0      	blx	r4
   80d7c:	4b12      	ldr	r3, [pc, #72]	; (80dc8 <calculateAngle+0x78>)
   80d7e:	4798      	blx	r3
   80d80:	a30d      	add	r3, pc, #52	; (adr r3, 80db8 <calculateAngle+0x68>)
   80d82:	e9d3 2300 	ldrd	r2, r3, [r3]
   80d86:	4c11      	ldr	r4, [pc, #68]	; (80dcc <calculateAngle+0x7c>)
   80d88:	47a0      	blx	r4
   80d8a:	4b11      	ldr	r3, [pc, #68]	; (80dd0 <calculateAngle+0x80>)
   80d8c:	4798      	blx	r3
   80d8e:	2e00      	cmp	r6, #0
   80d90:	da09      	bge.n	80da6 <calculateAngle+0x56>
   80d92:	2f00      	cmp	r7, #0
   80d94:	dd02      	ble.n	80d9c <calculateAngle+0x4c>
   80d96:	305a      	adds	r0, #90	; 0x5a
   80d98:	e8bd 81f0 	ldmia.w	sp!, {r4, r5, r6, r7, r8, pc}
   80d9c:	2f00      	cmp	r7, #0
   80d9e:	da08      	bge.n	80db2 <calculateAngle+0x62>
   80da0:	30b4      	adds	r0, #180	; 0xb4
   80da2:	e8bd 81f0 	ldmia.w	sp!, {r4, r5, r6, r7, r8, pc}
   80da6:	2e00      	cmp	r6, #0
   80da8:	dd03      	ble.n	80db2 <calculateAngle+0x62>
   80daa:	2f00      	cmp	r7, #0
   80dac:	bfb8      	it	lt
   80dae:	f500 7087 	addlt.w	r0, r0, #270	; 0x10e
   80db2:	e8bd 81f0 	ldmia.w	sp!, {r4, r5, r6, r7, r8, pc}
   80db6:	bf00      	nop
   80db8:	1a63c1f8 	.word	0x1a63c1f8
   80dbc:	404ca5dc 	.word	0x404ca5dc
   80dc0:	00081f5d 	.word	0x00081f5d
   80dc4:	00082c6d 	.word	0x00082c6d
   80dc8:	00081eb5 	.word	0x00081eb5
   80dcc:	00082a19 	.word	0x00082a19
   80dd0:	00082f4d 	.word	0x00082f4d
   80dd4:	0008294d 	.word	0x0008294d

00080dd8 <calculateSetPoint>:
   80dd8:	1a40      	subs	r0, r0, r1
   80dda:	4770      	bx	lr

00080ddc <calculateDistance>:
   80ddc:	b538      	push	{r3, r4, r5, lr}
   80dde:	fb01 f101 	mul.w	r1, r1, r1
   80de2:	fb00 1500 	mla	r5, r0, r0, r1
   80de6:	4c04      	ldr	r4, [pc, #16]	; (80df8 <calculateDistance+0x1c>)
   80de8:	4628      	mov	r0, r5
   80dea:	47a0      	blx	r4
   80dec:	4b03      	ldr	r3, [pc, #12]	; (80dfc <calculateDistance+0x20>)
   80dee:	4798      	blx	r3
   80df0:	4b03      	ldr	r3, [pc, #12]	; (80e00 <calculateDistance+0x24>)
   80df2:	4798      	blx	r3
   80df4:	bd38      	pop	{r3, r4, r5, pc}
   80df6:	bf00      	nop
   80df8:	0008294d 	.word	0x0008294d
   80dfc:	00081f5d 	.word	0x00081f5d
   80e00:	00082f4d 	.word	0x00082f4d

00080e04 <initDrive>:





void initDrive(void){
   80e04:	b470      	push	{r4, r5, r6}
		enum ioport_direction dir)
{
	Pio *base = arch_ioport_pin_to_base(pin);

	if (dir == IOPORT_DIR_OUTPUT) {
		base->PIO_OER = arch_ioport_pin_to_mask(pin);
   80e06:	4b20      	ldr	r3, [pc, #128]	; (80e88 <initDrive+0x84>)
   80e08:	f04f 6280 	mov.w	r2, #67108864	; 0x4000000
   80e0c:	611a      	str	r2, [r3, #16]
	} else if (dir == IOPORT_DIR_INPUT) {
		base->PIO_ODR = arch_ioport_pin_to_mask(pin);
	}

	base->PIO_OWER = arch_ioport_pin_to_mask(pin);
   80e0e:	f8c3 20a0 	str.w	r2, [r3, #160]	; 0xa0
		enum ioport_direction dir)
{
	Pio *base = arch_ioport_pin_to_base(pin);

	if (dir == IOPORT_DIR_OUTPUT) {
		base->PIO_OER = arch_ioport_pin_to_mask(pin);
   80e12:	491e      	ldr	r1, [pc, #120]	; (80e8c <initDrive+0x88>)
   80e14:	f44f 4380 	mov.w	r3, #16384	; 0x4000
   80e18:	610b      	str	r3, [r1, #16]
	} else if (dir == IOPORT_DIR_INPUT) {
		base->PIO_ODR = arch_ioport_pin_to_mask(pin);
	}

	base->PIO_OWER = arch_ioport_pin_to_mask(pin);
   80e1a:	f8c1 30a0 	str.w	r3, [r1, #160]	; 0xa0
	Pio *base = arch_ioport_pin_to_base(pin);

	if (dir == IOPORT_DIR_OUTPUT) {
		base->PIO_OER = arch_ioport_pin_to_mask(pin);
	} else if (dir == IOPORT_DIR_INPUT) {
		base->PIO_ODR = arch_ioport_pin_to_mask(pin);
   80e1e:	f44f 4300 	mov.w	r3, #32768	; 0x8000
   80e22:	614b      	str	r3, [r1, #20]
	}

	base->PIO_OWER = arch_ioport_pin_to_mask(pin);
   80e24:	f8c1 30a0 	str.w	r3, [r1, #160]	; 0xa0
	Pio *base = arch_ioport_pin_to_base(pin);

	if (dir == IOPORT_DIR_OUTPUT) {
		base->PIO_OER = arch_ioport_pin_to_mask(pin);
	} else if (dir == IOPORT_DIR_INPUT) {
		base->PIO_ODR = arch_ioport_pin_to_mask(pin);
   80e28:	4b19      	ldr	r3, [pc, #100]	; (80e90 <initDrive+0x8c>)
   80e2a:	2402      	movs	r4, #2
   80e2c:	615c      	str	r4, [r3, #20]
	}

	base->PIO_OWER = arch_ioport_pin_to_mask(pin);
   80e2e:	f8c3 40a0 	str.w	r4, [r3, #160]	; 0xa0
	Pio *base = arch_ioport_pin_to_base(pin);

	if (dir == IOPORT_DIR_OUTPUT) {
		base->PIO_OER = arch_ioport_pin_to_mask(pin);
	} else if (dir == IOPORT_DIR_INPUT) {
		base->PIO_ODR = arch_ioport_pin_to_mask(pin);
   80e32:	2008      	movs	r0, #8
   80e34:	6158      	str	r0, [r3, #20]
	}

	base->PIO_OWER = arch_ioport_pin_to_mask(pin);
   80e36:	f8c3 00a0 	str.w	r0, [r3, #160]	; 0xa0
	Pio *base = arch_ioport_pin_to_base(pin);

	if (dir == IOPORT_DIR_OUTPUT) {
		base->PIO_OER = arch_ioport_pin_to_mask(pin);
	} else if (dir == IOPORT_DIR_INPUT) {
		base->PIO_ODR = arch_ioport_pin_to_mask(pin);
   80e3a:	f44f 7200 	mov.w	r2, #512	; 0x200
   80e3e:	615a      	str	r2, [r3, #20]
	}

	base->PIO_OWER = arch_ioport_pin_to_mask(pin);
   80e40:	f8c3 20a0 	str.w	r2, [r3, #160]	; 0xa0
	Pio *base = arch_ioport_pin_to_base(pin);

	if (dir == IOPORT_DIR_OUTPUT) {
		base->PIO_OER = arch_ioport_pin_to_mask(pin);
	} else if (dir == IOPORT_DIR_INPUT) {
		base->PIO_ODR = arch_ioport_pin_to_mask(pin);
   80e44:	f44f 6280 	mov.w	r2, #1024	; 0x400
   80e48:	615a      	str	r2, [r3, #20]
	}

	base->PIO_OWER = arch_ioport_pin_to_mask(pin);
   80e4a:	f8c3 20a0 	str.w	r2, [r3, #160]	; 0xa0
	Pio *base = arch_ioport_pin_to_base(pin);

	if (dir == IOPORT_DIR_OUTPUT) {
		base->PIO_OER = arch_ioport_pin_to_mask(pin);
	} else if (dir == IOPORT_DIR_INPUT) {
		base->PIO_ODR = arch_ioport_pin_to_mask(pin);
   80e4e:	4a11      	ldr	r2, [pc, #68]	; (80e94 <initDrive+0x90>)
   80e50:	2504      	movs	r5, #4
   80e52:	6155      	str	r5, [r2, #20]
	}

	base->PIO_OWER = arch_ioport_pin_to_mask(pin);
   80e54:	f8c2 50a0 	str.w	r5, [r2, #160]	; 0xa0
	Pio *base = arch_ioport_pin_to_base(pin);

	if (dir == IOPORT_DIR_OUTPUT) {
		base->PIO_OER = arch_ioport_pin_to_mask(pin);
	} else if (dir == IOPORT_DIR_INPUT) {
		base->PIO_ODR = arch_ioport_pin_to_mask(pin);
   80e58:	2601      	movs	r6, #1
   80e5a:	615e      	str	r6, [r3, #20]
	}

	base->PIO_OWER = arch_ioport_pin_to_mask(pin);
   80e5c:	f8c3 60a0 	str.w	r6, [r3, #160]	; 0xa0
	Pio *base = arch_ioport_pin_to_base(pin);

	if (dir == IOPORT_DIR_OUTPUT) {
		base->PIO_OER = arch_ioport_pin_to_mask(pin);
	} else if (dir == IOPORT_DIR_INPUT) {
		base->PIO_ODR = arch_ioport_pin_to_mask(pin);
   80e60:	615d      	str	r5, [r3, #20]
	}

	base->PIO_OWER = arch_ioport_pin_to_mask(pin);
   80e62:	f8c3 50a0 	str.w	r5, [r3, #160]	; 0xa0
	Pio *base = arch_ioport_pin_to_base(pin);

	if (dir == IOPORT_DIR_OUTPUT) {
		base->PIO_OER = arch_ioport_pin_to_mask(pin);
	} else if (dir == IOPORT_DIR_INPUT) {
		base->PIO_ODR = arch_ioport_pin_to_mask(pin);
   80e66:	2540      	movs	r5, #64	; 0x40
   80e68:	615d      	str	r5, [r3, #20]
	}

	base->PIO_OWER = arch_ioport_pin_to_mask(pin);
   80e6a:	f8c3 50a0 	str.w	r5, [r3, #160]	; 0xa0
	Pio *base = arch_ioport_pin_to_base(pin);

	if (dir == IOPORT_DIR_OUTPUT) {
		base->PIO_OER = arch_ioport_pin_to_mask(pin);
	} else if (dir == IOPORT_DIR_INPUT) {
		base->PIO_ODR = arch_ioport_pin_to_mask(pin);
   80e6e:	2380      	movs	r3, #128	; 0x80
   80e70:	614b      	str	r3, [r1, #20]
	}

	base->PIO_OWER = arch_ioport_pin_to_mask(pin);
   80e72:	f8c1 30a0 	str.w	r3, [r1, #160]	; 0xa0
	Pio *base = arch_ioport_pin_to_base(pin);

	if (dir == IOPORT_DIR_OUTPUT) {
		base->PIO_OER = arch_ioport_pin_to_mask(pin);
	} else if (dir == IOPORT_DIR_INPUT) {
		base->PIO_ODR = arch_ioport_pin_to_mask(pin);
   80e76:	6154      	str	r4, [r2, #20]
	}

	base->PIO_OWER = arch_ioport_pin_to_mask(pin);
   80e78:	f8c2 40a0 	str.w	r4, [r2, #160]	; 0xa0
	Pio *base = arch_ioport_pin_to_base(pin);

	if (dir == IOPORT_DIR_OUTPUT) {
		base->PIO_OER = arch_ioport_pin_to_mask(pin);
	} else if (dir == IOPORT_DIR_INPUT) {
		base->PIO_ODR = arch_ioport_pin_to_mask(pin);
   80e7c:	6150      	str	r0, [r2, #20]
	}

	base->PIO_OWER = arch_ioport_pin_to_mask(pin);
   80e7e:	f8c2 00a0 	str.w	r0, [r2, #160]	; 0xa0
	ioport_set_pin_dir(L1,IOPORT_DIR_INPUT);
	ioport_set_pin_dir(L2,IOPORT_DIR_INPUT);
	ioport_set_pin_dir(L3,IOPORT_DIR_INPUT);
	ioport_set_pin_dir(L4,IOPORT_DIR_INPUT);
	ioport_set_pin_dir(L5,IOPORT_DIR_INPUT);
}
   80e82:	bc70      	pop	{r4, r5, r6}
   80e84:	4770      	bx	lr
   80e86:	bf00      	nop
   80e88:	400e1000 	.word	0x400e1000
   80e8c:	400e0e00 	.word	0x400e0e00
   80e90:	400e1400 	.word	0x400e1400
   80e94:	400e1200 	.word	0x400e1200

00080e98 <driveTo>:
// 	
// 	
// 		
// }

void driveTo(int obj){
   80e98:	e92d 4ff0 	stmdb	sp!, {r4, r5, r6, r7, r8, r9, sl, fp, lr}
   80e9c:	b083      	sub	sp, #12
	Pio *base = arch_ioport_pin_to_base(pin);

	if (level) {
		base->PIO_SODR = arch_ioport_pin_to_mask(pin);
	} else {
		base->PIO_CODR = arch_ioport_pin_to_mask(pin);
   80e9e:	f04f 6280 	mov.w	r2, #67108864	; 0x4000000
   80ea2:	4b35      	ldr	r3, [pc, #212]	; (80f78 <driveTo+0xe0>)
   80ea4:	635a      	str	r2, [r3, #52]	; 0x34
   80ea6:	f44f 4280 	mov.w	r2, #16384	; 0x4000
   80eaa:	f5a3 7300 	sub.w	r3, r3, #512	; 0x200
   80eae:	635a      	str	r2, [r3, #52]	; 0x34
	int l_count = 0;
	
	ioport_set_pin_level(R_RESET,LOW);
	ioport_set_pin_level(L_RESET,LOW);
	
	while(newcount < obj){
   80eb0:	f1b0 0b00 	subs.w	fp, r0, #0
   80eb4:	dd58      	ble.n	80f68 <driveTo+0xd0>
// 		
// }

void driveTo(int obj){
	
	int newcount = 0;
   80eb6:	2700      	movs	r7, #0
   80eb8:	f8df a0bc 	ldr.w	sl, [pc, #188]	; 80f78 <driveTo+0xe0>
   80ebc:	461d      	mov	r5, r3
   80ebe:	9201      	str	r2, [sp, #4]
	base->PIO_CODR = mask & ~level;
}

__always_inline static bool arch_ioport_get_pin_level(ioport_pin_t pin)
{
	return arch_ioport_pin_to_base(pin)->PIO_PDSR & arch_ioport_pin_to_mask(pin);
   80ec0:	4c2e      	ldr	r4, [pc, #184]	; (80f7c <driveTo+0xe4>)
   80ec2:	4e2f      	ldr	r6, [pc, #188]	; (80f80 <driveTo+0xe8>)
	Pio *base = arch_ioport_pin_to_base(pin);

	if (level) {
		base->PIO_SODR = arch_ioport_pin_to_mask(pin);
	} else {
		base->PIO_CODR = arch_ioport_pin_to_mask(pin);
   80ec4:	f04f 6880 	mov.w	r8, #67108864	; 0x4000000
   80ec8:	f8ca 8034 	str.w	r8, [sl, #52]	; 0x34
   80ecc:	9b01      	ldr	r3, [sp, #4]
   80ece:	636b      	str	r3, [r5, #52]	; 0x34
	while(newcount < obj){
				
		ioport_set_pin_level(R_RESET,LOW);
		ioport_set_pin_level(L_RESET,LOW);
		
		delayMicroseconds(500000);
   80ed0:	482c      	ldr	r0, [pc, #176]	; (80f84 <driveTo+0xec>)
   80ed2:	4b2d      	ldr	r3, [pc, #180]	; (80f88 <driveTo+0xf0>)
   80ed4:	4798      	blx	r3
	base->PIO_CODR = mask & ~level;
}

__always_inline static bool arch_ioport_get_pin_level(ioport_pin_t pin)
{
	return arch_ioport_pin_to_base(pin)->PIO_PDSR & arch_ioport_pin_to_mask(pin);
   80ed6:	f8d5 c03c 	ldr.w	ip, [r5, #60]	; 0x3c
   80eda:	f8d4 e03c 	ldr.w	lr, [r4, #60]	; 0x3c
   80ede:	6be0      	ldr	r0, [r4, #60]	; 0x3c
   80ee0:	6be1      	ldr	r1, [r4, #60]	; 0x3c
   80ee2:	6be3      	ldr	r3, [r4, #60]	; 0x3c
   80ee4:	6bf2      	ldr	r2, [r6, #60]	; 0x3c
   80ee6:	f3cc 3cc0 	ubfx	ip, ip, #15, #1
   80eea:	f3ce 0e40 	ubfx	lr, lr, #1, #1
		
		r_count = ioport_get_pin_level(R0)+ioport_get_pin_level(R1)*2+ioport_get_pin_level(R2)*4+ioport_get_pin_level(R3)*8
   80eee:	eb0c 0e4e 	add.w	lr, ip, lr, lsl #1
   80ef2:	f3c0 00c0 	ubfx	r0, r0, #3, #1
   80ef6:	eb0e 0080 	add.w	r0, lr, r0, lsl #2
   80efa:	f3c1 2140 	ubfx	r1, r1, #9, #1
   80efe:	eb00 01c1 	add.w	r1, r0, r1, lsl #3
   80f02:	f3c3 2380 	ubfx	r3, r3, #10, #1
		+ioport_get_pin_level(R4)*16+ioport_get_pin_level(R5)*32;
   80f06:	eb01 1303 	add.w	r3, r1, r3, lsl #4
   80f0a:	f3c2 0980 	ubfx	r9, r2, #2, #1
		ioport_set_pin_level(R_RESET,LOW);
		ioport_set_pin_level(L_RESET,LOW);
		
		delayMicroseconds(500000);
		
		r_count = ioport_get_pin_level(R0)+ioport_get_pin_level(R1)*2+ioport_get_pin_level(R2)*4+ioport_get_pin_level(R3)*8
   80f0e:	eb03 1949 	add.w	r9, r3, r9, lsl #5
   80f12:	f8d4 c03c 	ldr.w	ip, [r4, #60]	; 0x3c
   80f16:	f8d4 e03c 	ldr.w	lr, [r4, #60]	; 0x3c
   80f1a:	6be0      	ldr	r0, [r4, #60]	; 0x3c
   80f1c:	6bea      	ldr	r2, [r5, #60]	; 0x3c
   80f1e:	6bf3      	ldr	r3, [r6, #60]	; 0x3c
   80f20:	6bf1      	ldr	r1, [r6, #60]	; 0x3c
   80f22:	f00c 0c01 	and.w	ip, ip, #1
   80f26:	f3ce 0e80 	ubfx	lr, lr, #2, #1
		+ioport_get_pin_level(R4)*16+ioport_get_pin_level(R5)*32;
		
		
		
		l_count = ioport_get_pin_level(L0)+ioport_get_pin_level(L1)*2+ioport_get_pin_level(L2)*4+ioport_get_pin_level(L3)*8
   80f2a:	eb0c 0e4e 	add.w	lr, ip, lr, lsl #1
   80f2e:	f3c0 1080 	ubfx	r0, r0, #6, #1
   80f32:	eb0e 0080 	add.w	r0, lr, r0, lsl #2
   80f36:	f3c2 12c0 	ubfx	r2, r2, #7, #1
   80f3a:	eb00 02c2 	add.w	r2, r0, r2, lsl #3
   80f3e:	f3c3 0340 	ubfx	r3, r3, #1, #1
		+ioport_get_pin_level(L4)*16+ioport_get_pin_level(L5)*32;
   80f42:	eb02 1303 	add.w	r3, r2, r3, lsl #4
   80f46:	f3c1 01c0 	ubfx	r1, r1, #3, #1
		r_count = ioport_get_pin_level(R0)+ioport_get_pin_level(R1)*2+ioport_get_pin_level(R2)*4+ioport_get_pin_level(R3)*8
		+ioport_get_pin_level(R4)*16+ioport_get_pin_level(R5)*32;
		
		
		
		l_count = ioport_get_pin_level(L0)+ioport_get_pin_level(L1)*2+ioport_get_pin_level(L2)*4+ioport_get_pin_level(L3)*8
   80f4a:	eb03 1141 	add.w	r1, r3, r1, lsl #5
		+ioport_get_pin_level(L4)*16+ioport_get_pin_level(L5)*32;
		
		
		int disp = r_count - l_count;
		
		P_regulator(0,disp);
   80f4e:	2000      	movs	r0, #0
   80f50:	ebc1 0109 	rsb	r1, r1, r9
   80f54:	4b0d      	ldr	r3, [pc, #52]	; (80f8c <driveTo+0xf4>)
   80f56:	4798      	blx	r3
		
		//delayMicroseconds(400000);

		newcount = newcount + r_count;
   80f58:	444f      	add	r7, r9
		bool level)
{
	Pio *base = arch_ioport_pin_to_base(pin);

	if (level) {
		base->PIO_SODR = arch_ioport_pin_to_mask(pin);
   80f5a:	f8ca 8030 	str.w	r8, [sl, #48]	; 0x30
   80f5e:	f44f 4380 	mov.w	r3, #16384	; 0x4000
   80f62:	632b      	str	r3, [r5, #48]	; 0x30
	int l_count = 0;
	
	ioport_set_pin_level(R_RESET,LOW);
	ioport_set_pin_level(L_RESET,LOW);
	
	while(newcount < obj){
   80f64:	45bb      	cmp	fp, r7
   80f66:	dcad      	bgt.n	80ec4 <driveTo+0x2c>
// 	char str[20];
// 	sprintf(str,"\nTotal: %d",newcount);
// 	printf (str);
	
	newcount = 0;
	moveForward(1500,1500);
   80f68:	f240 50dc 	movw	r0, #1500	; 0x5dc
   80f6c:	4601      	mov	r1, r0
   80f6e:	4b08      	ldr	r3, [pc, #32]	; (80f90 <driveTo+0xf8>)
   80f70:	4798      	blx	r3
}
   80f72:	b003      	add	sp, #12
   80f74:	e8bd 8ff0 	ldmia.w	sp!, {r4, r5, r6, r7, r8, r9, sl, fp, pc}
   80f78:	400e1000 	.word	0x400e1000
   80f7c:	400e1400 	.word	0x400e1400
   80f80:	400e1200 	.word	0x400e1200
   80f84:	0007a120 	.word	0x0007a120
   80f88:	0008104d 	.word	0x0008104d
   80f8c:	00080f99 	.word	0x00080f99
   80f90:	000810d1 	.word	0x000810d1

00080f94 <initRegulator>:
int speed=1650;
int r_speed=0;
int l_speed=0;


void initRegulator(void){
   80f94:	4770      	bx	lr
   80f96:	bf00      	nop

00080f98 <P_regulator>:
}



void P_regulator(int b,int u)
{
   80f98:	b508      	push	{r3, lr}
	
// 	ioport_set_pin_level(R_RESET,HIGH);
// 	ioport_set_pin_level(L_RESET,HIGH);

	r_speed=speed;
   80f9a:	4b16      	ldr	r3, [pc, #88]	; (80ff4 <P_regulator+0x5c>)
   80f9c:	681b      	ldr	r3, [r3, #0]
   80f9e:	4a16      	ldr	r2, [pc, #88]	; (80ff8 <P_regulator+0x60>)
   80fa0:	6013      	str	r3, [r2, #0]
	l_speed=speed;
   80fa2:	4a16      	ldr	r2, [pc, #88]	; (80ffc <P_regulator+0x64>)
   80fa4:	6013      	str	r3, [r2, #0]
	int e = b - u; //Felvrde = Brvrde - rvrde
   80fa6:	1a41      	subs	r1, r0, r1
	if(e > 0) {
   80fa8:	2900      	cmp	r1, #0
   80faa:	dd0c      	ble.n	80fc6 <P_regulator+0x2e>

		r_speed=speed-(e*Kp);
   80fac:	4a14      	ldr	r2, [pc, #80]	; (81000 <P_regulator+0x68>)
   80fae:	6810      	ldr	r0, [r2, #0]
   80fb0:	fb00 f001 	mul.w	r0, r0, r1
   80fb4:	1a19      	subs	r1, r3, r0
   80fb6:	4a10      	ldr	r2, [pc, #64]	; (80ff8 <P_regulator+0x60>)
   80fb8:	6011      	str	r1, [r2, #0]
		l_speed=speed+(e*Kp);
   80fba:	4418      	add	r0, r3
   80fbc:	4b0f      	ldr	r3, [pc, #60]	; (80ffc <P_regulator+0x64>)
   80fbe:	6018      	str	r0, [r3, #0]
		moveForward(l_speed,r_speed);
   80fc0:	4b10      	ldr	r3, [pc, #64]	; (81004 <P_regulator+0x6c>)
   80fc2:	4798      	blx	r3
   80fc4:	e012      	b.n	80fec <P_regulator+0x54>
		
	}
	else if (e<0){
   80fc6:	2900      	cmp	r1, #0
   80fc8:	da0c      	bge.n	80fe4 <P_regulator+0x4c>
		
		r_speed=speed+(e*Kp);
   80fca:	4a0d      	ldr	r2, [pc, #52]	; (81000 <P_regulator+0x68>)
   80fcc:	6810      	ldr	r0, [r2, #0]
   80fce:	fb00 f001 	mul.w	r0, r0, r1
   80fd2:	1819      	adds	r1, r3, r0
   80fd4:	4a08      	ldr	r2, [pc, #32]	; (80ff8 <P_regulator+0x60>)
   80fd6:	6011      	str	r1, [r2, #0]
		l_speed=speed-(e*Kp);
   80fd8:	1a18      	subs	r0, r3, r0
   80fda:	4b08      	ldr	r3, [pc, #32]	; (80ffc <P_regulator+0x64>)
   80fdc:	6018      	str	r0, [r3, #0]
		moveForward(l_speed,r_speed);
   80fde:	4b09      	ldr	r3, [pc, #36]	; (81004 <P_regulator+0x6c>)
   80fe0:	4798      	blx	r3
   80fe2:	e003      	b.n	80fec <P_regulator+0x54>
	}
	else{
		moveForward(l_speed,r_speed);
   80fe4:	4618      	mov	r0, r3
   80fe6:	4619      	mov	r1, r3
   80fe8:	4b06      	ldr	r3, [pc, #24]	; (81004 <P_regulator+0x6c>)
   80fea:	4798      	blx	r3
	}
	delayMicroseconds(500000);
   80fec:	4806      	ldr	r0, [pc, #24]	; (81008 <P_regulator+0x70>)
   80fee:	4b07      	ldr	r3, [pc, #28]	; (8100c <P_regulator+0x74>)
   80ff0:	4798      	blx	r3
   80ff2:	bd08      	pop	{r3, pc}
   80ff4:	20070130 	.word	0x20070130
   80ff8:	20070a68 	.word	0x20070a68
   80ffc:	20070a6c 	.word	0x20070a6c
   81000:	2007012c 	.word	0x2007012c
   81004:	000810d1 	.word	0x000810d1
   81008:	0007a120 	.word	0x0007a120
   8100c:	0008104d 	.word	0x0008104d

00081010 <delayInit>:

#include "asf.h"
#include "DelayFunctions.h"

void delayInit(void)		/* Initializes the timer used for delays */
{
   81010:	b510      	push	{r4, lr}
	pmc_enable_periph_clk(ID_TC0);
   81012:	201b      	movs	r0, #27
   81014:	4b08      	ldr	r3, [pc, #32]	; (81038 <delayInit+0x28>)
   81016:	4798      	blx	r3
	tc_init(TC0,0,0);		 /* TC0, channel 0, TCLK1 och capturemode */
   81018:	4c08      	ldr	r4, [pc, #32]	; (8103c <delayInit+0x2c>)
   8101a:	4620      	mov	r0, r4
   8101c:	2100      	movs	r1, #0
   8101e:	460a      	mov	r2, r1
   81020:	4b07      	ldr	r3, [pc, #28]	; (81040 <delayInit+0x30>)
   81022:	4798      	blx	r3
	tc_set_block_mode(TC0,0);
   81024:	4620      	mov	r0, r4
   81026:	2100      	movs	r1, #0
   81028:	4b06      	ldr	r3, [pc, #24]	; (81044 <delayInit+0x34>)
   8102a:	4798      	blx	r3
	tc_stop(TC0,0);			/* making sure the timer does not run  */
   8102c:	4620      	mov	r0, r4
   8102e:	2100      	movs	r1, #0
   81030:	4b05      	ldr	r3, [pc, #20]	; (81048 <delayInit+0x38>)
   81032:	4798      	blx	r3
   81034:	bd10      	pop	{r4, pc}
   81036:	bf00      	nop
   81038:	000818e5 	.word	0x000818e5
   8103c:	40080000 	.word	0x40080000
   81040:	00080c25 	.word	0x00080c25
   81044:	00080c41 	.word	0x00080c41
   81048:	00080c51 	.word	0x00080c51

0008104c <delayMicroseconds>:
}


void delayMicroseconds(uint32_t us)		/* A simple implementation for a delay in us (not calibrated) */
{
   8104c:	b5f8      	push	{r3, r4, r5, r6, r7, lr}
   8104e:	4604      	mov	r4, r0
	tc_start(TC0,0);
   81050:	4809      	ldr	r0, [pc, #36]	; (81078 <delayMicroseconds+0x2c>)
   81052:	2100      	movs	r1, #0
   81054:	4b09      	ldr	r3, [pc, #36]	; (8107c <delayMicroseconds+0x30>)
   81056:	4798      	blx	r3
	while (tc_read_cv(TC0,0) < us*42); /* Only works in newere version of ASF */
   81058:	272a      	movs	r7, #42	; 0x2a
   8105a:	fb07 f704 	mul.w	r7, r7, r4
   8105e:	4e06      	ldr	r6, [pc, #24]	; (81078 <delayMicroseconds+0x2c>)
   81060:	2500      	movs	r5, #0
   81062:	4c07      	ldr	r4, [pc, #28]	; (81080 <delayMicroseconds+0x34>)
   81064:	4630      	mov	r0, r6
   81066:	4629      	mov	r1, r5
   81068:	47a0      	blx	r4
   8106a:	42b8      	cmp	r0, r7
   8106c:	d3fa      	bcc.n	81064 <delayMicroseconds+0x18>
	tc_stop(TC0,0);
   8106e:	4802      	ldr	r0, [pc, #8]	; (81078 <delayMicroseconds+0x2c>)
   81070:	2100      	movs	r1, #0
   81072:	4b04      	ldr	r3, [pc, #16]	; (81084 <delayMicroseconds+0x38>)
   81074:	4798      	blx	r3
   81076:	bdf8      	pop	{r3, r4, r5, r6, r7, pc}
   81078:	40080000 	.word	0x40080000
   8107c:	00080c49 	.word	0x00080c49
   81080:	00080c59 	.word	0x00080c59
   81084:	00080c51 	.word	0x00080c51

00081088 <initMotor>:
		enum ioport_direction dir)
{
	Pio *base = arch_ioport_pin_to_base(pin);

	if (dir == IOPORT_DIR_OUTPUT) {
		base->PIO_OER = arch_ioport_pin_to_mask(pin);
   81088:	4b04      	ldr	r3, [pc, #16]	; (8109c <initMotor+0x14>)
   8108a:	2210      	movs	r2, #16
   8108c:	611a      	str	r2, [r3, #16]
	} else if (dir == IOPORT_DIR_INPUT) {
		base->PIO_ODR = arch_ioport_pin_to_mask(pin);
	}

	base->PIO_OWER = arch_ioport_pin_to_mask(pin);
   8108e:	f8c3 20a0 	str.w	r2, [r3, #160]	; 0xa0
		enum ioport_direction dir)
{
	Pio *base = arch_ioport_pin_to_base(pin);

	if (dir == IOPORT_DIR_OUTPUT) {
		base->PIO_OER = arch_ioport_pin_to_mask(pin);
   81092:	2220      	movs	r2, #32
   81094:	611a      	str	r2, [r3, #16]
	} else if (dir == IOPORT_DIR_INPUT) {
		base->PIO_ODR = arch_ioport_pin_to_mask(pin);
	}

	base->PIO_OWER = arch_ioport_pin_to_mask(pin);
   81096:	f8c3 20a0 	str.w	r2, [r3, #160]	; 0xa0
   8109a:	4770      	bx	lr
   8109c:	400e1200 	.word	0x400e1200

000810a0 <pulseLeft>:
}




void pulseLeft(int p1){
   810a0:	b538      	push	{r3, r4, r5, lr}
		bool level)
{
	Pio *base = arch_ioport_pin_to_base(pin);

	if (level) {
		base->PIO_SODR = arch_ioport_pin_to_mask(pin);
   810a2:	4c03      	ldr	r4, [pc, #12]	; (810b0 <pulseLeft+0x10>)
   810a4:	2510      	movs	r5, #16
   810a6:	6325      	str	r5, [r4, #48]	; 0x30
	ioport_set_pin_level(LEFT,HIGH);
	delayMicroseconds(p1);
   810a8:	4b02      	ldr	r3, [pc, #8]	; (810b4 <pulseLeft+0x14>)
   810aa:	4798      	blx	r3
	} else {
		base->PIO_CODR = arch_ioport_pin_to_mask(pin);
   810ac:	6365      	str	r5, [r4, #52]	; 0x34
   810ae:	bd38      	pop	{r3, r4, r5, pc}
   810b0:	400e1200 	.word	0x400e1200
   810b4:	0008104d 	.word	0x0008104d

000810b8 <pulseRight>:
	ioport_set_pin_level(LEFT,LOW);
}
void pulseRight(int p2){
   810b8:	b538      	push	{r3, r4, r5, lr}
		bool level)
{
	Pio *base = arch_ioport_pin_to_base(pin);

	if (level) {
		base->PIO_SODR = arch_ioport_pin_to_mask(pin);
   810ba:	4c03      	ldr	r4, [pc, #12]	; (810c8 <pulseRight+0x10>)
   810bc:	2520      	movs	r5, #32
   810be:	6325      	str	r5, [r4, #48]	; 0x30
	ioport_set_pin_level(RIGHT,HIGH);
	delayMicroseconds(p2);
   810c0:	4b02      	ldr	r3, [pc, #8]	; (810cc <pulseRight+0x14>)
   810c2:	4798      	blx	r3
	} else {
		base->PIO_CODR = arch_ioport_pin_to_mask(pin);
   810c4:	6365      	str	r5, [r4, #52]	; 0x34
   810c6:	bd38      	pop	{r3, r4, r5, pc}
   810c8:	400e1200 	.word	0x400e1200
   810cc:	0008104d 	.word	0x0008104d

000810d0 <moveForward>:
	ioport_set_pin_level(RIGHT,LOW);
}

void moveForward(int l,int r){
   810d0:	b510      	push	{r4, lr}
   810d2:	460c      	mov	r4, r1
	pulseLeft(l);
   810d4:	4b04      	ldr	r3, [pc, #16]	; (810e8 <moveForward+0x18>)
   810d6:	4798      	blx	r3
	pulseRight(r);
   810d8:	4620      	mov	r0, r4
   810da:	4b04      	ldr	r3, [pc, #16]	; (810ec <moveForward+0x1c>)
   810dc:	4798      	blx	r3
	delayMicroseconds(5250);
   810de:	f241 4082 	movw	r0, #5250	; 0x1482
   810e2:	4b03      	ldr	r3, [pc, #12]	; (810f0 <moveForward+0x20>)
   810e4:	4798      	blx	r3
   810e6:	bd10      	pop	{r4, pc}
   810e8:	000810a1 	.word	0x000810a1
   810ec:	000810b9 	.word	0x000810b9
   810f0:	0008104d 	.word	0x0008104d

000810f4 <initRotateMotor>:
uint16_t firstx = 0;
uint16_t firsty = 0;
uint16_t secondx = 0;
uint16_t secondy = 0;

void initRotateMotor(void){
   810f4:	b470      	push	{r4, r5, r6}
		enum ioport_direction dir)
{
	Pio *base = arch_ioport_pin_to_base(pin);

	if (dir == IOPORT_DIR_OUTPUT) {
		base->PIO_OER = arch_ioport_pin_to_mask(pin);
   810f6:	4b20      	ldr	r3, [pc, #128]	; (81178 <initRotateMotor+0x84>)
   810f8:	f04f 6280 	mov.w	r2, #67108864	; 0x4000000
   810fc:	611a      	str	r2, [r3, #16]
	} else if (dir == IOPORT_DIR_INPUT) {
		base->PIO_ODR = arch_ioport_pin_to_mask(pin);
	}

	base->PIO_OWER = arch_ioport_pin_to_mask(pin);
   810fe:	f8c3 20a0 	str.w	r2, [r3, #160]	; 0xa0
		enum ioport_direction dir)
{
	Pio *base = arch_ioport_pin_to_base(pin);

	if (dir == IOPORT_DIR_OUTPUT) {
		base->PIO_OER = arch_ioport_pin_to_mask(pin);
   81102:	491e      	ldr	r1, [pc, #120]	; (8117c <initRotateMotor+0x88>)
   81104:	f44f 4380 	mov.w	r3, #16384	; 0x4000
   81108:	610b      	str	r3, [r1, #16]
	} else if (dir == IOPORT_DIR_INPUT) {
		base->PIO_ODR = arch_ioport_pin_to_mask(pin);
	}

	base->PIO_OWER = arch_ioport_pin_to_mask(pin);
   8110a:	f8c1 30a0 	str.w	r3, [r1, #160]	; 0xa0
	Pio *base = arch_ioport_pin_to_base(pin);

	if (dir == IOPORT_DIR_OUTPUT) {
		base->PIO_OER = arch_ioport_pin_to_mask(pin);
	} else if (dir == IOPORT_DIR_INPUT) {
		base->PIO_ODR = arch_ioport_pin_to_mask(pin);
   8110e:	f44f 4300 	mov.w	r3, #32768	; 0x8000
   81112:	614b      	str	r3, [r1, #20]
	}

	base->PIO_OWER = arch_ioport_pin_to_mask(pin);
   81114:	f8c1 30a0 	str.w	r3, [r1, #160]	; 0xa0
	Pio *base = arch_ioport_pin_to_base(pin);

	if (dir == IOPORT_DIR_OUTPUT) {
		base->PIO_OER = arch_ioport_pin_to_mask(pin);
	} else if (dir == IOPORT_DIR_INPUT) {
		base->PIO_ODR = arch_ioport_pin_to_mask(pin);
   81118:	4b19      	ldr	r3, [pc, #100]	; (81180 <initRotateMotor+0x8c>)
   8111a:	2402      	movs	r4, #2
   8111c:	615c      	str	r4, [r3, #20]
	}

	base->PIO_OWER = arch_ioport_pin_to_mask(pin);
   8111e:	f8c3 40a0 	str.w	r4, [r3, #160]	; 0xa0
	Pio *base = arch_ioport_pin_to_base(pin);

	if (dir == IOPORT_DIR_OUTPUT) {
		base->PIO_OER = arch_ioport_pin_to_mask(pin);
	} else if (dir == IOPORT_DIR_INPUT) {
		base->PIO_ODR = arch_ioport_pin_to_mask(pin);
   81122:	2008      	movs	r0, #8
   81124:	6158      	str	r0, [r3, #20]
	}

	base->PIO_OWER = arch_ioport_pin_to_mask(pin);
   81126:	f8c3 00a0 	str.w	r0, [r3, #160]	; 0xa0
	Pio *base = arch_ioport_pin_to_base(pin);

	if (dir == IOPORT_DIR_OUTPUT) {
		base->PIO_OER = arch_ioport_pin_to_mask(pin);
	} else if (dir == IOPORT_DIR_INPUT) {
		base->PIO_ODR = arch_ioport_pin_to_mask(pin);
   8112a:	f44f 7200 	mov.w	r2, #512	; 0x200
   8112e:	615a      	str	r2, [r3, #20]
	}

	base->PIO_OWER = arch_ioport_pin_to_mask(pin);
   81130:	f8c3 20a0 	str.w	r2, [r3, #160]	; 0xa0
	Pio *base = arch_ioport_pin_to_base(pin);

	if (dir == IOPORT_DIR_OUTPUT) {
		base->PIO_OER = arch_ioport_pin_to_mask(pin);
	} else if (dir == IOPORT_DIR_INPUT) {
		base->PIO_ODR = arch_ioport_pin_to_mask(pin);
   81134:	f44f 6280 	mov.w	r2, #1024	; 0x400
   81138:	615a      	str	r2, [r3, #20]
	}

	base->PIO_OWER = arch_ioport_pin_to_mask(pin);
   8113a:	f8c3 20a0 	str.w	r2, [r3, #160]	; 0xa0
	Pio *base = arch_ioport_pin_to_base(pin);

	if (dir == IOPORT_DIR_OUTPUT) {
		base->PIO_OER = arch_ioport_pin_to_mask(pin);
	} else if (dir == IOPORT_DIR_INPUT) {
		base->PIO_ODR = arch_ioport_pin_to_mask(pin);
   8113e:	4a11      	ldr	r2, [pc, #68]	; (81184 <initRotateMotor+0x90>)
   81140:	2504      	movs	r5, #4
   81142:	6155      	str	r5, [r2, #20]
	}

	base->PIO_OWER = arch_ioport_pin_to_mask(pin);
   81144:	f8c2 50a0 	str.w	r5, [r2, #160]	; 0xa0
	Pio *base = arch_ioport_pin_to_base(pin);

	if (dir == IOPORT_DIR_OUTPUT) {
		base->PIO_OER = arch_ioport_pin_to_mask(pin);
	} else if (dir == IOPORT_DIR_INPUT) {
		base->PIO_ODR = arch_ioport_pin_to_mask(pin);
   81148:	2601      	movs	r6, #1
   8114a:	615e      	str	r6, [r3, #20]
	}

	base->PIO_OWER = arch_ioport_pin_to_mask(pin);
   8114c:	f8c3 60a0 	str.w	r6, [r3, #160]	; 0xa0
	Pio *base = arch_ioport_pin_to_base(pin);

	if (dir == IOPORT_DIR_OUTPUT) {
		base->PIO_OER = arch_ioport_pin_to_mask(pin);
	} else if (dir == IOPORT_DIR_INPUT) {
		base->PIO_ODR = arch_ioport_pin_to_mask(pin);
   81150:	615d      	str	r5, [r3, #20]
	}

	base->PIO_OWER = arch_ioport_pin_to_mask(pin);
   81152:	f8c3 50a0 	str.w	r5, [r3, #160]	; 0xa0
	Pio *base = arch_ioport_pin_to_base(pin);

	if (dir == IOPORT_DIR_OUTPUT) {
		base->PIO_OER = arch_ioport_pin_to_mask(pin);
	} else if (dir == IOPORT_DIR_INPUT) {
		base->PIO_ODR = arch_ioport_pin_to_mask(pin);
   81156:	2540      	movs	r5, #64	; 0x40
   81158:	615d      	str	r5, [r3, #20]
	}

	base->PIO_OWER = arch_ioport_pin_to_mask(pin);
   8115a:	f8c3 50a0 	str.w	r5, [r3, #160]	; 0xa0
	Pio *base = arch_ioport_pin_to_base(pin);

	if (dir == IOPORT_DIR_OUTPUT) {
		base->PIO_OER = arch_ioport_pin_to_mask(pin);
	} else if (dir == IOPORT_DIR_INPUT) {
		base->PIO_ODR = arch_ioport_pin_to_mask(pin);
   8115e:	2380      	movs	r3, #128	; 0x80
   81160:	614b      	str	r3, [r1, #20]
	}

	base->PIO_OWER = arch_ioport_pin_to_mask(pin);
   81162:	f8c1 30a0 	str.w	r3, [r1, #160]	; 0xa0
	Pio *base = arch_ioport_pin_to_base(pin);

	if (dir == IOPORT_DIR_OUTPUT) {
		base->PIO_OER = arch_ioport_pin_to_mask(pin);
	} else if (dir == IOPORT_DIR_INPUT) {
		base->PIO_ODR = arch_ioport_pin_to_mask(pin);
   81166:	6154      	str	r4, [r2, #20]
	}

	base->PIO_OWER = arch_ioport_pin_to_mask(pin);
   81168:	f8c2 40a0 	str.w	r4, [r2, #160]	; 0xa0
	Pio *base = arch_ioport_pin_to_base(pin);

	if (dir == IOPORT_DIR_OUTPUT) {
		base->PIO_OER = arch_ioport_pin_to_mask(pin);
	} else if (dir == IOPORT_DIR_INPUT) {
		base->PIO_ODR = arch_ioport_pin_to_mask(pin);
   8116c:	6150      	str	r0, [r2, #20]
	}

	base->PIO_OWER = arch_ioport_pin_to_mask(pin);
   8116e:	f8c2 00a0 	str.w	r0, [r2, #160]	; 0xa0
    ioport_set_pin_dir(L4,IOPORT_DIR_INPUT);
    ioport_set_pin_dir(L5,IOPORT_DIR_INPUT);

	  
    
}
   81172:	bc70      	pop	{r4, r5, r6}
   81174:	4770      	bx	lr
   81176:	bf00      	nop
   81178:	400e1000 	.word	0x400e1000
   8117c:	400e0e00 	.word	0x400e0e00
   81180:	400e1400 	.word	0x400e1400
   81184:	400e1200 	.word	0x400e1200

00081188 <startupMeasure1>:
int getDirection(void){
	return direction;
}

void startupMeasure1(uint16_t x1,uint16_t x2){
	firstx = x1;
   81188:	4b02      	ldr	r3, [pc, #8]	; (81194 <startupMeasure1+0xc>)
   8118a:	8018      	strh	r0, [r3, #0]
	firsty = x2;
   8118c:	4b02      	ldr	r3, [pc, #8]	; (81198 <startupMeasure1+0x10>)
   8118e:	8019      	strh	r1, [r3, #0]
   81190:	4770      	bx	lr
   81192:	bf00      	nop
   81194:	20070a84 	.word	0x20070a84
   81198:	20070a70 	.word	0x20070a70

0008119c <startupMeasure2>:
}

void startupMeasure2(uint16_t x1,uint16_t x2){
   8119c:	b538      	push	{r3, r4, r5, lr}
	secondx = x1;
   8119e:	4b0a      	ldr	r3, [pc, #40]	; (811c8 <startupMeasure2+0x2c>)
   811a0:	8018      	strh	r0, [r3, #0]
	secondy = x2;
   811a2:	4c0a      	ldr	r4, [pc, #40]	; (811cc <startupMeasure2+0x30>)
   811a4:	8021      	strh	r1, [r4, #0]
	
	int xdiff = getX_diff(secondx,firstx);
   811a6:	4b0a      	ldr	r3, [pc, #40]	; (811d0 <startupMeasure2+0x34>)
   811a8:	8819      	ldrh	r1, [r3, #0]
   811aa:	4b0a      	ldr	r3, [pc, #40]	; (811d4 <startupMeasure2+0x38>)
   811ac:	4798      	blx	r3
   811ae:	4605      	mov	r5, r0
	int ydiff = getY_diff(secondy,firsty);
   811b0:	8820      	ldrh	r0, [r4, #0]
   811b2:	4b09      	ldr	r3, [pc, #36]	; (811d8 <startupMeasure2+0x3c>)
   811b4:	8819      	ldrh	r1, [r3, #0]
   811b6:	4b09      	ldr	r3, [pc, #36]	; (811dc <startupMeasure2+0x40>)
   811b8:	4798      	blx	r3
	
	direction = calculateAngle(ydiff,xdiff);
   811ba:	4629      	mov	r1, r5
   811bc:	4b08      	ldr	r3, [pc, #32]	; (811e0 <startupMeasure2+0x44>)
   811be:	4798      	blx	r3
   811c0:	4b08      	ldr	r3, [pc, #32]	; (811e4 <startupMeasure2+0x48>)
   811c2:	6018      	str	r0, [r3, #0]
   811c4:	bd38      	pop	{r3, r4, r5, pc}
   811c6:	bf00      	nop
   811c8:	20070a7c 	.word	0x20070a7c
   811cc:	20070a7e 	.word	0x20070a7e
   811d0:	20070a84 	.word	0x20070a84
   811d4:	00080d49 	.word	0x00080d49
   811d8:	20070a70 	.word	0x20070a70
   811dc:	00080d4d 	.word	0x00080d4d
   811e0:	00080d51 	.word	0x00080d51
   811e4:	20070a78 	.word	0x20070a78

000811e8 <updateDirection>:
}

void updateDirection(int d){
	direction = (d + 360 - direction) % 360;
   811e8:	4908      	ldr	r1, [pc, #32]	; (8120c <updateDirection+0x24>)
   811ea:	f500 70b4 	add.w	r0, r0, #360	; 0x168
   811ee:	680b      	ldr	r3, [r1, #0]
   811f0:	1ac0      	subs	r0, r0, r3
   811f2:	4a07      	ldr	r2, [pc, #28]	; (81210 <updateDirection+0x28>)
   811f4:	fb80 2302 	smull	r2, r3, r0, r2
   811f8:	18c2      	adds	r2, r0, r3
   811fa:	17c3      	asrs	r3, r0, #31
   811fc:	ebc3 2322 	rsb	r3, r3, r2, asr #8
   81200:	f44f 72b4 	mov.w	r2, #360	; 0x168
   81204:	fb02 0013 	mls	r0, r2, r3, r0
   81208:	6008      	str	r0, [r1, #0]
   8120a:	4770      	bx	lr
   8120c:	20070a78 	.word	0x20070a78
   81210:	b60b60b7 	.word	0xb60b60b7

00081214 <rotate>:

	  
    
}

void rotate(int d){					//Minimum d is 4
   81214:	e92d 4ff0 	stmdb	sp!, {r4, r5, r6, r7, r8, r9, sl, fp, lr}
   81218:	b083      	sub	sp, #12
   8121a:	9001      	str	r0, [sp, #4]
    //double ticks = d * 0.25;
	
	int direct_angle = d - ((direction + 180) % 360);
   8121c:	4b7f      	ldr	r3, [pc, #508]	; (8141c <rotate+0x208>)
   8121e:	6819      	ldr	r1, [r3, #0]
   81220:	31b4      	adds	r1, #180	; 0xb4
   81222:	4a7f      	ldr	r2, [pc, #508]	; (81420 <rotate+0x20c>)
   81224:	fb81 2302 	smull	r2, r3, r1, r2
   81228:	18ca      	adds	r2, r1, r3
   8122a:	17cb      	asrs	r3, r1, #31
   8122c:	ebc3 2322 	rsb	r3, r3, r2, asr #8
   81230:	f44f 7ab4 	mov.w	sl, #360	; 0x168
   81234:	fb0a 1113 	mls	r1, sl, r3, r1
	Pio *base = arch_ioport_pin_to_base(pin);

	if (level) {
		base->PIO_SODR = arch_ioport_pin_to_mask(pin);
	} else {
		base->PIO_CODR = arch_ioport_pin_to_mask(pin);
   81238:	f44f 4280 	mov.w	r2, #16384	; 0x4000
   8123c:	4b79      	ldr	r3, [pc, #484]	; (81424 <rotate+0x210>)
   8123e:	635a      	str	r2, [r3, #52]	; 0x34
   81240:	f04f 6280 	mov.w	r2, #67108864	; 0x4000000
   81244:	f503 7300 	add.w	r3, r3, #512	; 0x200
   81248:	635a      	str	r2, [r3, #52]	; 0x34
	
	ioport_set_pin_level(L_RESET,LOW);
	ioport_set_pin_level(R_RESET,LOW);
	
	if(direct_angle < 0){
   8124a:	9b01      	ldr	r3, [sp, #4]
   8124c:	1a59      	subs	r1, r3, r1
   8124e:	d565      	bpl.n	8131c <rotate+0x108>
		while(r_count < ((abs(direct_angle) + direction) * 0.25)){
   81250:	ea81 7ae1 	eor.w	sl, r1, r1, asr #31
   81254:	ebaa 7ae1 	sub.w	sl, sl, r1, asr #31
   81258:	4e73      	ldr	r6, [pc, #460]	; (81428 <rotate+0x214>)
   8125a:	4b74      	ldr	r3, [pc, #464]	; (8142c <rotate+0x218>)
   8125c:	6818      	ldr	r0, [r3, #0]
   8125e:	47b0      	blx	r6
   81260:	4604      	mov	r4, r0
   81262:	460d      	mov	r5, r1
   81264:	4b6d      	ldr	r3, [pc, #436]	; (8141c <rotate+0x208>)
   81266:	6818      	ldr	r0, [r3, #0]
   81268:	4450      	add	r0, sl
   8126a:	47b0      	blx	r6
   8126c:	2200      	movs	r2, #0
   8126e:	4b70      	ldr	r3, [pc, #448]	; (81430 <rotate+0x21c>)
   81270:	4e70      	ldr	r6, [pc, #448]	; (81434 <rotate+0x220>)
   81272:	47b0      	blx	r6
   81274:	4602      	mov	r2, r0
   81276:	460b      	mov	r3, r1
   81278:	4620      	mov	r0, r4
   8127a:	4629      	mov	r1, r5
   8127c:	4c6e      	ldr	r4, [pc, #440]	; (81438 <rotate+0x224>)
   8127e:	47a0      	blx	r4
   81280:	2800      	cmp	r0, #0
   81282:	d042      	beq.n	8130a <rotate+0xf6>
	base->PIO_CODR = mask & ~level;
}

__always_inline static bool arch_ioport_get_pin_level(ioport_pin_t pin)
{
	return arch_ioport_pin_to_base(pin)->PIO_PDSR & arch_ioport_pin_to_mask(pin);
   81284:	f8df b19c 	ldr.w	fp, [pc, #412]	; 81424 <rotate+0x210>
   81288:	4e6c      	ldr	r6, [pc, #432]	; (8143c <rotate+0x228>)
   8128a:	f8df 91c0 	ldr.w	r9, [pc, #448]	; 8144c <rotate+0x238>
			r_count = ioport_get_pin_level(R0)+ioport_get_pin_level(R1)*2+ioport_get_pin_level(R2)*4+ioport_get_pin_level(R3)*8
   8128e:	f8df 819c 	ldr.w	r8, [pc, #412]	; 8142c <rotate+0x218>
   81292:	f8db 503c 	ldr.w	r5, [fp, #60]	; 0x3c
   81296:	6bf4      	ldr	r4, [r6, #60]	; 0x3c
   81298:	6bf0      	ldr	r0, [r6, #60]	; 0x3c
   8129a:	6bf1      	ldr	r1, [r6, #60]	; 0x3c
   8129c:	6bf2      	ldr	r2, [r6, #60]	; 0x3c
   8129e:	f8d9 303c 	ldr.w	r3, [r9, #60]	; 0x3c
   812a2:	f3c5 35c0 	ubfx	r5, r5, #15, #1
   812a6:	f3c4 0440 	ubfx	r4, r4, #1, #1
   812aa:	eb05 0444 	add.w	r4, r5, r4, lsl #1
   812ae:	f3c0 00c0 	ubfx	r0, r0, #3, #1
   812b2:	eb04 0080 	add.w	r0, r4, r0, lsl #2
   812b6:	f3c1 2140 	ubfx	r1, r1, #9, #1
   812ba:	eb00 01c1 	add.w	r1, r0, r1, lsl #3
   812be:	f3c2 2280 	ubfx	r2, r2, #10, #1
			+ioport_get_pin_level(R4)*16+ioport_get_pin_level(R5)*32;
   812c2:	eb01 1202 	add.w	r2, r1, r2, lsl #4
   812c6:	f3c3 0380 	ubfx	r3, r3, #2, #1
   812ca:	eb02 1343 	add.w	r3, r2, r3, lsl #5
	ioport_set_pin_level(L_RESET,LOW);
	ioport_set_pin_level(R_RESET,LOW);
	
	if(direct_angle < 0){
		while(r_count < ((abs(direct_angle) + direction) * 0.25)){
			r_count = ioport_get_pin_level(R0)+ioport_get_pin_level(R1)*2+ioport_get_pin_level(R2)*4+ioport_get_pin_level(R3)*8
   812ce:	f8c8 3000 	str.w	r3, [r8]
			+ioport_get_pin_level(R4)*16+ioport_get_pin_level(R5)*32;
			//ioport_set_pin_level(R_RESET,HIGH);
			
			moveForward(1400,1600);
   812d2:	f44f 60af 	mov.w	r0, #1400	; 0x578
   812d6:	f44f 61c8 	mov.w	r1, #1600	; 0x640
   812da:	4b59      	ldr	r3, [pc, #356]	; (81440 <rotate+0x22c>)
   812dc:	4798      	blx	r3
	
	ioport_set_pin_level(L_RESET,LOW);
	ioport_set_pin_level(R_RESET,LOW);
	
	if(direct_angle < 0){
		while(r_count < ((abs(direct_angle) + direction) * 0.25)){
   812de:	4f52      	ldr	r7, [pc, #328]	; (81428 <rotate+0x214>)
   812e0:	f8d8 0000 	ldr.w	r0, [r8]
   812e4:	47b8      	blx	r7
   812e6:	4604      	mov	r4, r0
   812e8:	460d      	mov	r5, r1
   812ea:	4b4c      	ldr	r3, [pc, #304]	; (8141c <rotate+0x208>)
   812ec:	6818      	ldr	r0, [r3, #0]
   812ee:	4450      	add	r0, sl
   812f0:	47b8      	blx	r7
   812f2:	2200      	movs	r2, #0
   812f4:	4b4e      	ldr	r3, [pc, #312]	; (81430 <rotate+0x21c>)
   812f6:	4f4f      	ldr	r7, [pc, #316]	; (81434 <rotate+0x220>)
   812f8:	47b8      	blx	r7
   812fa:	4602      	mov	r2, r0
   812fc:	460b      	mov	r3, r1
   812fe:	4620      	mov	r0, r4
   81300:	4629      	mov	r1, r5
   81302:	4c4d      	ldr	r4, [pc, #308]	; (81438 <rotate+0x224>)
   81304:	47a0      	blx	r4
   81306:	2800      	cmp	r0, #0
   81308:	d1c3      	bne.n	81292 <rotate+0x7e>
			//ioport_set_pin_level(R_RESET,HIGH);
			
			moveForward(1400,1600);
			
		}
		updateDirection(d);
   8130a:	9801      	ldr	r0, [sp, #4]
   8130c:	4b4d      	ldr	r3, [pc, #308]	; (81444 <rotate+0x230>)
   8130e:	4798      	blx	r3
		//direction = (d + 360 - direction) % 360;
		moveForward(1500,1500);	
   81310:	f240 50dc 	movw	r0, #1500	; 0x5dc
   81314:	4601      	mov	r1, r0
   81316:	4b4a      	ldr	r3, [pc, #296]	; (81440 <rotate+0x22c>)
   81318:	4798      	blx	r3
   8131a:	e06d      	b.n	813f8 <rotate+0x1e4>
	}
	
	else if(direct_angle > 0){
   8131c:	2900      	cmp	r1, #0
   8131e:	dd66      	ble.n	813ee <rotate+0x1da>
		while(l_count < ((abs(direct_angle) + direction) * 0.25)){			
   81320:	ea81 7ae1 	eor.w	sl, r1, r1, asr #31
   81324:	ebaa 7ae1 	sub.w	sl, sl, r1, asr #31
   81328:	4e3f      	ldr	r6, [pc, #252]	; (81428 <rotate+0x214>)
   8132a:	4b47      	ldr	r3, [pc, #284]	; (81448 <rotate+0x234>)
   8132c:	6818      	ldr	r0, [r3, #0]
   8132e:	47b0      	blx	r6
   81330:	4604      	mov	r4, r0
   81332:	460d      	mov	r5, r1
   81334:	4b39      	ldr	r3, [pc, #228]	; (8141c <rotate+0x208>)
   81336:	6818      	ldr	r0, [r3, #0]
   81338:	4450      	add	r0, sl
   8133a:	47b0      	blx	r6
   8133c:	2200      	movs	r2, #0
   8133e:	4b3c      	ldr	r3, [pc, #240]	; (81430 <rotate+0x21c>)
   81340:	4e3c      	ldr	r6, [pc, #240]	; (81434 <rotate+0x220>)
   81342:	47b0      	blx	r6
   81344:	4602      	mov	r2, r0
   81346:	460b      	mov	r3, r1
   81348:	4620      	mov	r0, r4
   8134a:	4629      	mov	r1, r5
   8134c:	4c3a      	ldr	r4, [pc, #232]	; (81438 <rotate+0x224>)
   8134e:	47a0      	blx	r4
   81350:	2800      	cmp	r0, #0
   81352:	d043      	beq.n	813dc <rotate+0x1c8>
   81354:	4e39      	ldr	r6, [pc, #228]	; (8143c <rotate+0x228>)
   81356:	f8df b0cc 	ldr.w	fp, [pc, #204]	; 81424 <rotate+0x210>
   8135a:	f8df 90f0 	ldr.w	r9, [pc, #240]	; 8144c <rotate+0x238>
			l_count = ioport_get_pin_level(L0)+ioport_get_pin_level(L1)*2+ioport_get_pin_level(L2)*4+ioport_get_pin_level(L3)*8
   8135e:	f8df 80e8 	ldr.w	r8, [pc, #232]	; 81448 <rotate+0x234>
   81362:	6bf5      	ldr	r5, [r6, #60]	; 0x3c
   81364:	6bf4      	ldr	r4, [r6, #60]	; 0x3c
   81366:	6bf0      	ldr	r0, [r6, #60]	; 0x3c
   81368:	f8db 103c 	ldr.w	r1, [fp, #60]	; 0x3c
   8136c:	f8d9 203c 	ldr.w	r2, [r9, #60]	; 0x3c
   81370:	f8d9 303c 	ldr.w	r3, [r9, #60]	; 0x3c
   81374:	f005 0501 	and.w	r5, r5, #1
   81378:	f3c4 0480 	ubfx	r4, r4, #2, #1
   8137c:	eb05 0444 	add.w	r4, r5, r4, lsl #1
   81380:	f3c0 1080 	ubfx	r0, r0, #6, #1
   81384:	eb04 0080 	add.w	r0, r4, r0, lsl #2
   81388:	f3c1 11c0 	ubfx	r1, r1, #7, #1
   8138c:	eb00 01c1 	add.w	r1, r0, r1, lsl #3
   81390:	f3c2 0240 	ubfx	r2, r2, #1, #1
			+ioport_get_pin_level(L4)*16+ioport_get_pin_level(L5)*32;
   81394:	eb01 1202 	add.w	r2, r1, r2, lsl #4
   81398:	f3c3 03c0 	ubfx	r3, r3, #3, #1
   8139c:	eb02 1343 	add.w	r3, r2, r3, lsl #5
		moveForward(1500,1500);	
	}
	
	else if(direct_angle > 0){
		while(l_count < ((abs(direct_angle) + direction) * 0.25)){			
			l_count = ioport_get_pin_level(L0)+ioport_get_pin_level(L1)*2+ioport_get_pin_level(L2)*4+ioport_get_pin_level(L3)*8
   813a0:	f8c8 3000 	str.w	r3, [r8]
			+ioport_get_pin_level(L4)*16+ioport_get_pin_level(L5)*32;
			//ioport_set_pin_level(L_RESET,HIGH);
			
			moveForward(1600,1400);
   813a4:	f44f 60c8 	mov.w	r0, #1600	; 0x640
   813a8:	f44f 61af 	mov.w	r1, #1400	; 0x578
   813ac:	4b24      	ldr	r3, [pc, #144]	; (81440 <rotate+0x22c>)
   813ae:	4798      	blx	r3
		//direction = (d + 360 - direction) % 360;
		moveForward(1500,1500);	
	}
	
	else if(direct_angle > 0){
		while(l_count < ((abs(direct_angle) + direction) * 0.25)){			
   813b0:	4f1d      	ldr	r7, [pc, #116]	; (81428 <rotate+0x214>)
   813b2:	f8d8 0000 	ldr.w	r0, [r8]
   813b6:	47b8      	blx	r7
   813b8:	4604      	mov	r4, r0
   813ba:	460d      	mov	r5, r1
   813bc:	4b17      	ldr	r3, [pc, #92]	; (8141c <rotate+0x208>)
   813be:	6818      	ldr	r0, [r3, #0]
   813c0:	4450      	add	r0, sl
   813c2:	47b8      	blx	r7
   813c4:	2200      	movs	r2, #0
   813c6:	4b1a      	ldr	r3, [pc, #104]	; (81430 <rotate+0x21c>)
   813c8:	4f1a      	ldr	r7, [pc, #104]	; (81434 <rotate+0x220>)
   813ca:	47b8      	blx	r7
   813cc:	4602      	mov	r2, r0
   813ce:	460b      	mov	r3, r1
   813d0:	4620      	mov	r0, r4
   813d2:	4629      	mov	r1, r5
   813d4:	4c18      	ldr	r4, [pc, #96]	; (81438 <rotate+0x224>)
   813d6:	47a0      	blx	r4
   813d8:	2800      	cmp	r0, #0
   813da:	d1c2      	bne.n	81362 <rotate+0x14e>
			//ioport_set_pin_level(L_RESET,HIGH);
			
			moveForward(1600,1400);

		}
		updateDirection(d);
   813dc:	9801      	ldr	r0, [sp, #4]
   813de:	4b19      	ldr	r3, [pc, #100]	; (81444 <rotate+0x230>)
   813e0:	4798      	blx	r3
		//direction = (d + 360 - direction) % 360;
		moveForward(1500,1500);	
   813e2:	f240 50dc 	movw	r0, #1500	; 0x5dc
   813e6:	4601      	mov	r1, r0
   813e8:	4b15      	ldr	r3, [pc, #84]	; (81440 <rotate+0x22c>)
   813ea:	4798      	blx	r3
   813ec:	e004      	b.n	813f8 <rotate+0x1e4>
	}
	
	else{
		moveForward(1500,1500);
   813ee:	f240 50dc 	movw	r0, #1500	; 0x5dc
   813f2:	4601      	mov	r1, r0
   813f4:	4b12      	ldr	r3, [pc, #72]	; (81440 <rotate+0x22c>)
   813f6:	4798      	blx	r3
	}
	
	l_count = 0;
   813f8:	2300      	movs	r3, #0
   813fa:	4a13      	ldr	r2, [pc, #76]	; (81448 <rotate+0x234>)
   813fc:	6013      	str	r3, [r2, #0]
	r_count = 0;
   813fe:	4a0b      	ldr	r2, [pc, #44]	; (8142c <rotate+0x218>)
   81400:	6013      	str	r3, [r2, #0]
		bool level)
{
	Pio *base = arch_ioport_pin_to_base(pin);

	if (level) {
		base->PIO_SODR = arch_ioport_pin_to_mask(pin);
   81402:	f44f 4280 	mov.w	r2, #16384	; 0x4000
   81406:	4b07      	ldr	r3, [pc, #28]	; (81424 <rotate+0x210>)
   81408:	631a      	str	r2, [r3, #48]	; 0x30
   8140a:	f04f 6280 	mov.w	r2, #67108864	; 0x4000000
   8140e:	f503 7300 	add.w	r3, r3, #512	; 0x200
   81412:	631a      	str	r2, [r3, #48]	; 0x30
// 	sprintf(str,"\nVinkel: %d",d);
// 	printf (str);
// 	sprintf(str,"\nTicks: %f",ticks);
// 	printf (str);
	
}
   81414:	b003      	add	sp, #12
   81416:	e8bd 8ff0 	ldmia.w	sp!, {r4, r5, r6, r7, r8, r9, sl, fp, pc}
   8141a:	bf00      	nop
   8141c:	20070a78 	.word	0x20070a78
   81420:	b60b60b7 	.word	0xb60b60b7
   81424:	400e0e00 	.word	0x400e0e00
   81428:	0008294d 	.word	0x0008294d
   8142c:	20070a80 	.word	0x20070a80
   81430:	3fd00000 	.word	0x3fd00000
   81434:	00082a19 	.word	0x00082a19
   81438:	00082efd 	.word	0x00082efd
   8143c:	400e1400 	.word	0x400e1400
   81440:	000810d1 	.word	0x000810d1
   81444:	000811e9 	.word	0x000811e9
   81448:	20070a74 	.word	0x20070a74
   8144c:	400e1200 	.word	0x400e1200

00081450 <sysclk_init>:
   81450:	b510      	push	{r4, lr}
   81452:	480e      	ldr	r0, [pc, #56]	; (8148c <sysclk_init+0x3c>)
   81454:	4b0e      	ldr	r3, [pc, #56]	; (81490 <sysclk_init+0x40>)
   81456:	4798      	blx	r3
   81458:	2000      	movs	r0, #0
   8145a:	213e      	movs	r1, #62	; 0x3e
   8145c:	4b0d      	ldr	r3, [pc, #52]	; (81494 <sysclk_init+0x44>)
   8145e:	4798      	blx	r3
   81460:	4c0d      	ldr	r4, [pc, #52]	; (81498 <sysclk_init+0x48>)
   81462:	47a0      	blx	r4
   81464:	2800      	cmp	r0, #0
   81466:	d0fc      	beq.n	81462 <sysclk_init+0x12>
   81468:	4b0c      	ldr	r3, [pc, #48]	; (8149c <sysclk_init+0x4c>)
   8146a:	4798      	blx	r3
   8146c:	4a0c      	ldr	r2, [pc, #48]	; (814a0 <sysclk_init+0x50>)
   8146e:	4b0d      	ldr	r3, [pc, #52]	; (814a4 <sysclk_init+0x54>)
   81470:	629a      	str	r2, [r3, #40]	; 0x28
   81472:	4c0d      	ldr	r4, [pc, #52]	; (814a8 <sysclk_init+0x58>)
   81474:	47a0      	blx	r4
   81476:	2800      	cmp	r0, #0
   81478:	d0fc      	beq.n	81474 <sysclk_init+0x24>
   8147a:	2010      	movs	r0, #16
   8147c:	4b0b      	ldr	r3, [pc, #44]	; (814ac <sysclk_init+0x5c>)
   8147e:	4798      	blx	r3
   81480:	4b0b      	ldr	r3, [pc, #44]	; (814b0 <sysclk_init+0x60>)
   81482:	4798      	blx	r3
   81484:	4801      	ldr	r0, [pc, #4]	; (8148c <sysclk_init+0x3c>)
   81486:	4b02      	ldr	r3, [pc, #8]	; (81490 <sysclk_init+0x40>)
   81488:	4798      	blx	r3
   8148a:	bd10      	pop	{r4, pc}
   8148c:	0501bd00 	.word	0x0501bd00
   81490:	200700a5 	.word	0x200700a5
   81494:	00081861 	.word	0x00081861
   81498:	000818b5 	.word	0x000818b5
   8149c:	000818c5 	.word	0x000818c5
   814a0:	200d3f01 	.word	0x200d3f01
   814a4:	400e0600 	.word	0x400e0600
   814a8:	000818d5 	.word	0x000818d5
   814ac:	000817fd 	.word	0x000817fd
   814b0:	000819f1 	.word	0x000819f1

000814b4 <board_init>:
   814b4:	b510      	push	{r4, lr}
   814b6:	f44f 4200 	mov.w	r2, #32768	; 0x8000
   814ba:	4b18      	ldr	r3, [pc, #96]	; (8151c <board_init+0x68>)
   814bc:	605a      	str	r2, [r3, #4]
   814be:	200b      	movs	r0, #11
   814c0:	4c17      	ldr	r4, [pc, #92]	; (81520 <board_init+0x6c>)
   814c2:	47a0      	blx	r4
   814c4:	200c      	movs	r0, #12
   814c6:	47a0      	blx	r4
   814c8:	200d      	movs	r0, #13
   814ca:	47a0      	blx	r4
   814cc:	200e      	movs	r0, #14
   814ce:	47a0      	blx	r4
   814d0:	203b      	movs	r0, #59	; 0x3b
   814d2:	f04f 5160 	mov.w	r1, #939524096	; 0x38000000
   814d6:	4c13      	ldr	r4, [pc, #76]	; (81524 <board_init+0x70>)
   814d8:	47a0      	blx	r4
   814da:	2055      	movs	r0, #85	; 0x55
   814dc:	f04f 5160 	mov.w	r1, #939524096	; 0x38000000
   814e0:	47a0      	blx	r4
   814e2:	2056      	movs	r0, #86	; 0x56
   814e4:	f04f 5160 	mov.w	r1, #939524096	; 0x38000000
   814e8:	47a0      	blx	r4
   814ea:	2068      	movs	r0, #104	; 0x68
   814ec:	490e      	ldr	r1, [pc, #56]	; (81528 <board_init+0x74>)
   814ee:	47a0      	blx	r4
   814f0:	205c      	movs	r0, #92	; 0x5c
   814f2:	490e      	ldr	r1, [pc, #56]	; (8152c <board_init+0x78>)
   814f4:	47a0      	blx	r4
   814f6:	480e      	ldr	r0, [pc, #56]	; (81530 <board_init+0x7c>)
   814f8:	f44f 5340 	mov.w	r3, #12288	; 0x3000
   814fc:	6603      	str	r3, [r0, #96]	; 0x60
   814fe:	6543      	str	r3, [r0, #84]	; 0x54
   81500:	6243      	str	r3, [r0, #36]	; 0x24
   81502:	f8c0 3080 	str.w	r3, [r0, #128]	; 0x80
   81506:	6f02      	ldr	r2, [r0, #112]	; 0x70
   81508:	f422 5240 	bic.w	r2, r2, #12288	; 0x3000
   8150c:	6702      	str	r2, [r0, #112]	; 0x70
   8150e:	6043      	str	r3, [r0, #4]
   81510:	f44f 7140 	mov.w	r1, #768	; 0x300
   81514:	4a07      	ldr	r2, [pc, #28]	; (81534 <board_init+0x80>)
   81516:	4b08      	ldr	r3, [pc, #32]	; (81538 <board_init+0x84>)
   81518:	4798      	blx	r3
   8151a:	bd10      	pop	{r4, pc}
   8151c:	400e1a50 	.word	0x400e1a50
   81520:	000818e5 	.word	0x000818e5
   81524:	000815e1 	.word	0x000815e1
   81528:	28000079 	.word	0x28000079
   8152c:	28000001 	.word	0x28000001
   81530:	400e0e00 	.word	0x400e0e00
   81534:	08000001 	.word	0x08000001
   81538:	000816b5 	.word	0x000816b5

0008153c <pio_set_peripheral>:
   8153c:	6442      	str	r2, [r0, #68]	; 0x44
   8153e:	f1b1 5f80 	cmp.w	r1, #268435456	; 0x10000000
   81542:	d016      	beq.n	81572 <pio_set_peripheral+0x36>
   81544:	d804      	bhi.n	81550 <pio_set_peripheral+0x14>
   81546:	b1c1      	cbz	r1, 8157a <pio_set_peripheral+0x3e>
   81548:	f1b1 6f00 	cmp.w	r1, #134217728	; 0x8000000
   8154c:	d00a      	beq.n	81564 <pio_set_peripheral+0x28>
   8154e:	e013      	b.n	81578 <pio_set_peripheral+0x3c>
   81550:	f1b1 5f40 	cmp.w	r1, #805306368	; 0x30000000
   81554:	d011      	beq.n	8157a <pio_set_peripheral+0x3e>
   81556:	f1b1 5f60 	cmp.w	r1, #939524096	; 0x38000000
   8155a:	d00e      	beq.n	8157a <pio_set_peripheral+0x3e>
   8155c:	f1b1 5f20 	cmp.w	r1, #671088640	; 0x28000000
   81560:	d10a      	bne.n	81578 <pio_set_peripheral+0x3c>
   81562:	4770      	bx	lr
   81564:	6f03      	ldr	r3, [r0, #112]	; 0x70
   81566:	6f01      	ldr	r1, [r0, #112]	; 0x70
   81568:	400b      	ands	r3, r1
   8156a:	ea23 0302 	bic.w	r3, r3, r2
   8156e:	6703      	str	r3, [r0, #112]	; 0x70
   81570:	e002      	b.n	81578 <pio_set_peripheral+0x3c>
   81572:	6f03      	ldr	r3, [r0, #112]	; 0x70
   81574:	4313      	orrs	r3, r2
   81576:	6703      	str	r3, [r0, #112]	; 0x70
   81578:	6042      	str	r2, [r0, #4]
   8157a:	4770      	bx	lr

0008157c <pio_set_input>:
   8157c:	6441      	str	r1, [r0, #68]	; 0x44
   8157e:	f012 0f01 	tst.w	r2, #1
   81582:	bf14      	ite	ne
   81584:	6641      	strne	r1, [r0, #100]	; 0x64
   81586:	6601      	streq	r1, [r0, #96]	; 0x60
   81588:	f012 0f0a 	tst.w	r2, #10
   8158c:	bf14      	ite	ne
   8158e:	6201      	strne	r1, [r0, #32]
   81590:	6241      	streq	r1, [r0, #36]	; 0x24
   81592:	f012 0f02 	tst.w	r2, #2
   81596:	d002      	beq.n	8159e <pio_set_input+0x22>
   81598:	f8c0 1080 	str.w	r1, [r0, #128]	; 0x80
   8159c:	e004      	b.n	815a8 <pio_set_input+0x2c>
   8159e:	f012 0f08 	tst.w	r2, #8
   815a2:	bf18      	it	ne
   815a4:	f8c0 1084 	strne.w	r1, [r0, #132]	; 0x84
   815a8:	6141      	str	r1, [r0, #20]
   815aa:	6001      	str	r1, [r0, #0]
   815ac:	4770      	bx	lr
   815ae:	bf00      	nop

000815b0 <pio_set_output>:
   815b0:	b410      	push	{r4}
   815b2:	6441      	str	r1, [r0, #68]	; 0x44
   815b4:	9c01      	ldr	r4, [sp, #4]
   815b6:	b10c      	cbz	r4, 815bc <pio_set_output+0xc>
   815b8:	6641      	str	r1, [r0, #100]	; 0x64
   815ba:	e000      	b.n	815be <pio_set_output+0xe>
   815bc:	6601      	str	r1, [r0, #96]	; 0x60
   815be:	b10b      	cbz	r3, 815c4 <pio_set_output+0x14>
   815c0:	6501      	str	r1, [r0, #80]	; 0x50
   815c2:	e000      	b.n	815c6 <pio_set_output+0x16>
   815c4:	6541      	str	r1, [r0, #84]	; 0x54
   815c6:	b10a      	cbz	r2, 815cc <pio_set_output+0x1c>
   815c8:	6301      	str	r1, [r0, #48]	; 0x30
   815ca:	e000      	b.n	815ce <pio_set_output+0x1e>
   815cc:	6341      	str	r1, [r0, #52]	; 0x34
   815ce:	6101      	str	r1, [r0, #16]
   815d0:	6001      	str	r1, [r0, #0]
   815d2:	f85d 4b04 	ldr.w	r4, [sp], #4
   815d6:	4770      	bx	lr

000815d8 <pio_get_interrupt_status>:
   815d8:	6cc0      	ldr	r0, [r0, #76]	; 0x4c
   815da:	4770      	bx	lr

000815dc <pio_get_interrupt_mask>:
   815dc:	6c80      	ldr	r0, [r0, #72]	; 0x48
   815de:	4770      	bx	lr

000815e0 <pio_configure_pin>:
   815e0:	b570      	push	{r4, r5, r6, lr}
   815e2:	b082      	sub	sp, #8
   815e4:	460d      	mov	r5, r1
   815e6:	0944      	lsrs	r4, r0, #5
   815e8:	f504 1400 	add.w	r4, r4, #2097152	; 0x200000
   815ec:	f204 7407 	addw	r4, r4, #1799	; 0x707
   815f0:	0266      	lsls	r6, r4, #9
   815f2:	f001 44f0 	and.w	r4, r1, #2013265920	; 0x78000000
   815f6:	f1b4 5f20 	cmp.w	r4, #671088640	; 0x28000000
   815fa:	d030      	beq.n	8165e <pio_configure_pin+0x7e>
   815fc:	d806      	bhi.n	8160c <pio_configure_pin+0x2c>
   815fe:	f1b4 6f00 	cmp.w	r4, #134217728	; 0x8000000
   81602:	d00a      	beq.n	8161a <pio_configure_pin+0x3a>
   81604:	f1b4 5f80 	cmp.w	r4, #268435456	; 0x10000000
   81608:	d018      	beq.n	8163c <pio_configure_pin+0x5c>
   8160a:	e049      	b.n	816a0 <pio_configure_pin+0xc0>
   8160c:	f1b4 5f40 	cmp.w	r4, #805306368	; 0x30000000
   81610:	d030      	beq.n	81674 <pio_configure_pin+0x94>
   81612:	f1b4 5f60 	cmp.w	r4, #939524096	; 0x38000000
   81616:	d02d      	beq.n	81674 <pio_configure_pin+0x94>
   81618:	e042      	b.n	816a0 <pio_configure_pin+0xc0>
   8161a:	f000 001f 	and.w	r0, r0, #31
   8161e:	2401      	movs	r4, #1
   81620:	4084      	lsls	r4, r0
   81622:	4630      	mov	r0, r6
   81624:	f04f 6100 	mov.w	r1, #134217728	; 0x8000000
   81628:	4622      	mov	r2, r4
   8162a:	4b1f      	ldr	r3, [pc, #124]	; (816a8 <pio_configure_pin+0xc8>)
   8162c:	4798      	blx	r3
   8162e:	f015 0f01 	tst.w	r5, #1
   81632:	bf14      	ite	ne
   81634:	6674      	strne	r4, [r6, #100]	; 0x64
   81636:	6634      	streq	r4, [r6, #96]	; 0x60
   81638:	2001      	movs	r0, #1
   8163a:	e032      	b.n	816a2 <pio_configure_pin+0xc2>
   8163c:	f000 001f 	and.w	r0, r0, #31
   81640:	2401      	movs	r4, #1
   81642:	4084      	lsls	r4, r0
   81644:	4630      	mov	r0, r6
   81646:	f04f 5180 	mov.w	r1, #268435456	; 0x10000000
   8164a:	4622      	mov	r2, r4
   8164c:	4b16      	ldr	r3, [pc, #88]	; (816a8 <pio_configure_pin+0xc8>)
   8164e:	4798      	blx	r3
   81650:	f015 0f01 	tst.w	r5, #1
   81654:	bf14      	ite	ne
   81656:	6674      	strne	r4, [r6, #100]	; 0x64
   81658:	6634      	streq	r4, [r6, #96]	; 0x60
   8165a:	2001      	movs	r0, #1
   8165c:	e021      	b.n	816a2 <pio_configure_pin+0xc2>
   8165e:	f000 011f 	and.w	r1, r0, #31
   81662:	2401      	movs	r4, #1
   81664:	4630      	mov	r0, r6
   81666:	fa04 f101 	lsl.w	r1, r4, r1
   8166a:	462a      	mov	r2, r5
   8166c:	4b0f      	ldr	r3, [pc, #60]	; (816ac <pio_configure_pin+0xcc>)
   8166e:	4798      	blx	r3
   81670:	4620      	mov	r0, r4
   81672:	e016      	b.n	816a2 <pio_configure_pin+0xc2>
   81674:	f000 011f 	and.w	r1, r0, #31
   81678:	2401      	movs	r4, #1
   8167a:	f005 5260 	and.w	r2, r5, #939524096	; 0x38000000
   8167e:	ea05 0304 	and.w	r3, r5, r4
   81682:	9300      	str	r3, [sp, #0]
   81684:	4630      	mov	r0, r6
   81686:	fa04 f101 	lsl.w	r1, r4, r1
   8168a:	f1b2 5f60 	cmp.w	r2, #939524096	; 0x38000000
   8168e:	bf14      	ite	ne
   81690:	2200      	movne	r2, #0
   81692:	2201      	moveq	r2, #1
   81694:	f3c5 0380 	ubfx	r3, r5, #2, #1
   81698:	4d05      	ldr	r5, [pc, #20]	; (816b0 <pio_configure_pin+0xd0>)
   8169a:	47a8      	blx	r5
   8169c:	4620      	mov	r0, r4
   8169e:	e000      	b.n	816a2 <pio_configure_pin+0xc2>
   816a0:	2000      	movs	r0, #0
   816a2:	b002      	add	sp, #8
   816a4:	bd70      	pop	{r4, r5, r6, pc}
   816a6:	bf00      	nop
   816a8:	0008153d 	.word	0x0008153d
   816ac:	0008157d 	.word	0x0008157d
   816b0:	000815b1 	.word	0x000815b1

000816b4 <pio_configure_pin_group>:
   816b4:	b5f0      	push	{r4, r5, r6, r7, lr}
   816b6:	b083      	sub	sp, #12
   816b8:	4607      	mov	r7, r0
   816ba:	460e      	mov	r6, r1
   816bc:	4615      	mov	r5, r2
   816be:	f002 44f0 	and.w	r4, r2, #2013265920	; 0x78000000
   816c2:	f1b4 5f20 	cmp.w	r4, #671088640	; 0x28000000
   816c6:	d026      	beq.n	81716 <pio_configure_pin_group+0x62>
   816c8:	d806      	bhi.n	816d8 <pio_configure_pin_group+0x24>
   816ca:	f1b4 6f00 	cmp.w	r4, #134217728	; 0x8000000
   816ce:	d00a      	beq.n	816e6 <pio_configure_pin_group+0x32>
   816d0:	f1b4 5f80 	cmp.w	r4, #268435456	; 0x10000000
   816d4:	d013      	beq.n	816fe <pio_configure_pin_group+0x4a>
   816d6:	e034      	b.n	81742 <pio_configure_pin_group+0x8e>
   816d8:	f1b4 5f40 	cmp.w	r4, #805306368	; 0x30000000
   816dc:	d01f      	beq.n	8171e <pio_configure_pin_group+0x6a>
   816de:	f1b4 5f60 	cmp.w	r4, #939524096	; 0x38000000
   816e2:	d01c      	beq.n	8171e <pio_configure_pin_group+0x6a>
   816e4:	e02d      	b.n	81742 <pio_configure_pin_group+0x8e>
   816e6:	f04f 6100 	mov.w	r1, #134217728	; 0x8000000
   816ea:	4632      	mov	r2, r6
   816ec:	4b16      	ldr	r3, [pc, #88]	; (81748 <pio_configure_pin_group+0x94>)
   816ee:	4798      	blx	r3
   816f0:	f015 0f01 	tst.w	r5, #1
   816f4:	bf14      	ite	ne
   816f6:	667e      	strne	r6, [r7, #100]	; 0x64
   816f8:	663e      	streq	r6, [r7, #96]	; 0x60
   816fa:	2001      	movs	r0, #1
   816fc:	e022      	b.n	81744 <pio_configure_pin_group+0x90>
   816fe:	f04f 5180 	mov.w	r1, #268435456	; 0x10000000
   81702:	4632      	mov	r2, r6
   81704:	4b10      	ldr	r3, [pc, #64]	; (81748 <pio_configure_pin_group+0x94>)
   81706:	4798      	blx	r3
   81708:	f015 0f01 	tst.w	r5, #1
   8170c:	bf14      	ite	ne
   8170e:	667e      	strne	r6, [r7, #100]	; 0x64
   81710:	663e      	streq	r6, [r7, #96]	; 0x60
   81712:	2001      	movs	r0, #1
   81714:	e016      	b.n	81744 <pio_configure_pin_group+0x90>
   81716:	4b0d      	ldr	r3, [pc, #52]	; (8174c <pio_configure_pin_group+0x98>)
   81718:	4798      	blx	r3
   8171a:	2001      	movs	r0, #1
   8171c:	e012      	b.n	81744 <pio_configure_pin_group+0x90>
   8171e:	f005 5260 	and.w	r2, r5, #939524096	; 0x38000000
   81722:	f005 0301 	and.w	r3, r5, #1
   81726:	9300      	str	r3, [sp, #0]
   81728:	4638      	mov	r0, r7
   8172a:	4631      	mov	r1, r6
   8172c:	f1b2 5f60 	cmp.w	r2, #939524096	; 0x38000000
   81730:	bf14      	ite	ne
   81732:	2200      	movne	r2, #0
   81734:	2201      	moveq	r2, #1
   81736:	f3c5 0380 	ubfx	r3, r5, #2, #1
   8173a:	4c05      	ldr	r4, [pc, #20]	; (81750 <pio_configure_pin_group+0x9c>)
   8173c:	47a0      	blx	r4
   8173e:	2001      	movs	r0, #1
   81740:	e000      	b.n	81744 <pio_configure_pin_group+0x90>
   81742:	2000      	movs	r0, #0
   81744:	b003      	add	sp, #12
   81746:	bdf0      	pop	{r4, r5, r6, r7, pc}
   81748:	0008153d 	.word	0x0008153d
   8174c:	0008157d 	.word	0x0008157d
   81750:	000815b1 	.word	0x000815b1

00081754 <pio_handler_process>:
   81754:	e92d 41f0 	stmdb	sp!, {r4, r5, r6, r7, r8, lr}
   81758:	4604      	mov	r4, r0
   8175a:	460e      	mov	r6, r1
   8175c:	4b10      	ldr	r3, [pc, #64]	; (817a0 <pio_handler_process+0x4c>)
   8175e:	4798      	blx	r3
   81760:	4605      	mov	r5, r0
   81762:	4620      	mov	r0, r4
   81764:	4b0f      	ldr	r3, [pc, #60]	; (817a4 <pio_handler_process+0x50>)
   81766:	4798      	blx	r3
   81768:	4005      	ands	r5, r0
   8176a:	d017      	beq.n	8179c <pio_handler_process+0x48>
   8176c:	4f0e      	ldr	r7, [pc, #56]	; (817a8 <pio_handler_process+0x54>)
   8176e:	f107 040c 	add.w	r4, r7, #12
   81772:	376c      	adds	r7, #108	; 0x6c
   81774:	f854 3c0c 	ldr.w	r3, [r4, #-12]
   81778:	42b3      	cmp	r3, r6
   8177a:	d10a      	bne.n	81792 <pio_handler_process+0x3e>
   8177c:	f854 1c08 	ldr.w	r1, [r4, #-8]
   81780:	4229      	tst	r1, r5
   81782:	d006      	beq.n	81792 <pio_handler_process+0x3e>
   81784:	6823      	ldr	r3, [r4, #0]
   81786:	4630      	mov	r0, r6
   81788:	4798      	blx	r3
   8178a:	f854 3c08 	ldr.w	r3, [r4, #-8]
   8178e:	ea25 0503 	bic.w	r5, r5, r3
   81792:	42bc      	cmp	r4, r7
   81794:	d002      	beq.n	8179c <pio_handler_process+0x48>
   81796:	3410      	adds	r4, #16
   81798:	2d00      	cmp	r5, #0
   8179a:	d1eb      	bne.n	81774 <pio_handler_process+0x20>
   8179c:	e8bd 81f0 	ldmia.w	sp!, {r4, r5, r6, r7, r8, pc}
   817a0:	000815d9 	.word	0x000815d9
   817a4:	000815dd 	.word	0x000815dd
   817a8:	20070a88 	.word	0x20070a88

000817ac <PIOA_Handler>:
   817ac:	b508      	push	{r3, lr}
   817ae:	4802      	ldr	r0, [pc, #8]	; (817b8 <PIOA_Handler+0xc>)
   817b0:	210b      	movs	r1, #11
   817b2:	4b02      	ldr	r3, [pc, #8]	; (817bc <PIOA_Handler+0x10>)
   817b4:	4798      	blx	r3
   817b6:	bd08      	pop	{r3, pc}
   817b8:	400e0e00 	.word	0x400e0e00
   817bc:	00081755 	.word	0x00081755

000817c0 <PIOB_Handler>:
   817c0:	b508      	push	{r3, lr}
   817c2:	4802      	ldr	r0, [pc, #8]	; (817cc <PIOB_Handler+0xc>)
   817c4:	210c      	movs	r1, #12
   817c6:	4b02      	ldr	r3, [pc, #8]	; (817d0 <PIOB_Handler+0x10>)
   817c8:	4798      	blx	r3
   817ca:	bd08      	pop	{r3, pc}
   817cc:	400e1000 	.word	0x400e1000
   817d0:	00081755 	.word	0x00081755

000817d4 <PIOC_Handler>:
   817d4:	b508      	push	{r3, lr}
   817d6:	4802      	ldr	r0, [pc, #8]	; (817e0 <PIOC_Handler+0xc>)
   817d8:	210d      	movs	r1, #13
   817da:	4b02      	ldr	r3, [pc, #8]	; (817e4 <PIOC_Handler+0x10>)
   817dc:	4798      	blx	r3
   817de:	bd08      	pop	{r3, pc}
   817e0:	400e1200 	.word	0x400e1200
   817e4:	00081755 	.word	0x00081755

000817e8 <PIOD_Handler>:
   817e8:	b508      	push	{r3, lr}
   817ea:	4802      	ldr	r0, [pc, #8]	; (817f4 <PIOD_Handler+0xc>)
   817ec:	210e      	movs	r1, #14
   817ee:	4b02      	ldr	r3, [pc, #8]	; (817f8 <PIOD_Handler+0x10>)
   817f0:	4798      	blx	r3
   817f2:	bd08      	pop	{r3, pc}
   817f4:	400e1400 	.word	0x400e1400
   817f8:	00081755 	.word	0x00081755

000817fc <pmc_switch_mck_to_pllack>:
   817fc:	4b17      	ldr	r3, [pc, #92]	; (8185c <pmc_switch_mck_to_pllack+0x60>)
   817fe:	6b1a      	ldr	r2, [r3, #48]	; 0x30
   81800:	f022 0270 	bic.w	r2, r2, #112	; 0x70
   81804:	4310      	orrs	r0, r2
   81806:	6318      	str	r0, [r3, #48]	; 0x30
   81808:	6e9b      	ldr	r3, [r3, #104]	; 0x68
   8180a:	f013 0f08 	tst.w	r3, #8
   8180e:	d109      	bne.n	81824 <pmc_switch_mck_to_pllack+0x28>
   81810:	f44f 6300 	mov.w	r3, #2048	; 0x800
   81814:	4911      	ldr	r1, [pc, #68]	; (8185c <pmc_switch_mck_to_pllack+0x60>)
   81816:	e001      	b.n	8181c <pmc_switch_mck_to_pllack+0x20>
   81818:	3b01      	subs	r3, #1
   8181a:	d019      	beq.n	81850 <pmc_switch_mck_to_pllack+0x54>
   8181c:	6e8a      	ldr	r2, [r1, #104]	; 0x68
   8181e:	f012 0f08 	tst.w	r2, #8
   81822:	d0f9      	beq.n	81818 <pmc_switch_mck_to_pllack+0x1c>
   81824:	4b0d      	ldr	r3, [pc, #52]	; (8185c <pmc_switch_mck_to_pllack+0x60>)
   81826:	6b1a      	ldr	r2, [r3, #48]	; 0x30
   81828:	f022 0203 	bic.w	r2, r2, #3
   8182c:	f042 0202 	orr.w	r2, r2, #2
   81830:	631a      	str	r2, [r3, #48]	; 0x30
   81832:	6e98      	ldr	r0, [r3, #104]	; 0x68
   81834:	f010 0008 	ands.w	r0, r0, #8
   81838:	d10c      	bne.n	81854 <pmc_switch_mck_to_pllack+0x58>
   8183a:	f44f 6300 	mov.w	r3, #2048	; 0x800
   8183e:	4907      	ldr	r1, [pc, #28]	; (8185c <pmc_switch_mck_to_pllack+0x60>)
   81840:	e001      	b.n	81846 <pmc_switch_mck_to_pllack+0x4a>
   81842:	3b01      	subs	r3, #1
   81844:	d008      	beq.n	81858 <pmc_switch_mck_to_pllack+0x5c>
   81846:	6e8a      	ldr	r2, [r1, #104]	; 0x68
   81848:	f012 0f08 	tst.w	r2, #8
   8184c:	d0f9      	beq.n	81842 <pmc_switch_mck_to_pllack+0x46>
   8184e:	4770      	bx	lr
   81850:	2001      	movs	r0, #1
   81852:	4770      	bx	lr
   81854:	2000      	movs	r0, #0
   81856:	4770      	bx	lr
   81858:	2001      	movs	r0, #1
   8185a:	4770      	bx	lr
   8185c:	400e0600 	.word	0x400e0600

00081860 <pmc_switch_mainck_to_xtal>:
   81860:	b138      	cbz	r0, 81872 <pmc_switch_mainck_to_xtal+0x12>
   81862:	4911      	ldr	r1, [pc, #68]	; (818a8 <pmc_switch_mainck_to_xtal+0x48>)
   81864:	6a0b      	ldr	r3, [r1, #32]
   81866:	4a11      	ldr	r2, [pc, #68]	; (818ac <pmc_switch_mainck_to_xtal+0x4c>)
   81868:	401a      	ands	r2, r3
   8186a:	4b11      	ldr	r3, [pc, #68]	; (818b0 <pmc_switch_mainck_to_xtal+0x50>)
   8186c:	4313      	orrs	r3, r2
   8186e:	620b      	str	r3, [r1, #32]
   81870:	4770      	bx	lr
   81872:	4a0d      	ldr	r2, [pc, #52]	; (818a8 <pmc_switch_mainck_to_xtal+0x48>)
   81874:	6a13      	ldr	r3, [r2, #32]
   81876:	f423 135c 	bic.w	r3, r3, #3604480	; 0x370000
   8187a:	f023 0303 	bic.w	r3, r3, #3
   8187e:	f443 135c 	orr.w	r3, r3, #3604480	; 0x370000
   81882:	f043 0301 	orr.w	r3, r3, #1
   81886:	0209      	lsls	r1, r1, #8
   81888:	b289      	uxth	r1, r1
   8188a:	430b      	orrs	r3, r1
   8188c:	6213      	str	r3, [r2, #32]
   8188e:	6e93      	ldr	r3, [r2, #104]	; 0x68
   81890:	f013 0f01 	tst.w	r3, #1
   81894:	d0fb      	beq.n	8188e <pmc_switch_mainck_to_xtal+0x2e>
   81896:	4a04      	ldr	r2, [pc, #16]	; (818a8 <pmc_switch_mainck_to_xtal+0x48>)
   81898:	6a13      	ldr	r3, [r2, #32]
   8189a:	f043 739b 	orr.w	r3, r3, #20316160	; 0x1360000
   8189e:	f443 3380 	orr.w	r3, r3, #65536	; 0x10000
   818a2:	6213      	str	r3, [r2, #32]
   818a4:	4770      	bx	lr
   818a6:	bf00      	nop
   818a8:	400e0600 	.word	0x400e0600
   818ac:	fec8fffc 	.word	0xfec8fffc
   818b0:	01370002 	.word	0x01370002

000818b4 <pmc_osc_is_ready_mainck>:
   818b4:	4b02      	ldr	r3, [pc, #8]	; (818c0 <pmc_osc_is_ready_mainck+0xc>)
   818b6:	6e98      	ldr	r0, [r3, #104]	; 0x68
   818b8:	f400 3080 	and.w	r0, r0, #65536	; 0x10000
   818bc:	4770      	bx	lr
   818be:	bf00      	nop
   818c0:	400e0600 	.word	0x400e0600

000818c4 <pmc_disable_pllack>:
   818c4:	f04f 5200 	mov.w	r2, #536870912	; 0x20000000
   818c8:	4b01      	ldr	r3, [pc, #4]	; (818d0 <pmc_disable_pllack+0xc>)
   818ca:	629a      	str	r2, [r3, #40]	; 0x28
   818cc:	4770      	bx	lr
   818ce:	bf00      	nop
   818d0:	400e0600 	.word	0x400e0600

000818d4 <pmc_is_locked_pllack>:
   818d4:	4b02      	ldr	r3, [pc, #8]	; (818e0 <pmc_is_locked_pllack+0xc>)
   818d6:	6e98      	ldr	r0, [r3, #104]	; 0x68
   818d8:	f000 0002 	and.w	r0, r0, #2
   818dc:	4770      	bx	lr
   818de:	bf00      	nop
   818e0:	400e0600 	.word	0x400e0600

000818e4 <pmc_enable_periph_clk>:
   818e4:	282c      	cmp	r0, #44	; 0x2c
   818e6:	d820      	bhi.n	8192a <pmc_enable_periph_clk+0x46>
   818e8:	281f      	cmp	r0, #31
   818ea:	d80d      	bhi.n	81908 <pmc_enable_periph_clk+0x24>
   818ec:	4b12      	ldr	r3, [pc, #72]	; (81938 <pmc_enable_periph_clk+0x54>)
   818ee:	699a      	ldr	r2, [r3, #24]
   818f0:	2301      	movs	r3, #1
   818f2:	4083      	lsls	r3, r0
   818f4:	401a      	ands	r2, r3
   818f6:	4293      	cmp	r3, r2
   818f8:	d019      	beq.n	8192e <pmc_enable_periph_clk+0x4a>
   818fa:	2301      	movs	r3, #1
   818fc:	fa03 f000 	lsl.w	r0, r3, r0
   81900:	4b0d      	ldr	r3, [pc, #52]	; (81938 <pmc_enable_periph_clk+0x54>)
   81902:	6118      	str	r0, [r3, #16]
   81904:	2000      	movs	r0, #0
   81906:	4770      	bx	lr
   81908:	4b0b      	ldr	r3, [pc, #44]	; (81938 <pmc_enable_periph_clk+0x54>)
   8190a:	f8d3 2108 	ldr.w	r2, [r3, #264]	; 0x108
   8190e:	3820      	subs	r0, #32
   81910:	2301      	movs	r3, #1
   81912:	4083      	lsls	r3, r0
   81914:	401a      	ands	r2, r3
   81916:	4293      	cmp	r3, r2
   81918:	d00b      	beq.n	81932 <pmc_enable_periph_clk+0x4e>
   8191a:	2301      	movs	r3, #1
   8191c:	fa03 f000 	lsl.w	r0, r3, r0
   81920:	4b05      	ldr	r3, [pc, #20]	; (81938 <pmc_enable_periph_clk+0x54>)
   81922:	f8c3 0100 	str.w	r0, [r3, #256]	; 0x100
   81926:	2000      	movs	r0, #0
   81928:	4770      	bx	lr
   8192a:	2001      	movs	r0, #1
   8192c:	4770      	bx	lr
   8192e:	2000      	movs	r0, #0
   81930:	4770      	bx	lr
   81932:	2000      	movs	r0, #0
   81934:	4770      	bx	lr
   81936:	bf00      	nop
   81938:	400e0600 	.word	0x400e0600

0008193c <Dummy_Handler>:
   8193c:	e7fe      	b.n	8193c <Dummy_Handler>
   8193e:	bf00      	nop

00081940 <Reset_Handler>:
   81940:	b510      	push	{r4, lr}
   81942:	4b1e      	ldr	r3, [pc, #120]	; (819bc <Reset_Handler+0x7c>)
   81944:	4a1e      	ldr	r2, [pc, #120]	; (819c0 <Reset_Handler+0x80>)
   81946:	429a      	cmp	r2, r3
   81948:	d003      	beq.n	81952 <Reset_Handler+0x12>
   8194a:	4b1e      	ldr	r3, [pc, #120]	; (819c4 <Reset_Handler+0x84>)
   8194c:	4a1b      	ldr	r2, [pc, #108]	; (819bc <Reset_Handler+0x7c>)
   8194e:	429a      	cmp	r2, r3
   81950:	d304      	bcc.n	8195c <Reset_Handler+0x1c>
   81952:	4b1d      	ldr	r3, [pc, #116]	; (819c8 <Reset_Handler+0x88>)
   81954:	4a1d      	ldr	r2, [pc, #116]	; (819cc <Reset_Handler+0x8c>)
   81956:	429a      	cmp	r2, r3
   81958:	d30f      	bcc.n	8197a <Reset_Handler+0x3a>
   8195a:	e01a      	b.n	81992 <Reset_Handler+0x52>
   8195c:	4b1c      	ldr	r3, [pc, #112]	; (819d0 <Reset_Handler+0x90>)
   8195e:	4c1d      	ldr	r4, [pc, #116]	; (819d4 <Reset_Handler+0x94>)
   81960:	1ae4      	subs	r4, r4, r3
   81962:	f024 0403 	bic.w	r4, r4, #3
   81966:	3404      	adds	r4, #4
   81968:	2300      	movs	r3, #0
   8196a:	4814      	ldr	r0, [pc, #80]	; (819bc <Reset_Handler+0x7c>)
   8196c:	4914      	ldr	r1, [pc, #80]	; (819c0 <Reset_Handler+0x80>)
   8196e:	585a      	ldr	r2, [r3, r1]
   81970:	501a      	str	r2, [r3, r0]
   81972:	3304      	adds	r3, #4
   81974:	42a3      	cmp	r3, r4
   81976:	d1fa      	bne.n	8196e <Reset_Handler+0x2e>
   81978:	e7eb      	b.n	81952 <Reset_Handler+0x12>
   8197a:	4b17      	ldr	r3, [pc, #92]	; (819d8 <Reset_Handler+0x98>)
   8197c:	4917      	ldr	r1, [pc, #92]	; (819dc <Reset_Handler+0x9c>)
   8197e:	1ac9      	subs	r1, r1, r3
   81980:	f021 0103 	bic.w	r1, r1, #3
   81984:	1d1a      	adds	r2, r3, #4
   81986:	4411      	add	r1, r2
   81988:	2200      	movs	r2, #0
   8198a:	f843 2f04 	str.w	r2, [r3, #4]!
   8198e:	428b      	cmp	r3, r1
   81990:	d1fb      	bne.n	8198a <Reset_Handler+0x4a>
   81992:	4a13      	ldr	r2, [pc, #76]	; (819e0 <Reset_Handler+0xa0>)
   81994:	f022 4360 	bic.w	r3, r2, #3758096384	; 0xe0000000
   81998:	f023 037f 	bic.w	r3, r3, #127	; 0x7f
   8199c:	4911      	ldr	r1, [pc, #68]	; (819e4 <Reset_Handler+0xa4>)
   8199e:	608b      	str	r3, [r1, #8]
   819a0:	f102 4260 	add.w	r2, r2, #3758096384	; 0xe0000000
   819a4:	f5b2 1f80 	cmp.w	r2, #1048576	; 0x100000
   819a8:	d203      	bcs.n	819b2 <Reset_Handler+0x72>
   819aa:	688a      	ldr	r2, [r1, #8]
   819ac:	f042 5200 	orr.w	r2, r2, #536870912	; 0x20000000
   819b0:	608a      	str	r2, [r1, #8]
   819b2:	4b0d      	ldr	r3, [pc, #52]	; (819e8 <Reset_Handler+0xa8>)
   819b4:	4798      	blx	r3
   819b6:	4b0d      	ldr	r3, [pc, #52]	; (819ec <Reset_Handler+0xac>)
   819b8:	4798      	blx	r3
   819ba:	e7fe      	b.n	819ba <Reset_Handler+0x7a>
   819bc:	20070000 	.word	0x20070000
   819c0:	00086130 	.word	0x00086130
   819c4:	200709ac 	.word	0x200709ac
   819c8:	20070bbc 	.word	0x20070bbc
   819cc:	200709ac 	.word	0x200709ac
   819d0:	20070004 	.word	0x20070004
   819d4:	200709af 	.word	0x200709af
   819d8:	200709a8 	.word	0x200709a8
   819dc:	20070bb7 	.word	0x20070bb7
   819e0:	00080000 	.word	0x00080000
   819e4:	e000ed00 	.word	0xe000ed00
   819e8:	00082fa9 	.word	0x00082fa9
   819ec:	00081cad 	.word	0x00081cad

000819f0 <SystemCoreClockUpdate>:
   819f0:	4b3e      	ldr	r3, [pc, #248]	; (81aec <SystemCoreClockUpdate+0xfc>)
   819f2:	6b1b      	ldr	r3, [r3, #48]	; 0x30
   819f4:	f003 0303 	and.w	r3, r3, #3
   819f8:	2b03      	cmp	r3, #3
   819fa:	d85f      	bhi.n	81abc <SystemCoreClockUpdate+0xcc>
   819fc:	e8df f003 	tbb	[pc, r3]
   81a00:	2b2b0e02 	.word	0x2b2b0e02
   81a04:	4b3a      	ldr	r3, [pc, #232]	; (81af0 <SystemCoreClockUpdate+0x100>)
   81a06:	695b      	ldr	r3, [r3, #20]
   81a08:	f013 0f80 	tst.w	r3, #128	; 0x80
   81a0c:	bf14      	ite	ne
   81a0e:	f44f 4200 	movne.w	r2, #32768	; 0x8000
   81a12:	f44f 42fa 	moveq.w	r2, #32000	; 0x7d00
   81a16:	4b37      	ldr	r3, [pc, #220]	; (81af4 <SystemCoreClockUpdate+0x104>)
   81a18:	601a      	str	r2, [r3, #0]
   81a1a:	e04f      	b.n	81abc <SystemCoreClockUpdate+0xcc>
   81a1c:	4b33      	ldr	r3, [pc, #204]	; (81aec <SystemCoreClockUpdate+0xfc>)
   81a1e:	6a1b      	ldr	r3, [r3, #32]
   81a20:	f013 7f80 	tst.w	r3, #16777216	; 0x1000000
   81a24:	d003      	beq.n	81a2e <SystemCoreClockUpdate+0x3e>
   81a26:	4a34      	ldr	r2, [pc, #208]	; (81af8 <SystemCoreClockUpdate+0x108>)
   81a28:	4b32      	ldr	r3, [pc, #200]	; (81af4 <SystemCoreClockUpdate+0x104>)
   81a2a:	601a      	str	r2, [r3, #0]
   81a2c:	e046      	b.n	81abc <SystemCoreClockUpdate+0xcc>
   81a2e:	4a33      	ldr	r2, [pc, #204]	; (81afc <SystemCoreClockUpdate+0x10c>)
   81a30:	4b30      	ldr	r3, [pc, #192]	; (81af4 <SystemCoreClockUpdate+0x104>)
   81a32:	601a      	str	r2, [r3, #0]
   81a34:	4b2d      	ldr	r3, [pc, #180]	; (81aec <SystemCoreClockUpdate+0xfc>)
   81a36:	6a1b      	ldr	r3, [r3, #32]
   81a38:	f003 0370 	and.w	r3, r3, #112	; 0x70
   81a3c:	2b10      	cmp	r3, #16
   81a3e:	d002      	beq.n	81a46 <SystemCoreClockUpdate+0x56>
   81a40:	2b20      	cmp	r3, #32
   81a42:	d004      	beq.n	81a4e <SystemCoreClockUpdate+0x5e>
   81a44:	e03a      	b.n	81abc <SystemCoreClockUpdate+0xcc>
   81a46:	4a2e      	ldr	r2, [pc, #184]	; (81b00 <SystemCoreClockUpdate+0x110>)
   81a48:	4b2a      	ldr	r3, [pc, #168]	; (81af4 <SystemCoreClockUpdate+0x104>)
   81a4a:	601a      	str	r2, [r3, #0]
   81a4c:	e036      	b.n	81abc <SystemCoreClockUpdate+0xcc>
   81a4e:	4a2a      	ldr	r2, [pc, #168]	; (81af8 <SystemCoreClockUpdate+0x108>)
   81a50:	4b28      	ldr	r3, [pc, #160]	; (81af4 <SystemCoreClockUpdate+0x104>)
   81a52:	601a      	str	r2, [r3, #0]
   81a54:	e032      	b.n	81abc <SystemCoreClockUpdate+0xcc>
   81a56:	4b25      	ldr	r3, [pc, #148]	; (81aec <SystemCoreClockUpdate+0xfc>)
   81a58:	6a1b      	ldr	r3, [r3, #32]
   81a5a:	f013 7f80 	tst.w	r3, #16777216	; 0x1000000
   81a5e:	d003      	beq.n	81a68 <SystemCoreClockUpdate+0x78>
   81a60:	4a25      	ldr	r2, [pc, #148]	; (81af8 <SystemCoreClockUpdate+0x108>)
   81a62:	4b24      	ldr	r3, [pc, #144]	; (81af4 <SystemCoreClockUpdate+0x104>)
   81a64:	601a      	str	r2, [r3, #0]
   81a66:	e012      	b.n	81a8e <SystemCoreClockUpdate+0x9e>
   81a68:	4a24      	ldr	r2, [pc, #144]	; (81afc <SystemCoreClockUpdate+0x10c>)
   81a6a:	4b22      	ldr	r3, [pc, #136]	; (81af4 <SystemCoreClockUpdate+0x104>)
   81a6c:	601a      	str	r2, [r3, #0]
   81a6e:	4b1f      	ldr	r3, [pc, #124]	; (81aec <SystemCoreClockUpdate+0xfc>)
   81a70:	6a1b      	ldr	r3, [r3, #32]
   81a72:	f003 0370 	and.w	r3, r3, #112	; 0x70
   81a76:	2b10      	cmp	r3, #16
   81a78:	d002      	beq.n	81a80 <SystemCoreClockUpdate+0x90>
   81a7a:	2b20      	cmp	r3, #32
   81a7c:	d004      	beq.n	81a88 <SystemCoreClockUpdate+0x98>
   81a7e:	e006      	b.n	81a8e <SystemCoreClockUpdate+0x9e>
   81a80:	4a1f      	ldr	r2, [pc, #124]	; (81b00 <SystemCoreClockUpdate+0x110>)
   81a82:	4b1c      	ldr	r3, [pc, #112]	; (81af4 <SystemCoreClockUpdate+0x104>)
   81a84:	601a      	str	r2, [r3, #0]
   81a86:	e002      	b.n	81a8e <SystemCoreClockUpdate+0x9e>
   81a88:	4a1b      	ldr	r2, [pc, #108]	; (81af8 <SystemCoreClockUpdate+0x108>)
   81a8a:	4b1a      	ldr	r3, [pc, #104]	; (81af4 <SystemCoreClockUpdate+0x104>)
   81a8c:	601a      	str	r2, [r3, #0]
   81a8e:	4b17      	ldr	r3, [pc, #92]	; (81aec <SystemCoreClockUpdate+0xfc>)
   81a90:	6b1b      	ldr	r3, [r3, #48]	; 0x30
   81a92:	f003 0303 	and.w	r3, r3, #3
   81a96:	2b02      	cmp	r3, #2
   81a98:	d10d      	bne.n	81ab6 <SystemCoreClockUpdate+0xc6>
   81a9a:	4b14      	ldr	r3, [pc, #80]	; (81aec <SystemCoreClockUpdate+0xfc>)
   81a9c:	6a98      	ldr	r0, [r3, #40]	; 0x28
   81a9e:	6a99      	ldr	r1, [r3, #40]	; 0x28
   81aa0:	4b14      	ldr	r3, [pc, #80]	; (81af4 <SystemCoreClockUpdate+0x104>)
   81aa2:	f3c0 400a 	ubfx	r0, r0, #16, #11
   81aa6:	681a      	ldr	r2, [r3, #0]
   81aa8:	fb00 2202 	mla	r2, r0, r2, r2
   81aac:	b2c9      	uxtb	r1, r1
   81aae:	fbb2 f2f1 	udiv	r2, r2, r1
   81ab2:	601a      	str	r2, [r3, #0]
   81ab4:	e002      	b.n	81abc <SystemCoreClockUpdate+0xcc>
   81ab6:	4a13      	ldr	r2, [pc, #76]	; (81b04 <SystemCoreClockUpdate+0x114>)
   81ab8:	4b0e      	ldr	r3, [pc, #56]	; (81af4 <SystemCoreClockUpdate+0x104>)
   81aba:	601a      	str	r2, [r3, #0]
   81abc:	4b0b      	ldr	r3, [pc, #44]	; (81aec <SystemCoreClockUpdate+0xfc>)
   81abe:	6b1b      	ldr	r3, [r3, #48]	; 0x30
   81ac0:	f003 0370 	and.w	r3, r3, #112	; 0x70
   81ac4:	2b70      	cmp	r3, #112	; 0x70
   81ac6:	d107      	bne.n	81ad8 <SystemCoreClockUpdate+0xe8>
   81ac8:	4b0a      	ldr	r3, [pc, #40]	; (81af4 <SystemCoreClockUpdate+0x104>)
   81aca:	681a      	ldr	r2, [r3, #0]
   81acc:	490e      	ldr	r1, [pc, #56]	; (81b08 <SystemCoreClockUpdate+0x118>)
   81ace:	fba1 0202 	umull	r0, r2, r1, r2
   81ad2:	0852      	lsrs	r2, r2, #1
   81ad4:	601a      	str	r2, [r3, #0]
   81ad6:	4770      	bx	lr
   81ad8:	4b04      	ldr	r3, [pc, #16]	; (81aec <SystemCoreClockUpdate+0xfc>)
   81ada:	6b19      	ldr	r1, [r3, #48]	; 0x30
   81adc:	4b05      	ldr	r3, [pc, #20]	; (81af4 <SystemCoreClockUpdate+0x104>)
   81ade:	f3c1 1102 	ubfx	r1, r1, #4, #3
   81ae2:	681a      	ldr	r2, [r3, #0]
   81ae4:	40ca      	lsrs	r2, r1
   81ae6:	601a      	str	r2, [r3, #0]
   81ae8:	4770      	bx	lr
   81aea:	bf00      	nop
   81aec:	400e0600 	.word	0x400e0600
   81af0:	400e1a10 	.word	0x400e1a10
   81af4:	20070138 	.word	0x20070138
   81af8:	00b71b00 	.word	0x00b71b00
   81afc:	003d0900 	.word	0x003d0900
   81b00:	007a1200 	.word	0x007a1200
   81b04:	0e4e1c00 	.word	0x0e4e1c00
   81b08:	aaaaaaab 	.word	0xaaaaaaab

00081b0c <_sbrk>:
   81b0c:	4b09      	ldr	r3, [pc, #36]	; (81b34 <_sbrk+0x28>)
   81b0e:	681b      	ldr	r3, [r3, #0]
   81b10:	b913      	cbnz	r3, 81b18 <_sbrk+0xc>
   81b12:	4a09      	ldr	r2, [pc, #36]	; (81b38 <_sbrk+0x2c>)
   81b14:	4b07      	ldr	r3, [pc, #28]	; (81b34 <_sbrk+0x28>)
   81b16:	601a      	str	r2, [r3, #0]
   81b18:	4b06      	ldr	r3, [pc, #24]	; (81b34 <_sbrk+0x28>)
   81b1a:	681b      	ldr	r3, [r3, #0]
   81b1c:	181a      	adds	r2, r3, r0
   81b1e:	4907      	ldr	r1, [pc, #28]	; (81b3c <_sbrk+0x30>)
   81b20:	4291      	cmp	r1, r2
   81b22:	db04      	blt.n	81b2e <_sbrk+0x22>
   81b24:	4610      	mov	r0, r2
   81b26:	4a03      	ldr	r2, [pc, #12]	; (81b34 <_sbrk+0x28>)
   81b28:	6010      	str	r0, [r2, #0]
   81b2a:	4618      	mov	r0, r3
   81b2c:	4770      	bx	lr
   81b2e:	f04f 30ff 	mov.w	r0, #4294967295
   81b32:	4770      	bx	lr
   81b34:	20070af8 	.word	0x20070af8
   81b38:	20072bc0 	.word	0x20072bc0
   81b3c:	20087ffc 	.word	0x20087ffc

00081b40 <_close>:
   81b40:	f04f 30ff 	mov.w	r0, #4294967295
   81b44:	4770      	bx	lr
   81b46:	bf00      	nop

00081b48 <_fstat>:
   81b48:	f44f 5300 	mov.w	r3, #8192	; 0x2000
   81b4c:	604b      	str	r3, [r1, #4]
   81b4e:	2000      	movs	r0, #0
   81b50:	4770      	bx	lr
   81b52:	bf00      	nop

00081b54 <_isatty>:
   81b54:	2001      	movs	r0, #1
   81b56:	4770      	bx	lr

00081b58 <_lseek>:
   81b58:	2000      	movs	r0, #0
   81b5a:	4770      	bx	lr

00081b5c <usart_serial_getchar>:
 * \param p_usart   Base address of the USART instance.
 * \param data   Data to read
 *
 */
static inline void usart_serial_getchar(usart_if p_usart, uint8_t *data)
{
   81b5c:	b5f0      	push	{r4, r5, r6, r7, lr}
   81b5e:	b083      	sub	sp, #12
   81b60:	4604      	mov	r4, r0
   81b62:	460d      	mov	r5, r1
	uint32_t val = 0;
   81b64:	2300      	movs	r3, #0
   81b66:	9301      	str	r3, [sp, #4]

	/* Avoid Cppcheck Warning */
	UNUSED(val);

#ifdef UART
	if (UART == (Uart*)p_usart) {
   81b68:	4b1f      	ldr	r3, [pc, #124]	; (81be8 <usart_serial_getchar+0x8c>)
   81b6a:	4298      	cmp	r0, r3
   81b6c:	d107      	bne.n	81b7e <usart_serial_getchar+0x22>
		while (uart_read((Uart*)p_usart, data));
   81b6e:	461f      	mov	r7, r3
   81b70:	4e1e      	ldr	r6, [pc, #120]	; (81bec <usart_serial_getchar+0x90>)
   81b72:	4638      	mov	r0, r7
   81b74:	4629      	mov	r1, r5
   81b76:	47b0      	blx	r6
   81b78:	2800      	cmp	r0, #0
   81b7a:	d1fa      	bne.n	81b72 <usart_serial_getchar+0x16>
   81b7c:	e019      	b.n	81bb2 <usart_serial_getchar+0x56>
		while (usart_read(p_usart, &val));
		*data = (uint8_t)(val & 0xFF);
	}
#else
# ifdef USART0
	if (USART0 == p_usart) {
   81b7e:	4b1c      	ldr	r3, [pc, #112]	; (81bf0 <usart_serial_getchar+0x94>)
   81b80:	4298      	cmp	r0, r3
   81b82:	d109      	bne.n	81b98 <usart_serial_getchar+0x3c>
		while (usart_read(p_usart, &val));
   81b84:	461f      	mov	r7, r3
   81b86:	4e1b      	ldr	r6, [pc, #108]	; (81bf4 <usart_serial_getchar+0x98>)
   81b88:	4638      	mov	r0, r7
   81b8a:	a901      	add	r1, sp, #4
   81b8c:	47b0      	blx	r6
   81b8e:	2800      	cmp	r0, #0
   81b90:	d1fa      	bne.n	81b88 <usart_serial_getchar+0x2c>
		*data = (uint8_t)(val & 0xFF);
   81b92:	9b01      	ldr	r3, [sp, #4]
   81b94:	702b      	strb	r3, [r5, #0]
   81b96:	e019      	b.n	81bcc <usart_serial_getchar+0x70>
	}
# endif
# ifdef USART1
	if (USART1 == p_usart) {
   81b98:	4b17      	ldr	r3, [pc, #92]	; (81bf8 <usart_serial_getchar+0x9c>)
   81b9a:	4298      	cmp	r0, r3
   81b9c:	d109      	bne.n	81bb2 <usart_serial_getchar+0x56>
		while (usart_read(p_usart, &val));
   81b9e:	461e      	mov	r6, r3
   81ba0:	4c14      	ldr	r4, [pc, #80]	; (81bf4 <usart_serial_getchar+0x98>)
   81ba2:	4630      	mov	r0, r6
   81ba4:	a901      	add	r1, sp, #4
   81ba6:	47a0      	blx	r4
   81ba8:	2800      	cmp	r0, #0
   81baa:	d1fa      	bne.n	81ba2 <usart_serial_getchar+0x46>
		*data = (uint8_t)(val & 0xFF);
   81bac:	9b01      	ldr	r3, [sp, #4]
   81bae:	702b      	strb	r3, [r5, #0]
   81bb0:	e018      	b.n	81be4 <usart_serial_getchar+0x88>
	}
# endif
# ifdef USART2
	if (USART2 == p_usart) {
   81bb2:	4b12      	ldr	r3, [pc, #72]	; (81bfc <usart_serial_getchar+0xa0>)
   81bb4:	429c      	cmp	r4, r3
   81bb6:	d109      	bne.n	81bcc <usart_serial_getchar+0x70>
		while (usart_read(p_usart, &val));
   81bb8:	461e      	mov	r6, r3
   81bba:	4c0e      	ldr	r4, [pc, #56]	; (81bf4 <usart_serial_getchar+0x98>)
   81bbc:	4630      	mov	r0, r6
   81bbe:	a901      	add	r1, sp, #4
   81bc0:	47a0      	blx	r4
   81bc2:	2800      	cmp	r0, #0
   81bc4:	d1fa      	bne.n	81bbc <usart_serial_getchar+0x60>
		*data = (uint8_t)(val & 0xFF);
   81bc6:	9b01      	ldr	r3, [sp, #4]
   81bc8:	702b      	strb	r3, [r5, #0]
   81bca:	e00b      	b.n	81be4 <usart_serial_getchar+0x88>
	}
# endif
# ifdef USART3
	if (USART3 == p_usart) {
   81bcc:	4b0c      	ldr	r3, [pc, #48]	; (81c00 <usart_serial_getchar+0xa4>)
   81bce:	429c      	cmp	r4, r3
   81bd0:	d108      	bne.n	81be4 <usart_serial_getchar+0x88>
		while (usart_read(p_usart, &val));
   81bd2:	461e      	mov	r6, r3
   81bd4:	4c07      	ldr	r4, [pc, #28]	; (81bf4 <usart_serial_getchar+0x98>)
   81bd6:	4630      	mov	r0, r6
   81bd8:	a901      	add	r1, sp, #4
   81bda:	47a0      	blx	r4
   81bdc:	2800      	cmp	r0, #0
   81bde:	d1fa      	bne.n	81bd6 <usart_serial_getchar+0x7a>
		*data = (uint8_t)(val & 0xFF);
   81be0:	9b01      	ldr	r3, [sp, #4]
   81be2:	702b      	strb	r3, [r5, #0]
		*data = (uint8_t)(val & 0xFF);
	}
# endif
#endif /* ifdef USART */

}
   81be4:	b003      	add	sp, #12
   81be6:	bdf0      	pop	{r4, r5, r6, r7, pc}
   81be8:	400e0800 	.word	0x400e0800
   81bec:	00080ca9 	.word	0x00080ca9
   81bf0:	40098000 	.word	0x40098000
   81bf4:	00080cd1 	.word	0x00080cd1
   81bf8:	4009c000 	.word	0x4009c000
   81bfc:	400a0000 	.word	0x400a0000
   81c00:	400a4000 	.word	0x400a4000

00081c04 <usart_serial_putchar>:
 *   \retval 1  The character was written.
 *   \retval 0  The function timed out before the USART transmitter became
 * ready to send.
 */
static inline int usart_serial_putchar(usart_if p_usart, const uint8_t c)
{
   81c04:	b570      	push	{r4, r5, r6, lr}
   81c06:	460c      	mov	r4, r1
#ifdef UART
	if (UART == (Uart*)p_usart) {
   81c08:	4b21      	ldr	r3, [pc, #132]	; (81c90 <usart_serial_putchar+0x8c>)
   81c0a:	4298      	cmp	r0, r3
   81c0c:	d107      	bne.n	81c1e <usart_serial_putchar+0x1a>
		while (uart_write((Uart*)p_usart, c)!=0);
   81c0e:	461e      	mov	r6, r3
   81c10:	4d20      	ldr	r5, [pc, #128]	; (81c94 <usart_serial_putchar+0x90>)
   81c12:	4630      	mov	r0, r6
   81c14:	4621      	mov	r1, r4
   81c16:	47a8      	blx	r5
   81c18:	2800      	cmp	r0, #0
   81c1a:	d1fa      	bne.n	81c12 <usart_serial_putchar+0xe>
   81c1c:	e02b      	b.n	81c76 <usart_serial_putchar+0x72>
		while (usart_write(p_usart, c)!=0);
		return 1;
	}
#else
# ifdef USART0
	if (USART0 == p_usart) {
   81c1e:	4b1e      	ldr	r3, [pc, #120]	; (81c98 <usart_serial_putchar+0x94>)
   81c20:	4298      	cmp	r0, r3
   81c22:	d107      	bne.n	81c34 <usart_serial_putchar+0x30>
		while (usart_write(p_usart, c)!=0);
   81c24:	461e      	mov	r6, r3
   81c26:	4d1d      	ldr	r5, [pc, #116]	; (81c9c <usart_serial_putchar+0x98>)
   81c28:	4630      	mov	r0, r6
   81c2a:	4621      	mov	r1, r4
   81c2c:	47a8      	blx	r5
   81c2e:	2800      	cmp	r0, #0
   81c30:	d1fa      	bne.n	81c28 <usart_serial_putchar+0x24>
   81c32:	e022      	b.n	81c7a <usart_serial_putchar+0x76>
		return 1;
	}
# endif
# ifdef USART1
	if (USART1 == p_usart) {
   81c34:	4b1a      	ldr	r3, [pc, #104]	; (81ca0 <usart_serial_putchar+0x9c>)
   81c36:	4298      	cmp	r0, r3
   81c38:	d107      	bne.n	81c4a <usart_serial_putchar+0x46>
		while (usart_write(p_usart, c)!=0);
   81c3a:	461e      	mov	r6, r3
   81c3c:	4d17      	ldr	r5, [pc, #92]	; (81c9c <usart_serial_putchar+0x98>)
   81c3e:	4630      	mov	r0, r6
   81c40:	4621      	mov	r1, r4
   81c42:	47a8      	blx	r5
   81c44:	2800      	cmp	r0, #0
   81c46:	d1fa      	bne.n	81c3e <usart_serial_putchar+0x3a>
   81c48:	e019      	b.n	81c7e <usart_serial_putchar+0x7a>
		return 1;
	}
# endif
# ifdef USART2
	if (USART2 == p_usart) {
   81c4a:	4b16      	ldr	r3, [pc, #88]	; (81ca4 <usart_serial_putchar+0xa0>)
   81c4c:	4298      	cmp	r0, r3
   81c4e:	d107      	bne.n	81c60 <usart_serial_putchar+0x5c>
		while (usart_write(p_usart, c)!=0);
   81c50:	461e      	mov	r6, r3
   81c52:	4d12      	ldr	r5, [pc, #72]	; (81c9c <usart_serial_putchar+0x98>)
   81c54:	4630      	mov	r0, r6
   81c56:	4621      	mov	r1, r4
   81c58:	47a8      	blx	r5
   81c5a:	2800      	cmp	r0, #0
   81c5c:	d1fa      	bne.n	81c54 <usart_serial_putchar+0x50>
   81c5e:	e010      	b.n	81c82 <usart_serial_putchar+0x7e>
		return 1;
	}
# endif
# ifdef USART3
	if (USART3 == p_usart) {
   81c60:	4b11      	ldr	r3, [pc, #68]	; (81ca8 <usart_serial_putchar+0xa4>)
   81c62:	4298      	cmp	r0, r3
   81c64:	d10f      	bne.n	81c86 <usart_serial_putchar+0x82>
		while (usart_write(p_usart, c)!=0);
   81c66:	461e      	mov	r6, r3
   81c68:	4d0c      	ldr	r5, [pc, #48]	; (81c9c <usart_serial_putchar+0x98>)
   81c6a:	4630      	mov	r0, r6
   81c6c:	4621      	mov	r1, r4
   81c6e:	47a8      	blx	r5
   81c70:	2800      	cmp	r0, #0
   81c72:	d1fa      	bne.n	81c6a <usart_serial_putchar+0x66>
   81c74:	e009      	b.n	81c8a <usart_serial_putchar+0x86>
static inline int usart_serial_putchar(usart_if p_usart, const uint8_t c)
{
#ifdef UART
	if (UART == (Uart*)p_usart) {
		while (uart_write((Uart*)p_usart, c)!=0);
		return 1;
   81c76:	2001      	movs	r0, #1
   81c78:	bd70      	pop	{r4, r5, r6, pc}
	}
#else
# ifdef USART0
	if (USART0 == p_usart) {
		while (usart_write(p_usart, c)!=0);
		return 1;
   81c7a:	2001      	movs	r0, #1
   81c7c:	bd70      	pop	{r4, r5, r6, pc}
	}
# endif
# ifdef USART1
	if (USART1 == p_usart) {
		while (usart_write(p_usart, c)!=0);
		return 1;
   81c7e:	2001      	movs	r0, #1
   81c80:	bd70      	pop	{r4, r5, r6, pc}
	}
# endif
# ifdef USART2
	if (USART2 == p_usart) {
		while (usart_write(p_usart, c)!=0);
		return 1;
   81c82:	2001      	movs	r0, #1
   81c84:	bd70      	pop	{r4, r5, r6, pc}
		return 1;
	}
# endif
#endif /* ifdef USART */

	return 0;
   81c86:	2000      	movs	r0, #0
   81c88:	bd70      	pop	{r4, r5, r6, pc}
	}
# endif
# ifdef USART3
	if (USART3 == p_usart) {
		while (usart_write(p_usart, c)!=0);
		return 1;
   81c8a:	2001      	movs	r0, #1
	}
# endif
#endif /* ifdef USART */

	return 0;
}
   81c8c:	bd70      	pop	{r4, r5, r6, pc}
   81c8e:	bf00      	nop
   81c90:	400e0800 	.word	0x400e0800
   81c94:	00080c99 	.word	0x00080c99
   81c98:	40098000 	.word	0x40098000
   81c9c:	00080cbd 	.word	0x00080cbd
   81ca0:	4009c000 	.word	0x4009c000
   81ca4:	400a0000 	.word	0x400a0000
   81ca8:	400a4000 	.word	0x400a4000

00081cac <main>:
// 			*p_variable = *p_variable + (*p_string - '0');
// }


int main (void)
{
   81cac:	e92d 4ff0 	stmdb	sp!, {r4, r5, r6, r7, r8, r9, sl, fp, lr}
   81cb0:	b085      	sub	sp, #20
	sysclk_init();
   81cb2:	4b4b      	ldr	r3, [pc, #300]	; (81de0 <main+0x134>)
   81cb4:	4798      	blx	r3
	board_init();
   81cb6:	4b4b      	ldr	r3, [pc, #300]	; (81de4 <main+0x138>)
   81cb8:	4798      	blx	r3
 *
 * \param ul_id Id (number) of the peripheral clock.
 */
static inline void sysclk_enable_peripheral_clock(uint32_t ul_id)
{
	pmc_enable_periph_clk(ul_id);
   81cba:	200b      	movs	r0, #11
   81cbc:	4c4a      	ldr	r4, [pc, #296]	; (81de8 <main+0x13c>)
   81cbe:	47a0      	blx	r4
   81cc0:	200c      	movs	r0, #12
   81cc2:	47a0      	blx	r4
   81cc4:	200d      	movs	r0, #13
   81cc6:	47a0      	blx	r4
   81cc8:	200e      	movs	r0, #14
   81cca:	47a0      	blx	r4
	ioport_init();
	delayInit();
   81ccc:	4b47      	ldr	r3, [pc, #284]	; (81dec <main+0x140>)
   81cce:	4798      	blx	r3
	initRegulator();
   81cd0:	4b47      	ldr	r3, [pc, #284]	; (81df0 <main+0x144>)
   81cd2:	4798      	blx	r3
	initMotor();
   81cd4:	4b47      	ldr	r3, [pc, #284]	; (81df4 <main+0x148>)
   81cd6:	4798      	blx	r3
	initRotateMotor();
   81cd8:	4b47      	ldr	r3, [pc, #284]	; (81df8 <main+0x14c>)
   81cda:	4798      	blx	r3
   81cdc:	2008      	movs	r0, #8
   81cde:	47a0      	blx	r4
 * \param opt         Options needed to set up RS232 communication (see \ref usart_options_t).
 *
 */
static inline void stdio_serial_init(volatile void *usart, const usart_serial_options_t *opt)
{
	stdio_base = (void *)usart;
   81ce0:	4d46      	ldr	r5, [pc, #280]	; (81dfc <main+0x150>)
   81ce2:	4b47      	ldr	r3, [pc, #284]	; (81e00 <main+0x154>)
   81ce4:	601d      	str	r5, [r3, #0]
	ptr_put = (int (*)(void volatile*,char))&usart_serial_putchar;
   81ce6:	4a47      	ldr	r2, [pc, #284]	; (81e04 <main+0x158>)
   81ce8:	4b47      	ldr	r3, [pc, #284]	; (81e08 <main+0x15c>)
   81cea:	601a      	str	r2, [r3, #0]
	ptr_get = (void (*)(void volatile*,char*))&usart_serial_getchar;
   81cec:	4a47      	ldr	r2, [pc, #284]	; (81e0c <main+0x160>)
   81cee:	4b48      	ldr	r3, [pc, #288]	; (81e10 <main+0x164>)
   81cf0:	601a      	str	r2, [r3, #0]
static inline void usart_serial_init(usart_if p_usart,
		usart_serial_options_t *opt)
{
#if ((!SAM4L) && (!SAMG55))
	sam_uart_opt_t uart_settings;
	uart_settings.ul_mck = sysclk_get_peripheral_hz();
   81cf2:	4b48      	ldr	r3, [pc, #288]	; (81e14 <main+0x168>)
   81cf4:	9301      	str	r3, [sp, #4]
	uart_settings.ul_baudrate = opt->baudrate;
   81cf6:	f44f 33e1 	mov.w	r3, #115200	; 0x1c200
   81cfa:	9302      	str	r3, [sp, #8]
	uart_settings.ul_mode = opt->paritytype;
   81cfc:	f44f 6300 	mov.w	r3, #2048	; 0x800
   81d00:	9303      	str	r3, [sp, #12]
   81d02:	2008      	movs	r0, #8
   81d04:	47a0      	blx	r4
	
#ifdef UART
	if (UART == (Uart*)p_usart) {
		sysclk_enable_peripheral_clock(ID_UART);
		/* Configure UART */
		uart_init((Uart*)p_usart, &uart_settings);
   81d06:	4628      	mov	r0, r5
   81d08:	a901      	add	r1, sp, #4
   81d0a:	4b43      	ldr	r3, [pc, #268]	; (81e18 <main+0x16c>)
   81d0c:	4798      	blx	r3
	fdevopen((int (*)(char, FILE*))(_write),(int (*)(FILE*))(_read));
#  endif
#  if UC3 || SAM
	// For AVR32 and SAM GCC
	// Specify that stdout and stdin should not be buffered.
	setbuf(stdout, NULL);
   81d0e:	4d43      	ldr	r5, [pc, #268]	; (81e1c <main+0x170>)
   81d10:	682b      	ldr	r3, [r5, #0]
   81d12:	6898      	ldr	r0, [r3, #8]
   81d14:	2100      	movs	r1, #0
   81d16:	4c42      	ldr	r4, [pc, #264]	; (81e20 <main+0x174>)
   81d18:	47a0      	blx	r4
	setbuf(stdin, NULL);
   81d1a:	682b      	ldr	r3, [r5, #0]
   81d1c:	6858      	ldr	r0, [r3, #4]
   81d1e:	2100      	movs	r1, #0
   81d20:	47a0      	blx	r4
	};
	
	/* Configure console UART. */
	sysclk_enable_peripheral_clock(CONSOLE_UART_ID);
	stdio_serial_init(CONF_UART, &uart_serial_options);
	printf("Konsolen reado\n");
   81d22:	4840      	ldr	r0, [pc, #256]	; (81e24 <main+0x178>)
   81d24:	4c40      	ldr	r4, [pc, #256]	; (81e28 <main+0x17c>)
   81d26:	47a0      	blx	r4
	printf("===============\n");
   81d28:	4840      	ldr	r0, [pc, #256]	; (81e2c <main+0x180>)
   81d2a:	47a0      	blx	r4
	printf("-- %s\n\r", BOARD_NAME);
   81d2c:	4840      	ldr	r0, [pc, #256]	; (81e30 <main+0x184>)
   81d2e:	4941      	ldr	r1, [pc, #260]	; (81e34 <main+0x188>)
   81d30:	47a0      	blx	r4
	printf("-- Compiled: %s %s --\n\r", __DATE__, __TIME__);
   81d32:	4841      	ldr	r0, [pc, #260]	; (81e38 <main+0x18c>)
   81d34:	4941      	ldr	r1, [pc, #260]	; (81e3c <main+0x190>)
   81d36:	4a42      	ldr	r2, [pc, #264]	; (81e40 <main+0x194>)
   81d38:	47a0      	blx	r4
	printf("Whilesatsen");
   81d3a:	4842      	ldr	r0, [pc, #264]	; (81e44 <main+0x198>)
   81d3c:	47a0      	blx	r4
	delayInit();
	initRegulator();
	initMotor();
	initRotateMotor();
	configure_console();
	initDrive();
   81d3e:	4b42      	ldr	r3, [pc, #264]	; (81e48 <main+0x19c>)
   81d40:	4798      	blx	r3
	uint16_t y1 = 0;
// 	uint16_t x2 = 0;
// 	uint16_t x3 = 0; //irrelevant
// 	uint16_t x4 = 0; //irrelevant
	
	UnityBegin("../Test/test_CalculateAngle.c");
   81d42:	4842      	ldr	r0, [pc, #264]	; (81e4c <main+0x1a0>)
   81d44:	4b42      	ldr	r3, [pc, #264]	; (81e50 <main+0x1a4>)
   81d46:	4798      	blx	r3
	RUN_TEST(test_getX_diff,10);
   81d48:	4842      	ldr	r0, [pc, #264]	; (81e54 <main+0x1a8>)
   81d4a:	4943      	ldr	r1, [pc, #268]	; (81e58 <main+0x1ac>)
   81d4c:	220a      	movs	r2, #10
   81d4e:	4c43      	ldr	r4, [pc, #268]	; (81e5c <main+0x1b0>)
   81d50:	47a0      	blx	r4
	RUN_TEST(test_getY_diff,20);
   81d52:	4843      	ldr	r0, [pc, #268]	; (81e60 <main+0x1b4>)
   81d54:	4943      	ldr	r1, [pc, #268]	; (81e64 <main+0x1b8>)
   81d56:	2214      	movs	r2, #20
   81d58:	47a0      	blx	r4
	RUN_TEST(test_CalculateAngle,30);
   81d5a:	4843      	ldr	r0, [pc, #268]	; (81e68 <main+0x1bc>)
   81d5c:	4943      	ldr	r1, [pc, #268]	; (81e6c <main+0x1c0>)
   81d5e:	221e      	movs	r2, #30
   81d60:	47a0      	blx	r4
	RUN_TEST(test_CalculatesetPoint,40);
   81d62:	4843      	ldr	r0, [pc, #268]	; (81e70 <main+0x1c4>)
   81d64:	4943      	ldr	r1, [pc, #268]	; (81e74 <main+0x1c8>)
   81d66:	2228      	movs	r2, #40	; 0x28
   81d68:	47a0      	blx	r4
	RUN_TEST(test_CalculateDistance,50);
   81d6a:	4843      	ldr	r0, [pc, #268]	; (81e78 <main+0x1cc>)
   81d6c:	4943      	ldr	r1, [pc, #268]	; (81e7c <main+0x1d0>)
   81d6e:	2232      	movs	r2, #50	; 0x32
   81d70:	47a0      	blx	r4
// 		stringToInt(&x2, str2);
// 		stringToInt(&x3, str3);
// 		stringToInt(&x4, str4);
// 			

startupMeasure1(0,0);
   81d72:	f8df a134 	ldr.w	sl, [pc, #308]	; 81ea8 <main+0x1fc>
moveForward(1650,1650);
   81d76:	f8df 8134 	ldr.w	r8, [pc, #308]	; 81eac <main+0x200>
delayMicroseconds(1000000);
   81d7a:	f8df 9134 	ldr.w	r9, [pc, #308]	; 81eb0 <main+0x204>
// 		stringToInt(&x2, str2);
// 		stringToInt(&x3, str3);
// 		stringToInt(&x4, str4);
// 			

startupMeasure1(0,0);
   81d7e:	2000      	movs	r0, #0
   81d80:	4601      	mov	r1, r0
   81d82:	47d0      	blx	sl
moveForward(1650,1650);
   81d84:	f240 6072 	movw	r0, #1650	; 0x672
   81d88:	4601      	mov	r1, r0
   81d8a:	47c0      	blx	r8
delayMicroseconds(1000000);
   81d8c:	4648      	mov	r0, r9
   81d8e:	4b3c      	ldr	r3, [pc, #240]	; (81e80 <main+0x1d4>)
   81d90:	4798      	blx	r3
moveForward(1500,1500);
   81d92:	f240 50dc 	movw	r0, #1500	; 0x5dc
   81d96:	4601      	mov	r1, r0
   81d98:	47c0      	blx	r8
startupMeasure2(20,20);
   81d9a:	2014      	movs	r0, #20
   81d9c:	4601      	mov	r1, r0
   81d9e:	4b39      	ldr	r3, [pc, #228]	; (81e84 <main+0x1d8>)
   81da0:	4798      	blx	r3

		int casen=0;
		switch (casen)
		{
		case 0:
			rotate(calculateAngle(getY_diff(OB1x,x1),getX_diff(OB1y,y1)));
   81da2:	4f39      	ldr	r7, [pc, #228]	; (81e88 <main+0x1dc>)
   81da4:	6838      	ldr	r0, [r7, #0]
   81da6:	2100      	movs	r1, #0
   81da8:	4e38      	ldr	r6, [pc, #224]	; (81e8c <main+0x1e0>)
   81daa:	47b0      	blx	r6
   81dac:	4683      	mov	fp, r0
   81dae:	4d38      	ldr	r5, [pc, #224]	; (81e90 <main+0x1e4>)
   81db0:	6828      	ldr	r0, [r5, #0]
   81db2:	2100      	movs	r1, #0
   81db4:	4c37      	ldr	r4, [pc, #220]	; (81e94 <main+0x1e8>)
   81db6:	47a0      	blx	r4
   81db8:	4601      	mov	r1, r0
   81dba:	4658      	mov	r0, fp
   81dbc:	4b36      	ldr	r3, [pc, #216]	; (81e98 <main+0x1ec>)
   81dbe:	4798      	blx	r3
   81dc0:	4b36      	ldr	r3, [pc, #216]	; (81e9c <main+0x1f0>)
   81dc2:	4798      	blx	r3
		case 1:
			driveTo(calculateDistance(getY_diff(OB1x,x1),getX_diff(OB1y,y1)));
   81dc4:	6838      	ldr	r0, [r7, #0]
   81dc6:	2100      	movs	r1, #0
   81dc8:	47b0      	blx	r6
   81dca:	4606      	mov	r6, r0
   81dcc:	6828      	ldr	r0, [r5, #0]
   81dce:	2100      	movs	r1, #0
   81dd0:	47a0      	blx	r4
   81dd2:	4601      	mov	r1, r0
   81dd4:	4630      	mov	r0, r6
   81dd6:	4b32      	ldr	r3, [pc, #200]	; (81ea0 <main+0x1f4>)
   81dd8:	4798      	blx	r3
   81dda:	4b32      	ldr	r3, [pc, #200]	; (81ea4 <main+0x1f8>)
   81ddc:	4798      	blx	r3
   81dde:	e7ce      	b.n	81d7e <main+0xd2>
   81de0:	00081451 	.word	0x00081451
   81de4:	000814b5 	.word	0x000814b5
   81de8:	000818e5 	.word	0x000818e5
   81dec:	00081011 	.word	0x00081011
   81df0:	00080f95 	.word	0x00080f95
   81df4:	00081089 	.word	0x00081089
   81df8:	000810f5 	.word	0x000810f5
   81dfc:	400e0800 	.word	0x400e0800
   81e00:	20070bb4 	.word	0x20070bb4
   81e04:	00081c05 	.word	0x00081c05
   81e08:	20070bb0 	.word	0x20070bb0
   81e0c:	00081b5d 	.word	0x00081b5d
   81e10:	20070bac 	.word	0x20070bac
   81e14:	0501bd00 	.word	0x0501bd00
   81e18:	00080c61 	.word	0x00080c61
   81e1c:	20070570 	.word	0x20070570
   81e20:	000830b5 	.word	0x000830b5
   81e24:	00085fa0 	.word	0x00085fa0
   81e28:	00082ff9 	.word	0x00082ff9
   81e2c:	00085fb0 	.word	0x00085fb0
   81e30:	00085fc4 	.word	0x00085fc4
   81e34:	00085fcc 	.word	0x00085fcc
   81e38:	00085fdc 	.word	0x00085fdc
   81e3c:	00085ff4 	.word	0x00085ff4
   81e40:	00086000 	.word	0x00086000
   81e44:	0008600c 	.word	0x0008600c
   81e48:	00080e05 	.word	0x00080e05
   81e4c:	00086018 	.word	0x00086018
   81e50:	00080ab1 	.word	0x00080ab1
   81e54:	00080149 	.word	0x00080149
   81e58:	00086038 	.word	0x00086038
   81e5c:	00080a59 	.word	0x00080a59
   81e60:	0008016d 	.word	0x0008016d
   81e64:	00086048 	.word	0x00086048
   81e68:	00080191 	.word	0x00080191
   81e6c:	00086058 	.word	0x00086058
   81e70:	000801b5 	.word	0x000801b5
   81e74:	0008606c 	.word	0x0008606c
   81e78:	000801d9 	.word	0x000801d9
   81e7c:	00086084 	.word	0x00086084
   81e80:	0008104d 	.word	0x0008104d
   81e84:	0008119d 	.word	0x0008119d
   81e88:	2007013c 	.word	0x2007013c
   81e8c:	00080d4d 	.word	0x00080d4d
   81e90:	20070140 	.word	0x20070140
   81e94:	00080d49 	.word	0x00080d49
   81e98:	00080d51 	.word	0x00080d51
   81e9c:	00081215 	.word	0x00081215
   81ea0:	00080ddd 	.word	0x00080ddd
   81ea4:	00080e99 	.word	0x00080e99
   81ea8:	00081189 	.word	0x00081189
   81eac:	000810d1 	.word	0x000810d1
   81eb0:	000f4240 	.word	0x000f4240

00081eb4 <acos>:
   81eb4:	e92d 41f0 	stmdb	sp!, {r4, r5, r6, r7, r8, lr}
   81eb8:	b08a      	sub	sp, #40	; 0x28
   81eba:	4604      	mov	r4, r0
   81ebc:	460d      	mov	r5, r1
   81ebe:	f000 f8a3 	bl	82008 <__ieee754_acos>
   81ec2:	f8df 8094 	ldr.w	r8, [pc, #148]	; 81f58 <acos+0xa4>
   81ec6:	4606      	mov	r6, r0
   81ec8:	f998 3000 	ldrsb.w	r3, [r8]
   81ecc:	460f      	mov	r7, r1
   81ece:	3301      	adds	r3, #1
   81ed0:	d004      	beq.n	81edc <acos+0x28>
   81ed2:	4620      	mov	r0, r4
   81ed4:	4629      	mov	r1, r5
   81ed6:	f000 fbb7 	bl	82648 <__fpclassifyd>
   81eda:	b920      	cbnz	r0, 81ee6 <acos+0x32>
   81edc:	4630      	mov	r0, r6
   81ede:	4639      	mov	r1, r7
   81ee0:	b00a      	add	sp, #40	; 0x28
   81ee2:	e8bd 81f0 	ldmia.w	sp!, {r4, r5, r6, r7, r8, pc}
   81ee6:	4620      	mov	r0, r4
   81ee8:	4629      	mov	r1, r5
   81eea:	f000 fba9 	bl	82640 <fabs>
   81eee:	2200      	movs	r2, #0
   81ef0:	4b16      	ldr	r3, [pc, #88]	; (81f4c <acos+0x98>)
   81ef2:	f001 f821 	bl	82f38 <__aeabi_dcmpgt>
   81ef6:	2800      	cmp	r0, #0
   81ef8:	d0f0      	beq.n	81edc <acos+0x28>
   81efa:	4915      	ldr	r1, [pc, #84]	; (81f50 <acos+0x9c>)
   81efc:	2300      	movs	r3, #0
   81efe:	2201      	movs	r2, #1
   81f00:	4814      	ldr	r0, [pc, #80]	; (81f54 <acos+0xa0>)
   81f02:	9308      	str	r3, [sp, #32]
   81f04:	e9cd 4504 	strd	r4, r5, [sp, #16]
   81f08:	e9cd 4502 	strd	r4, r5, [sp, #8]
   81f0c:	9101      	str	r1, [sp, #4]
   81f0e:	9200      	str	r2, [sp, #0]
   81f10:	f000 fbc4 	bl	8269c <nan>
   81f14:	f998 3000 	ldrsb.w	r3, [r8]
   81f18:	e9cd 0106 	strd	r0, r1, [sp, #24]
   81f1c:	2b02      	cmp	r3, #2
   81f1e:	d00a      	beq.n	81f36 <acos+0x82>
   81f20:	4668      	mov	r0, sp
   81f22:	f000 fbb9 	bl	82698 <matherr>
   81f26:	b130      	cbz	r0, 81f36 <acos+0x82>
   81f28:	9b08      	ldr	r3, [sp, #32]
   81f2a:	b94b      	cbnz	r3, 81f40 <acos+0x8c>
   81f2c:	e9dd 0106 	ldrd	r0, r1, [sp, #24]
   81f30:	b00a      	add	sp, #40	; 0x28
   81f32:	e8bd 81f0 	ldmia.w	sp!, {r4, r5, r6, r7, r8, pc}
   81f36:	f001 f831 	bl	82f9c <__errno>
   81f3a:	2321      	movs	r3, #33	; 0x21
   81f3c:	6003      	str	r3, [r0, #0]
   81f3e:	e7f3      	b.n	81f28 <acos+0x74>
   81f40:	f001 f82c 	bl	82f9c <__errno>
   81f44:	9b08      	ldr	r3, [sp, #32]
   81f46:	6003      	str	r3, [r0, #0]
   81f48:	e7f0      	b.n	81f2c <acos+0x78>
   81f4a:	bf00      	nop
   81f4c:	3ff00000 	.word	0x3ff00000
   81f50:	0008609c 	.word	0x0008609c
   81f54:	00085fc0 	.word	0x00085fc0
   81f58:	20070144 	.word	0x20070144

00081f5c <sqrt>:
   81f5c:	e92d 47f0 	stmdb	sp!, {r4, r5, r6, r7, r8, r9, sl, lr}
   81f60:	b08a      	sub	sp, #40	; 0x28
   81f62:	4604      	mov	r4, r0
   81f64:	460d      	mov	r5, r1
   81f66:	f000 faab 	bl	824c0 <__ieee754_sqrt>
   81f6a:	f8df a098 	ldr.w	sl, [pc, #152]	; 82004 <sqrt+0xa8>
   81f6e:	4606      	mov	r6, r0
   81f70:	f99a 3000 	ldrsb.w	r3, [sl]
   81f74:	460f      	mov	r7, r1
   81f76:	3301      	adds	r3, #1
   81f78:	d00f      	beq.n	81f9a <sqrt+0x3e>
   81f7a:	4620      	mov	r0, r4
   81f7c:	4629      	mov	r1, r5
   81f7e:	f000 fb63 	bl	82648 <__fpclassifyd>
   81f82:	b150      	cbz	r0, 81f9a <sqrt+0x3e>
   81f84:	f04f 0800 	mov.w	r8, #0
   81f88:	f04f 0900 	mov.w	r9, #0
   81f8c:	4642      	mov	r2, r8
   81f8e:	464b      	mov	r3, r9
   81f90:	4620      	mov	r0, r4
   81f92:	4629      	mov	r1, r5
   81f94:	f000 ffb2 	bl	82efc <__aeabi_dcmplt>
   81f98:	b920      	cbnz	r0, 81fa4 <sqrt+0x48>
   81f9a:	4630      	mov	r0, r6
   81f9c:	4639      	mov	r1, r7
   81f9e:	b00a      	add	sp, #40	; 0x28
   81fa0:	e8bd 87f0 	ldmia.w	sp!, {r4, r5, r6, r7, r8, r9, sl, pc}
   81fa4:	4916      	ldr	r1, [pc, #88]	; (82000 <sqrt+0xa4>)
   81fa6:	f89a 6000 	ldrb.w	r6, [sl]
   81faa:	2201      	movs	r2, #1
   81fac:	2300      	movs	r3, #0
   81fae:	e9cd 4504 	strd	r4, r5, [sp, #16]
   81fb2:	e9cd 4502 	strd	r4, r5, [sp, #8]
   81fb6:	9101      	str	r1, [sp, #4]
   81fb8:	9200      	str	r2, [sp, #0]
   81fba:	9308      	str	r3, [sp, #32]
   81fbc:	b966      	cbnz	r6, 81fd8 <sqrt+0x7c>
   81fbe:	e9cd 8906 	strd	r8, r9, [sp, #24]
   81fc2:	4668      	mov	r0, sp
   81fc4:	f000 fb68 	bl	82698 <matherr>
   81fc8:	b180      	cbz	r0, 81fec <sqrt+0x90>
   81fca:	9b08      	ldr	r3, [sp, #32]
   81fcc:	b99b      	cbnz	r3, 81ff6 <sqrt+0x9a>
   81fce:	e9dd 0106 	ldrd	r0, r1, [sp, #24]
   81fd2:	b00a      	add	sp, #40	; 0x28
   81fd4:	e8bd 87f0 	ldmia.w	sp!, {r4, r5, r6, r7, r8, r9, sl, pc}
   81fd8:	4640      	mov	r0, r8
   81fda:	4649      	mov	r1, r9
   81fdc:	4642      	mov	r2, r8
   81fde:	464b      	mov	r3, r9
   81fe0:	f000 fe44 	bl	82c6c <__aeabi_ddiv>
   81fe4:	2e02      	cmp	r6, #2
   81fe6:	e9cd 0106 	strd	r0, r1, [sp, #24]
   81fea:	d1ea      	bne.n	81fc2 <sqrt+0x66>
   81fec:	f000 ffd6 	bl	82f9c <__errno>
   81ff0:	2321      	movs	r3, #33	; 0x21
   81ff2:	6003      	str	r3, [r0, #0]
   81ff4:	e7e9      	b.n	81fca <sqrt+0x6e>
   81ff6:	f000 ffd1 	bl	82f9c <__errno>
   81ffa:	9b08      	ldr	r3, [sp, #32]
   81ffc:	6003      	str	r3, [r0, #0]
   81ffe:	e7e6      	b.n	81fce <sqrt+0x72>
   82000:	000860a4 	.word	0x000860a4
   82004:	20070144 	.word	0x20070144

00082008 <__ieee754_acos>:
   82008:	e92d 4ff8 	stmdb	sp!, {r3, r4, r5, r6, r7, r8, r9, sl, fp, lr}
   8200c:	4f80      	ldr	r7, [pc, #512]	; (82210 <__ieee754_acos+0x208>)
   8200e:	f021 4600 	bic.w	r6, r1, #2147483648	; 0x80000000
   82012:	42be      	cmp	r6, r7
   82014:	4604      	mov	r4, r0
   82016:	460d      	mov	r5, r1
   82018:	dd0e      	ble.n	82038 <__ieee754_acos+0x30>
   8201a:	f106 4c40 	add.w	ip, r6, #3221225472	; 0xc0000000
   8201e:	f50c 1c80 	add.w	ip, ip, #1048576	; 0x100000
   82022:	ea5c 0c00 	orrs.w	ip, ip, r0
   82026:	f040 80bb 	bne.w	821a0 <__ieee754_acos+0x198>
   8202a:	2900      	cmp	r1, #0
   8202c:	f340 817c 	ble.w	82328 <__ieee754_acos+0x320>
   82030:	2000      	movs	r0, #0
   82032:	2100      	movs	r1, #0
   82034:	e8bd 8ff8 	ldmia.w	sp!, {r3, r4, r5, r6, r7, r8, r9, sl, fp, pc}
   82038:	4f76      	ldr	r7, [pc, #472]	; (82214 <__ieee754_acos+0x20c>)
   8203a:	42be      	cmp	r6, r7
   8203c:	f340 80a8 	ble.w	82190 <__ieee754_acos+0x188>
   82040:	2900      	cmp	r1, #0
   82042:	f2c0 8176 	blt.w	82332 <__ieee754_acos+0x32a>
   82046:	4602      	mov	r2, r0
   82048:	460b      	mov	r3, r1
   8204a:	2000      	movs	r0, #0
   8204c:	4972      	ldr	r1, [pc, #456]	; (82218 <__ieee754_acos+0x210>)
   8204e:	f000 fb2f 	bl	826b0 <__aeabi_dsub>
   82052:	2200      	movs	r2, #0
   82054:	4b71      	ldr	r3, [pc, #452]	; (8221c <__ieee754_acos+0x214>)
   82056:	f000 fcdf 	bl	82a18 <__aeabi_dmul>
   8205a:	4604      	mov	r4, r0
   8205c:	460d      	mov	r5, r1
   8205e:	f000 fa2f 	bl	824c0 <__ieee754_sqrt>
   82062:	a355      	add	r3, pc, #340	; (adr r3, 821b8 <__ieee754_acos+0x1b0>)
   82064:	e9d3 2300 	ldrd	r2, r3, [r3]
   82068:	4689      	mov	r9, r1
   8206a:	4680      	mov	r8, r0
   8206c:	4629      	mov	r1, r5
   8206e:	4620      	mov	r0, r4
   82070:	f000 fcd2 	bl	82a18 <__aeabi_dmul>
   82074:	a352      	add	r3, pc, #328	; (adr r3, 821c0 <__ieee754_acos+0x1b8>)
   82076:	e9d3 2300 	ldrd	r2, r3, [r3]
   8207a:	f000 fb1b 	bl	826b4 <__adddf3>
   8207e:	4622      	mov	r2, r4
   82080:	462b      	mov	r3, r5
   82082:	f000 fcc9 	bl	82a18 <__aeabi_dmul>
   82086:	a350      	add	r3, pc, #320	; (adr r3, 821c8 <__ieee754_acos+0x1c0>)
   82088:	e9d3 2300 	ldrd	r2, r3, [r3]
   8208c:	f000 fb10 	bl	826b0 <__aeabi_dsub>
   82090:	4622      	mov	r2, r4
   82092:	462b      	mov	r3, r5
   82094:	f000 fcc0 	bl	82a18 <__aeabi_dmul>
   82098:	a34d      	add	r3, pc, #308	; (adr r3, 821d0 <__ieee754_acos+0x1c8>)
   8209a:	e9d3 2300 	ldrd	r2, r3, [r3]
   8209e:	f000 fb09 	bl	826b4 <__adddf3>
   820a2:	4622      	mov	r2, r4
   820a4:	462b      	mov	r3, r5
   820a6:	f000 fcb7 	bl	82a18 <__aeabi_dmul>
   820aa:	a34b      	add	r3, pc, #300	; (adr r3, 821d8 <__ieee754_acos+0x1d0>)
   820ac:	e9d3 2300 	ldrd	r2, r3, [r3]
   820b0:	f000 fafe 	bl	826b0 <__aeabi_dsub>
   820b4:	4622      	mov	r2, r4
   820b6:	462b      	mov	r3, r5
   820b8:	f000 fcae 	bl	82a18 <__aeabi_dmul>
   820bc:	a348      	add	r3, pc, #288	; (adr r3, 821e0 <__ieee754_acos+0x1d8>)
   820be:	e9d3 2300 	ldrd	r2, r3, [r3]
   820c2:	f000 faf7 	bl	826b4 <__adddf3>
   820c6:	4622      	mov	r2, r4
   820c8:	462b      	mov	r3, r5
   820ca:	f000 fca5 	bl	82a18 <__aeabi_dmul>
   820ce:	a346      	add	r3, pc, #280	; (adr r3, 821e8 <__ieee754_acos+0x1e0>)
   820d0:	e9d3 2300 	ldrd	r2, r3, [r3]
   820d4:	4682      	mov	sl, r0
   820d6:	468b      	mov	fp, r1
   820d8:	4620      	mov	r0, r4
   820da:	4629      	mov	r1, r5
   820dc:	f000 fc9c 	bl	82a18 <__aeabi_dmul>
   820e0:	a343      	add	r3, pc, #268	; (adr r3, 821f0 <__ieee754_acos+0x1e8>)
   820e2:	e9d3 2300 	ldrd	r2, r3, [r3]
   820e6:	f000 fae3 	bl	826b0 <__aeabi_dsub>
   820ea:	4622      	mov	r2, r4
   820ec:	462b      	mov	r3, r5
   820ee:	f000 fc93 	bl	82a18 <__aeabi_dmul>
   820f2:	a341      	add	r3, pc, #260	; (adr r3, 821f8 <__ieee754_acos+0x1f0>)
   820f4:	e9d3 2300 	ldrd	r2, r3, [r3]
   820f8:	f000 fadc 	bl	826b4 <__adddf3>
   820fc:	4622      	mov	r2, r4
   820fe:	462b      	mov	r3, r5
   82100:	f000 fc8a 	bl	82a18 <__aeabi_dmul>
   82104:	a33e      	add	r3, pc, #248	; (adr r3, 82200 <__ieee754_acos+0x1f8>)
   82106:	e9d3 2300 	ldrd	r2, r3, [r3]
   8210a:	f000 fad1 	bl	826b0 <__aeabi_dsub>
   8210e:	4622      	mov	r2, r4
   82110:	462b      	mov	r3, r5
   82112:	f000 fc81 	bl	82a18 <__aeabi_dmul>
   82116:	2200      	movs	r2, #0
   82118:	4b3f      	ldr	r3, [pc, #252]	; (82218 <__ieee754_acos+0x210>)
   8211a:	f000 facb 	bl	826b4 <__adddf3>
   8211e:	4602      	mov	r2, r0
   82120:	460b      	mov	r3, r1
   82122:	4650      	mov	r0, sl
   82124:	4659      	mov	r1, fp
   82126:	f000 fda1 	bl	82c6c <__aeabi_ddiv>
   8212a:	4642      	mov	r2, r8
   8212c:	464b      	mov	r3, r9
   8212e:	f000 fc73 	bl	82a18 <__aeabi_dmul>
   82132:	2600      	movs	r6, #0
   82134:	4682      	mov	sl, r0
   82136:	468b      	mov	fp, r1
   82138:	4632      	mov	r2, r6
   8213a:	464b      	mov	r3, r9
   8213c:	4630      	mov	r0, r6
   8213e:	4649      	mov	r1, r9
   82140:	f000 fc6a 	bl	82a18 <__aeabi_dmul>
   82144:	4602      	mov	r2, r0
   82146:	460b      	mov	r3, r1
   82148:	4620      	mov	r0, r4
   8214a:	4629      	mov	r1, r5
   8214c:	f000 fab0 	bl	826b0 <__aeabi_dsub>
   82150:	4632      	mov	r2, r6
   82152:	4604      	mov	r4, r0
   82154:	460d      	mov	r5, r1
   82156:	464b      	mov	r3, r9
   82158:	4640      	mov	r0, r8
   8215a:	4649      	mov	r1, r9
   8215c:	f000 faaa 	bl	826b4 <__adddf3>
   82160:	4602      	mov	r2, r0
   82162:	460b      	mov	r3, r1
   82164:	4620      	mov	r0, r4
   82166:	4629      	mov	r1, r5
   82168:	f000 fd80 	bl	82c6c <__aeabi_ddiv>
   8216c:	4602      	mov	r2, r0
   8216e:	460b      	mov	r3, r1
   82170:	4650      	mov	r0, sl
   82172:	4659      	mov	r1, fp
   82174:	f000 fa9e 	bl	826b4 <__adddf3>
   82178:	4602      	mov	r2, r0
   8217a:	460b      	mov	r3, r1
   8217c:	4630      	mov	r0, r6
   8217e:	4649      	mov	r1, r9
   82180:	f000 fa98 	bl	826b4 <__adddf3>
   82184:	4602      	mov	r2, r0
   82186:	460b      	mov	r3, r1
   82188:	f000 fa94 	bl	826b4 <__adddf3>
   8218c:	e8bd 8ff8 	ldmia.w	sp!, {r3, r4, r5, r6, r7, r8, r9, sl, fp, pc}
   82190:	4b23      	ldr	r3, [pc, #140]	; (82220 <__ieee754_acos+0x218>)
   82192:	429e      	cmp	r6, r3
   82194:	dc46      	bgt.n	82224 <__ieee754_acos+0x21c>
   82196:	a11c      	add	r1, pc, #112	; (adr r1, 82208 <__ieee754_acos+0x200>)
   82198:	e9d1 0100 	ldrd	r0, r1, [r1]
   8219c:	e8bd 8ff8 	ldmia.w	sp!, {r3, r4, r5, r6, r7, r8, r9, sl, fp, pc}
   821a0:	4602      	mov	r2, r0
   821a2:	460b      	mov	r3, r1
   821a4:	f000 fa84 	bl	826b0 <__aeabi_dsub>
   821a8:	4602      	mov	r2, r0
   821aa:	460b      	mov	r3, r1
   821ac:	f000 fd5e 	bl	82c6c <__aeabi_ddiv>
   821b0:	e8bd 8ff8 	ldmia.w	sp!, {r3, r4, r5, r6, r7, r8, r9, sl, fp, pc}
   821b4:	f3af 8000 	nop.w
   821b8:	0dfdf709 	.word	0x0dfdf709
   821bc:	3f023de1 	.word	0x3f023de1
   821c0:	7501b288 	.word	0x7501b288
   821c4:	3f49efe0 	.word	0x3f49efe0
   821c8:	b5688f3b 	.word	0xb5688f3b
   821cc:	3fa48228 	.word	0x3fa48228
   821d0:	0e884455 	.word	0x0e884455
   821d4:	3fc9c155 	.word	0x3fc9c155
   821d8:	03eb6f7d 	.word	0x03eb6f7d
   821dc:	3fd4d612 	.word	0x3fd4d612
   821e0:	55555555 	.word	0x55555555
   821e4:	3fc55555 	.word	0x3fc55555
   821e8:	b12e9282 	.word	0xb12e9282
   821ec:	3fb3b8c5 	.word	0x3fb3b8c5
   821f0:	1b8d0159 	.word	0x1b8d0159
   821f4:	3fe6066c 	.word	0x3fe6066c
   821f8:	9c598ac8 	.word	0x9c598ac8
   821fc:	40002ae5 	.word	0x40002ae5
   82200:	1c8a2d4b 	.word	0x1c8a2d4b
   82204:	40033a27 	.word	0x40033a27
   82208:	54442d18 	.word	0x54442d18
   8220c:	3ff921fb 	.word	0x3ff921fb
   82210:	3fefffff 	.word	0x3fefffff
   82214:	3fdfffff 	.word	0x3fdfffff
   82218:	3ff00000 	.word	0x3ff00000
   8221c:	3fe00000 	.word	0x3fe00000
   82220:	3c600000 	.word	0x3c600000
   82224:	4602      	mov	r2, r0
   82226:	460b      	mov	r3, r1
   82228:	f000 fbf6 	bl	82a18 <__aeabi_dmul>
   8222c:	a388      	add	r3, pc, #544	; (adr r3, 82450 <__ieee754_acos+0x448>)
   8222e:	e9d3 2300 	ldrd	r2, r3, [r3]
   82232:	4606      	mov	r6, r0
   82234:	460f      	mov	r7, r1
   82236:	f000 fbef 	bl	82a18 <__aeabi_dmul>
   8223a:	a387      	add	r3, pc, #540	; (adr r3, 82458 <__ieee754_acos+0x450>)
   8223c:	e9d3 2300 	ldrd	r2, r3, [r3]
   82240:	f000 fa38 	bl	826b4 <__adddf3>
   82244:	4632      	mov	r2, r6
   82246:	463b      	mov	r3, r7
   82248:	f000 fbe6 	bl	82a18 <__aeabi_dmul>
   8224c:	a384      	add	r3, pc, #528	; (adr r3, 82460 <__ieee754_acos+0x458>)
   8224e:	e9d3 2300 	ldrd	r2, r3, [r3]
   82252:	f000 fa2d 	bl	826b0 <__aeabi_dsub>
   82256:	4632      	mov	r2, r6
   82258:	463b      	mov	r3, r7
   8225a:	f000 fbdd 	bl	82a18 <__aeabi_dmul>
   8225e:	a382      	add	r3, pc, #520	; (adr r3, 82468 <__ieee754_acos+0x460>)
   82260:	e9d3 2300 	ldrd	r2, r3, [r3]
   82264:	f000 fa26 	bl	826b4 <__adddf3>
   82268:	4632      	mov	r2, r6
   8226a:	463b      	mov	r3, r7
   8226c:	f000 fbd4 	bl	82a18 <__aeabi_dmul>
   82270:	a37f      	add	r3, pc, #508	; (adr r3, 82470 <__ieee754_acos+0x468>)
   82272:	e9d3 2300 	ldrd	r2, r3, [r3]
   82276:	f000 fa1b 	bl	826b0 <__aeabi_dsub>
   8227a:	4632      	mov	r2, r6
   8227c:	463b      	mov	r3, r7
   8227e:	f000 fbcb 	bl	82a18 <__aeabi_dmul>
   82282:	a37d      	add	r3, pc, #500	; (adr r3, 82478 <__ieee754_acos+0x470>)
   82284:	e9d3 2300 	ldrd	r2, r3, [r3]
   82288:	f000 fa14 	bl	826b4 <__adddf3>
   8228c:	4632      	mov	r2, r6
   8228e:	463b      	mov	r3, r7
   82290:	f000 fbc2 	bl	82a18 <__aeabi_dmul>
   82294:	a37a      	add	r3, pc, #488	; (adr r3, 82480 <__ieee754_acos+0x478>)
   82296:	e9d3 2300 	ldrd	r2, r3, [r3]
   8229a:	4680      	mov	r8, r0
   8229c:	4689      	mov	r9, r1
   8229e:	4630      	mov	r0, r6
   822a0:	4639      	mov	r1, r7
   822a2:	f000 fbb9 	bl	82a18 <__aeabi_dmul>
   822a6:	a378      	add	r3, pc, #480	; (adr r3, 82488 <__ieee754_acos+0x480>)
   822a8:	e9d3 2300 	ldrd	r2, r3, [r3]
   822ac:	f000 fa00 	bl	826b0 <__aeabi_dsub>
   822b0:	4632      	mov	r2, r6
   822b2:	463b      	mov	r3, r7
   822b4:	f000 fbb0 	bl	82a18 <__aeabi_dmul>
   822b8:	a375      	add	r3, pc, #468	; (adr r3, 82490 <__ieee754_acos+0x488>)
   822ba:	e9d3 2300 	ldrd	r2, r3, [r3]
   822be:	f000 f9f9 	bl	826b4 <__adddf3>
   822c2:	4632      	mov	r2, r6
   822c4:	463b      	mov	r3, r7
   822c6:	f000 fba7 	bl	82a18 <__aeabi_dmul>
   822ca:	a373      	add	r3, pc, #460	; (adr r3, 82498 <__ieee754_acos+0x490>)
   822cc:	e9d3 2300 	ldrd	r2, r3, [r3]
   822d0:	f000 f9ee 	bl	826b0 <__aeabi_dsub>
   822d4:	4632      	mov	r2, r6
   822d6:	463b      	mov	r3, r7
   822d8:	f000 fb9e 	bl	82a18 <__aeabi_dmul>
   822dc:	2200      	movs	r2, #0
   822de:	4b76      	ldr	r3, [pc, #472]	; (824b8 <__ieee754_acos+0x4b0>)
   822e0:	f000 f9e8 	bl	826b4 <__adddf3>
   822e4:	4602      	mov	r2, r0
   822e6:	460b      	mov	r3, r1
   822e8:	4640      	mov	r0, r8
   822ea:	4649      	mov	r1, r9
   822ec:	f000 fcbe 	bl	82c6c <__aeabi_ddiv>
   822f0:	4602      	mov	r2, r0
   822f2:	460b      	mov	r3, r1
   822f4:	4620      	mov	r0, r4
   822f6:	4629      	mov	r1, r5
   822f8:	f000 fb8e 	bl	82a18 <__aeabi_dmul>
   822fc:	4602      	mov	r2, r0
   822fe:	460b      	mov	r3, r1
   82300:	a167      	add	r1, pc, #412	; (adr r1, 824a0 <__ieee754_acos+0x498>)
   82302:	e9d1 0100 	ldrd	r0, r1, [r1]
   82306:	f000 f9d3 	bl	826b0 <__aeabi_dsub>
   8230a:	4602      	mov	r2, r0
   8230c:	460b      	mov	r3, r1
   8230e:	4620      	mov	r0, r4
   82310:	4629      	mov	r1, r5
   82312:	f000 f9cd 	bl	826b0 <__aeabi_dsub>
   82316:	4602      	mov	r2, r0
   82318:	460b      	mov	r3, r1
   8231a:	a163      	add	r1, pc, #396	; (adr r1, 824a8 <__ieee754_acos+0x4a0>)
   8231c:	e9d1 0100 	ldrd	r0, r1, [r1]
   82320:	f000 f9c6 	bl	826b0 <__aeabi_dsub>
   82324:	e8bd 8ff8 	ldmia.w	sp!, {r3, r4, r5, r6, r7, r8, r9, sl, fp, pc}
   82328:	a161      	add	r1, pc, #388	; (adr r1, 824b0 <__ieee754_acos+0x4a8>)
   8232a:	e9d1 0100 	ldrd	r0, r1, [r1]
   8232e:	e8bd 8ff8 	ldmia.w	sp!, {r3, r4, r5, r6, r7, r8, r9, sl, fp, pc}
   82332:	2200      	movs	r2, #0
   82334:	4b60      	ldr	r3, [pc, #384]	; (824b8 <__ieee754_acos+0x4b0>)
   82336:	f000 f9bd 	bl	826b4 <__adddf3>
   8233a:	2200      	movs	r2, #0
   8233c:	4b5f      	ldr	r3, [pc, #380]	; (824bc <__ieee754_acos+0x4b4>)
   8233e:	f000 fb6b 	bl	82a18 <__aeabi_dmul>
   82342:	a343      	add	r3, pc, #268	; (adr r3, 82450 <__ieee754_acos+0x448>)
   82344:	e9d3 2300 	ldrd	r2, r3, [r3]
   82348:	4604      	mov	r4, r0
   8234a:	460d      	mov	r5, r1
   8234c:	f000 fb64 	bl	82a18 <__aeabi_dmul>
   82350:	a341      	add	r3, pc, #260	; (adr r3, 82458 <__ieee754_acos+0x450>)
   82352:	e9d3 2300 	ldrd	r2, r3, [r3]
   82356:	f000 f9ad 	bl	826b4 <__adddf3>
   8235a:	4622      	mov	r2, r4
   8235c:	462b      	mov	r3, r5
   8235e:	f000 fb5b 	bl	82a18 <__aeabi_dmul>
   82362:	a33f      	add	r3, pc, #252	; (adr r3, 82460 <__ieee754_acos+0x458>)
   82364:	e9d3 2300 	ldrd	r2, r3, [r3]
   82368:	f000 f9a2 	bl	826b0 <__aeabi_dsub>
   8236c:	4622      	mov	r2, r4
   8236e:	462b      	mov	r3, r5
   82370:	f000 fb52 	bl	82a18 <__aeabi_dmul>
   82374:	a33c      	add	r3, pc, #240	; (adr r3, 82468 <__ieee754_acos+0x460>)
   82376:	e9d3 2300 	ldrd	r2, r3, [r3]
   8237a:	f000 f99b 	bl	826b4 <__adddf3>
   8237e:	4622      	mov	r2, r4
   82380:	462b      	mov	r3, r5
   82382:	f000 fb49 	bl	82a18 <__aeabi_dmul>
   82386:	a33a      	add	r3, pc, #232	; (adr r3, 82470 <__ieee754_acos+0x468>)
   82388:	e9d3 2300 	ldrd	r2, r3, [r3]
   8238c:	f000 f990 	bl	826b0 <__aeabi_dsub>
   82390:	4622      	mov	r2, r4
   82392:	462b      	mov	r3, r5
   82394:	f000 fb40 	bl	82a18 <__aeabi_dmul>
   82398:	a337      	add	r3, pc, #220	; (adr r3, 82478 <__ieee754_acos+0x470>)
   8239a:	e9d3 2300 	ldrd	r2, r3, [r3]
   8239e:	f000 f989 	bl	826b4 <__adddf3>
   823a2:	4622      	mov	r2, r4
   823a4:	462b      	mov	r3, r5
   823a6:	f000 fb37 	bl	82a18 <__aeabi_dmul>
   823aa:	4680      	mov	r8, r0
   823ac:	4689      	mov	r9, r1
   823ae:	4620      	mov	r0, r4
   823b0:	4629      	mov	r1, r5
   823b2:	f000 f885 	bl	824c0 <__ieee754_sqrt>
   823b6:	a332      	add	r3, pc, #200	; (adr r3, 82480 <__ieee754_acos+0x478>)
   823b8:	e9d3 2300 	ldrd	r2, r3, [r3]
   823bc:	4606      	mov	r6, r0
   823be:	460f      	mov	r7, r1
   823c0:	4620      	mov	r0, r4
   823c2:	4629      	mov	r1, r5
   823c4:	f000 fb28 	bl	82a18 <__aeabi_dmul>
   823c8:	a32f      	add	r3, pc, #188	; (adr r3, 82488 <__ieee754_acos+0x480>)
   823ca:	e9d3 2300 	ldrd	r2, r3, [r3]
   823ce:	f000 f96f 	bl	826b0 <__aeabi_dsub>
   823d2:	4622      	mov	r2, r4
   823d4:	462b      	mov	r3, r5
   823d6:	f000 fb1f 	bl	82a18 <__aeabi_dmul>
   823da:	a32d      	add	r3, pc, #180	; (adr r3, 82490 <__ieee754_acos+0x488>)
   823dc:	e9d3 2300 	ldrd	r2, r3, [r3]
   823e0:	f000 f968 	bl	826b4 <__adddf3>
   823e4:	4622      	mov	r2, r4
   823e6:	462b      	mov	r3, r5
   823e8:	f000 fb16 	bl	82a18 <__aeabi_dmul>
   823ec:	a32a      	add	r3, pc, #168	; (adr r3, 82498 <__ieee754_acos+0x490>)
   823ee:	e9d3 2300 	ldrd	r2, r3, [r3]
   823f2:	f000 f95d 	bl	826b0 <__aeabi_dsub>
   823f6:	4622      	mov	r2, r4
   823f8:	462b      	mov	r3, r5
   823fa:	f000 fb0d 	bl	82a18 <__aeabi_dmul>
   823fe:	2200      	movs	r2, #0
   82400:	4b2d      	ldr	r3, [pc, #180]	; (824b8 <__ieee754_acos+0x4b0>)
   82402:	f000 f957 	bl	826b4 <__adddf3>
   82406:	4602      	mov	r2, r0
   82408:	460b      	mov	r3, r1
   8240a:	4640      	mov	r0, r8
   8240c:	4649      	mov	r1, r9
   8240e:	f000 fc2d 	bl	82c6c <__aeabi_ddiv>
   82412:	4632      	mov	r2, r6
   82414:	463b      	mov	r3, r7
   82416:	f000 faff 	bl	82a18 <__aeabi_dmul>
   8241a:	a321      	add	r3, pc, #132	; (adr r3, 824a0 <__ieee754_acos+0x498>)
   8241c:	e9d3 2300 	ldrd	r2, r3, [r3]
   82420:	f000 f946 	bl	826b0 <__aeabi_dsub>
   82424:	4602      	mov	r2, r0
   82426:	460b      	mov	r3, r1
   82428:	4630      	mov	r0, r6
   8242a:	4639      	mov	r1, r7
   8242c:	f000 f942 	bl	826b4 <__adddf3>
   82430:	4602      	mov	r2, r0
   82432:	460b      	mov	r3, r1
   82434:	f000 f93e 	bl	826b4 <__adddf3>
   82438:	4602      	mov	r2, r0
   8243a:	460b      	mov	r3, r1
   8243c:	a11c      	add	r1, pc, #112	; (adr r1, 824b0 <__ieee754_acos+0x4a8>)
   8243e:	e9d1 0100 	ldrd	r0, r1, [r1]
   82442:	f000 f935 	bl	826b0 <__aeabi_dsub>
   82446:	e8bd 8ff8 	ldmia.w	sp!, {r3, r4, r5, r6, r7, r8, r9, sl, fp, pc}
   8244a:	bf00      	nop
   8244c:	f3af 8000 	nop.w
   82450:	0dfdf709 	.word	0x0dfdf709
   82454:	3f023de1 	.word	0x3f023de1
   82458:	7501b288 	.word	0x7501b288
   8245c:	3f49efe0 	.word	0x3f49efe0
   82460:	b5688f3b 	.word	0xb5688f3b
   82464:	3fa48228 	.word	0x3fa48228
   82468:	0e884455 	.word	0x0e884455
   8246c:	3fc9c155 	.word	0x3fc9c155
   82470:	03eb6f7d 	.word	0x03eb6f7d
   82474:	3fd4d612 	.word	0x3fd4d612
   82478:	55555555 	.word	0x55555555
   8247c:	3fc55555 	.word	0x3fc55555
   82480:	b12e9282 	.word	0xb12e9282
   82484:	3fb3b8c5 	.word	0x3fb3b8c5
   82488:	1b8d0159 	.word	0x1b8d0159
   8248c:	3fe6066c 	.word	0x3fe6066c
   82490:	9c598ac8 	.word	0x9c598ac8
   82494:	40002ae5 	.word	0x40002ae5
   82498:	1c8a2d4b 	.word	0x1c8a2d4b
   8249c:	40033a27 	.word	0x40033a27
   824a0:	33145c07 	.word	0x33145c07
   824a4:	3c91a626 	.word	0x3c91a626
   824a8:	54442d18 	.word	0x54442d18
   824ac:	3ff921fb 	.word	0x3ff921fb
   824b0:	54442d18 	.word	0x54442d18
   824b4:	400921fb 	.word	0x400921fb
   824b8:	3ff00000 	.word	0x3ff00000
   824bc:	3fe00000 	.word	0x3fe00000

000824c0 <__ieee754_sqrt>:
   824c0:	f021 4c00 	bic.w	ip, r1, #2147483648	; 0x80000000
   824c4:	e92d 43f8 	stmdb	sp!, {r3, r4, r5, r6, r7, r8, r9, lr}
   824c8:	ea4f 5c1c 	mov.w	ip, ip, lsr #20
   824cc:	f8df 816c 	ldr.w	r8, [pc, #364]	; 8263c <__ieee754_sqrt+0x17c>
   824d0:	ea4f 5c0c 	mov.w	ip, ip, lsl #20
   824d4:	45c4      	cmp	ip, r8
   824d6:	4606      	mov	r6, r0
   824d8:	460f      	mov	r7, r1
   824da:	460b      	mov	r3, r1
   824dc:	4602      	mov	r2, r0
   824de:	f000 808f 	beq.w	82600 <__ieee754_sqrt+0x140>
   824e2:	2900      	cmp	r1, #0
   824e4:	dd6f      	ble.n	825c6 <__ieee754_sqrt+0x106>
   824e6:	150f      	asrs	r7, r1, #20
   824e8:	d078      	beq.n	825dc <__ieee754_sqrt+0x11c>
   824ea:	f2a7 37ff 	subw	r7, r7, #1023	; 0x3ff
   824ee:	f3c3 0313 	ubfx	r3, r3, #0, #20
   824f2:	07f9      	lsls	r1, r7, #31
   824f4:	f443 1380 	orr.w	r3, r3, #1048576	; 0x100000
   824f8:	d460      	bmi.n	825bc <__ieee754_sqrt+0xfc>
   824fa:	0fd1      	lsrs	r1, r2, #31
   824fc:	f04f 0c00 	mov.w	ip, #0
   82500:	eb01 0343 	add.w	r3, r1, r3, lsl #1
   82504:	107f      	asrs	r7, r7, #1
   82506:	0052      	lsls	r2, r2, #1
   82508:	4665      	mov	r5, ip
   8250a:	2016      	movs	r0, #22
   8250c:	f44f 1100 	mov.w	r1, #2097152	; 0x200000
   82510:	186c      	adds	r4, r5, r1
   82512:	429c      	cmp	r4, r3
   82514:	ea4f 76d2 	mov.w	r6, r2, lsr #31
   82518:	ea4f 0242 	mov.w	r2, r2, lsl #1
   8251c:	dc02      	bgt.n	82524 <__ieee754_sqrt+0x64>
   8251e:	1b1b      	subs	r3, r3, r4
   82520:	1865      	adds	r5, r4, r1
   82522:	448c      	add	ip, r1
   82524:	3801      	subs	r0, #1
   82526:	eb06 0343 	add.w	r3, r6, r3, lsl #1
   8252a:	ea4f 0151 	mov.w	r1, r1, lsr #1
   8252e:	d1ef      	bne.n	82510 <__ieee754_sqrt+0x50>
   82530:	4680      	mov	r8, r0
   82532:	2620      	movs	r6, #32
   82534:	f04f 4100 	mov.w	r1, #2147483648	; 0x80000000
   82538:	e009      	b.n	8254e <__ieee754_sqrt+0x8e>
   8253a:	d023      	beq.n	82584 <__ieee754_sqrt+0xc4>
   8253c:	0fd4      	lsrs	r4, r2, #31
   8253e:	3e01      	subs	r6, #1
   82540:	ea4f 0151 	mov.w	r1, r1, lsr #1
   82544:	eb04 0343 	add.w	r3, r4, r3, lsl #1
   82548:	ea4f 0242 	mov.w	r2, r2, lsl #1
   8254c:	d01e      	beq.n	8258c <__ieee754_sqrt+0xcc>
   8254e:	42ab      	cmp	r3, r5
   82550:	eb01 0408 	add.w	r4, r1, r8
   82554:	ddf1      	ble.n	8253a <__ieee754_sqrt+0x7a>
   82556:	f004 4900 	and.w	r9, r4, #2147483648	; 0x80000000
   8255a:	f1b9 4f00 	cmp.w	r9, #2147483648	; 0x80000000
   8255e:	eb04 0801 	add.w	r8, r4, r1
   82562:	d009      	beq.n	82578 <__ieee754_sqrt+0xb8>
   82564:	46a9      	mov	r9, r5
   82566:	1b5b      	subs	r3, r3, r5
   82568:	4294      	cmp	r4, r2
   8256a:	bf88      	it	hi
   8256c:	f103 33ff 	addhi.w	r3, r3, #4294967295
   82570:	1b12      	subs	r2, r2, r4
   82572:	4408      	add	r0, r1
   82574:	464d      	mov	r5, r9
   82576:	e7e1      	b.n	8253c <__ieee754_sqrt+0x7c>
   82578:	f1b8 0f00 	cmp.w	r8, #0
   8257c:	dbf2      	blt.n	82564 <__ieee754_sqrt+0xa4>
   8257e:	f105 0901 	add.w	r9, r5, #1
   82582:	e7f0      	b.n	82566 <__ieee754_sqrt+0xa6>
   82584:	4294      	cmp	r4, r2
   82586:	d9e6      	bls.n	82556 <__ieee754_sqrt+0x96>
   82588:	461d      	mov	r5, r3
   8258a:	e7d7      	b.n	8253c <__ieee754_sqrt+0x7c>
   8258c:	431a      	orrs	r2, r3
   8258e:	d004      	beq.n	8259a <__ieee754_sqrt+0xda>
   82590:	1c43      	adds	r3, r0, #1
   82592:	d041      	beq.n	82618 <__ieee754_sqrt+0x158>
   82594:	f000 0301 	and.w	r3, r0, #1
   82598:	4418      	add	r0, r3
   8259a:	0846      	lsrs	r6, r0, #1
   8259c:	ea4f 036c 	mov.w	r3, ip, asr #1
   825a0:	f01c 0f01 	tst.w	ip, #1
   825a4:	f103 537f 	add.w	r3, r3, #1069547520	; 0x3fc00000
   825a8:	f503 1300 	add.w	r3, r3, #2097152	; 0x200000
   825ac:	bf18      	it	ne
   825ae:	f046 4600 	orrne.w	r6, r6, #2147483648	; 0x80000000
   825b2:	eb03 5107 	add.w	r1, r3, r7, lsl #20
   825b6:	4630      	mov	r0, r6
   825b8:	e8bd 83f8 	ldmia.w	sp!, {r3, r4, r5, r6, r7, r8, r9, pc}
   825bc:	0fd1      	lsrs	r1, r2, #31
   825be:	eb01 0343 	add.w	r3, r1, r3, lsl #1
   825c2:	0052      	lsls	r2, r2, #1
   825c4:	e799      	b.n	824fa <__ieee754_sqrt+0x3a>
   825c6:	f021 4300 	bic.w	r3, r1, #2147483648	; 0x80000000
   825ca:	4303      	orrs	r3, r0
   825cc:	d022      	beq.n	82614 <__ieee754_sqrt+0x154>
   825ce:	bb51      	cbnz	r1, 82626 <__ieee754_sqrt+0x166>
   825d0:	460f      	mov	r7, r1
   825d2:	0ad3      	lsrs	r3, r2, #11
   825d4:	3f15      	subs	r7, #21
   825d6:	0552      	lsls	r2, r2, #21
   825d8:	2b00      	cmp	r3, #0
   825da:	d0fa      	beq.n	825d2 <__ieee754_sqrt+0x112>
   825dc:	f413 1180 	ands.w	r1, r3, #1048576	; 0x100000
   825e0:	d11d      	bne.n	8261e <__ieee754_sqrt+0x15e>
   825e2:	005b      	lsls	r3, r3, #1
   825e4:	02d8      	lsls	r0, r3, #11
   825e6:	f101 0101 	add.w	r1, r1, #1
   825ea:	d5fa      	bpl.n	825e2 <__ieee754_sqrt+0x122>
   825ec:	f1c1 0001 	rsb	r0, r1, #1
   825f0:	f1c1 0420 	rsb	r4, r1, #32
   825f4:	fa22 f404 	lsr.w	r4, r2, r4
   825f8:	4407      	add	r7, r0
   825fa:	408a      	lsls	r2, r1
   825fc:	4323      	orrs	r3, r4
   825fe:	e774      	b.n	824ea <__ieee754_sqrt+0x2a>
   82600:	4602      	mov	r2, r0
   82602:	460b      	mov	r3, r1
   82604:	f000 fa08 	bl	82a18 <__aeabi_dmul>
   82608:	4632      	mov	r2, r6
   8260a:	463b      	mov	r3, r7
   8260c:	f000 f852 	bl	826b4 <__adddf3>
   82610:	e8bd 83f8 	ldmia.w	sp!, {r3, r4, r5, r6, r7, r8, r9, pc}
   82614:	e8bd 83f8 	ldmia.w	sp!, {r3, r4, r5, r6, r7, r8, r9, pc}
   82618:	f10c 0c01 	add.w	ip, ip, #1
   8261c:	e7be      	b.n	8259c <__ieee754_sqrt+0xdc>
   8261e:	2420      	movs	r4, #32
   82620:	2001      	movs	r0, #1
   82622:	2100      	movs	r1, #0
   82624:	e7e6      	b.n	825f4 <__ieee754_sqrt+0x134>
   82626:	4602      	mov	r2, r0
   82628:	460b      	mov	r3, r1
   8262a:	f000 f841 	bl	826b0 <__aeabi_dsub>
   8262e:	4602      	mov	r2, r0
   82630:	460b      	mov	r3, r1
   82632:	f000 fb1b 	bl	82c6c <__aeabi_ddiv>
   82636:	e8bd 83f8 	ldmia.w	sp!, {r3, r4, r5, r6, r7, r8, r9, pc}
   8263a:	bf00      	nop
   8263c:	7ff00000 	.word	0x7ff00000

00082640 <fabs>:
   82640:	f021 4100 	bic.w	r1, r1, #2147483648	; 0x80000000
   82644:	4770      	bx	lr
   82646:	bf00      	nop

00082648 <__fpclassifyd>:
   82648:	f031 4300 	bics.w	r3, r1, #2147483648	; 0x80000000
   8264c:	b410      	push	{r4}
   8264e:	d008      	beq.n	82662 <__fpclassifyd+0x1a>
   82650:	4a0f      	ldr	r2, [pc, #60]	; (82690 <__fpclassifyd+0x48>)
   82652:	f5a3 1480 	sub.w	r4, r3, #1048576	; 0x100000
   82656:	4294      	cmp	r4, r2
   82658:	d80a      	bhi.n	82670 <__fpclassifyd+0x28>
   8265a:	2004      	movs	r0, #4
   8265c:	f85d 4b04 	ldr.w	r4, [sp], #4
   82660:	4770      	bx	lr
   82662:	2800      	cmp	r0, #0
   82664:	bf0c      	ite	eq
   82666:	2002      	moveq	r0, #2
   82668:	2003      	movne	r0, #3
   8266a:	f85d 4b04 	ldr.w	r4, [sp], #4
   8266e:	4770      	bx	lr
   82670:	f5b3 1f80 	cmp.w	r3, #1048576	; 0x100000
   82674:	d201      	bcs.n	8267a <__fpclassifyd+0x32>
   82676:	2003      	movs	r0, #3
   82678:	e7f7      	b.n	8266a <__fpclassifyd+0x22>
   8267a:	4a06      	ldr	r2, [pc, #24]	; (82694 <__fpclassifyd+0x4c>)
   8267c:	4293      	cmp	r3, r2
   8267e:	d001      	beq.n	82684 <__fpclassifyd+0x3c>
   82680:	2000      	movs	r0, #0
   82682:	e7f2      	b.n	8266a <__fpclassifyd+0x22>
   82684:	f1d0 0001 	rsbs	r0, r0, #1
   82688:	bf38      	it	cc
   8268a:	2000      	movcc	r0, #0
   8268c:	e7ed      	b.n	8266a <__fpclassifyd+0x22>
   8268e:	bf00      	nop
   82690:	7fdfffff 	.word	0x7fdfffff
   82694:	7ff00000 	.word	0x7ff00000

00082698 <matherr>:
   82698:	2000      	movs	r0, #0
   8269a:	4770      	bx	lr

0008269c <nan>:
   8269c:	2000      	movs	r0, #0
   8269e:	4901      	ldr	r1, [pc, #4]	; (826a4 <nan+0x8>)
   826a0:	4770      	bx	lr
   826a2:	bf00      	nop
   826a4:	7ff80000 	.word	0x7ff80000

000826a8 <__aeabi_drsub>:
   826a8:	f081 4100 	eor.w	r1, r1, #2147483648	; 0x80000000
   826ac:	e002      	b.n	826b4 <__adddf3>
   826ae:	bf00      	nop

000826b0 <__aeabi_dsub>:
   826b0:	f083 4300 	eor.w	r3, r3, #2147483648	; 0x80000000

000826b4 <__adddf3>:
   826b4:	b530      	push	{r4, r5, lr}
   826b6:	ea4f 0441 	mov.w	r4, r1, lsl #1
   826ba:	ea4f 0543 	mov.w	r5, r3, lsl #1
   826be:	ea94 0f05 	teq	r4, r5
   826c2:	bf08      	it	eq
   826c4:	ea90 0f02 	teqeq	r0, r2
   826c8:	bf1f      	itttt	ne
   826ca:	ea54 0c00 	orrsne.w	ip, r4, r0
   826ce:	ea55 0c02 	orrsne.w	ip, r5, r2
   826d2:	ea7f 5c64 	mvnsne.w	ip, r4, asr #21
   826d6:	ea7f 5c65 	mvnsne.w	ip, r5, asr #21
   826da:	f000 80e2 	beq.w	828a2 <__adddf3+0x1ee>
   826de:	ea4f 5454 	mov.w	r4, r4, lsr #21
   826e2:	ebd4 5555 	rsbs	r5, r4, r5, lsr #21
   826e6:	bfb8      	it	lt
   826e8:	426d      	neglt	r5, r5
   826ea:	dd0c      	ble.n	82706 <__adddf3+0x52>
   826ec:	442c      	add	r4, r5
   826ee:	ea80 0202 	eor.w	r2, r0, r2
   826f2:	ea81 0303 	eor.w	r3, r1, r3
   826f6:	ea82 0000 	eor.w	r0, r2, r0
   826fa:	ea83 0101 	eor.w	r1, r3, r1
   826fe:	ea80 0202 	eor.w	r2, r0, r2
   82702:	ea81 0303 	eor.w	r3, r1, r3
   82706:	2d36      	cmp	r5, #54	; 0x36
   82708:	bf88      	it	hi
   8270a:	bd30      	pophi	{r4, r5, pc}
   8270c:	f011 4f00 	tst.w	r1, #2147483648	; 0x80000000
   82710:	ea4f 3101 	mov.w	r1, r1, lsl #12
   82714:	f44f 1c80 	mov.w	ip, #1048576	; 0x100000
   82718:	ea4c 3111 	orr.w	r1, ip, r1, lsr #12
   8271c:	d002      	beq.n	82724 <__adddf3+0x70>
   8271e:	4240      	negs	r0, r0
   82720:	eb61 0141 	sbc.w	r1, r1, r1, lsl #1
   82724:	f013 4f00 	tst.w	r3, #2147483648	; 0x80000000
   82728:	ea4f 3303 	mov.w	r3, r3, lsl #12
   8272c:	ea4c 3313 	orr.w	r3, ip, r3, lsr #12
   82730:	d002      	beq.n	82738 <__adddf3+0x84>
   82732:	4252      	negs	r2, r2
   82734:	eb63 0343 	sbc.w	r3, r3, r3, lsl #1
   82738:	ea94 0f05 	teq	r4, r5
   8273c:	f000 80a7 	beq.w	8288e <__adddf3+0x1da>
   82740:	f1a4 0401 	sub.w	r4, r4, #1
   82744:	f1d5 0e20 	rsbs	lr, r5, #32
   82748:	db0d      	blt.n	82766 <__adddf3+0xb2>
   8274a:	fa02 fc0e 	lsl.w	ip, r2, lr
   8274e:	fa22 f205 	lsr.w	r2, r2, r5
   82752:	1880      	adds	r0, r0, r2
   82754:	f141 0100 	adc.w	r1, r1, #0
   82758:	fa03 f20e 	lsl.w	r2, r3, lr
   8275c:	1880      	adds	r0, r0, r2
   8275e:	fa43 f305 	asr.w	r3, r3, r5
   82762:	4159      	adcs	r1, r3
   82764:	e00e      	b.n	82784 <__adddf3+0xd0>
   82766:	f1a5 0520 	sub.w	r5, r5, #32
   8276a:	f10e 0e20 	add.w	lr, lr, #32
   8276e:	2a01      	cmp	r2, #1
   82770:	fa03 fc0e 	lsl.w	ip, r3, lr
   82774:	bf28      	it	cs
   82776:	f04c 0c02 	orrcs.w	ip, ip, #2
   8277a:	fa43 f305 	asr.w	r3, r3, r5
   8277e:	18c0      	adds	r0, r0, r3
   82780:	eb51 71e3 	adcs.w	r1, r1, r3, asr #31
   82784:	f001 4500 	and.w	r5, r1, #2147483648	; 0x80000000
   82788:	d507      	bpl.n	8279a <__adddf3+0xe6>
   8278a:	f04f 0e00 	mov.w	lr, #0
   8278e:	f1dc 0c00 	rsbs	ip, ip, #0
   82792:	eb7e 0000 	sbcs.w	r0, lr, r0
   82796:	eb6e 0101 	sbc.w	r1, lr, r1
   8279a:	f5b1 1f80 	cmp.w	r1, #1048576	; 0x100000
   8279e:	d31b      	bcc.n	827d8 <__adddf3+0x124>
   827a0:	f5b1 1f00 	cmp.w	r1, #2097152	; 0x200000
   827a4:	d30c      	bcc.n	827c0 <__adddf3+0x10c>
   827a6:	0849      	lsrs	r1, r1, #1
   827a8:	ea5f 0030 	movs.w	r0, r0, rrx
   827ac:	ea4f 0c3c 	mov.w	ip, ip, rrx
   827b0:	f104 0401 	add.w	r4, r4, #1
   827b4:	ea4f 5244 	mov.w	r2, r4, lsl #21
   827b8:	f512 0f80 	cmn.w	r2, #4194304	; 0x400000
   827bc:	f080 809a 	bcs.w	828f4 <__adddf3+0x240>
   827c0:	f1bc 4f00 	cmp.w	ip, #2147483648	; 0x80000000
   827c4:	bf08      	it	eq
   827c6:	ea5f 0c50 	movseq.w	ip, r0, lsr #1
   827ca:	f150 0000 	adcs.w	r0, r0, #0
   827ce:	eb41 5104 	adc.w	r1, r1, r4, lsl #20
   827d2:	ea41 0105 	orr.w	r1, r1, r5
   827d6:	bd30      	pop	{r4, r5, pc}
   827d8:	ea5f 0c4c 	movs.w	ip, ip, lsl #1
   827dc:	4140      	adcs	r0, r0
   827de:	eb41 0101 	adc.w	r1, r1, r1
   827e2:	f411 1f80 	tst.w	r1, #1048576	; 0x100000
   827e6:	f1a4 0401 	sub.w	r4, r4, #1
   827ea:	d1e9      	bne.n	827c0 <__adddf3+0x10c>
   827ec:	f091 0f00 	teq	r1, #0
   827f0:	bf04      	itt	eq
   827f2:	4601      	moveq	r1, r0
   827f4:	2000      	moveq	r0, #0
   827f6:	fab1 f381 	clz	r3, r1
   827fa:	bf08      	it	eq
   827fc:	3320      	addeq	r3, #32
   827fe:	f1a3 030b 	sub.w	r3, r3, #11
   82802:	f1b3 0220 	subs.w	r2, r3, #32
   82806:	da0c      	bge.n	82822 <__adddf3+0x16e>
   82808:	320c      	adds	r2, #12
   8280a:	dd08      	ble.n	8281e <__adddf3+0x16a>
   8280c:	f102 0c14 	add.w	ip, r2, #20
   82810:	f1c2 020c 	rsb	r2, r2, #12
   82814:	fa01 f00c 	lsl.w	r0, r1, ip
   82818:	fa21 f102 	lsr.w	r1, r1, r2
   8281c:	e00c      	b.n	82838 <__adddf3+0x184>
   8281e:	f102 0214 	add.w	r2, r2, #20
   82822:	bfd8      	it	le
   82824:	f1c2 0c20 	rsble	ip, r2, #32
   82828:	fa01 f102 	lsl.w	r1, r1, r2
   8282c:	fa20 fc0c 	lsr.w	ip, r0, ip
   82830:	bfdc      	itt	le
   82832:	ea41 010c 	orrle.w	r1, r1, ip
   82836:	4090      	lslle	r0, r2
   82838:	1ae4      	subs	r4, r4, r3
   8283a:	bfa2      	ittt	ge
   8283c:	eb01 5104 	addge.w	r1, r1, r4, lsl #20
   82840:	4329      	orrge	r1, r5
   82842:	bd30      	popge	{r4, r5, pc}
   82844:	ea6f 0404 	mvn.w	r4, r4
   82848:	3c1f      	subs	r4, #31
   8284a:	da1c      	bge.n	82886 <__adddf3+0x1d2>
   8284c:	340c      	adds	r4, #12
   8284e:	dc0e      	bgt.n	8286e <__adddf3+0x1ba>
   82850:	f104 0414 	add.w	r4, r4, #20
   82854:	f1c4 0220 	rsb	r2, r4, #32
   82858:	fa20 f004 	lsr.w	r0, r0, r4
   8285c:	fa01 f302 	lsl.w	r3, r1, r2
   82860:	ea40 0003 	orr.w	r0, r0, r3
   82864:	fa21 f304 	lsr.w	r3, r1, r4
   82868:	ea45 0103 	orr.w	r1, r5, r3
   8286c:	bd30      	pop	{r4, r5, pc}
   8286e:	f1c4 040c 	rsb	r4, r4, #12
   82872:	f1c4 0220 	rsb	r2, r4, #32
   82876:	fa20 f002 	lsr.w	r0, r0, r2
   8287a:	fa01 f304 	lsl.w	r3, r1, r4
   8287e:	ea40 0003 	orr.w	r0, r0, r3
   82882:	4629      	mov	r1, r5
   82884:	bd30      	pop	{r4, r5, pc}
   82886:	fa21 f004 	lsr.w	r0, r1, r4
   8288a:	4629      	mov	r1, r5
   8288c:	bd30      	pop	{r4, r5, pc}
   8288e:	f094 0f00 	teq	r4, #0
   82892:	f483 1380 	eor.w	r3, r3, #1048576	; 0x100000
   82896:	bf06      	itte	eq
   82898:	f481 1180 	eoreq.w	r1, r1, #1048576	; 0x100000
   8289c:	3401      	addeq	r4, #1
   8289e:	3d01      	subne	r5, #1
   828a0:	e74e      	b.n	82740 <__adddf3+0x8c>
   828a2:	ea7f 5c64 	mvns.w	ip, r4, asr #21
   828a6:	bf18      	it	ne
   828a8:	ea7f 5c65 	mvnsne.w	ip, r5, asr #21
   828ac:	d029      	beq.n	82902 <__adddf3+0x24e>
   828ae:	ea94 0f05 	teq	r4, r5
   828b2:	bf08      	it	eq
   828b4:	ea90 0f02 	teqeq	r0, r2
   828b8:	d005      	beq.n	828c6 <__adddf3+0x212>
   828ba:	ea54 0c00 	orrs.w	ip, r4, r0
   828be:	bf04      	itt	eq
   828c0:	4619      	moveq	r1, r3
   828c2:	4610      	moveq	r0, r2
   828c4:	bd30      	pop	{r4, r5, pc}
   828c6:	ea91 0f03 	teq	r1, r3
   828ca:	bf1e      	ittt	ne
   828cc:	2100      	movne	r1, #0
   828ce:	2000      	movne	r0, #0
   828d0:	bd30      	popne	{r4, r5, pc}
   828d2:	ea5f 5c54 	movs.w	ip, r4, lsr #21
   828d6:	d105      	bne.n	828e4 <__adddf3+0x230>
   828d8:	0040      	lsls	r0, r0, #1
   828da:	4149      	adcs	r1, r1
   828dc:	bf28      	it	cs
   828de:	f041 4100 	orrcs.w	r1, r1, #2147483648	; 0x80000000
   828e2:	bd30      	pop	{r4, r5, pc}
   828e4:	f514 0480 	adds.w	r4, r4, #4194304	; 0x400000
   828e8:	bf3c      	itt	cc
   828ea:	f501 1180 	addcc.w	r1, r1, #1048576	; 0x100000
   828ee:	bd30      	popcc	{r4, r5, pc}
   828f0:	f001 4500 	and.w	r5, r1, #2147483648	; 0x80000000
   828f4:	f045 41fe 	orr.w	r1, r5, #2130706432	; 0x7f000000
   828f8:	f441 0170 	orr.w	r1, r1, #15728640	; 0xf00000
   828fc:	f04f 0000 	mov.w	r0, #0
   82900:	bd30      	pop	{r4, r5, pc}
   82902:	ea7f 5c64 	mvns.w	ip, r4, asr #21
   82906:	bf1a      	itte	ne
   82908:	4619      	movne	r1, r3
   8290a:	4610      	movne	r0, r2
   8290c:	ea7f 5c65 	mvnseq.w	ip, r5, asr #21
   82910:	bf1c      	itt	ne
   82912:	460b      	movne	r3, r1
   82914:	4602      	movne	r2, r0
   82916:	ea50 3401 	orrs.w	r4, r0, r1, lsl #12
   8291a:	bf06      	itte	eq
   8291c:	ea52 3503 	orrseq.w	r5, r2, r3, lsl #12
   82920:	ea91 0f03 	teqeq	r1, r3
   82924:	f441 2100 	orrne.w	r1, r1, #524288	; 0x80000
   82928:	bd30      	pop	{r4, r5, pc}
   8292a:	bf00      	nop

0008292c <__aeabi_ui2d>:
   8292c:	f090 0f00 	teq	r0, #0
   82930:	bf04      	itt	eq
   82932:	2100      	moveq	r1, #0
   82934:	4770      	bxeq	lr
   82936:	b530      	push	{r4, r5, lr}
   82938:	f44f 6480 	mov.w	r4, #1024	; 0x400
   8293c:	f104 0432 	add.w	r4, r4, #50	; 0x32
   82940:	f04f 0500 	mov.w	r5, #0
   82944:	f04f 0100 	mov.w	r1, #0
   82948:	e750      	b.n	827ec <__adddf3+0x138>
   8294a:	bf00      	nop

0008294c <__aeabi_i2d>:
   8294c:	f090 0f00 	teq	r0, #0
   82950:	bf04      	itt	eq
   82952:	2100      	moveq	r1, #0
   82954:	4770      	bxeq	lr
   82956:	b530      	push	{r4, r5, lr}
   82958:	f44f 6480 	mov.w	r4, #1024	; 0x400
   8295c:	f104 0432 	add.w	r4, r4, #50	; 0x32
   82960:	f010 4500 	ands.w	r5, r0, #2147483648	; 0x80000000
   82964:	bf48      	it	mi
   82966:	4240      	negmi	r0, r0
   82968:	f04f 0100 	mov.w	r1, #0
   8296c:	e73e      	b.n	827ec <__adddf3+0x138>
   8296e:	bf00      	nop

00082970 <__aeabi_f2d>:
   82970:	0042      	lsls	r2, r0, #1
   82972:	ea4f 01e2 	mov.w	r1, r2, asr #3
   82976:	ea4f 0131 	mov.w	r1, r1, rrx
   8297a:	ea4f 7002 	mov.w	r0, r2, lsl #28
   8297e:	bf1f      	itttt	ne
   82980:	f012 437f 	andsne.w	r3, r2, #4278190080	; 0xff000000
   82984:	f093 4f7f 	teqne	r3, #4278190080	; 0xff000000
   82988:	f081 5160 	eorne.w	r1, r1, #939524096	; 0x38000000
   8298c:	4770      	bxne	lr
   8298e:	f092 0f00 	teq	r2, #0
   82992:	bf14      	ite	ne
   82994:	f093 4f7f 	teqne	r3, #4278190080	; 0xff000000
   82998:	4770      	bxeq	lr
   8299a:	b530      	push	{r4, r5, lr}
   8299c:	f44f 7460 	mov.w	r4, #896	; 0x380
   829a0:	f001 4500 	and.w	r5, r1, #2147483648	; 0x80000000
   829a4:	f021 4100 	bic.w	r1, r1, #2147483648	; 0x80000000
   829a8:	e720      	b.n	827ec <__adddf3+0x138>
   829aa:	bf00      	nop

000829ac <__aeabi_ul2d>:
   829ac:	ea50 0201 	orrs.w	r2, r0, r1
   829b0:	bf08      	it	eq
   829b2:	4770      	bxeq	lr
   829b4:	b530      	push	{r4, r5, lr}
   829b6:	f04f 0500 	mov.w	r5, #0
   829ba:	e00a      	b.n	829d2 <__aeabi_l2d+0x16>

000829bc <__aeabi_l2d>:
   829bc:	ea50 0201 	orrs.w	r2, r0, r1
   829c0:	bf08      	it	eq
   829c2:	4770      	bxeq	lr
   829c4:	b530      	push	{r4, r5, lr}
   829c6:	f011 4500 	ands.w	r5, r1, #2147483648	; 0x80000000
   829ca:	d502      	bpl.n	829d2 <__aeabi_l2d+0x16>
   829cc:	4240      	negs	r0, r0
   829ce:	eb61 0141 	sbc.w	r1, r1, r1, lsl #1
   829d2:	f44f 6480 	mov.w	r4, #1024	; 0x400
   829d6:	f104 0432 	add.w	r4, r4, #50	; 0x32
   829da:	ea5f 5c91 	movs.w	ip, r1, lsr #22
   829de:	f43f aedc 	beq.w	8279a <__adddf3+0xe6>
   829e2:	f04f 0203 	mov.w	r2, #3
   829e6:	ea5f 0cdc 	movs.w	ip, ip, lsr #3
   829ea:	bf18      	it	ne
   829ec:	3203      	addne	r2, #3
   829ee:	ea5f 0cdc 	movs.w	ip, ip, lsr #3
   829f2:	bf18      	it	ne
   829f4:	3203      	addne	r2, #3
   829f6:	eb02 02dc 	add.w	r2, r2, ip, lsr #3
   829fa:	f1c2 0320 	rsb	r3, r2, #32
   829fe:	fa00 fc03 	lsl.w	ip, r0, r3
   82a02:	fa20 f002 	lsr.w	r0, r0, r2
   82a06:	fa01 fe03 	lsl.w	lr, r1, r3
   82a0a:	ea40 000e 	orr.w	r0, r0, lr
   82a0e:	fa21 f102 	lsr.w	r1, r1, r2
   82a12:	4414      	add	r4, r2
   82a14:	e6c1      	b.n	8279a <__adddf3+0xe6>
   82a16:	bf00      	nop

00082a18 <__aeabi_dmul>:
   82a18:	b570      	push	{r4, r5, r6, lr}
   82a1a:	f04f 0cff 	mov.w	ip, #255	; 0xff
   82a1e:	f44c 6ce0 	orr.w	ip, ip, #1792	; 0x700
   82a22:	ea1c 5411 	ands.w	r4, ip, r1, lsr #20
   82a26:	bf1d      	ittte	ne
   82a28:	ea1c 5513 	andsne.w	r5, ip, r3, lsr #20
   82a2c:	ea94 0f0c 	teqne	r4, ip
   82a30:	ea95 0f0c 	teqne	r5, ip
   82a34:	f000 f8de 	bleq	82bf4 <__aeabi_dmul+0x1dc>
   82a38:	442c      	add	r4, r5
   82a3a:	ea81 0603 	eor.w	r6, r1, r3
   82a3e:	ea21 514c 	bic.w	r1, r1, ip, lsl #21
   82a42:	ea23 534c 	bic.w	r3, r3, ip, lsl #21
   82a46:	ea50 3501 	orrs.w	r5, r0, r1, lsl #12
   82a4a:	bf18      	it	ne
   82a4c:	ea52 3503 	orrsne.w	r5, r2, r3, lsl #12
   82a50:	f441 1180 	orr.w	r1, r1, #1048576	; 0x100000
   82a54:	f443 1380 	orr.w	r3, r3, #1048576	; 0x100000
   82a58:	d038      	beq.n	82acc <__aeabi_dmul+0xb4>
   82a5a:	fba0 ce02 	umull	ip, lr, r0, r2
   82a5e:	f04f 0500 	mov.w	r5, #0
   82a62:	fbe1 e502 	umlal	lr, r5, r1, r2
   82a66:	f006 4200 	and.w	r2, r6, #2147483648	; 0x80000000
   82a6a:	fbe0 e503 	umlal	lr, r5, r0, r3
   82a6e:	f04f 0600 	mov.w	r6, #0
   82a72:	fbe1 5603 	umlal	r5, r6, r1, r3
   82a76:	f09c 0f00 	teq	ip, #0
   82a7a:	bf18      	it	ne
   82a7c:	f04e 0e01 	orrne.w	lr, lr, #1
   82a80:	f1a4 04ff 	sub.w	r4, r4, #255	; 0xff
   82a84:	f5b6 7f00 	cmp.w	r6, #512	; 0x200
   82a88:	f564 7440 	sbc.w	r4, r4, #768	; 0x300
   82a8c:	d204      	bcs.n	82a98 <__aeabi_dmul+0x80>
   82a8e:	ea5f 0e4e 	movs.w	lr, lr, lsl #1
   82a92:	416d      	adcs	r5, r5
   82a94:	eb46 0606 	adc.w	r6, r6, r6
   82a98:	ea42 21c6 	orr.w	r1, r2, r6, lsl #11
   82a9c:	ea41 5155 	orr.w	r1, r1, r5, lsr #21
   82aa0:	ea4f 20c5 	mov.w	r0, r5, lsl #11
   82aa4:	ea40 505e 	orr.w	r0, r0, lr, lsr #21
   82aa8:	ea4f 2ece 	mov.w	lr, lr, lsl #11
   82aac:	f1b4 0cfd 	subs.w	ip, r4, #253	; 0xfd
   82ab0:	bf88      	it	hi
   82ab2:	f5bc 6fe0 	cmphi.w	ip, #1792	; 0x700
   82ab6:	d81e      	bhi.n	82af6 <__aeabi_dmul+0xde>
   82ab8:	f1be 4f00 	cmp.w	lr, #2147483648	; 0x80000000
   82abc:	bf08      	it	eq
   82abe:	ea5f 0e50 	movseq.w	lr, r0, lsr #1
   82ac2:	f150 0000 	adcs.w	r0, r0, #0
   82ac6:	eb41 5104 	adc.w	r1, r1, r4, lsl #20
   82aca:	bd70      	pop	{r4, r5, r6, pc}
   82acc:	f006 4600 	and.w	r6, r6, #2147483648	; 0x80000000
   82ad0:	ea46 0101 	orr.w	r1, r6, r1
   82ad4:	ea40 0002 	orr.w	r0, r0, r2
   82ad8:	ea81 0103 	eor.w	r1, r1, r3
   82adc:	ebb4 045c 	subs.w	r4, r4, ip, lsr #1
   82ae0:	bfc2      	ittt	gt
   82ae2:	ebd4 050c 	rsbsgt	r5, r4, ip
   82ae6:	ea41 5104 	orrgt.w	r1, r1, r4, lsl #20
   82aea:	bd70      	popgt	{r4, r5, r6, pc}
   82aec:	f441 1180 	orr.w	r1, r1, #1048576	; 0x100000
   82af0:	f04f 0e00 	mov.w	lr, #0
   82af4:	3c01      	subs	r4, #1
   82af6:	f300 80ab 	bgt.w	82c50 <__aeabi_dmul+0x238>
   82afa:	f114 0f36 	cmn.w	r4, #54	; 0x36
   82afe:	bfde      	ittt	le
   82b00:	2000      	movle	r0, #0
   82b02:	f001 4100 	andle.w	r1, r1, #2147483648	; 0x80000000
   82b06:	bd70      	pople	{r4, r5, r6, pc}
   82b08:	f1c4 0400 	rsb	r4, r4, #0
   82b0c:	3c20      	subs	r4, #32
   82b0e:	da35      	bge.n	82b7c <__aeabi_dmul+0x164>
   82b10:	340c      	adds	r4, #12
   82b12:	dc1b      	bgt.n	82b4c <__aeabi_dmul+0x134>
   82b14:	f104 0414 	add.w	r4, r4, #20
   82b18:	f1c4 0520 	rsb	r5, r4, #32
   82b1c:	fa00 f305 	lsl.w	r3, r0, r5
   82b20:	fa20 f004 	lsr.w	r0, r0, r4
   82b24:	fa01 f205 	lsl.w	r2, r1, r5
   82b28:	ea40 0002 	orr.w	r0, r0, r2
   82b2c:	f001 4200 	and.w	r2, r1, #2147483648	; 0x80000000
   82b30:	f021 4100 	bic.w	r1, r1, #2147483648	; 0x80000000
   82b34:	eb10 70d3 	adds.w	r0, r0, r3, lsr #31
   82b38:	fa21 f604 	lsr.w	r6, r1, r4
   82b3c:	eb42 0106 	adc.w	r1, r2, r6
   82b40:	ea5e 0e43 	orrs.w	lr, lr, r3, lsl #1
   82b44:	bf08      	it	eq
   82b46:	ea20 70d3 	biceq.w	r0, r0, r3, lsr #31
   82b4a:	bd70      	pop	{r4, r5, r6, pc}
   82b4c:	f1c4 040c 	rsb	r4, r4, #12
   82b50:	f1c4 0520 	rsb	r5, r4, #32
   82b54:	fa00 f304 	lsl.w	r3, r0, r4
   82b58:	fa20 f005 	lsr.w	r0, r0, r5
   82b5c:	fa01 f204 	lsl.w	r2, r1, r4
   82b60:	ea40 0002 	orr.w	r0, r0, r2
   82b64:	f001 4100 	and.w	r1, r1, #2147483648	; 0x80000000
   82b68:	eb10 70d3 	adds.w	r0, r0, r3, lsr #31
   82b6c:	f141 0100 	adc.w	r1, r1, #0
   82b70:	ea5e 0e43 	orrs.w	lr, lr, r3, lsl #1
   82b74:	bf08      	it	eq
   82b76:	ea20 70d3 	biceq.w	r0, r0, r3, lsr #31
   82b7a:	bd70      	pop	{r4, r5, r6, pc}
   82b7c:	f1c4 0520 	rsb	r5, r4, #32
   82b80:	fa00 f205 	lsl.w	r2, r0, r5
   82b84:	ea4e 0e02 	orr.w	lr, lr, r2
   82b88:	fa20 f304 	lsr.w	r3, r0, r4
   82b8c:	fa01 f205 	lsl.w	r2, r1, r5
   82b90:	ea43 0302 	orr.w	r3, r3, r2
   82b94:	fa21 f004 	lsr.w	r0, r1, r4
   82b98:	f001 4100 	and.w	r1, r1, #2147483648	; 0x80000000
   82b9c:	fa21 f204 	lsr.w	r2, r1, r4
   82ba0:	ea20 0002 	bic.w	r0, r0, r2
   82ba4:	eb00 70d3 	add.w	r0, r0, r3, lsr #31
   82ba8:	ea5e 0e43 	orrs.w	lr, lr, r3, lsl #1
   82bac:	bf08      	it	eq
   82bae:	ea20 70d3 	biceq.w	r0, r0, r3, lsr #31
   82bb2:	bd70      	pop	{r4, r5, r6, pc}
   82bb4:	f094 0f00 	teq	r4, #0
   82bb8:	d10f      	bne.n	82bda <__aeabi_dmul+0x1c2>
   82bba:	f001 4600 	and.w	r6, r1, #2147483648	; 0x80000000
   82bbe:	0040      	lsls	r0, r0, #1
   82bc0:	eb41 0101 	adc.w	r1, r1, r1
   82bc4:	f411 1f80 	tst.w	r1, #1048576	; 0x100000
   82bc8:	bf08      	it	eq
   82bca:	3c01      	subeq	r4, #1
   82bcc:	d0f7      	beq.n	82bbe <__aeabi_dmul+0x1a6>
   82bce:	ea41 0106 	orr.w	r1, r1, r6
   82bd2:	f095 0f00 	teq	r5, #0
   82bd6:	bf18      	it	ne
   82bd8:	4770      	bxne	lr
   82bda:	f003 4600 	and.w	r6, r3, #2147483648	; 0x80000000
   82bde:	0052      	lsls	r2, r2, #1
   82be0:	eb43 0303 	adc.w	r3, r3, r3
   82be4:	f413 1f80 	tst.w	r3, #1048576	; 0x100000
   82be8:	bf08      	it	eq
   82bea:	3d01      	subeq	r5, #1
   82bec:	d0f7      	beq.n	82bde <__aeabi_dmul+0x1c6>
   82bee:	ea43 0306 	orr.w	r3, r3, r6
   82bf2:	4770      	bx	lr
   82bf4:	ea94 0f0c 	teq	r4, ip
   82bf8:	ea0c 5513 	and.w	r5, ip, r3, lsr #20
   82bfc:	bf18      	it	ne
   82bfe:	ea95 0f0c 	teqne	r5, ip
   82c02:	d00c      	beq.n	82c1e <__aeabi_dmul+0x206>
   82c04:	ea50 0641 	orrs.w	r6, r0, r1, lsl #1
   82c08:	bf18      	it	ne
   82c0a:	ea52 0643 	orrsne.w	r6, r2, r3, lsl #1
   82c0e:	d1d1      	bne.n	82bb4 <__aeabi_dmul+0x19c>
   82c10:	ea81 0103 	eor.w	r1, r1, r3
   82c14:	f001 4100 	and.w	r1, r1, #2147483648	; 0x80000000
   82c18:	f04f 0000 	mov.w	r0, #0
   82c1c:	bd70      	pop	{r4, r5, r6, pc}
   82c1e:	ea50 0641 	orrs.w	r6, r0, r1, lsl #1
   82c22:	bf06      	itte	eq
   82c24:	4610      	moveq	r0, r2
   82c26:	4619      	moveq	r1, r3
   82c28:	ea52 0643 	orrsne.w	r6, r2, r3, lsl #1
   82c2c:	d019      	beq.n	82c62 <__aeabi_dmul+0x24a>
   82c2e:	ea94 0f0c 	teq	r4, ip
   82c32:	d102      	bne.n	82c3a <__aeabi_dmul+0x222>
   82c34:	ea50 3601 	orrs.w	r6, r0, r1, lsl #12
   82c38:	d113      	bne.n	82c62 <__aeabi_dmul+0x24a>
   82c3a:	ea95 0f0c 	teq	r5, ip
   82c3e:	d105      	bne.n	82c4c <__aeabi_dmul+0x234>
   82c40:	ea52 3603 	orrs.w	r6, r2, r3, lsl #12
   82c44:	bf1c      	itt	ne
   82c46:	4610      	movne	r0, r2
   82c48:	4619      	movne	r1, r3
   82c4a:	d10a      	bne.n	82c62 <__aeabi_dmul+0x24a>
   82c4c:	ea81 0103 	eor.w	r1, r1, r3
   82c50:	f001 4100 	and.w	r1, r1, #2147483648	; 0x80000000
   82c54:	f041 41fe 	orr.w	r1, r1, #2130706432	; 0x7f000000
   82c58:	f441 0170 	orr.w	r1, r1, #15728640	; 0xf00000
   82c5c:	f04f 0000 	mov.w	r0, #0
   82c60:	bd70      	pop	{r4, r5, r6, pc}
   82c62:	f041 41fe 	orr.w	r1, r1, #2130706432	; 0x7f000000
   82c66:	f441 0178 	orr.w	r1, r1, #16252928	; 0xf80000
   82c6a:	bd70      	pop	{r4, r5, r6, pc}

00082c6c <__aeabi_ddiv>:
   82c6c:	b570      	push	{r4, r5, r6, lr}
   82c6e:	f04f 0cff 	mov.w	ip, #255	; 0xff
   82c72:	f44c 6ce0 	orr.w	ip, ip, #1792	; 0x700
   82c76:	ea1c 5411 	ands.w	r4, ip, r1, lsr #20
   82c7a:	bf1d      	ittte	ne
   82c7c:	ea1c 5513 	andsne.w	r5, ip, r3, lsr #20
   82c80:	ea94 0f0c 	teqne	r4, ip
   82c84:	ea95 0f0c 	teqne	r5, ip
   82c88:	f000 f8a7 	bleq	82dda <__aeabi_ddiv+0x16e>
   82c8c:	eba4 0405 	sub.w	r4, r4, r5
   82c90:	ea81 0e03 	eor.w	lr, r1, r3
   82c94:	ea52 3503 	orrs.w	r5, r2, r3, lsl #12
   82c98:	ea4f 3101 	mov.w	r1, r1, lsl #12
   82c9c:	f000 8088 	beq.w	82db0 <__aeabi_ddiv+0x144>
   82ca0:	ea4f 3303 	mov.w	r3, r3, lsl #12
   82ca4:	f04f 5580 	mov.w	r5, #268435456	; 0x10000000
   82ca8:	ea45 1313 	orr.w	r3, r5, r3, lsr #4
   82cac:	ea43 6312 	orr.w	r3, r3, r2, lsr #24
   82cb0:	ea4f 2202 	mov.w	r2, r2, lsl #8
   82cb4:	ea45 1511 	orr.w	r5, r5, r1, lsr #4
   82cb8:	ea45 6510 	orr.w	r5, r5, r0, lsr #24
   82cbc:	ea4f 2600 	mov.w	r6, r0, lsl #8
   82cc0:	f00e 4100 	and.w	r1, lr, #2147483648	; 0x80000000
   82cc4:	429d      	cmp	r5, r3
   82cc6:	bf08      	it	eq
   82cc8:	4296      	cmpeq	r6, r2
   82cca:	f144 04fd 	adc.w	r4, r4, #253	; 0xfd
   82cce:	f504 7440 	add.w	r4, r4, #768	; 0x300
   82cd2:	d202      	bcs.n	82cda <__aeabi_ddiv+0x6e>
   82cd4:	085b      	lsrs	r3, r3, #1
   82cd6:	ea4f 0232 	mov.w	r2, r2, rrx
   82cda:	1ab6      	subs	r6, r6, r2
   82cdc:	eb65 0503 	sbc.w	r5, r5, r3
   82ce0:	085b      	lsrs	r3, r3, #1
   82ce2:	ea4f 0232 	mov.w	r2, r2, rrx
   82ce6:	f44f 1080 	mov.w	r0, #1048576	; 0x100000
   82cea:	f44f 2c00 	mov.w	ip, #524288	; 0x80000
   82cee:	ebb6 0e02 	subs.w	lr, r6, r2
   82cf2:	eb75 0e03 	sbcs.w	lr, r5, r3
   82cf6:	bf22      	ittt	cs
   82cf8:	1ab6      	subcs	r6, r6, r2
   82cfa:	4675      	movcs	r5, lr
   82cfc:	ea40 000c 	orrcs.w	r0, r0, ip
   82d00:	085b      	lsrs	r3, r3, #1
   82d02:	ea4f 0232 	mov.w	r2, r2, rrx
   82d06:	ebb6 0e02 	subs.w	lr, r6, r2
   82d0a:	eb75 0e03 	sbcs.w	lr, r5, r3
   82d0e:	bf22      	ittt	cs
   82d10:	1ab6      	subcs	r6, r6, r2
   82d12:	4675      	movcs	r5, lr
   82d14:	ea40 005c 	orrcs.w	r0, r0, ip, lsr #1
   82d18:	085b      	lsrs	r3, r3, #1
   82d1a:	ea4f 0232 	mov.w	r2, r2, rrx
   82d1e:	ebb6 0e02 	subs.w	lr, r6, r2
   82d22:	eb75 0e03 	sbcs.w	lr, r5, r3
   82d26:	bf22      	ittt	cs
   82d28:	1ab6      	subcs	r6, r6, r2
   82d2a:	4675      	movcs	r5, lr
   82d2c:	ea40 009c 	orrcs.w	r0, r0, ip, lsr #2
   82d30:	085b      	lsrs	r3, r3, #1
   82d32:	ea4f 0232 	mov.w	r2, r2, rrx
   82d36:	ebb6 0e02 	subs.w	lr, r6, r2
   82d3a:	eb75 0e03 	sbcs.w	lr, r5, r3
   82d3e:	bf22      	ittt	cs
   82d40:	1ab6      	subcs	r6, r6, r2
   82d42:	4675      	movcs	r5, lr
   82d44:	ea40 00dc 	orrcs.w	r0, r0, ip, lsr #3
   82d48:	ea55 0e06 	orrs.w	lr, r5, r6
   82d4c:	d018      	beq.n	82d80 <__aeabi_ddiv+0x114>
   82d4e:	ea4f 1505 	mov.w	r5, r5, lsl #4
   82d52:	ea45 7516 	orr.w	r5, r5, r6, lsr #28
   82d56:	ea4f 1606 	mov.w	r6, r6, lsl #4
   82d5a:	ea4f 03c3 	mov.w	r3, r3, lsl #3
   82d5e:	ea43 7352 	orr.w	r3, r3, r2, lsr #29
   82d62:	ea4f 02c2 	mov.w	r2, r2, lsl #3
   82d66:	ea5f 1c1c 	movs.w	ip, ip, lsr #4
   82d6a:	d1c0      	bne.n	82cee <__aeabi_ddiv+0x82>
   82d6c:	f411 1f80 	tst.w	r1, #1048576	; 0x100000
   82d70:	d10b      	bne.n	82d8a <__aeabi_ddiv+0x11e>
   82d72:	ea41 0100 	orr.w	r1, r1, r0
   82d76:	f04f 0000 	mov.w	r0, #0
   82d7a:	f04f 4c00 	mov.w	ip, #2147483648	; 0x80000000
   82d7e:	e7b6      	b.n	82cee <__aeabi_ddiv+0x82>
   82d80:	f411 1f80 	tst.w	r1, #1048576	; 0x100000
   82d84:	bf04      	itt	eq
   82d86:	4301      	orreq	r1, r0
   82d88:	2000      	moveq	r0, #0
   82d8a:	f1b4 0cfd 	subs.w	ip, r4, #253	; 0xfd
   82d8e:	bf88      	it	hi
   82d90:	f5bc 6fe0 	cmphi.w	ip, #1792	; 0x700
   82d94:	f63f aeaf 	bhi.w	82af6 <__aeabi_dmul+0xde>
   82d98:	ebb5 0c03 	subs.w	ip, r5, r3
   82d9c:	bf04      	itt	eq
   82d9e:	ebb6 0c02 	subseq.w	ip, r6, r2
   82da2:	ea5f 0c50 	movseq.w	ip, r0, lsr #1
   82da6:	f150 0000 	adcs.w	r0, r0, #0
   82daa:	eb41 5104 	adc.w	r1, r1, r4, lsl #20
   82dae:	bd70      	pop	{r4, r5, r6, pc}
   82db0:	f00e 4e00 	and.w	lr, lr, #2147483648	; 0x80000000
   82db4:	ea4e 3111 	orr.w	r1, lr, r1, lsr #12
   82db8:	eb14 045c 	adds.w	r4, r4, ip, lsr #1
   82dbc:	bfc2      	ittt	gt
   82dbe:	ebd4 050c 	rsbsgt	r5, r4, ip
   82dc2:	ea41 5104 	orrgt.w	r1, r1, r4, lsl #20
   82dc6:	bd70      	popgt	{r4, r5, r6, pc}
   82dc8:	f441 1180 	orr.w	r1, r1, #1048576	; 0x100000
   82dcc:	f04f 0e00 	mov.w	lr, #0
   82dd0:	3c01      	subs	r4, #1
   82dd2:	e690      	b.n	82af6 <__aeabi_dmul+0xde>
   82dd4:	ea45 0e06 	orr.w	lr, r5, r6
   82dd8:	e68d      	b.n	82af6 <__aeabi_dmul+0xde>
   82dda:	ea0c 5513 	and.w	r5, ip, r3, lsr #20
   82dde:	ea94 0f0c 	teq	r4, ip
   82de2:	bf08      	it	eq
   82de4:	ea95 0f0c 	teqeq	r5, ip
   82de8:	f43f af3b 	beq.w	82c62 <__aeabi_dmul+0x24a>
   82dec:	ea94 0f0c 	teq	r4, ip
   82df0:	d10a      	bne.n	82e08 <__aeabi_ddiv+0x19c>
   82df2:	ea50 3401 	orrs.w	r4, r0, r1, lsl #12
   82df6:	f47f af34 	bne.w	82c62 <__aeabi_dmul+0x24a>
   82dfa:	ea95 0f0c 	teq	r5, ip
   82dfe:	f47f af25 	bne.w	82c4c <__aeabi_dmul+0x234>
   82e02:	4610      	mov	r0, r2
   82e04:	4619      	mov	r1, r3
   82e06:	e72c      	b.n	82c62 <__aeabi_dmul+0x24a>
   82e08:	ea95 0f0c 	teq	r5, ip
   82e0c:	d106      	bne.n	82e1c <__aeabi_ddiv+0x1b0>
   82e0e:	ea52 3503 	orrs.w	r5, r2, r3, lsl #12
   82e12:	f43f aefd 	beq.w	82c10 <__aeabi_dmul+0x1f8>
   82e16:	4610      	mov	r0, r2
   82e18:	4619      	mov	r1, r3
   82e1a:	e722      	b.n	82c62 <__aeabi_dmul+0x24a>
   82e1c:	ea50 0641 	orrs.w	r6, r0, r1, lsl #1
   82e20:	bf18      	it	ne
   82e22:	ea52 0643 	orrsne.w	r6, r2, r3, lsl #1
   82e26:	f47f aec5 	bne.w	82bb4 <__aeabi_dmul+0x19c>
   82e2a:	ea50 0441 	orrs.w	r4, r0, r1, lsl #1
   82e2e:	f47f af0d 	bne.w	82c4c <__aeabi_dmul+0x234>
   82e32:	ea52 0543 	orrs.w	r5, r2, r3, lsl #1
   82e36:	f47f aeeb 	bne.w	82c10 <__aeabi_dmul+0x1f8>
   82e3a:	e712      	b.n	82c62 <__aeabi_dmul+0x24a>

00082e3c <__gedf2>:
   82e3c:	f04f 3cff 	mov.w	ip, #4294967295
   82e40:	e006      	b.n	82e50 <__cmpdf2+0x4>
   82e42:	bf00      	nop

00082e44 <__ledf2>:
   82e44:	f04f 0c01 	mov.w	ip, #1
   82e48:	e002      	b.n	82e50 <__cmpdf2+0x4>
   82e4a:	bf00      	nop

00082e4c <__cmpdf2>:
   82e4c:	f04f 0c01 	mov.w	ip, #1
   82e50:	f84d cd04 	str.w	ip, [sp, #-4]!
   82e54:	ea4f 0c41 	mov.w	ip, r1, lsl #1
   82e58:	ea7f 5c6c 	mvns.w	ip, ip, asr #21
   82e5c:	ea4f 0c43 	mov.w	ip, r3, lsl #1
   82e60:	bf18      	it	ne
   82e62:	ea7f 5c6c 	mvnsne.w	ip, ip, asr #21
   82e66:	d01b      	beq.n	82ea0 <__cmpdf2+0x54>
   82e68:	b001      	add	sp, #4
   82e6a:	ea50 0c41 	orrs.w	ip, r0, r1, lsl #1
   82e6e:	bf0c      	ite	eq
   82e70:	ea52 0c43 	orrseq.w	ip, r2, r3, lsl #1
   82e74:	ea91 0f03 	teqne	r1, r3
   82e78:	bf02      	ittt	eq
   82e7a:	ea90 0f02 	teqeq	r0, r2
   82e7e:	2000      	moveq	r0, #0
   82e80:	4770      	bxeq	lr
   82e82:	f110 0f00 	cmn.w	r0, #0
   82e86:	ea91 0f03 	teq	r1, r3
   82e8a:	bf58      	it	pl
   82e8c:	4299      	cmppl	r1, r3
   82e8e:	bf08      	it	eq
   82e90:	4290      	cmpeq	r0, r2
   82e92:	bf2c      	ite	cs
   82e94:	17d8      	asrcs	r0, r3, #31
   82e96:	ea6f 70e3 	mvncc.w	r0, r3, asr #31
   82e9a:	f040 0001 	orr.w	r0, r0, #1
   82e9e:	4770      	bx	lr
   82ea0:	ea4f 0c41 	mov.w	ip, r1, lsl #1
   82ea4:	ea7f 5c6c 	mvns.w	ip, ip, asr #21
   82ea8:	d102      	bne.n	82eb0 <__cmpdf2+0x64>
   82eaa:	ea50 3c01 	orrs.w	ip, r0, r1, lsl #12
   82eae:	d107      	bne.n	82ec0 <__cmpdf2+0x74>
   82eb0:	ea4f 0c43 	mov.w	ip, r3, lsl #1
   82eb4:	ea7f 5c6c 	mvns.w	ip, ip, asr #21
   82eb8:	d1d6      	bne.n	82e68 <__cmpdf2+0x1c>
   82eba:	ea52 3c03 	orrs.w	ip, r2, r3, lsl #12
   82ebe:	d0d3      	beq.n	82e68 <__cmpdf2+0x1c>
   82ec0:	f85d 0b04 	ldr.w	r0, [sp], #4
   82ec4:	4770      	bx	lr
   82ec6:	bf00      	nop

00082ec8 <__aeabi_cdrcmple>:
   82ec8:	4684      	mov	ip, r0
   82eca:	4610      	mov	r0, r2
   82ecc:	4662      	mov	r2, ip
   82ece:	468c      	mov	ip, r1
   82ed0:	4619      	mov	r1, r3
   82ed2:	4663      	mov	r3, ip
   82ed4:	e000      	b.n	82ed8 <__aeabi_cdcmpeq>
   82ed6:	bf00      	nop

00082ed8 <__aeabi_cdcmpeq>:
   82ed8:	b501      	push	{r0, lr}
   82eda:	f7ff ffb7 	bl	82e4c <__cmpdf2>
   82ede:	2800      	cmp	r0, #0
   82ee0:	bf48      	it	mi
   82ee2:	f110 0f00 	cmnmi.w	r0, #0
   82ee6:	bd01      	pop	{r0, pc}

00082ee8 <__aeabi_dcmpeq>:
   82ee8:	f84d ed08 	str.w	lr, [sp, #-8]!
   82eec:	f7ff fff4 	bl	82ed8 <__aeabi_cdcmpeq>
   82ef0:	bf0c      	ite	eq
   82ef2:	2001      	moveq	r0, #1
   82ef4:	2000      	movne	r0, #0
   82ef6:	f85d fb08 	ldr.w	pc, [sp], #8
   82efa:	bf00      	nop

00082efc <__aeabi_dcmplt>:
   82efc:	f84d ed08 	str.w	lr, [sp, #-8]!
   82f00:	f7ff ffea 	bl	82ed8 <__aeabi_cdcmpeq>
   82f04:	bf34      	ite	cc
   82f06:	2001      	movcc	r0, #1
   82f08:	2000      	movcs	r0, #0
   82f0a:	f85d fb08 	ldr.w	pc, [sp], #8
   82f0e:	bf00      	nop

00082f10 <__aeabi_dcmple>:
   82f10:	f84d ed08 	str.w	lr, [sp, #-8]!
   82f14:	f7ff ffe0 	bl	82ed8 <__aeabi_cdcmpeq>
   82f18:	bf94      	ite	ls
   82f1a:	2001      	movls	r0, #1
   82f1c:	2000      	movhi	r0, #0
   82f1e:	f85d fb08 	ldr.w	pc, [sp], #8
   82f22:	bf00      	nop

00082f24 <__aeabi_dcmpge>:
   82f24:	f84d ed08 	str.w	lr, [sp, #-8]!
   82f28:	f7ff ffce 	bl	82ec8 <__aeabi_cdrcmple>
   82f2c:	bf94      	ite	ls
   82f2e:	2001      	movls	r0, #1
   82f30:	2000      	movhi	r0, #0
   82f32:	f85d fb08 	ldr.w	pc, [sp], #8
   82f36:	bf00      	nop

00082f38 <__aeabi_dcmpgt>:
   82f38:	f84d ed08 	str.w	lr, [sp, #-8]!
   82f3c:	f7ff ffc4 	bl	82ec8 <__aeabi_cdrcmple>
   82f40:	bf34      	ite	cc
   82f42:	2001      	movcc	r0, #1
   82f44:	2000      	movcs	r0, #0
   82f46:	f85d fb08 	ldr.w	pc, [sp], #8
   82f4a:	bf00      	nop

00082f4c <__aeabi_d2iz>:
   82f4c:	ea4f 0241 	mov.w	r2, r1, lsl #1
   82f50:	f512 1200 	adds.w	r2, r2, #2097152	; 0x200000
   82f54:	d215      	bcs.n	82f82 <__aeabi_d2iz+0x36>
   82f56:	d511      	bpl.n	82f7c <__aeabi_d2iz+0x30>
   82f58:	f46f 7378 	mvn.w	r3, #992	; 0x3e0
   82f5c:	ebb3 5262 	subs.w	r2, r3, r2, asr #21
   82f60:	d912      	bls.n	82f88 <__aeabi_d2iz+0x3c>
   82f62:	ea4f 23c1 	mov.w	r3, r1, lsl #11
   82f66:	f043 4300 	orr.w	r3, r3, #2147483648	; 0x80000000
   82f6a:	ea43 5350 	orr.w	r3, r3, r0, lsr #21
   82f6e:	f011 4f00 	tst.w	r1, #2147483648	; 0x80000000
   82f72:	fa23 f002 	lsr.w	r0, r3, r2
   82f76:	bf18      	it	ne
   82f78:	4240      	negne	r0, r0
   82f7a:	4770      	bx	lr
   82f7c:	f04f 0000 	mov.w	r0, #0
   82f80:	4770      	bx	lr
   82f82:	ea50 3001 	orrs.w	r0, r0, r1, lsl #12
   82f86:	d105      	bne.n	82f94 <__aeabi_d2iz+0x48>
   82f88:	f011 4000 	ands.w	r0, r1, #2147483648	; 0x80000000
   82f8c:	bf08      	it	eq
   82f8e:	f06f 4000 	mvneq.w	r0, #2147483648	; 0x80000000
   82f92:	4770      	bx	lr
   82f94:	f04f 0000 	mov.w	r0, #0
   82f98:	4770      	bx	lr
   82f9a:	bf00      	nop

00082f9c <__errno>:
   82f9c:	4b01      	ldr	r3, [pc, #4]	; (82fa4 <__errno+0x8>)
   82f9e:	6818      	ldr	r0, [r3, #0]
   82fa0:	4770      	bx	lr
   82fa2:	bf00      	nop
   82fa4:	20070570 	.word	0x20070570

00082fa8 <__libc_init_array>:
   82fa8:	b570      	push	{r4, r5, r6, lr}
   82faa:	4e0f      	ldr	r6, [pc, #60]	; (82fe8 <__libc_init_array+0x40>)
   82fac:	4d0f      	ldr	r5, [pc, #60]	; (82fec <__libc_init_array+0x44>)
   82fae:	1b76      	subs	r6, r6, r5
   82fb0:	10b6      	asrs	r6, r6, #2
   82fb2:	d007      	beq.n	82fc4 <__libc_init_array+0x1c>
   82fb4:	3d04      	subs	r5, #4
   82fb6:	2400      	movs	r4, #0
   82fb8:	3401      	adds	r4, #1
   82fba:	f855 3f04 	ldr.w	r3, [r5, #4]!
   82fbe:	4798      	blx	r3
   82fc0:	42a6      	cmp	r6, r4
   82fc2:	d1f9      	bne.n	82fb8 <__libc_init_array+0x10>
   82fc4:	4e0a      	ldr	r6, [pc, #40]	; (82ff0 <__libc_init_array+0x48>)
   82fc6:	4d0b      	ldr	r5, [pc, #44]	; (82ff4 <__libc_init_array+0x4c>)
   82fc8:	f003 f89c 	bl	86104 <_init>
   82fcc:	1b76      	subs	r6, r6, r5
   82fce:	10b6      	asrs	r6, r6, #2
   82fd0:	d008      	beq.n	82fe4 <__libc_init_array+0x3c>
   82fd2:	3d04      	subs	r5, #4
   82fd4:	2400      	movs	r4, #0
   82fd6:	3401      	adds	r4, #1
   82fd8:	f855 3f04 	ldr.w	r3, [r5, #4]!
   82fdc:	4798      	blx	r3
   82fde:	42a6      	cmp	r6, r4
   82fe0:	d1f9      	bne.n	82fd6 <__libc_init_array+0x2e>
   82fe2:	bd70      	pop	{r4, r5, r6, pc}
   82fe4:	bd70      	pop	{r4, r5, r6, pc}
   82fe6:	bf00      	nop
   82fe8:	00086110 	.word	0x00086110
   82fec:	00086110 	.word	0x00086110
   82ff0:	00086118 	.word	0x00086118
   82ff4:	00086110 	.word	0x00086110

00082ff8 <iprintf>:
   82ff8:	b40f      	push	{r0, r1, r2, r3}
   82ffa:	b510      	push	{r4, lr}
   82ffc:	4b07      	ldr	r3, [pc, #28]	; (8301c <iprintf+0x24>)
   82ffe:	b082      	sub	sp, #8
   83000:	ac04      	add	r4, sp, #16
   83002:	f854 2b04 	ldr.w	r2, [r4], #4
   83006:	6818      	ldr	r0, [r3, #0]
   83008:	4623      	mov	r3, r4
   8300a:	6881      	ldr	r1, [r0, #8]
   8300c:	9401      	str	r4, [sp, #4]
   8300e:	f000 f923 	bl	83258 <_vfiprintf_r>
   83012:	b002      	add	sp, #8
   83014:	e8bd 4010 	ldmia.w	sp!, {r4, lr}
   83018:	b004      	add	sp, #16
   8301a:	4770      	bx	lr
   8301c:	20070570 	.word	0x20070570

00083020 <memset>:
   83020:	b4f0      	push	{r4, r5, r6, r7}
   83022:	0784      	lsls	r4, r0, #30
   83024:	d043      	beq.n	830ae <memset+0x8e>
   83026:	1e54      	subs	r4, r2, #1
   83028:	2a00      	cmp	r2, #0
   8302a:	d03e      	beq.n	830aa <memset+0x8a>
   8302c:	b2cd      	uxtb	r5, r1
   8302e:	4603      	mov	r3, r0
   83030:	e003      	b.n	8303a <memset+0x1a>
   83032:	1e62      	subs	r2, r4, #1
   83034:	2c00      	cmp	r4, #0
   83036:	d038      	beq.n	830aa <memset+0x8a>
   83038:	4614      	mov	r4, r2
   8303a:	f803 5b01 	strb.w	r5, [r3], #1
   8303e:	079a      	lsls	r2, r3, #30
   83040:	d1f7      	bne.n	83032 <memset+0x12>
   83042:	2c03      	cmp	r4, #3
   83044:	d92a      	bls.n	8309c <memset+0x7c>
   83046:	b2cd      	uxtb	r5, r1
   83048:	ea45 2505 	orr.w	r5, r5, r5, lsl #8
   8304c:	2c0f      	cmp	r4, #15
   8304e:	ea45 4505 	orr.w	r5, r5, r5, lsl #16
   83052:	d915      	bls.n	83080 <memset+0x60>
   83054:	f1a4 0710 	sub.w	r7, r4, #16
   83058:	093f      	lsrs	r7, r7, #4
   8305a:	f103 0610 	add.w	r6, r3, #16
   8305e:	eb06 1607 	add.w	r6, r6, r7, lsl #4
   83062:	461a      	mov	r2, r3
   83064:	6015      	str	r5, [r2, #0]
   83066:	6055      	str	r5, [r2, #4]
   83068:	6095      	str	r5, [r2, #8]
   8306a:	60d5      	str	r5, [r2, #12]
   8306c:	3210      	adds	r2, #16
   8306e:	42b2      	cmp	r2, r6
   83070:	d1f8      	bne.n	83064 <memset+0x44>
   83072:	f004 040f 	and.w	r4, r4, #15
   83076:	3701      	adds	r7, #1
   83078:	2c03      	cmp	r4, #3
   8307a:	eb03 1307 	add.w	r3, r3, r7, lsl #4
   8307e:	d90d      	bls.n	8309c <memset+0x7c>
   83080:	461e      	mov	r6, r3
   83082:	4622      	mov	r2, r4
   83084:	3a04      	subs	r2, #4
   83086:	2a03      	cmp	r2, #3
   83088:	f846 5b04 	str.w	r5, [r6], #4
   8308c:	d8fa      	bhi.n	83084 <memset+0x64>
   8308e:	1f22      	subs	r2, r4, #4
   83090:	f022 0203 	bic.w	r2, r2, #3
   83094:	3204      	adds	r2, #4
   83096:	4413      	add	r3, r2
   83098:	f004 0403 	and.w	r4, r4, #3
   8309c:	b12c      	cbz	r4, 830aa <memset+0x8a>
   8309e:	b2c9      	uxtb	r1, r1
   830a0:	441c      	add	r4, r3
   830a2:	f803 1b01 	strb.w	r1, [r3], #1
   830a6:	42a3      	cmp	r3, r4
   830a8:	d1fb      	bne.n	830a2 <memset+0x82>
   830aa:	bcf0      	pop	{r4, r5, r6, r7}
   830ac:	4770      	bx	lr
   830ae:	4614      	mov	r4, r2
   830b0:	4603      	mov	r3, r0
   830b2:	e7c6      	b.n	83042 <memset+0x22>

000830b4 <setbuf>:
   830b4:	2900      	cmp	r1, #0
   830b6:	bf0c      	ite	eq
   830b8:	2202      	moveq	r2, #2
   830ba:	2200      	movne	r2, #0
   830bc:	f44f 6380 	mov.w	r3, #1024	; 0x400
   830c0:	f000 b80e 	b.w	830e0 <setvbuf>

000830c4 <setjmp>:
   830c4:	46ec      	mov	ip, sp
   830c6:	e8a0 5ff0 	stmia.w	r0!, {r4, r5, r6, r7, r8, r9, sl, fp, ip, lr}
   830ca:	f04f 0000 	mov.w	r0, #0
   830ce:	4770      	bx	lr

000830d0 <longjmp>:
   830d0:	e8b0 5ff0 	ldmia.w	r0!, {r4, r5, r6, r7, r8, r9, sl, fp, ip, lr}
   830d4:	46e5      	mov	sp, ip
   830d6:	0008      	movs	r0, r1
   830d8:	bf08      	it	eq
   830da:	2001      	moveq	r0, #1
   830dc:	4770      	bx	lr
   830de:	bf00      	nop

000830e0 <setvbuf>:
   830e0:	e92d 41f0 	stmdb	sp!, {r4, r5, r6, r7, r8, lr}
   830e4:	4d3c      	ldr	r5, [pc, #240]	; (831d8 <setvbuf+0xf8>)
   830e6:	4604      	mov	r4, r0
   830e8:	682d      	ldr	r5, [r5, #0]
   830ea:	4688      	mov	r8, r1
   830ec:	4616      	mov	r6, r2
   830ee:	461f      	mov	r7, r3
   830f0:	b115      	cbz	r5, 830f8 <setvbuf+0x18>
   830f2:	6bab      	ldr	r3, [r5, #56]	; 0x38
   830f4:	2b00      	cmp	r3, #0
   830f6:	d04f      	beq.n	83198 <setvbuf+0xb8>
   830f8:	2e02      	cmp	r6, #2
   830fa:	d830      	bhi.n	8315e <setvbuf+0x7e>
   830fc:	2f00      	cmp	r7, #0
   830fe:	db2e      	blt.n	8315e <setvbuf+0x7e>
   83100:	4628      	mov	r0, r5
   83102:	4621      	mov	r1, r4
   83104:	f001 f87a 	bl	841fc <_fflush_r>
   83108:	89a3      	ldrh	r3, [r4, #12]
   8310a:	2200      	movs	r2, #0
   8310c:	6062      	str	r2, [r4, #4]
   8310e:	61a2      	str	r2, [r4, #24]
   83110:	061a      	lsls	r2, r3, #24
   83112:	d428      	bmi.n	83166 <setvbuf+0x86>
   83114:	f023 0383 	bic.w	r3, r3, #131	; 0x83
   83118:	b29b      	uxth	r3, r3
   8311a:	2e02      	cmp	r6, #2
   8311c:	81a3      	strh	r3, [r4, #12]
   8311e:	d02d      	beq.n	8317c <setvbuf+0x9c>
   83120:	f1b8 0f00 	cmp.w	r8, #0
   83124:	d03c      	beq.n	831a0 <setvbuf+0xc0>
   83126:	2e01      	cmp	r6, #1
   83128:	d013      	beq.n	83152 <setvbuf+0x72>
   8312a:	b29b      	uxth	r3, r3
   8312c:	f003 0008 	and.w	r0, r3, #8
   83130:	4a2a      	ldr	r2, [pc, #168]	; (831dc <setvbuf+0xfc>)
   83132:	b280      	uxth	r0, r0
   83134:	63ea      	str	r2, [r5, #60]	; 0x3c
   83136:	f8c4 8000 	str.w	r8, [r4]
   8313a:	f8c4 8010 	str.w	r8, [r4, #16]
   8313e:	6167      	str	r7, [r4, #20]
   83140:	b178      	cbz	r0, 83162 <setvbuf+0x82>
   83142:	f013 0f03 	tst.w	r3, #3
   83146:	bf18      	it	ne
   83148:	2700      	movne	r7, #0
   8314a:	60a7      	str	r7, [r4, #8]
   8314c:	2000      	movs	r0, #0
   8314e:	e8bd 81f0 	ldmia.w	sp!, {r4, r5, r6, r7, r8, pc}
   83152:	f043 0301 	orr.w	r3, r3, #1
   83156:	427a      	negs	r2, r7
   83158:	81a3      	strh	r3, [r4, #12]
   8315a:	61a2      	str	r2, [r4, #24]
   8315c:	e7e5      	b.n	8312a <setvbuf+0x4a>
   8315e:	f04f 30ff 	mov.w	r0, #4294967295
   83162:	e8bd 81f0 	ldmia.w	sp!, {r4, r5, r6, r7, r8, pc}
   83166:	4628      	mov	r0, r5
   83168:	6921      	ldr	r1, [r4, #16]
   8316a:	f001 f9a7 	bl	844bc <_free_r>
   8316e:	89a3      	ldrh	r3, [r4, #12]
   83170:	2e02      	cmp	r6, #2
   83172:	f023 0383 	bic.w	r3, r3, #131	; 0x83
   83176:	b29b      	uxth	r3, r3
   83178:	81a3      	strh	r3, [r4, #12]
   8317a:	d1d1      	bne.n	83120 <setvbuf+0x40>
   8317c:	2000      	movs	r0, #0
   8317e:	f104 0243 	add.w	r2, r4, #67	; 0x43
   83182:	f043 0302 	orr.w	r3, r3, #2
   83186:	2500      	movs	r5, #0
   83188:	2101      	movs	r1, #1
   8318a:	81a3      	strh	r3, [r4, #12]
   8318c:	60a5      	str	r5, [r4, #8]
   8318e:	6022      	str	r2, [r4, #0]
   83190:	6122      	str	r2, [r4, #16]
   83192:	6161      	str	r1, [r4, #20]
   83194:	e8bd 81f0 	ldmia.w	sp!, {r4, r5, r6, r7, r8, pc}
   83198:	4628      	mov	r0, r5
   8319a:	f001 f84b 	bl	84234 <__sinit>
   8319e:	e7ab      	b.n	830f8 <setvbuf+0x18>
   831a0:	2f00      	cmp	r7, #0
   831a2:	bf08      	it	eq
   831a4:	f44f 6780 	moveq.w	r7, #1024	; 0x400
   831a8:	4638      	mov	r0, r7
   831aa:	f001 fc7d 	bl	84aa8 <malloc>
   831ae:	4680      	mov	r8, r0
   831b0:	b128      	cbz	r0, 831be <setvbuf+0xde>
   831b2:	89a3      	ldrh	r3, [r4, #12]
   831b4:	f043 0380 	orr.w	r3, r3, #128	; 0x80
   831b8:	b29b      	uxth	r3, r3
   831ba:	81a3      	strh	r3, [r4, #12]
   831bc:	e7b3      	b.n	83126 <setvbuf+0x46>
   831be:	f44f 6080 	mov.w	r0, #1024	; 0x400
   831c2:	f001 fc71 	bl	84aa8 <malloc>
   831c6:	4680      	mov	r8, r0
   831c8:	b918      	cbnz	r0, 831d2 <setvbuf+0xf2>
   831ca:	89a3      	ldrh	r3, [r4, #12]
   831cc:	f04f 30ff 	mov.w	r0, #4294967295
   831d0:	e7d5      	b.n	8317e <setvbuf+0x9e>
   831d2:	f44f 6780 	mov.w	r7, #1024	; 0x400
   831d6:	e7ec      	b.n	831b2 <setvbuf+0xd2>
   831d8:	20070570 	.word	0x20070570
   831dc:	00084229 	.word	0x00084229

000831e0 <__sprint_r.part.0>:
   831e0:	6e4b      	ldr	r3, [r1, #100]	; 0x64
   831e2:	e92d 47f0 	stmdb	sp!, {r4, r5, r6, r7, r8, r9, sl, lr}
   831e6:	049c      	lsls	r4, r3, #18
   831e8:	460e      	mov	r6, r1
   831ea:	4680      	mov	r8, r0
   831ec:	4691      	mov	r9, r2
   831ee:	d52a      	bpl.n	83246 <__sprint_r.part.0+0x66>
   831f0:	6893      	ldr	r3, [r2, #8]
   831f2:	6812      	ldr	r2, [r2, #0]
   831f4:	f102 0a08 	add.w	sl, r2, #8
   831f8:	b31b      	cbz	r3, 83242 <__sprint_r.part.0+0x62>
   831fa:	e91a 00a0 	ldmdb	sl, {r5, r7}
   831fe:	08bf      	lsrs	r7, r7, #2
   83200:	d017      	beq.n	83232 <__sprint_r.part.0+0x52>
   83202:	3d04      	subs	r5, #4
   83204:	2400      	movs	r4, #0
   83206:	e001      	b.n	8320c <__sprint_r.part.0+0x2c>
   83208:	42a7      	cmp	r7, r4
   8320a:	d010      	beq.n	8322e <__sprint_r.part.0+0x4e>
   8320c:	4640      	mov	r0, r8
   8320e:	f855 1f04 	ldr.w	r1, [r5, #4]!
   83212:	4632      	mov	r2, r6
   83214:	f001 f8a4 	bl	84360 <_fputwc_r>
   83218:	1c43      	adds	r3, r0, #1
   8321a:	f104 0401 	add.w	r4, r4, #1
   8321e:	d1f3      	bne.n	83208 <__sprint_r.part.0+0x28>
   83220:	2300      	movs	r3, #0
   83222:	f8c9 3008 	str.w	r3, [r9, #8]
   83226:	f8c9 3004 	str.w	r3, [r9, #4]
   8322a:	e8bd 87f0 	ldmia.w	sp!, {r4, r5, r6, r7, r8, r9, sl, pc}
   8322e:	f8d9 3008 	ldr.w	r3, [r9, #8]
   83232:	eba3 0387 	sub.w	r3, r3, r7, lsl #2
   83236:	f8c9 3008 	str.w	r3, [r9, #8]
   8323a:	f10a 0a08 	add.w	sl, sl, #8
   8323e:	2b00      	cmp	r3, #0
   83240:	d1db      	bne.n	831fa <__sprint_r.part.0+0x1a>
   83242:	2000      	movs	r0, #0
   83244:	e7ec      	b.n	83220 <__sprint_r.part.0+0x40>
   83246:	f001 fa05 	bl	84654 <__sfvwrite_r>
   8324a:	2300      	movs	r3, #0
   8324c:	f8c9 3008 	str.w	r3, [r9, #8]
   83250:	f8c9 3004 	str.w	r3, [r9, #4]
   83254:	e8bd 87f0 	ldmia.w	sp!, {r4, r5, r6, r7, r8, r9, sl, pc}

00083258 <_vfiprintf_r>:
   83258:	e92d 4ff0 	stmdb	sp!, {r4, r5, r6, r7, r8, r9, sl, fp, lr}
   8325c:	b0b1      	sub	sp, #196	; 0xc4
   8325e:	461c      	mov	r4, r3
   83260:	9102      	str	r1, [sp, #8]
   83262:	4690      	mov	r8, r2
   83264:	9308      	str	r3, [sp, #32]
   83266:	9006      	str	r0, [sp, #24]
   83268:	b118      	cbz	r0, 83272 <_vfiprintf_r+0x1a>
   8326a:	6b83      	ldr	r3, [r0, #56]	; 0x38
   8326c:	2b00      	cmp	r3, #0
   8326e:	f000 80e8 	beq.w	83442 <_vfiprintf_r+0x1ea>
   83272:	9d02      	ldr	r5, [sp, #8]
   83274:	89ab      	ldrh	r3, [r5, #12]
   83276:	b29a      	uxth	r2, r3
   83278:	0490      	lsls	r0, r2, #18
   8327a:	d407      	bmi.n	8328c <_vfiprintf_r+0x34>
   8327c:	6e6a      	ldr	r2, [r5, #100]	; 0x64
   8327e:	f443 5300 	orr.w	r3, r3, #8192	; 0x2000
   83282:	f422 5100 	bic.w	r1, r2, #8192	; 0x2000
   83286:	81ab      	strh	r3, [r5, #12]
   83288:	b29a      	uxth	r2, r3
   8328a:	6669      	str	r1, [r5, #100]	; 0x64
   8328c:	0711      	lsls	r1, r2, #28
   8328e:	f140 80b7 	bpl.w	83400 <_vfiprintf_r+0x1a8>
   83292:	f8dd b008 	ldr.w	fp, [sp, #8]
   83296:	f8db 3010 	ldr.w	r3, [fp, #16]
   8329a:	2b00      	cmp	r3, #0
   8329c:	f000 80b0 	beq.w	83400 <_vfiprintf_r+0x1a8>
   832a0:	f002 021a 	and.w	r2, r2, #26
   832a4:	2a0a      	cmp	r2, #10
   832a6:	f000 80b7 	beq.w	83418 <_vfiprintf_r+0x1c0>
   832aa:	2300      	movs	r3, #0
   832ac:	f10d 0980 	add.w	r9, sp, #128	; 0x80
   832b0:	930a      	str	r3, [sp, #40]	; 0x28
   832b2:	9315      	str	r3, [sp, #84]	; 0x54
   832b4:	9314      	str	r3, [sp, #80]	; 0x50
   832b6:	9309      	str	r3, [sp, #36]	; 0x24
   832b8:	f8cd 904c 	str.w	r9, [sp, #76]	; 0x4c
   832bc:	464e      	mov	r6, r9
   832be:	f898 3000 	ldrb.w	r3, [r8]
   832c2:	2b00      	cmp	r3, #0
   832c4:	f000 84c8 	beq.w	83c58 <_vfiprintf_r+0xa00>
   832c8:	2b25      	cmp	r3, #37	; 0x25
   832ca:	f000 84c5 	beq.w	83c58 <_vfiprintf_r+0xa00>
   832ce:	f108 0201 	add.w	r2, r8, #1
   832d2:	e001      	b.n	832d8 <_vfiprintf_r+0x80>
   832d4:	2b25      	cmp	r3, #37	; 0x25
   832d6:	d004      	beq.n	832e2 <_vfiprintf_r+0x8a>
   832d8:	7813      	ldrb	r3, [r2, #0]
   832da:	4614      	mov	r4, r2
   832dc:	3201      	adds	r2, #1
   832de:	2b00      	cmp	r3, #0
   832e0:	d1f8      	bne.n	832d4 <_vfiprintf_r+0x7c>
   832e2:	ebc8 0504 	rsb	r5, r8, r4
   832e6:	b195      	cbz	r5, 8330e <_vfiprintf_r+0xb6>
   832e8:	9b14      	ldr	r3, [sp, #80]	; 0x50
   832ea:	9a15      	ldr	r2, [sp, #84]	; 0x54
   832ec:	3301      	adds	r3, #1
   832ee:	442a      	add	r2, r5
   832f0:	2b07      	cmp	r3, #7
   832f2:	f8c6 8000 	str.w	r8, [r6]
   832f6:	6075      	str	r5, [r6, #4]
   832f8:	9215      	str	r2, [sp, #84]	; 0x54
   832fa:	9314      	str	r3, [sp, #80]	; 0x50
   832fc:	dd7b      	ble.n	833f6 <_vfiprintf_r+0x19e>
   832fe:	2a00      	cmp	r2, #0
   83300:	f040 84d5 	bne.w	83cae <_vfiprintf_r+0xa56>
   83304:	9809      	ldr	r0, [sp, #36]	; 0x24
   83306:	9214      	str	r2, [sp, #80]	; 0x50
   83308:	4428      	add	r0, r5
   8330a:	464e      	mov	r6, r9
   8330c:	9009      	str	r0, [sp, #36]	; 0x24
   8330e:	7823      	ldrb	r3, [r4, #0]
   83310:	2b00      	cmp	r3, #0
   83312:	f000 83ed 	beq.w	83af0 <_vfiprintf_r+0x898>
   83316:	2100      	movs	r1, #0
   83318:	f04f 0200 	mov.w	r2, #0
   8331c:	f04f 3cff 	mov.w	ip, #4294967295
   83320:	7863      	ldrb	r3, [r4, #1]
   83322:	f88d 2047 	strb.w	r2, [sp, #71]	; 0x47
   83326:	9104      	str	r1, [sp, #16]
   83328:	468a      	mov	sl, r1
   8332a:	f104 0801 	add.w	r8, r4, #1
   8332e:	4608      	mov	r0, r1
   83330:	4665      	mov	r5, ip
   83332:	f108 0801 	add.w	r8, r8, #1
   83336:	f1a3 0220 	sub.w	r2, r3, #32
   8333a:	2a58      	cmp	r2, #88	; 0x58
   8333c:	f200 82d9 	bhi.w	838f2 <_vfiprintf_r+0x69a>
   83340:	e8df f012 	tbh	[pc, r2, lsl #1]
   83344:	02d702cb 	.word	0x02d702cb
   83348:	02d202d7 	.word	0x02d202d7
   8334c:	02d702d7 	.word	0x02d702d7
   83350:	02d702d7 	.word	0x02d702d7
   83354:	02d702d7 	.word	0x02d702d7
   83358:	028f0282 	.word	0x028f0282
   8335c:	008402d7 	.word	0x008402d7
   83360:	02d70293 	.word	0x02d70293
   83364:	0196012b 	.word	0x0196012b
   83368:	01960196 	.word	0x01960196
   8336c:	01960196 	.word	0x01960196
   83370:	01960196 	.word	0x01960196
   83374:	01960196 	.word	0x01960196
   83378:	02d702d7 	.word	0x02d702d7
   8337c:	02d702d7 	.word	0x02d702d7
   83380:	02d702d7 	.word	0x02d702d7
   83384:	02d702d7 	.word	0x02d702d7
   83388:	02d702d7 	.word	0x02d702d7
   8338c:	02d70130 	.word	0x02d70130
   83390:	02d702d7 	.word	0x02d702d7
   83394:	02d702d7 	.word	0x02d702d7
   83398:	02d702d7 	.word	0x02d702d7
   8339c:	02d702d7 	.word	0x02d702d7
   833a0:	017b02d7 	.word	0x017b02d7
   833a4:	02d702d7 	.word	0x02d702d7
   833a8:	02d702d7 	.word	0x02d702d7
   833ac:	01a402d7 	.word	0x01a402d7
   833b0:	02d702d7 	.word	0x02d702d7
   833b4:	02d701bf 	.word	0x02d701bf
   833b8:	02d702d7 	.word	0x02d702d7
   833bc:	02d702d7 	.word	0x02d702d7
   833c0:	02d702d7 	.word	0x02d702d7
   833c4:	02d702d7 	.word	0x02d702d7
   833c8:	01e402d7 	.word	0x01e402d7
   833cc:	02d701fa 	.word	0x02d701fa
   833d0:	02d702d7 	.word	0x02d702d7
   833d4:	01fa0216 	.word	0x01fa0216
   833d8:	02d702d7 	.word	0x02d702d7
   833dc:	02d7021b 	.word	0x02d7021b
   833e0:	00890228 	.word	0x00890228
   833e4:	027d0266 	.word	0x027d0266
   833e8:	023a02d7 	.word	0x023a02d7
   833ec:	011902d7 	.word	0x011902d7
   833f0:	02d702d7 	.word	0x02d702d7
   833f4:	02af      	.short	0x02af
   833f6:	3608      	adds	r6, #8
   833f8:	9809      	ldr	r0, [sp, #36]	; 0x24
   833fa:	4428      	add	r0, r5
   833fc:	9009      	str	r0, [sp, #36]	; 0x24
   833fe:	e786      	b.n	8330e <_vfiprintf_r+0xb6>
   83400:	9806      	ldr	r0, [sp, #24]
   83402:	9902      	ldr	r1, [sp, #8]
   83404:	f000 fde4 	bl	83fd0 <__swsetup_r>
   83408:	b9b0      	cbnz	r0, 83438 <_vfiprintf_r+0x1e0>
   8340a:	9d02      	ldr	r5, [sp, #8]
   8340c:	89aa      	ldrh	r2, [r5, #12]
   8340e:	f002 021a 	and.w	r2, r2, #26
   83412:	2a0a      	cmp	r2, #10
   83414:	f47f af49 	bne.w	832aa <_vfiprintf_r+0x52>
   83418:	f8dd b008 	ldr.w	fp, [sp, #8]
   8341c:	f9bb 300e 	ldrsh.w	r3, [fp, #14]
   83420:	2b00      	cmp	r3, #0
   83422:	f6ff af42 	blt.w	832aa <_vfiprintf_r+0x52>
   83426:	9806      	ldr	r0, [sp, #24]
   83428:	4659      	mov	r1, fp
   8342a:	4642      	mov	r2, r8
   8342c:	4623      	mov	r3, r4
   8342e:	f000 fd3d 	bl	83eac <__sbprintf>
   83432:	b031      	add	sp, #196	; 0xc4
   83434:	e8bd 8ff0 	ldmia.w	sp!, {r4, r5, r6, r7, r8, r9, sl, fp, pc}
   83438:	f04f 30ff 	mov.w	r0, #4294967295
   8343c:	b031      	add	sp, #196	; 0xc4
   8343e:	e8bd 8ff0 	ldmia.w	sp!, {r4, r5, r6, r7, r8, r9, sl, fp, pc}
   83442:	f000 fef7 	bl	84234 <__sinit>
   83446:	e714      	b.n	83272 <_vfiprintf_r+0x1a>
   83448:	4240      	negs	r0, r0
   8344a:	9308      	str	r3, [sp, #32]
   8344c:	f04a 0a04 	orr.w	sl, sl, #4
   83450:	f898 3000 	ldrb.w	r3, [r8]
   83454:	e76d      	b.n	83332 <_vfiprintf_r+0xda>
   83456:	f01a 0320 	ands.w	r3, sl, #32
   8345a:	9004      	str	r0, [sp, #16]
   8345c:	46ac      	mov	ip, r5
   8345e:	f000 80f4 	beq.w	8364a <_vfiprintf_r+0x3f2>
   83462:	f8dd b020 	ldr.w	fp, [sp, #32]
   83466:	f10b 0307 	add.w	r3, fp, #7
   8346a:	f023 0307 	bic.w	r3, r3, #7
   8346e:	f103 0408 	add.w	r4, r3, #8
   83472:	9408      	str	r4, [sp, #32]
   83474:	e9d3 4500 	ldrd	r4, r5, [r3]
   83478:	2300      	movs	r3, #0
   8347a:	f04f 0000 	mov.w	r0, #0
   8347e:	2100      	movs	r1, #0
   83480:	f88d 0047 	strb.w	r0, [sp, #71]	; 0x47
   83484:	f8cd c014 	str.w	ip, [sp, #20]
   83488:	9107      	str	r1, [sp, #28]
   8348a:	f1bc 0f00 	cmp.w	ip, #0
   8348e:	bfa8      	it	ge
   83490:	f02a 0a80 	bicge.w	sl, sl, #128	; 0x80
   83494:	ea54 0205 	orrs.w	r2, r4, r5
   83498:	f040 80ad 	bne.w	835f6 <_vfiprintf_r+0x39e>
   8349c:	f1bc 0f00 	cmp.w	ip, #0
   834a0:	f040 80a9 	bne.w	835f6 <_vfiprintf_r+0x39e>
   834a4:	2b00      	cmp	r3, #0
   834a6:	f040 83c0 	bne.w	83c2a <_vfiprintf_r+0x9d2>
   834aa:	f01a 0f01 	tst.w	sl, #1
   834ae:	f000 83bc 	beq.w	83c2a <_vfiprintf_r+0x9d2>
   834b2:	2330      	movs	r3, #48	; 0x30
   834b4:	af30      	add	r7, sp, #192	; 0xc0
   834b6:	f807 3d41 	strb.w	r3, [r7, #-65]!
   834ba:	ebc7 0409 	rsb	r4, r7, r9
   834be:	9405      	str	r4, [sp, #20]
   834c0:	f8dd b014 	ldr.w	fp, [sp, #20]
   834c4:	9c07      	ldr	r4, [sp, #28]
   834c6:	45e3      	cmp	fp, ip
   834c8:	bfb8      	it	lt
   834ca:	46e3      	movlt	fp, ip
   834cc:	f8cd b00c 	str.w	fp, [sp, #12]
   834d0:	b11c      	cbz	r4, 834da <_vfiprintf_r+0x282>
   834d2:	f10b 0b01 	add.w	fp, fp, #1
   834d6:	f8cd b00c 	str.w	fp, [sp, #12]
   834da:	f01a 0502 	ands.w	r5, sl, #2
   834de:	9507      	str	r5, [sp, #28]
   834e0:	d005      	beq.n	834ee <_vfiprintf_r+0x296>
   834e2:	f8dd b00c 	ldr.w	fp, [sp, #12]
   834e6:	f10b 0b02 	add.w	fp, fp, #2
   834ea:	f8cd b00c 	str.w	fp, [sp, #12]
   834ee:	f01a 0384 	ands.w	r3, sl, #132	; 0x84
   834f2:	930b      	str	r3, [sp, #44]	; 0x2c
   834f4:	f040 821b 	bne.w	8392e <_vfiprintf_r+0x6d6>
   834f8:	9d04      	ldr	r5, [sp, #16]
   834fa:	f8dd b00c 	ldr.w	fp, [sp, #12]
   834fe:	ebcb 0405 	rsb	r4, fp, r5
   83502:	2c00      	cmp	r4, #0
   83504:	f340 8213 	ble.w	8392e <_vfiprintf_r+0x6d6>
   83508:	2c10      	cmp	r4, #16
   8350a:	f340 8489 	ble.w	83e20 <_vfiprintf_r+0xbc8>
   8350e:	4dbe      	ldr	r5, [pc, #760]	; (83808 <_vfiprintf_r+0x5b0>)
   83510:	9a15      	ldr	r2, [sp, #84]	; 0x54
   83512:	462b      	mov	r3, r5
   83514:	9814      	ldr	r0, [sp, #80]	; 0x50
   83516:	4625      	mov	r5, r4
   83518:	f04f 0b10 	mov.w	fp, #16
   8351c:	4664      	mov	r4, ip
   8351e:	46b4      	mov	ip, r6
   83520:	461e      	mov	r6, r3
   83522:	e006      	b.n	83532 <_vfiprintf_r+0x2da>
   83524:	1c83      	adds	r3, r0, #2
   83526:	f10c 0c08 	add.w	ip, ip, #8
   8352a:	4608      	mov	r0, r1
   8352c:	3d10      	subs	r5, #16
   8352e:	2d10      	cmp	r5, #16
   83530:	dd11      	ble.n	83556 <_vfiprintf_r+0x2fe>
   83532:	1c41      	adds	r1, r0, #1
   83534:	3210      	adds	r2, #16
   83536:	2907      	cmp	r1, #7
   83538:	9215      	str	r2, [sp, #84]	; 0x54
   8353a:	e88c 0840 	stmia.w	ip, {r6, fp}
   8353e:	9114      	str	r1, [sp, #80]	; 0x50
   83540:	ddf0      	ble.n	83524 <_vfiprintf_r+0x2cc>
   83542:	2a00      	cmp	r2, #0
   83544:	f040 81e6 	bne.w	83914 <_vfiprintf_r+0x6bc>
   83548:	3d10      	subs	r5, #16
   8354a:	2d10      	cmp	r5, #16
   8354c:	f04f 0301 	mov.w	r3, #1
   83550:	4610      	mov	r0, r2
   83552:	46cc      	mov	ip, r9
   83554:	dced      	bgt.n	83532 <_vfiprintf_r+0x2da>
   83556:	4631      	mov	r1, r6
   83558:	4666      	mov	r6, ip
   8355a:	46a4      	mov	ip, r4
   8355c:	462c      	mov	r4, r5
   8355e:	460d      	mov	r5, r1
   83560:	4422      	add	r2, r4
   83562:	2b07      	cmp	r3, #7
   83564:	9215      	str	r2, [sp, #84]	; 0x54
   83566:	6035      	str	r5, [r6, #0]
   83568:	6074      	str	r4, [r6, #4]
   8356a:	9314      	str	r3, [sp, #80]	; 0x50
   8356c:	f300 836d 	bgt.w	83c4a <_vfiprintf_r+0x9f2>
   83570:	3608      	adds	r6, #8
   83572:	1c59      	adds	r1, r3, #1
   83574:	e1de      	b.n	83934 <_vfiprintf_r+0x6dc>
   83576:	f01a 0f20 	tst.w	sl, #32
   8357a:	9004      	str	r0, [sp, #16]
   8357c:	46ac      	mov	ip, r5
   8357e:	f000 808d 	beq.w	8369c <_vfiprintf_r+0x444>
   83582:	9d08      	ldr	r5, [sp, #32]
   83584:	1deb      	adds	r3, r5, #7
   83586:	f023 0307 	bic.w	r3, r3, #7
   8358a:	f103 0b08 	add.w	fp, r3, #8
   8358e:	e9d3 4500 	ldrd	r4, r5, [r3]
   83592:	f8cd b020 	str.w	fp, [sp, #32]
   83596:	2301      	movs	r3, #1
   83598:	e76f      	b.n	8347a <_vfiprintf_r+0x222>
   8359a:	f04a 0a80 	orr.w	sl, sl, #128	; 0x80
   8359e:	f898 3000 	ldrb.w	r3, [r8]
   835a2:	e6c6      	b.n	83332 <_vfiprintf_r+0xda>
   835a4:	f04a 0a10 	orr.w	sl, sl, #16
   835a8:	f01a 0f20 	tst.w	sl, #32
   835ac:	9004      	str	r0, [sp, #16]
   835ae:	46ac      	mov	ip, r5
   835b0:	f88d 1047 	strb.w	r1, [sp, #71]	; 0x47
   835b4:	f000 80c8 	beq.w	83748 <_vfiprintf_r+0x4f0>
   835b8:	9c08      	ldr	r4, [sp, #32]
   835ba:	1de1      	adds	r1, r4, #7
   835bc:	f021 0107 	bic.w	r1, r1, #7
   835c0:	e9d1 2300 	ldrd	r2, r3, [r1]
   835c4:	3108      	adds	r1, #8
   835c6:	9108      	str	r1, [sp, #32]
   835c8:	4614      	mov	r4, r2
   835ca:	461d      	mov	r5, r3
   835cc:	2a00      	cmp	r2, #0
   835ce:	f173 0b00 	sbcs.w	fp, r3, #0
   835d2:	f2c0 83ce 	blt.w	83d72 <_vfiprintf_r+0xb1a>
   835d6:	f1bc 0f00 	cmp.w	ip, #0
   835da:	f89d 0047 	ldrb.w	r0, [sp, #71]	; 0x47
   835de:	bfa8      	it	ge
   835e0:	f02a 0a80 	bicge.w	sl, sl, #128	; 0x80
   835e4:	ea54 0205 	orrs.w	r2, r4, r5
   835e8:	9007      	str	r0, [sp, #28]
   835ea:	f8cd c014 	str.w	ip, [sp, #20]
   835ee:	f04f 0301 	mov.w	r3, #1
   835f2:	f43f af53 	beq.w	8349c <_vfiprintf_r+0x244>
   835f6:	2b01      	cmp	r3, #1
   835f8:	f000 8319 	beq.w	83c2e <_vfiprintf_r+0x9d6>
   835fc:	2b02      	cmp	r3, #2
   835fe:	f10d 037f 	add.w	r3, sp, #127	; 0x7f
   83602:	f040 824c 	bne.w	83a9e <_vfiprintf_r+0x846>
   83606:	f8dd b028 	ldr.w	fp, [sp, #40]	; 0x28
   8360a:	4619      	mov	r1, r3
   8360c:	f004 000f 	and.w	r0, r4, #15
   83610:	0922      	lsrs	r2, r4, #4
   83612:	f81b 0000 	ldrb.w	r0, [fp, r0]
   83616:	ea42 7205 	orr.w	r2, r2, r5, lsl #28
   8361a:	092b      	lsrs	r3, r5, #4
   8361c:	7008      	strb	r0, [r1, #0]
   8361e:	ea52 0003 	orrs.w	r0, r2, r3
   83622:	460f      	mov	r7, r1
   83624:	4614      	mov	r4, r2
   83626:	461d      	mov	r5, r3
   83628:	f101 31ff 	add.w	r1, r1, #4294967295
   8362c:	d1ee      	bne.n	8360c <_vfiprintf_r+0x3b4>
   8362e:	e9cd 230e 	strd	r2, r3, [sp, #56]	; 0x38
   83632:	ebc7 0309 	rsb	r3, r7, r9
   83636:	9305      	str	r3, [sp, #20]
   83638:	e742      	b.n	834c0 <_vfiprintf_r+0x268>
   8363a:	f04a 0a10 	orr.w	sl, sl, #16
   8363e:	f01a 0320 	ands.w	r3, sl, #32
   83642:	9004      	str	r0, [sp, #16]
   83644:	46ac      	mov	ip, r5
   83646:	f47f af0c 	bne.w	83462 <_vfiprintf_r+0x20a>
   8364a:	f01a 0210 	ands.w	r2, sl, #16
   8364e:	f040 8311 	bne.w	83c74 <_vfiprintf_r+0xa1c>
   83652:	f01a 0340 	ands.w	r3, sl, #64	; 0x40
   83656:	f000 830d 	beq.w	83c74 <_vfiprintf_r+0xa1c>
   8365a:	f8dd b020 	ldr.w	fp, [sp, #32]
   8365e:	4613      	mov	r3, r2
   83660:	f8bb 4000 	ldrh.w	r4, [fp]
   83664:	f10b 0b04 	add.w	fp, fp, #4
   83668:	2500      	movs	r5, #0
   8366a:	f8cd b020 	str.w	fp, [sp, #32]
   8366e:	e704      	b.n	8347a <_vfiprintf_r+0x222>
   83670:	f1a3 0230 	sub.w	r2, r3, #48	; 0x30
   83674:	2000      	movs	r0, #0
   83676:	f818 3b01 	ldrb.w	r3, [r8], #1
   8367a:	eb00 0080 	add.w	r0, r0, r0, lsl #2
   8367e:	eb02 0040 	add.w	r0, r2, r0, lsl #1
   83682:	f1a3 0230 	sub.w	r2, r3, #48	; 0x30
   83686:	2a09      	cmp	r2, #9
   83688:	d9f5      	bls.n	83676 <_vfiprintf_r+0x41e>
   8368a:	e654      	b.n	83336 <_vfiprintf_r+0xde>
   8368c:	f04a 0a10 	orr.w	sl, sl, #16
   83690:	f01a 0f20 	tst.w	sl, #32
   83694:	9004      	str	r0, [sp, #16]
   83696:	46ac      	mov	ip, r5
   83698:	f47f af73 	bne.w	83582 <_vfiprintf_r+0x32a>
   8369c:	f01a 0f10 	tst.w	sl, #16
   836a0:	f040 82ef 	bne.w	83c82 <_vfiprintf_r+0xa2a>
   836a4:	f01a 0f40 	tst.w	sl, #64	; 0x40
   836a8:	f000 82eb 	beq.w	83c82 <_vfiprintf_r+0xa2a>
   836ac:	f8dd b020 	ldr.w	fp, [sp, #32]
   836b0:	2500      	movs	r5, #0
   836b2:	f8bb 4000 	ldrh.w	r4, [fp]
   836b6:	f10b 0b04 	add.w	fp, fp, #4
   836ba:	2301      	movs	r3, #1
   836bc:	f8cd b020 	str.w	fp, [sp, #32]
   836c0:	e6db      	b.n	8347a <_vfiprintf_r+0x222>
   836c2:	46ac      	mov	ip, r5
   836c4:	4d51      	ldr	r5, [pc, #324]	; (8380c <_vfiprintf_r+0x5b4>)
   836c6:	f01a 0f20 	tst.w	sl, #32
   836ca:	9004      	str	r0, [sp, #16]
   836cc:	f88d 1047 	strb.w	r1, [sp, #71]	; 0x47
   836d0:	950a      	str	r5, [sp, #40]	; 0x28
   836d2:	f000 80f0 	beq.w	838b6 <_vfiprintf_r+0x65e>
   836d6:	9d08      	ldr	r5, [sp, #32]
   836d8:	1dea      	adds	r2, r5, #7
   836da:	f022 0207 	bic.w	r2, r2, #7
   836de:	f102 0b08 	add.w	fp, r2, #8
   836e2:	f8cd b020 	str.w	fp, [sp, #32]
   836e6:	e9d2 4500 	ldrd	r4, r5, [r2]
   836ea:	f01a 0f01 	tst.w	sl, #1
   836ee:	f000 82aa 	beq.w	83c46 <_vfiprintf_r+0x9ee>
   836f2:	ea54 0b05 	orrs.w	fp, r4, r5
   836f6:	f000 82a6 	beq.w	83c46 <_vfiprintf_r+0x9ee>
   836fa:	2230      	movs	r2, #48	; 0x30
   836fc:	f88d 3049 	strb.w	r3, [sp, #73]	; 0x49
   83700:	f04a 0a02 	orr.w	sl, sl, #2
   83704:	f88d 2048 	strb.w	r2, [sp, #72]	; 0x48
   83708:	2302      	movs	r3, #2
   8370a:	e6b6      	b.n	8347a <_vfiprintf_r+0x222>
   8370c:	9b08      	ldr	r3, [sp, #32]
   8370e:	f8dd b020 	ldr.w	fp, [sp, #32]
   83712:	681b      	ldr	r3, [r3, #0]
   83714:	2401      	movs	r4, #1
   83716:	f04f 0500 	mov.w	r5, #0
   8371a:	f10b 0b04 	add.w	fp, fp, #4
   8371e:	9004      	str	r0, [sp, #16]
   83720:	9403      	str	r4, [sp, #12]
   83722:	f88d 5047 	strb.w	r5, [sp, #71]	; 0x47
   83726:	f88d 3058 	strb.w	r3, [sp, #88]	; 0x58
   8372a:	f8cd b020 	str.w	fp, [sp, #32]
   8372e:	9405      	str	r4, [sp, #20]
   83730:	af16      	add	r7, sp, #88	; 0x58
   83732:	f04f 0c00 	mov.w	ip, #0
   83736:	e6d0      	b.n	834da <_vfiprintf_r+0x282>
   83738:	f01a 0f20 	tst.w	sl, #32
   8373c:	9004      	str	r0, [sp, #16]
   8373e:	46ac      	mov	ip, r5
   83740:	f88d 1047 	strb.w	r1, [sp, #71]	; 0x47
   83744:	f47f af38 	bne.w	835b8 <_vfiprintf_r+0x360>
   83748:	f01a 0f10 	tst.w	sl, #16
   8374c:	f040 82a7 	bne.w	83c9e <_vfiprintf_r+0xa46>
   83750:	f01a 0f40 	tst.w	sl, #64	; 0x40
   83754:	f000 82a3 	beq.w	83c9e <_vfiprintf_r+0xa46>
   83758:	f8dd b020 	ldr.w	fp, [sp, #32]
   8375c:	f9bb 4000 	ldrsh.w	r4, [fp]
   83760:	f10b 0b04 	add.w	fp, fp, #4
   83764:	17e5      	asrs	r5, r4, #31
   83766:	4622      	mov	r2, r4
   83768:	462b      	mov	r3, r5
   8376a:	f8cd b020 	str.w	fp, [sp, #32]
   8376e:	e72d      	b.n	835cc <_vfiprintf_r+0x374>
   83770:	f04a 0a40 	orr.w	sl, sl, #64	; 0x40
   83774:	f898 3000 	ldrb.w	r3, [r8]
   83778:	e5db      	b.n	83332 <_vfiprintf_r+0xda>
   8377a:	f898 3000 	ldrb.w	r3, [r8]
   8377e:	4642      	mov	r2, r8
   83780:	2b6c      	cmp	r3, #108	; 0x6c
   83782:	bf03      	ittte	eq
   83784:	f108 0801 	addeq.w	r8, r8, #1
   83788:	f04a 0a20 	orreq.w	sl, sl, #32
   8378c:	7853      	ldrbeq	r3, [r2, #1]
   8378e:	f04a 0a10 	orrne.w	sl, sl, #16
   83792:	e5ce      	b.n	83332 <_vfiprintf_r+0xda>
   83794:	f01a 0f20 	tst.w	sl, #32
   83798:	f88d 1047 	strb.w	r1, [sp, #71]	; 0x47
   8379c:	f000 82f7 	beq.w	83d8e <_vfiprintf_r+0xb36>
   837a0:	9c08      	ldr	r4, [sp, #32]
   837a2:	6821      	ldr	r1, [r4, #0]
   837a4:	9c09      	ldr	r4, [sp, #36]	; 0x24
   837a6:	17e5      	asrs	r5, r4, #31
   837a8:	462b      	mov	r3, r5
   837aa:	9d08      	ldr	r5, [sp, #32]
   837ac:	4622      	mov	r2, r4
   837ae:	3504      	adds	r5, #4
   837b0:	9508      	str	r5, [sp, #32]
   837b2:	e9c1 2300 	strd	r2, r3, [r1]
   837b6:	e582      	b.n	832be <_vfiprintf_r+0x66>
   837b8:	9c08      	ldr	r4, [sp, #32]
   837ba:	46ac      	mov	ip, r5
   837bc:	6827      	ldr	r7, [r4, #0]
   837be:	f04f 0500 	mov.w	r5, #0
   837c2:	9004      	str	r0, [sp, #16]
   837c4:	f88d 5047 	strb.w	r5, [sp, #71]	; 0x47
   837c8:	3404      	adds	r4, #4
   837ca:	2f00      	cmp	r7, #0
   837cc:	f000 8332 	beq.w	83e34 <_vfiprintf_r+0xbdc>
   837d0:	f1bc 0f00 	cmp.w	ip, #0
   837d4:	4638      	mov	r0, r7
   837d6:	f2c0 8307 	blt.w	83de8 <_vfiprintf_r+0xb90>
   837da:	4662      	mov	r2, ip
   837dc:	2100      	movs	r1, #0
   837de:	f8cd c004 	str.w	ip, [sp, #4]
   837e2:	f001 fc05 	bl	84ff0 <memchr>
   837e6:	f8dd c004 	ldr.w	ip, [sp, #4]
   837ea:	2800      	cmp	r0, #0
   837ec:	f000 833a 	beq.w	83e64 <_vfiprintf_r+0xc0c>
   837f0:	1bc0      	subs	r0, r0, r7
   837f2:	f89d 5047 	ldrb.w	r5, [sp, #71]	; 0x47
   837f6:	4560      	cmp	r0, ip
   837f8:	bfa8      	it	ge
   837fa:	4660      	movge	r0, ip
   837fc:	9005      	str	r0, [sp, #20]
   837fe:	9408      	str	r4, [sp, #32]
   83800:	9507      	str	r5, [sp, #28]
   83802:	f04f 0c00 	mov.w	ip, #0
   83806:	e65b      	b.n	834c0 <_vfiprintf_r+0x268>
   83808:	000860f4 	.word	0x000860f4
   8380c:	000860b4 	.word	0x000860b4
   83810:	9b08      	ldr	r3, [sp, #32]
   83812:	f8dd b020 	ldr.w	fp, [sp, #32]
   83816:	9004      	str	r0, [sp, #16]
   83818:	48b2      	ldr	r0, [pc, #712]	; (83ae4 <_vfiprintf_r+0x88c>)
   8381a:	681c      	ldr	r4, [r3, #0]
   8381c:	2230      	movs	r2, #48	; 0x30
   8381e:	2378      	movs	r3, #120	; 0x78
   83820:	f10b 0b04 	add.w	fp, fp, #4
   83824:	46ac      	mov	ip, r5
   83826:	f88d 3049 	strb.w	r3, [sp, #73]	; 0x49
   8382a:	f04a 0a02 	orr.w	sl, sl, #2
   8382e:	f8cd b020 	str.w	fp, [sp, #32]
   83832:	2500      	movs	r5, #0
   83834:	f88d 2048 	strb.w	r2, [sp, #72]	; 0x48
   83838:	900a      	str	r0, [sp, #40]	; 0x28
   8383a:	2302      	movs	r3, #2
   8383c:	e61d      	b.n	8347a <_vfiprintf_r+0x222>
   8383e:	f04a 0a20 	orr.w	sl, sl, #32
   83842:	f898 3000 	ldrb.w	r3, [r8]
   83846:	e574      	b.n	83332 <_vfiprintf_r+0xda>
   83848:	f8dd b020 	ldr.w	fp, [sp, #32]
   8384c:	f8db 0000 	ldr.w	r0, [fp]
   83850:	f10b 0304 	add.w	r3, fp, #4
   83854:	2800      	cmp	r0, #0
   83856:	f6ff adf7 	blt.w	83448 <_vfiprintf_r+0x1f0>
   8385a:	9308      	str	r3, [sp, #32]
   8385c:	f898 3000 	ldrb.w	r3, [r8]
   83860:	e567      	b.n	83332 <_vfiprintf_r+0xda>
   83862:	f898 3000 	ldrb.w	r3, [r8]
   83866:	212b      	movs	r1, #43	; 0x2b
   83868:	e563      	b.n	83332 <_vfiprintf_r+0xda>
   8386a:	f898 3000 	ldrb.w	r3, [r8]
   8386e:	f108 0401 	add.w	r4, r8, #1
   83872:	2b2a      	cmp	r3, #42	; 0x2a
   83874:	f000 8305 	beq.w	83e82 <_vfiprintf_r+0xc2a>
   83878:	f1a3 0230 	sub.w	r2, r3, #48	; 0x30
   8387c:	2a09      	cmp	r2, #9
   8387e:	bf98      	it	ls
   83880:	2500      	movls	r5, #0
   83882:	f200 82fa 	bhi.w	83e7a <_vfiprintf_r+0xc22>
   83886:	f814 3b01 	ldrb.w	r3, [r4], #1
   8388a:	eb05 0585 	add.w	r5, r5, r5, lsl #2
   8388e:	eb02 0545 	add.w	r5, r2, r5, lsl #1
   83892:	f1a3 0230 	sub.w	r2, r3, #48	; 0x30
   83896:	2a09      	cmp	r2, #9
   83898:	d9f5      	bls.n	83886 <_vfiprintf_r+0x62e>
   8389a:	ea45 75e5 	orr.w	r5, r5, r5, asr #31
   8389e:	46a0      	mov	r8, r4
   838a0:	e549      	b.n	83336 <_vfiprintf_r+0xde>
   838a2:	4c90      	ldr	r4, [pc, #576]	; (83ae4 <_vfiprintf_r+0x88c>)
   838a4:	f01a 0f20 	tst.w	sl, #32
   838a8:	9004      	str	r0, [sp, #16]
   838aa:	46ac      	mov	ip, r5
   838ac:	940a      	str	r4, [sp, #40]	; 0x28
   838ae:	f88d 1047 	strb.w	r1, [sp, #71]	; 0x47
   838b2:	f47f af10 	bne.w	836d6 <_vfiprintf_r+0x47e>
   838b6:	f01a 0f10 	tst.w	sl, #16
   838ba:	f040 81ea 	bne.w	83c92 <_vfiprintf_r+0xa3a>
   838be:	f01a 0f40 	tst.w	sl, #64	; 0x40
   838c2:	f000 81e6 	beq.w	83c92 <_vfiprintf_r+0xa3a>
   838c6:	f8dd b020 	ldr.w	fp, [sp, #32]
   838ca:	2500      	movs	r5, #0
   838cc:	f8bb 4000 	ldrh.w	r4, [fp]
   838d0:	f10b 0b04 	add.w	fp, fp, #4
   838d4:	f8cd b020 	str.w	fp, [sp, #32]
   838d8:	e707      	b.n	836ea <_vfiprintf_r+0x492>
   838da:	f898 3000 	ldrb.w	r3, [r8]
   838de:	2900      	cmp	r1, #0
   838e0:	f47f ad27 	bne.w	83332 <_vfiprintf_r+0xda>
   838e4:	2120      	movs	r1, #32
   838e6:	e524      	b.n	83332 <_vfiprintf_r+0xda>
   838e8:	f04a 0a01 	orr.w	sl, sl, #1
   838ec:	f898 3000 	ldrb.w	r3, [r8]
   838f0:	e51f      	b.n	83332 <_vfiprintf_r+0xda>
   838f2:	9004      	str	r0, [sp, #16]
   838f4:	f88d 1047 	strb.w	r1, [sp, #71]	; 0x47
   838f8:	2b00      	cmp	r3, #0
   838fa:	f000 80f9 	beq.w	83af0 <_vfiprintf_r+0x898>
   838fe:	2501      	movs	r5, #1
   83900:	f04f 0b00 	mov.w	fp, #0
   83904:	9503      	str	r5, [sp, #12]
   83906:	f88d 3058 	strb.w	r3, [sp, #88]	; 0x58
   8390a:	f88d b047 	strb.w	fp, [sp, #71]	; 0x47
   8390e:	9505      	str	r5, [sp, #20]
   83910:	af16      	add	r7, sp, #88	; 0x58
   83912:	e70e      	b.n	83732 <_vfiprintf_r+0x4da>
   83914:	9806      	ldr	r0, [sp, #24]
   83916:	9902      	ldr	r1, [sp, #8]
   83918:	aa13      	add	r2, sp, #76	; 0x4c
   8391a:	f7ff fc61 	bl	831e0 <__sprint_r.part.0>
   8391e:	2800      	cmp	r0, #0
   83920:	f040 80ed 	bne.w	83afe <_vfiprintf_r+0x8a6>
   83924:	9814      	ldr	r0, [sp, #80]	; 0x50
   83926:	9a15      	ldr	r2, [sp, #84]	; 0x54
   83928:	1c43      	adds	r3, r0, #1
   8392a:	46cc      	mov	ip, r9
   8392c:	e5fe      	b.n	8352c <_vfiprintf_r+0x2d4>
   8392e:	9b14      	ldr	r3, [sp, #80]	; 0x50
   83930:	9a15      	ldr	r2, [sp, #84]	; 0x54
   83932:	1c59      	adds	r1, r3, #1
   83934:	f89d 0047 	ldrb.w	r0, [sp, #71]	; 0x47
   83938:	b168      	cbz	r0, 83956 <_vfiprintf_r+0x6fe>
   8393a:	3201      	adds	r2, #1
   8393c:	f10d 0047 	add.w	r0, sp, #71	; 0x47
   83940:	2301      	movs	r3, #1
   83942:	2907      	cmp	r1, #7
   83944:	9215      	str	r2, [sp, #84]	; 0x54
   83946:	9114      	str	r1, [sp, #80]	; 0x50
   83948:	e886 0009 	stmia.w	r6, {r0, r3}
   8394c:	f300 8160 	bgt.w	83c10 <_vfiprintf_r+0x9b8>
   83950:	460b      	mov	r3, r1
   83952:	3608      	adds	r6, #8
   83954:	3101      	adds	r1, #1
   83956:	9c07      	ldr	r4, [sp, #28]
   83958:	b164      	cbz	r4, 83974 <_vfiprintf_r+0x71c>
   8395a:	3202      	adds	r2, #2
   8395c:	a812      	add	r0, sp, #72	; 0x48
   8395e:	2302      	movs	r3, #2
   83960:	2907      	cmp	r1, #7
   83962:	9215      	str	r2, [sp, #84]	; 0x54
   83964:	9114      	str	r1, [sp, #80]	; 0x50
   83966:	e886 0009 	stmia.w	r6, {r0, r3}
   8396a:	f300 8157 	bgt.w	83c1c <_vfiprintf_r+0x9c4>
   8396e:	460b      	mov	r3, r1
   83970:	3608      	adds	r6, #8
   83972:	3101      	adds	r1, #1
   83974:	9d0b      	ldr	r5, [sp, #44]	; 0x2c
   83976:	2d80      	cmp	r5, #128	; 0x80
   83978:	f000 8101 	beq.w	83b7e <_vfiprintf_r+0x926>
   8397c:	9d05      	ldr	r5, [sp, #20]
   8397e:	ebc5 040c 	rsb	r4, r5, ip
   83982:	2c00      	cmp	r4, #0
   83984:	dd2f      	ble.n	839e6 <_vfiprintf_r+0x78e>
   83986:	2c10      	cmp	r4, #16
   83988:	4d57      	ldr	r5, [pc, #348]	; (83ae8 <_vfiprintf_r+0x890>)
   8398a:	dd22      	ble.n	839d2 <_vfiprintf_r+0x77a>
   8398c:	4630      	mov	r0, r6
   8398e:	f04f 0b10 	mov.w	fp, #16
   83992:	462e      	mov	r6, r5
   83994:	4625      	mov	r5, r4
   83996:	9c06      	ldr	r4, [sp, #24]
   83998:	e006      	b.n	839a8 <_vfiprintf_r+0x750>
   8399a:	f103 0c02 	add.w	ip, r3, #2
   8399e:	3008      	adds	r0, #8
   839a0:	460b      	mov	r3, r1
   839a2:	3d10      	subs	r5, #16
   839a4:	2d10      	cmp	r5, #16
   839a6:	dd10      	ble.n	839ca <_vfiprintf_r+0x772>
   839a8:	1c59      	adds	r1, r3, #1
   839aa:	3210      	adds	r2, #16
   839ac:	2907      	cmp	r1, #7
   839ae:	9215      	str	r2, [sp, #84]	; 0x54
   839b0:	e880 0840 	stmia.w	r0, {r6, fp}
   839b4:	9114      	str	r1, [sp, #80]	; 0x50
   839b6:	ddf0      	ble.n	8399a <_vfiprintf_r+0x742>
   839b8:	2a00      	cmp	r2, #0
   839ba:	d163      	bne.n	83a84 <_vfiprintf_r+0x82c>
   839bc:	3d10      	subs	r5, #16
   839be:	2d10      	cmp	r5, #16
   839c0:	f04f 0c01 	mov.w	ip, #1
   839c4:	4613      	mov	r3, r2
   839c6:	4648      	mov	r0, r9
   839c8:	dcee      	bgt.n	839a8 <_vfiprintf_r+0x750>
   839ca:	462c      	mov	r4, r5
   839cc:	4661      	mov	r1, ip
   839ce:	4635      	mov	r5, r6
   839d0:	4606      	mov	r6, r0
   839d2:	4422      	add	r2, r4
   839d4:	2907      	cmp	r1, #7
   839d6:	9215      	str	r2, [sp, #84]	; 0x54
   839d8:	6035      	str	r5, [r6, #0]
   839da:	6074      	str	r4, [r6, #4]
   839dc:	9114      	str	r1, [sp, #80]	; 0x50
   839de:	f300 80c1 	bgt.w	83b64 <_vfiprintf_r+0x90c>
   839e2:	3608      	adds	r6, #8
   839e4:	3101      	adds	r1, #1
   839e6:	9d05      	ldr	r5, [sp, #20]
   839e8:	2907      	cmp	r1, #7
   839ea:	442a      	add	r2, r5
   839ec:	9215      	str	r2, [sp, #84]	; 0x54
   839ee:	6037      	str	r7, [r6, #0]
   839f0:	6075      	str	r5, [r6, #4]
   839f2:	9114      	str	r1, [sp, #80]	; 0x50
   839f4:	f340 80c1 	ble.w	83b7a <_vfiprintf_r+0x922>
   839f8:	2a00      	cmp	r2, #0
   839fa:	f040 8130 	bne.w	83c5e <_vfiprintf_r+0xa06>
   839fe:	9214      	str	r2, [sp, #80]	; 0x50
   83a00:	464e      	mov	r6, r9
   83a02:	f01a 0f04 	tst.w	sl, #4
   83a06:	f000 808b 	beq.w	83b20 <_vfiprintf_r+0x8c8>
   83a0a:	9d04      	ldr	r5, [sp, #16]
   83a0c:	f8dd b00c 	ldr.w	fp, [sp, #12]
   83a10:	ebcb 0405 	rsb	r4, fp, r5
   83a14:	2c00      	cmp	r4, #0
   83a16:	f340 8083 	ble.w	83b20 <_vfiprintf_r+0x8c8>
   83a1a:	2c10      	cmp	r4, #16
   83a1c:	f340 821e 	ble.w	83e5c <_vfiprintf_r+0xc04>
   83a20:	9914      	ldr	r1, [sp, #80]	; 0x50
   83a22:	4d32      	ldr	r5, [pc, #200]	; (83aec <_vfiprintf_r+0x894>)
   83a24:	2710      	movs	r7, #16
   83a26:	f8dd a018 	ldr.w	sl, [sp, #24]
   83a2a:	f8dd b008 	ldr.w	fp, [sp, #8]
   83a2e:	e005      	b.n	83a3c <_vfiprintf_r+0x7e4>
   83a30:	1c88      	adds	r0, r1, #2
   83a32:	3608      	adds	r6, #8
   83a34:	4619      	mov	r1, r3
   83a36:	3c10      	subs	r4, #16
   83a38:	2c10      	cmp	r4, #16
   83a3a:	dd10      	ble.n	83a5e <_vfiprintf_r+0x806>
   83a3c:	1c4b      	adds	r3, r1, #1
   83a3e:	3210      	adds	r2, #16
   83a40:	2b07      	cmp	r3, #7
   83a42:	9215      	str	r2, [sp, #84]	; 0x54
   83a44:	e886 00a0 	stmia.w	r6, {r5, r7}
   83a48:	9314      	str	r3, [sp, #80]	; 0x50
   83a4a:	ddf1      	ble.n	83a30 <_vfiprintf_r+0x7d8>
   83a4c:	2a00      	cmp	r2, #0
   83a4e:	d17d      	bne.n	83b4c <_vfiprintf_r+0x8f4>
   83a50:	3c10      	subs	r4, #16
   83a52:	2c10      	cmp	r4, #16
   83a54:	f04f 0001 	mov.w	r0, #1
   83a58:	4611      	mov	r1, r2
   83a5a:	464e      	mov	r6, r9
   83a5c:	dcee      	bgt.n	83a3c <_vfiprintf_r+0x7e4>
   83a5e:	4422      	add	r2, r4
   83a60:	2807      	cmp	r0, #7
   83a62:	9215      	str	r2, [sp, #84]	; 0x54
   83a64:	6035      	str	r5, [r6, #0]
   83a66:	6074      	str	r4, [r6, #4]
   83a68:	9014      	str	r0, [sp, #80]	; 0x50
   83a6a:	dd59      	ble.n	83b20 <_vfiprintf_r+0x8c8>
   83a6c:	2a00      	cmp	r2, #0
   83a6e:	d14f      	bne.n	83b10 <_vfiprintf_r+0x8b8>
   83a70:	9c09      	ldr	r4, [sp, #36]	; 0x24
   83a72:	f8dd b00c 	ldr.w	fp, [sp, #12]
   83a76:	9d04      	ldr	r5, [sp, #16]
   83a78:	45ab      	cmp	fp, r5
   83a7a:	bfac      	ite	ge
   83a7c:	445c      	addge	r4, fp
   83a7e:	1964      	addlt	r4, r4, r5
   83a80:	9409      	str	r4, [sp, #36]	; 0x24
   83a82:	e05e      	b.n	83b42 <_vfiprintf_r+0x8ea>
   83a84:	4620      	mov	r0, r4
   83a86:	9902      	ldr	r1, [sp, #8]
   83a88:	aa13      	add	r2, sp, #76	; 0x4c
   83a8a:	f7ff fba9 	bl	831e0 <__sprint_r.part.0>
   83a8e:	2800      	cmp	r0, #0
   83a90:	d135      	bne.n	83afe <_vfiprintf_r+0x8a6>
   83a92:	9b14      	ldr	r3, [sp, #80]	; 0x50
   83a94:	9a15      	ldr	r2, [sp, #84]	; 0x54
   83a96:	f103 0c01 	add.w	ip, r3, #1
   83a9a:	4648      	mov	r0, r9
   83a9c:	e781      	b.n	839a2 <_vfiprintf_r+0x74a>
   83a9e:	08e0      	lsrs	r0, r4, #3
   83aa0:	ea40 7045 	orr.w	r0, r0, r5, lsl #29
   83aa4:	f004 0207 	and.w	r2, r4, #7
   83aa8:	08e9      	lsrs	r1, r5, #3
   83aaa:	3230      	adds	r2, #48	; 0x30
   83aac:	ea50 0b01 	orrs.w	fp, r0, r1
   83ab0:	461f      	mov	r7, r3
   83ab2:	701a      	strb	r2, [r3, #0]
   83ab4:	4604      	mov	r4, r0
   83ab6:	460d      	mov	r5, r1
   83ab8:	f103 33ff 	add.w	r3, r3, #4294967295
   83abc:	d1ef      	bne.n	83a9e <_vfiprintf_r+0x846>
   83abe:	f01a 0f01 	tst.w	sl, #1
   83ac2:	e9cd 010c 	strd	r0, r1, [sp, #48]	; 0x30
   83ac6:	4639      	mov	r1, r7
   83ac8:	f000 80b9 	beq.w	83c3e <_vfiprintf_r+0x9e6>
   83acc:	2a30      	cmp	r2, #48	; 0x30
   83ace:	f43f acf4 	beq.w	834ba <_vfiprintf_r+0x262>
   83ad2:	461f      	mov	r7, r3
   83ad4:	ebc7 0509 	rsb	r5, r7, r9
   83ad8:	2330      	movs	r3, #48	; 0x30
   83ada:	9505      	str	r5, [sp, #20]
   83adc:	f801 3c01 	strb.w	r3, [r1, #-1]
   83ae0:	e4ee      	b.n	834c0 <_vfiprintf_r+0x268>
   83ae2:	bf00      	nop
   83ae4:	000860c8 	.word	0x000860c8
   83ae8:	000860e4 	.word	0x000860e4
   83aec:	000860f4 	.word	0x000860f4
   83af0:	9b15      	ldr	r3, [sp, #84]	; 0x54
   83af2:	b123      	cbz	r3, 83afe <_vfiprintf_r+0x8a6>
   83af4:	9806      	ldr	r0, [sp, #24]
   83af6:	9902      	ldr	r1, [sp, #8]
   83af8:	aa13      	add	r2, sp, #76	; 0x4c
   83afa:	f7ff fb71 	bl	831e0 <__sprint_r.part.0>
   83afe:	9c02      	ldr	r4, [sp, #8]
   83b00:	89a3      	ldrh	r3, [r4, #12]
   83b02:	065b      	lsls	r3, r3, #25
   83b04:	f53f ac98 	bmi.w	83438 <_vfiprintf_r+0x1e0>
   83b08:	9809      	ldr	r0, [sp, #36]	; 0x24
   83b0a:	b031      	add	sp, #196	; 0xc4
   83b0c:	e8bd 8ff0 	ldmia.w	sp!, {r4, r5, r6, r7, r8, r9, sl, fp, pc}
   83b10:	9806      	ldr	r0, [sp, #24]
   83b12:	9902      	ldr	r1, [sp, #8]
   83b14:	aa13      	add	r2, sp, #76	; 0x4c
   83b16:	f7ff fb63 	bl	831e0 <__sprint_r.part.0>
   83b1a:	2800      	cmp	r0, #0
   83b1c:	d1ef      	bne.n	83afe <_vfiprintf_r+0x8a6>
   83b1e:	9a15      	ldr	r2, [sp, #84]	; 0x54
   83b20:	9c09      	ldr	r4, [sp, #36]	; 0x24
   83b22:	f8dd b00c 	ldr.w	fp, [sp, #12]
   83b26:	9d04      	ldr	r5, [sp, #16]
   83b28:	45ab      	cmp	fp, r5
   83b2a:	bfac      	ite	ge
   83b2c:	445c      	addge	r4, fp
   83b2e:	1964      	addlt	r4, r4, r5
   83b30:	9409      	str	r4, [sp, #36]	; 0x24
   83b32:	b132      	cbz	r2, 83b42 <_vfiprintf_r+0x8ea>
   83b34:	9806      	ldr	r0, [sp, #24]
   83b36:	9902      	ldr	r1, [sp, #8]
   83b38:	aa13      	add	r2, sp, #76	; 0x4c
   83b3a:	f7ff fb51 	bl	831e0 <__sprint_r.part.0>
   83b3e:	2800      	cmp	r0, #0
   83b40:	d1dd      	bne.n	83afe <_vfiprintf_r+0x8a6>
   83b42:	2000      	movs	r0, #0
   83b44:	9014      	str	r0, [sp, #80]	; 0x50
   83b46:	464e      	mov	r6, r9
   83b48:	f7ff bbb9 	b.w	832be <_vfiprintf_r+0x66>
   83b4c:	4650      	mov	r0, sl
   83b4e:	4659      	mov	r1, fp
   83b50:	aa13      	add	r2, sp, #76	; 0x4c
   83b52:	f7ff fb45 	bl	831e0 <__sprint_r.part.0>
   83b56:	2800      	cmp	r0, #0
   83b58:	d1d1      	bne.n	83afe <_vfiprintf_r+0x8a6>
   83b5a:	9914      	ldr	r1, [sp, #80]	; 0x50
   83b5c:	9a15      	ldr	r2, [sp, #84]	; 0x54
   83b5e:	1c48      	adds	r0, r1, #1
   83b60:	464e      	mov	r6, r9
   83b62:	e768      	b.n	83a36 <_vfiprintf_r+0x7de>
   83b64:	2a00      	cmp	r2, #0
   83b66:	f040 80f7 	bne.w	83d58 <_vfiprintf_r+0xb00>
   83b6a:	9c05      	ldr	r4, [sp, #20]
   83b6c:	2301      	movs	r3, #1
   83b6e:	9720      	str	r7, [sp, #128]	; 0x80
   83b70:	9421      	str	r4, [sp, #132]	; 0x84
   83b72:	9415      	str	r4, [sp, #84]	; 0x54
   83b74:	4622      	mov	r2, r4
   83b76:	9314      	str	r3, [sp, #80]	; 0x50
   83b78:	464e      	mov	r6, r9
   83b7a:	3608      	adds	r6, #8
   83b7c:	e741      	b.n	83a02 <_vfiprintf_r+0x7aa>
   83b7e:	9d04      	ldr	r5, [sp, #16]
   83b80:	f8dd b00c 	ldr.w	fp, [sp, #12]
   83b84:	ebcb 0405 	rsb	r4, fp, r5
   83b88:	2c00      	cmp	r4, #0
   83b8a:	f77f aef7 	ble.w	8397c <_vfiprintf_r+0x724>
   83b8e:	2c10      	cmp	r4, #16
   83b90:	4da6      	ldr	r5, [pc, #664]	; (83e2c <_vfiprintf_r+0xbd4>)
   83b92:	f340 8170 	ble.w	83e76 <_vfiprintf_r+0xc1e>
   83b96:	4629      	mov	r1, r5
   83b98:	f04f 0b10 	mov.w	fp, #16
   83b9c:	4625      	mov	r5, r4
   83b9e:	4664      	mov	r4, ip
   83ba0:	46b4      	mov	ip, r6
   83ba2:	460e      	mov	r6, r1
   83ba4:	e006      	b.n	83bb4 <_vfiprintf_r+0x95c>
   83ba6:	1c98      	adds	r0, r3, #2
   83ba8:	f10c 0c08 	add.w	ip, ip, #8
   83bac:	460b      	mov	r3, r1
   83bae:	3d10      	subs	r5, #16
   83bb0:	2d10      	cmp	r5, #16
   83bb2:	dd0f      	ble.n	83bd4 <_vfiprintf_r+0x97c>
   83bb4:	1c59      	adds	r1, r3, #1
   83bb6:	3210      	adds	r2, #16
   83bb8:	2907      	cmp	r1, #7
   83bba:	9215      	str	r2, [sp, #84]	; 0x54
   83bbc:	e88c 0840 	stmia.w	ip, {r6, fp}
   83bc0:	9114      	str	r1, [sp, #80]	; 0x50
   83bc2:	ddf0      	ble.n	83ba6 <_vfiprintf_r+0x94e>
   83bc4:	b9ba      	cbnz	r2, 83bf6 <_vfiprintf_r+0x99e>
   83bc6:	3d10      	subs	r5, #16
   83bc8:	2d10      	cmp	r5, #16
   83bca:	f04f 0001 	mov.w	r0, #1
   83bce:	4613      	mov	r3, r2
   83bd0:	46cc      	mov	ip, r9
   83bd2:	dcef      	bgt.n	83bb4 <_vfiprintf_r+0x95c>
   83bd4:	4633      	mov	r3, r6
   83bd6:	4666      	mov	r6, ip
   83bd8:	46a4      	mov	ip, r4
   83bda:	462c      	mov	r4, r5
   83bdc:	461d      	mov	r5, r3
   83bde:	4422      	add	r2, r4
   83be0:	2807      	cmp	r0, #7
   83be2:	9215      	str	r2, [sp, #84]	; 0x54
   83be4:	6035      	str	r5, [r6, #0]
   83be6:	6074      	str	r4, [r6, #4]
   83be8:	9014      	str	r0, [sp, #80]	; 0x50
   83bea:	f300 80af 	bgt.w	83d4c <_vfiprintf_r+0xaf4>
   83bee:	3608      	adds	r6, #8
   83bf0:	1c41      	adds	r1, r0, #1
   83bf2:	4603      	mov	r3, r0
   83bf4:	e6c2      	b.n	8397c <_vfiprintf_r+0x724>
   83bf6:	9806      	ldr	r0, [sp, #24]
   83bf8:	9902      	ldr	r1, [sp, #8]
   83bfa:	aa13      	add	r2, sp, #76	; 0x4c
   83bfc:	f7ff faf0 	bl	831e0 <__sprint_r.part.0>
   83c00:	2800      	cmp	r0, #0
   83c02:	f47f af7c 	bne.w	83afe <_vfiprintf_r+0x8a6>
   83c06:	9b14      	ldr	r3, [sp, #80]	; 0x50
   83c08:	9a15      	ldr	r2, [sp, #84]	; 0x54
   83c0a:	1c58      	adds	r0, r3, #1
   83c0c:	46cc      	mov	ip, r9
   83c0e:	e7ce      	b.n	83bae <_vfiprintf_r+0x956>
   83c10:	2a00      	cmp	r2, #0
   83c12:	d179      	bne.n	83d08 <_vfiprintf_r+0xab0>
   83c14:	4619      	mov	r1, r3
   83c16:	464e      	mov	r6, r9
   83c18:	4613      	mov	r3, r2
   83c1a:	e69c      	b.n	83956 <_vfiprintf_r+0x6fe>
   83c1c:	2a00      	cmp	r2, #0
   83c1e:	f040 8084 	bne.w	83d2a <_vfiprintf_r+0xad2>
   83c22:	2101      	movs	r1, #1
   83c24:	4613      	mov	r3, r2
   83c26:	464e      	mov	r6, r9
   83c28:	e6a4      	b.n	83974 <_vfiprintf_r+0x71c>
   83c2a:	464f      	mov	r7, r9
   83c2c:	e448      	b.n	834c0 <_vfiprintf_r+0x268>
   83c2e:	2d00      	cmp	r5, #0
   83c30:	bf08      	it	eq
   83c32:	2c0a      	cmpeq	r4, #10
   83c34:	d246      	bcs.n	83cc4 <_vfiprintf_r+0xa6c>
   83c36:	3430      	adds	r4, #48	; 0x30
   83c38:	af30      	add	r7, sp, #192	; 0xc0
   83c3a:	f807 4d41 	strb.w	r4, [r7, #-65]!
   83c3e:	ebc7 0309 	rsb	r3, r7, r9
   83c42:	9305      	str	r3, [sp, #20]
   83c44:	e43c      	b.n	834c0 <_vfiprintf_r+0x268>
   83c46:	2302      	movs	r3, #2
   83c48:	e417      	b.n	8347a <_vfiprintf_r+0x222>
   83c4a:	2a00      	cmp	r2, #0
   83c4c:	f040 80af 	bne.w	83dae <_vfiprintf_r+0xb56>
   83c50:	4613      	mov	r3, r2
   83c52:	2101      	movs	r1, #1
   83c54:	464e      	mov	r6, r9
   83c56:	e66d      	b.n	83934 <_vfiprintf_r+0x6dc>
   83c58:	4644      	mov	r4, r8
   83c5a:	f7ff bb58 	b.w	8330e <_vfiprintf_r+0xb6>
   83c5e:	9806      	ldr	r0, [sp, #24]
   83c60:	9902      	ldr	r1, [sp, #8]
   83c62:	aa13      	add	r2, sp, #76	; 0x4c
   83c64:	f7ff fabc 	bl	831e0 <__sprint_r.part.0>
   83c68:	2800      	cmp	r0, #0
   83c6a:	f47f af48 	bne.w	83afe <_vfiprintf_r+0x8a6>
   83c6e:	9a15      	ldr	r2, [sp, #84]	; 0x54
   83c70:	464e      	mov	r6, r9
   83c72:	e6c6      	b.n	83a02 <_vfiprintf_r+0x7aa>
   83c74:	9d08      	ldr	r5, [sp, #32]
   83c76:	682c      	ldr	r4, [r5, #0]
   83c78:	3504      	adds	r5, #4
   83c7a:	9508      	str	r5, [sp, #32]
   83c7c:	2500      	movs	r5, #0
   83c7e:	f7ff bbfc 	b.w	8347a <_vfiprintf_r+0x222>
   83c82:	9d08      	ldr	r5, [sp, #32]
   83c84:	2301      	movs	r3, #1
   83c86:	682c      	ldr	r4, [r5, #0]
   83c88:	3504      	adds	r5, #4
   83c8a:	9508      	str	r5, [sp, #32]
   83c8c:	2500      	movs	r5, #0
   83c8e:	f7ff bbf4 	b.w	8347a <_vfiprintf_r+0x222>
   83c92:	9d08      	ldr	r5, [sp, #32]
   83c94:	682c      	ldr	r4, [r5, #0]
   83c96:	3504      	adds	r5, #4
   83c98:	9508      	str	r5, [sp, #32]
   83c9a:	2500      	movs	r5, #0
   83c9c:	e525      	b.n	836ea <_vfiprintf_r+0x492>
   83c9e:	9d08      	ldr	r5, [sp, #32]
   83ca0:	682c      	ldr	r4, [r5, #0]
   83ca2:	3504      	adds	r5, #4
   83ca4:	9508      	str	r5, [sp, #32]
   83ca6:	17e5      	asrs	r5, r4, #31
   83ca8:	4622      	mov	r2, r4
   83caa:	462b      	mov	r3, r5
   83cac:	e48e      	b.n	835cc <_vfiprintf_r+0x374>
   83cae:	9806      	ldr	r0, [sp, #24]
   83cb0:	9902      	ldr	r1, [sp, #8]
   83cb2:	aa13      	add	r2, sp, #76	; 0x4c
   83cb4:	f7ff fa94 	bl	831e0 <__sprint_r.part.0>
   83cb8:	2800      	cmp	r0, #0
   83cba:	f47f af20 	bne.w	83afe <_vfiprintf_r+0x8a6>
   83cbe:	464e      	mov	r6, r9
   83cc0:	f7ff bb9a 	b.w	833f8 <_vfiprintf_r+0x1a0>
   83cc4:	f10d 0b7f 	add.w	fp, sp, #127	; 0x7f
   83cc8:	9603      	str	r6, [sp, #12]
   83cca:	465e      	mov	r6, fp
   83ccc:	46e3      	mov	fp, ip
   83cce:	4620      	mov	r0, r4
   83cd0:	4629      	mov	r1, r5
   83cd2:	220a      	movs	r2, #10
   83cd4:	2300      	movs	r3, #0
   83cd6:	f001 fe5f 	bl	85998 <__aeabi_uldivmod>
   83cda:	3230      	adds	r2, #48	; 0x30
   83cdc:	7032      	strb	r2, [r6, #0]
   83cde:	4620      	mov	r0, r4
   83ce0:	4629      	mov	r1, r5
   83ce2:	220a      	movs	r2, #10
   83ce4:	2300      	movs	r3, #0
   83ce6:	f001 fe57 	bl	85998 <__aeabi_uldivmod>
   83cea:	4604      	mov	r4, r0
   83cec:	460d      	mov	r5, r1
   83cee:	ea54 0005 	orrs.w	r0, r4, r5
   83cf2:	4637      	mov	r7, r6
   83cf4:	f106 36ff 	add.w	r6, r6, #4294967295
   83cf8:	d1e9      	bne.n	83cce <_vfiprintf_r+0xa76>
   83cfa:	ebc7 0309 	rsb	r3, r7, r9
   83cfe:	46dc      	mov	ip, fp
   83d00:	9e03      	ldr	r6, [sp, #12]
   83d02:	9305      	str	r3, [sp, #20]
   83d04:	f7ff bbdc 	b.w	834c0 <_vfiprintf_r+0x268>
   83d08:	9806      	ldr	r0, [sp, #24]
   83d0a:	9902      	ldr	r1, [sp, #8]
   83d0c:	aa13      	add	r2, sp, #76	; 0x4c
   83d0e:	f8cd c004 	str.w	ip, [sp, #4]
   83d12:	f7ff fa65 	bl	831e0 <__sprint_r.part.0>
   83d16:	f8dd c004 	ldr.w	ip, [sp, #4]
   83d1a:	2800      	cmp	r0, #0
   83d1c:	f47f aeef 	bne.w	83afe <_vfiprintf_r+0x8a6>
   83d20:	9b14      	ldr	r3, [sp, #80]	; 0x50
   83d22:	9a15      	ldr	r2, [sp, #84]	; 0x54
   83d24:	1c59      	adds	r1, r3, #1
   83d26:	464e      	mov	r6, r9
   83d28:	e615      	b.n	83956 <_vfiprintf_r+0x6fe>
   83d2a:	9806      	ldr	r0, [sp, #24]
   83d2c:	9902      	ldr	r1, [sp, #8]
   83d2e:	aa13      	add	r2, sp, #76	; 0x4c
   83d30:	f8cd c004 	str.w	ip, [sp, #4]
   83d34:	f7ff fa54 	bl	831e0 <__sprint_r.part.0>
   83d38:	f8dd c004 	ldr.w	ip, [sp, #4]
   83d3c:	2800      	cmp	r0, #0
   83d3e:	f47f aede 	bne.w	83afe <_vfiprintf_r+0x8a6>
   83d42:	9b14      	ldr	r3, [sp, #80]	; 0x50
   83d44:	9a15      	ldr	r2, [sp, #84]	; 0x54
   83d46:	1c59      	adds	r1, r3, #1
   83d48:	464e      	mov	r6, r9
   83d4a:	e613      	b.n	83974 <_vfiprintf_r+0x71c>
   83d4c:	2a00      	cmp	r2, #0
   83d4e:	d156      	bne.n	83dfe <_vfiprintf_r+0xba6>
   83d50:	2101      	movs	r1, #1
   83d52:	4613      	mov	r3, r2
   83d54:	464e      	mov	r6, r9
   83d56:	e611      	b.n	8397c <_vfiprintf_r+0x724>
   83d58:	9806      	ldr	r0, [sp, #24]
   83d5a:	9902      	ldr	r1, [sp, #8]
   83d5c:	aa13      	add	r2, sp, #76	; 0x4c
   83d5e:	f7ff fa3f 	bl	831e0 <__sprint_r.part.0>
   83d62:	2800      	cmp	r0, #0
   83d64:	f47f aecb 	bne.w	83afe <_vfiprintf_r+0x8a6>
   83d68:	9914      	ldr	r1, [sp, #80]	; 0x50
   83d6a:	9a15      	ldr	r2, [sp, #84]	; 0x54
   83d6c:	3101      	adds	r1, #1
   83d6e:	464e      	mov	r6, r9
   83d70:	e639      	b.n	839e6 <_vfiprintf_r+0x78e>
   83d72:	f04f 0b2d 	mov.w	fp, #45	; 0x2d
   83d76:	4264      	negs	r4, r4
   83d78:	eb65 0545 	sbc.w	r5, r5, r5, lsl #1
   83d7c:	f88d b047 	strb.w	fp, [sp, #71]	; 0x47
   83d80:	f8cd b01c 	str.w	fp, [sp, #28]
   83d84:	f8cd c014 	str.w	ip, [sp, #20]
   83d88:	2301      	movs	r3, #1
   83d8a:	f7ff bb7e 	b.w	8348a <_vfiprintf_r+0x232>
   83d8e:	f01a 0f10 	tst.w	sl, #16
   83d92:	d11d      	bne.n	83dd0 <_vfiprintf_r+0xb78>
   83d94:	f01a 0f40 	tst.w	sl, #64	; 0x40
   83d98:	d058      	beq.n	83e4c <_vfiprintf_r+0xbf4>
   83d9a:	9d08      	ldr	r5, [sp, #32]
   83d9c:	f8dd b024 	ldr.w	fp, [sp, #36]	; 0x24
   83da0:	682b      	ldr	r3, [r5, #0]
   83da2:	3504      	adds	r5, #4
   83da4:	9508      	str	r5, [sp, #32]
   83da6:	f8a3 b000 	strh.w	fp, [r3]
   83daa:	f7ff ba88 	b.w	832be <_vfiprintf_r+0x66>
   83dae:	9806      	ldr	r0, [sp, #24]
   83db0:	9902      	ldr	r1, [sp, #8]
   83db2:	aa13      	add	r2, sp, #76	; 0x4c
   83db4:	f8cd c004 	str.w	ip, [sp, #4]
   83db8:	f7ff fa12 	bl	831e0 <__sprint_r.part.0>
   83dbc:	f8dd c004 	ldr.w	ip, [sp, #4]
   83dc0:	2800      	cmp	r0, #0
   83dc2:	f47f ae9c 	bne.w	83afe <_vfiprintf_r+0x8a6>
   83dc6:	9b14      	ldr	r3, [sp, #80]	; 0x50
   83dc8:	9a15      	ldr	r2, [sp, #84]	; 0x54
   83dca:	1c59      	adds	r1, r3, #1
   83dcc:	464e      	mov	r6, r9
   83dce:	e5b1      	b.n	83934 <_vfiprintf_r+0x6dc>
   83dd0:	f8dd b020 	ldr.w	fp, [sp, #32]
   83dd4:	9c09      	ldr	r4, [sp, #36]	; 0x24
   83dd6:	f8db 3000 	ldr.w	r3, [fp]
   83dda:	f10b 0b04 	add.w	fp, fp, #4
   83dde:	f8cd b020 	str.w	fp, [sp, #32]
   83de2:	601c      	str	r4, [r3, #0]
   83de4:	f7ff ba6b 	b.w	832be <_vfiprintf_r+0x66>
   83de8:	9408      	str	r4, [sp, #32]
   83dea:	f001 fc5f 	bl	856ac <strlen>
   83dee:	f89d 4047 	ldrb.w	r4, [sp, #71]	; 0x47
   83df2:	9005      	str	r0, [sp, #20]
   83df4:	9407      	str	r4, [sp, #28]
   83df6:	f04f 0c00 	mov.w	ip, #0
   83dfa:	f7ff bb61 	b.w	834c0 <_vfiprintf_r+0x268>
   83dfe:	9806      	ldr	r0, [sp, #24]
   83e00:	9902      	ldr	r1, [sp, #8]
   83e02:	aa13      	add	r2, sp, #76	; 0x4c
   83e04:	f8cd c004 	str.w	ip, [sp, #4]
   83e08:	f7ff f9ea 	bl	831e0 <__sprint_r.part.0>
   83e0c:	f8dd c004 	ldr.w	ip, [sp, #4]
   83e10:	2800      	cmp	r0, #0
   83e12:	f47f ae74 	bne.w	83afe <_vfiprintf_r+0x8a6>
   83e16:	9b14      	ldr	r3, [sp, #80]	; 0x50
   83e18:	9a15      	ldr	r2, [sp, #84]	; 0x54
   83e1a:	1c59      	adds	r1, r3, #1
   83e1c:	464e      	mov	r6, r9
   83e1e:	e5ad      	b.n	8397c <_vfiprintf_r+0x724>
   83e20:	9b14      	ldr	r3, [sp, #80]	; 0x50
   83e22:	9a15      	ldr	r2, [sp, #84]	; 0x54
   83e24:	3301      	adds	r3, #1
   83e26:	4d02      	ldr	r5, [pc, #8]	; (83e30 <_vfiprintf_r+0xbd8>)
   83e28:	f7ff bb9a 	b.w	83560 <_vfiprintf_r+0x308>
   83e2c:	000860e4 	.word	0x000860e4
   83e30:	000860f4 	.word	0x000860f4
   83e34:	f1bc 0f06 	cmp.w	ip, #6
   83e38:	bf34      	ite	cc
   83e3a:	4663      	movcc	r3, ip
   83e3c:	2306      	movcs	r3, #6
   83e3e:	9408      	str	r4, [sp, #32]
   83e40:	ea23 74e3 	bic.w	r4, r3, r3, asr #31
   83e44:	9305      	str	r3, [sp, #20]
   83e46:	9403      	str	r4, [sp, #12]
   83e48:	4f16      	ldr	r7, [pc, #88]	; (83ea4 <_vfiprintf_r+0xc4c>)
   83e4a:	e472      	b.n	83732 <_vfiprintf_r+0x4da>
   83e4c:	9c08      	ldr	r4, [sp, #32]
   83e4e:	9d09      	ldr	r5, [sp, #36]	; 0x24
   83e50:	6823      	ldr	r3, [r4, #0]
   83e52:	3404      	adds	r4, #4
   83e54:	9408      	str	r4, [sp, #32]
   83e56:	601d      	str	r5, [r3, #0]
   83e58:	f7ff ba31 	b.w	832be <_vfiprintf_r+0x66>
   83e5c:	9814      	ldr	r0, [sp, #80]	; 0x50
   83e5e:	4d12      	ldr	r5, [pc, #72]	; (83ea8 <_vfiprintf_r+0xc50>)
   83e60:	3001      	adds	r0, #1
   83e62:	e5fc      	b.n	83a5e <_vfiprintf_r+0x806>
   83e64:	f89d 5047 	ldrb.w	r5, [sp, #71]	; 0x47
   83e68:	f8cd c014 	str.w	ip, [sp, #20]
   83e6c:	9507      	str	r5, [sp, #28]
   83e6e:	9408      	str	r4, [sp, #32]
   83e70:	4684      	mov	ip, r0
   83e72:	f7ff bb25 	b.w	834c0 <_vfiprintf_r+0x268>
   83e76:	4608      	mov	r0, r1
   83e78:	e6b1      	b.n	83bde <_vfiprintf_r+0x986>
   83e7a:	46a0      	mov	r8, r4
   83e7c:	2500      	movs	r5, #0
   83e7e:	f7ff ba5a 	b.w	83336 <_vfiprintf_r+0xde>
   83e82:	f8dd b020 	ldr.w	fp, [sp, #32]
   83e86:	f898 3001 	ldrb.w	r3, [r8, #1]
   83e8a:	f8db 5000 	ldr.w	r5, [fp]
   83e8e:	f10b 0204 	add.w	r2, fp, #4
   83e92:	2d00      	cmp	r5, #0
   83e94:	9208      	str	r2, [sp, #32]
   83e96:	46a0      	mov	r8, r4
   83e98:	f6bf aa4b 	bge.w	83332 <_vfiprintf_r+0xda>
   83e9c:	f04f 35ff 	mov.w	r5, #4294967295
   83ea0:	f7ff ba47 	b.w	83332 <_vfiprintf_r+0xda>
   83ea4:	000860dc 	.word	0x000860dc
   83ea8:	000860f4 	.word	0x000860f4

00083eac <__sbprintf>:
   83eac:	e92d 47f0 	stmdb	sp!, {r4, r5, r6, r7, r8, r9, sl, lr}
   83eb0:	6e4f      	ldr	r7, [r1, #100]	; 0x64
   83eb2:	f5ad 6d8d 	sub.w	sp, sp, #1128	; 0x468
   83eb6:	4688      	mov	r8, r1
   83eb8:	9719      	str	r7, [sp, #100]	; 0x64
   83eba:	f8d8 701c 	ldr.w	r7, [r8, #28]
   83ebe:	f8b1 a00c 	ldrh.w	sl, [r1, #12]
   83ec2:	f8b1 900e 	ldrh.w	r9, [r1, #14]
   83ec6:	9707      	str	r7, [sp, #28]
   83ec8:	f8d8 7024 	ldr.w	r7, [r8, #36]	; 0x24
   83ecc:	ac1a      	add	r4, sp, #104	; 0x68
   83ece:	f44f 6580 	mov.w	r5, #1024	; 0x400
   83ed2:	f02a 0a02 	bic.w	sl, sl, #2
   83ed6:	2600      	movs	r6, #0
   83ed8:	4669      	mov	r1, sp
   83eda:	9400      	str	r4, [sp, #0]
   83edc:	9404      	str	r4, [sp, #16]
   83ede:	9502      	str	r5, [sp, #8]
   83ee0:	9505      	str	r5, [sp, #20]
   83ee2:	f8ad a00c 	strh.w	sl, [sp, #12]
   83ee6:	f8ad 900e 	strh.w	r9, [sp, #14]
   83eea:	9709      	str	r7, [sp, #36]	; 0x24
   83eec:	9606      	str	r6, [sp, #24]
   83eee:	4605      	mov	r5, r0
   83ef0:	f7ff f9b2 	bl	83258 <_vfiprintf_r>
   83ef4:	1e04      	subs	r4, r0, #0
   83ef6:	db07      	blt.n	83f08 <__sbprintf+0x5c>
   83ef8:	4628      	mov	r0, r5
   83efa:	4669      	mov	r1, sp
   83efc:	f000 f97e 	bl	841fc <_fflush_r>
   83f00:	42b0      	cmp	r0, r6
   83f02:	bf18      	it	ne
   83f04:	f04f 34ff 	movne.w	r4, #4294967295
   83f08:	f8bd 300c 	ldrh.w	r3, [sp, #12]
   83f0c:	065b      	lsls	r3, r3, #25
   83f0e:	d505      	bpl.n	83f1c <__sbprintf+0x70>
   83f10:	f8b8 300c 	ldrh.w	r3, [r8, #12]
   83f14:	f043 0340 	orr.w	r3, r3, #64	; 0x40
   83f18:	f8a8 300c 	strh.w	r3, [r8, #12]
   83f1c:	4620      	mov	r0, r4
   83f1e:	f50d 6d8d 	add.w	sp, sp, #1128	; 0x468
   83f22:	e8bd 87f0 	ldmia.w	sp!, {r4, r5, r6, r7, r8, r9, sl, pc}
   83f26:	bf00      	nop

00083f28 <__swbuf_r>:
   83f28:	b5f8      	push	{r3, r4, r5, r6, r7, lr}
   83f2a:	460d      	mov	r5, r1
   83f2c:	4614      	mov	r4, r2
   83f2e:	4607      	mov	r7, r0
   83f30:	b110      	cbz	r0, 83f38 <__swbuf_r+0x10>
   83f32:	6b83      	ldr	r3, [r0, #56]	; 0x38
   83f34:	2b00      	cmp	r3, #0
   83f36:	d048      	beq.n	83fca <__swbuf_r+0xa2>
   83f38:	89a2      	ldrh	r2, [r4, #12]
   83f3a:	69a0      	ldr	r0, [r4, #24]
   83f3c:	b293      	uxth	r3, r2
   83f3e:	60a0      	str	r0, [r4, #8]
   83f40:	0718      	lsls	r0, r3, #28
   83f42:	d538      	bpl.n	83fb6 <__swbuf_r+0x8e>
   83f44:	6926      	ldr	r6, [r4, #16]
   83f46:	2e00      	cmp	r6, #0
   83f48:	d035      	beq.n	83fb6 <__swbuf_r+0x8e>
   83f4a:	0499      	lsls	r1, r3, #18
   83f4c:	b2ed      	uxtb	r5, r5
   83f4e:	d515      	bpl.n	83f7c <__swbuf_r+0x54>
   83f50:	6823      	ldr	r3, [r4, #0]
   83f52:	6962      	ldr	r2, [r4, #20]
   83f54:	1b9e      	subs	r6, r3, r6
   83f56:	4296      	cmp	r6, r2
   83f58:	da1c      	bge.n	83f94 <__swbuf_r+0x6c>
   83f5a:	3601      	adds	r6, #1
   83f5c:	68a2      	ldr	r2, [r4, #8]
   83f5e:	1c59      	adds	r1, r3, #1
   83f60:	3a01      	subs	r2, #1
   83f62:	60a2      	str	r2, [r4, #8]
   83f64:	6021      	str	r1, [r4, #0]
   83f66:	701d      	strb	r5, [r3, #0]
   83f68:	6963      	ldr	r3, [r4, #20]
   83f6a:	42b3      	cmp	r3, r6
   83f6c:	d01a      	beq.n	83fa4 <__swbuf_r+0x7c>
   83f6e:	89a3      	ldrh	r3, [r4, #12]
   83f70:	07db      	lsls	r3, r3, #31
   83f72:	d501      	bpl.n	83f78 <__swbuf_r+0x50>
   83f74:	2d0a      	cmp	r5, #10
   83f76:	d015      	beq.n	83fa4 <__swbuf_r+0x7c>
   83f78:	4628      	mov	r0, r5
   83f7a:	bdf8      	pop	{r3, r4, r5, r6, r7, pc}
   83f7c:	6e63      	ldr	r3, [r4, #100]	; 0x64
   83f7e:	f442 5200 	orr.w	r2, r2, #8192	; 0x2000
   83f82:	f423 5300 	bic.w	r3, r3, #8192	; 0x2000
   83f86:	6663      	str	r3, [r4, #100]	; 0x64
   83f88:	6823      	ldr	r3, [r4, #0]
   83f8a:	81a2      	strh	r2, [r4, #12]
   83f8c:	6962      	ldr	r2, [r4, #20]
   83f8e:	1b9e      	subs	r6, r3, r6
   83f90:	4296      	cmp	r6, r2
   83f92:	dbe2      	blt.n	83f5a <__swbuf_r+0x32>
   83f94:	4638      	mov	r0, r7
   83f96:	4621      	mov	r1, r4
   83f98:	f000 f930 	bl	841fc <_fflush_r>
   83f9c:	b940      	cbnz	r0, 83fb0 <__swbuf_r+0x88>
   83f9e:	6823      	ldr	r3, [r4, #0]
   83fa0:	2601      	movs	r6, #1
   83fa2:	e7db      	b.n	83f5c <__swbuf_r+0x34>
   83fa4:	4638      	mov	r0, r7
   83fa6:	4621      	mov	r1, r4
   83fa8:	f000 f928 	bl	841fc <_fflush_r>
   83fac:	2800      	cmp	r0, #0
   83fae:	d0e3      	beq.n	83f78 <__swbuf_r+0x50>
   83fb0:	f04f 30ff 	mov.w	r0, #4294967295
   83fb4:	bdf8      	pop	{r3, r4, r5, r6, r7, pc}
   83fb6:	4638      	mov	r0, r7
   83fb8:	4621      	mov	r1, r4
   83fba:	f000 f809 	bl	83fd0 <__swsetup_r>
   83fbe:	2800      	cmp	r0, #0
   83fc0:	d1f6      	bne.n	83fb0 <__swbuf_r+0x88>
   83fc2:	89a2      	ldrh	r2, [r4, #12]
   83fc4:	6926      	ldr	r6, [r4, #16]
   83fc6:	b293      	uxth	r3, r2
   83fc8:	e7bf      	b.n	83f4a <__swbuf_r+0x22>
   83fca:	f000 f933 	bl	84234 <__sinit>
   83fce:	e7b3      	b.n	83f38 <__swbuf_r+0x10>

00083fd0 <__swsetup_r>:
   83fd0:	4b2f      	ldr	r3, [pc, #188]	; (84090 <__swsetup_r+0xc0>)
   83fd2:	b570      	push	{r4, r5, r6, lr}
   83fd4:	4606      	mov	r6, r0
   83fd6:	6818      	ldr	r0, [r3, #0]
   83fd8:	460c      	mov	r4, r1
   83fda:	b110      	cbz	r0, 83fe2 <__swsetup_r+0x12>
   83fdc:	6b82      	ldr	r2, [r0, #56]	; 0x38
   83fde:	2a00      	cmp	r2, #0
   83fe0:	d036      	beq.n	84050 <__swsetup_r+0x80>
   83fe2:	89a5      	ldrh	r5, [r4, #12]
   83fe4:	b2ab      	uxth	r3, r5
   83fe6:	0719      	lsls	r1, r3, #28
   83fe8:	d50c      	bpl.n	84004 <__swsetup_r+0x34>
   83fea:	6922      	ldr	r2, [r4, #16]
   83fec:	b1aa      	cbz	r2, 8401a <__swsetup_r+0x4a>
   83fee:	f013 0101 	ands.w	r1, r3, #1
   83ff2:	d01e      	beq.n	84032 <__swsetup_r+0x62>
   83ff4:	6963      	ldr	r3, [r4, #20]
   83ff6:	2100      	movs	r1, #0
   83ff8:	425b      	negs	r3, r3
   83ffa:	61a3      	str	r3, [r4, #24]
   83ffc:	60a1      	str	r1, [r4, #8]
   83ffe:	b1f2      	cbz	r2, 8403e <__swsetup_r+0x6e>
   84000:	2000      	movs	r0, #0
   84002:	bd70      	pop	{r4, r5, r6, pc}
   84004:	06da      	lsls	r2, r3, #27
   84006:	d53a      	bpl.n	8407e <__swsetup_r+0xae>
   84008:	075b      	lsls	r3, r3, #29
   8400a:	d424      	bmi.n	84056 <__swsetup_r+0x86>
   8400c:	6922      	ldr	r2, [r4, #16]
   8400e:	f045 0308 	orr.w	r3, r5, #8
   84012:	81a3      	strh	r3, [r4, #12]
   84014:	b29b      	uxth	r3, r3
   84016:	2a00      	cmp	r2, #0
   84018:	d1e9      	bne.n	83fee <__swsetup_r+0x1e>
   8401a:	f403 7120 	and.w	r1, r3, #640	; 0x280
   8401e:	f5b1 7f00 	cmp.w	r1, #512	; 0x200
   84022:	d0e4      	beq.n	83fee <__swsetup_r+0x1e>
   84024:	4630      	mov	r0, r6
   84026:	4621      	mov	r1, r4
   84028:	f000 fcce 	bl	849c8 <__smakebuf_r>
   8402c:	89a3      	ldrh	r3, [r4, #12]
   8402e:	6922      	ldr	r2, [r4, #16]
   84030:	e7dd      	b.n	83fee <__swsetup_r+0x1e>
   84032:	0798      	lsls	r0, r3, #30
   84034:	bf58      	it	pl
   84036:	6961      	ldrpl	r1, [r4, #20]
   84038:	60a1      	str	r1, [r4, #8]
   8403a:	2a00      	cmp	r2, #0
   8403c:	d1e0      	bne.n	84000 <__swsetup_r+0x30>
   8403e:	89a3      	ldrh	r3, [r4, #12]
   84040:	061a      	lsls	r2, r3, #24
   84042:	d5dd      	bpl.n	84000 <__swsetup_r+0x30>
   84044:	f043 0340 	orr.w	r3, r3, #64	; 0x40
   84048:	81a3      	strh	r3, [r4, #12]
   8404a:	f04f 30ff 	mov.w	r0, #4294967295
   8404e:	bd70      	pop	{r4, r5, r6, pc}
   84050:	f000 f8f0 	bl	84234 <__sinit>
   84054:	e7c5      	b.n	83fe2 <__swsetup_r+0x12>
   84056:	6b21      	ldr	r1, [r4, #48]	; 0x30
   84058:	b149      	cbz	r1, 8406e <__swsetup_r+0x9e>
   8405a:	f104 0340 	add.w	r3, r4, #64	; 0x40
   8405e:	4299      	cmp	r1, r3
   84060:	d003      	beq.n	8406a <__swsetup_r+0x9a>
   84062:	4630      	mov	r0, r6
   84064:	f000 fa2a 	bl	844bc <_free_r>
   84068:	89a5      	ldrh	r5, [r4, #12]
   8406a:	2300      	movs	r3, #0
   8406c:	6323      	str	r3, [r4, #48]	; 0x30
   8406e:	6922      	ldr	r2, [r4, #16]
   84070:	f025 0524 	bic.w	r5, r5, #36	; 0x24
   84074:	2100      	movs	r1, #0
   84076:	b2ad      	uxth	r5, r5
   84078:	6022      	str	r2, [r4, #0]
   8407a:	6061      	str	r1, [r4, #4]
   8407c:	e7c7      	b.n	8400e <__swsetup_r+0x3e>
   8407e:	f045 0540 	orr.w	r5, r5, #64	; 0x40
   84082:	2309      	movs	r3, #9
   84084:	6033      	str	r3, [r6, #0]
   84086:	f04f 30ff 	mov.w	r0, #4294967295
   8408a:	81a5      	strh	r5, [r4, #12]
   8408c:	bd70      	pop	{r4, r5, r6, pc}
   8408e:	bf00      	nop
   84090:	20070570 	.word	0x20070570

00084094 <register_fini>:
   84094:	4b02      	ldr	r3, [pc, #8]	; (840a0 <register_fini+0xc>)
   84096:	b113      	cbz	r3, 8409e <register_fini+0xa>
   84098:	4802      	ldr	r0, [pc, #8]	; (840a4 <register_fini+0x10>)
   8409a:	f000 b805 	b.w	840a8 <atexit>
   8409e:	4770      	bx	lr
   840a0:	00000000 	.word	0x00000000
   840a4:	00084331 	.word	0x00084331

000840a8 <atexit>:
   840a8:	4601      	mov	r1, r0
   840aa:	2000      	movs	r0, #0
   840ac:	4602      	mov	r2, r0
   840ae:	4603      	mov	r3, r0
   840b0:	f001 bb76 	b.w	857a0 <__register_exitproc>

000840b4 <__sflush_r>:
   840b4:	898b      	ldrh	r3, [r1, #12]
   840b6:	e92d 41f0 	stmdb	sp!, {r4, r5, r6, r7, r8, lr}
   840ba:	b29a      	uxth	r2, r3
   840bc:	460d      	mov	r5, r1
   840be:	0711      	lsls	r1, r2, #28
   840c0:	4680      	mov	r8, r0
   840c2:	d43c      	bmi.n	8413e <__sflush_r+0x8a>
   840c4:	686a      	ldr	r2, [r5, #4]
   840c6:	f443 6300 	orr.w	r3, r3, #2048	; 0x800
   840ca:	2a00      	cmp	r2, #0
   840cc:	81ab      	strh	r3, [r5, #12]
   840ce:	dd59      	ble.n	84184 <__sflush_r+0xd0>
   840d0:	6aac      	ldr	r4, [r5, #40]	; 0x28
   840d2:	2c00      	cmp	r4, #0
   840d4:	d04b      	beq.n	8416e <__sflush_r+0xba>
   840d6:	b29b      	uxth	r3, r3
   840d8:	f403 5280 	and.w	r2, r3, #4096	; 0x1000
   840dc:	2100      	movs	r1, #0
   840de:	b292      	uxth	r2, r2
   840e0:	f8d8 6000 	ldr.w	r6, [r8]
   840e4:	f8c8 1000 	str.w	r1, [r8]
   840e8:	2a00      	cmp	r2, #0
   840ea:	d04f      	beq.n	8418c <__sflush_r+0xd8>
   840ec:	6d2a      	ldr	r2, [r5, #80]	; 0x50
   840ee:	075f      	lsls	r7, r3, #29
   840f0:	d505      	bpl.n	840fe <__sflush_r+0x4a>
   840f2:	6869      	ldr	r1, [r5, #4]
   840f4:	6b2b      	ldr	r3, [r5, #48]	; 0x30
   840f6:	1a52      	subs	r2, r2, r1
   840f8:	b10b      	cbz	r3, 840fe <__sflush_r+0x4a>
   840fa:	6beb      	ldr	r3, [r5, #60]	; 0x3c
   840fc:	1ad2      	subs	r2, r2, r3
   840fe:	4640      	mov	r0, r8
   84100:	69e9      	ldr	r1, [r5, #28]
   84102:	2300      	movs	r3, #0
   84104:	47a0      	blx	r4
   84106:	1c44      	adds	r4, r0, #1
   84108:	d04a      	beq.n	841a0 <__sflush_r+0xec>
   8410a:	89ab      	ldrh	r3, [r5, #12]
   8410c:	692a      	ldr	r2, [r5, #16]
   8410e:	f423 6300 	bic.w	r3, r3, #2048	; 0x800
   84112:	b29b      	uxth	r3, r3
   84114:	2100      	movs	r1, #0
   84116:	602a      	str	r2, [r5, #0]
   84118:	04da      	lsls	r2, r3, #19
   8411a:	81ab      	strh	r3, [r5, #12]
   8411c:	6069      	str	r1, [r5, #4]
   8411e:	d44c      	bmi.n	841ba <__sflush_r+0x106>
   84120:	6b29      	ldr	r1, [r5, #48]	; 0x30
   84122:	f8c8 6000 	str.w	r6, [r8]
   84126:	b311      	cbz	r1, 8416e <__sflush_r+0xba>
   84128:	f105 0340 	add.w	r3, r5, #64	; 0x40
   8412c:	4299      	cmp	r1, r3
   8412e:	d002      	beq.n	84136 <__sflush_r+0x82>
   84130:	4640      	mov	r0, r8
   84132:	f000 f9c3 	bl	844bc <_free_r>
   84136:	2000      	movs	r0, #0
   84138:	6328      	str	r0, [r5, #48]	; 0x30
   8413a:	e8bd 81f0 	ldmia.w	sp!, {r4, r5, r6, r7, r8, pc}
   8413e:	692e      	ldr	r6, [r5, #16]
   84140:	b1ae      	cbz	r6, 8416e <__sflush_r+0xba>
   84142:	0791      	lsls	r1, r2, #30
   84144:	682c      	ldr	r4, [r5, #0]
   84146:	bf0c      	ite	eq
   84148:	696b      	ldreq	r3, [r5, #20]
   8414a:	2300      	movne	r3, #0
   8414c:	602e      	str	r6, [r5, #0]
   8414e:	1ba4      	subs	r4, r4, r6
   84150:	60ab      	str	r3, [r5, #8]
   84152:	e00a      	b.n	8416a <__sflush_r+0xb6>
   84154:	4632      	mov	r2, r6
   84156:	4623      	mov	r3, r4
   84158:	6a6f      	ldr	r7, [r5, #36]	; 0x24
   8415a:	4640      	mov	r0, r8
   8415c:	69e9      	ldr	r1, [r5, #28]
   8415e:	47b8      	blx	r7
   84160:	2800      	cmp	r0, #0
   84162:	ebc0 0404 	rsb	r4, r0, r4
   84166:	4406      	add	r6, r0
   84168:	dd04      	ble.n	84174 <__sflush_r+0xc0>
   8416a:	2c00      	cmp	r4, #0
   8416c:	dcf2      	bgt.n	84154 <__sflush_r+0xa0>
   8416e:	2000      	movs	r0, #0
   84170:	e8bd 81f0 	ldmia.w	sp!, {r4, r5, r6, r7, r8, pc}
   84174:	89ab      	ldrh	r3, [r5, #12]
   84176:	f04f 30ff 	mov.w	r0, #4294967295
   8417a:	f043 0340 	orr.w	r3, r3, #64	; 0x40
   8417e:	81ab      	strh	r3, [r5, #12]
   84180:	e8bd 81f0 	ldmia.w	sp!, {r4, r5, r6, r7, r8, pc}
   84184:	6bea      	ldr	r2, [r5, #60]	; 0x3c
   84186:	2a00      	cmp	r2, #0
   84188:	dca2      	bgt.n	840d0 <__sflush_r+0x1c>
   8418a:	e7f0      	b.n	8416e <__sflush_r+0xba>
   8418c:	2301      	movs	r3, #1
   8418e:	4640      	mov	r0, r8
   84190:	69e9      	ldr	r1, [r5, #28]
   84192:	47a0      	blx	r4
   84194:	1c43      	adds	r3, r0, #1
   84196:	4602      	mov	r2, r0
   84198:	d01e      	beq.n	841d8 <__sflush_r+0x124>
   8419a:	89ab      	ldrh	r3, [r5, #12]
   8419c:	6aac      	ldr	r4, [r5, #40]	; 0x28
   8419e:	e7a6      	b.n	840ee <__sflush_r+0x3a>
   841a0:	f8d8 3000 	ldr.w	r3, [r8]
   841a4:	b95b      	cbnz	r3, 841be <__sflush_r+0x10a>
   841a6:	89aa      	ldrh	r2, [r5, #12]
   841a8:	6929      	ldr	r1, [r5, #16]
   841aa:	f422 6200 	bic.w	r2, r2, #2048	; 0x800
   841ae:	b292      	uxth	r2, r2
   841b0:	606b      	str	r3, [r5, #4]
   841b2:	04d3      	lsls	r3, r2, #19
   841b4:	81aa      	strh	r2, [r5, #12]
   841b6:	6029      	str	r1, [r5, #0]
   841b8:	d5b2      	bpl.n	84120 <__sflush_r+0x6c>
   841ba:	6528      	str	r0, [r5, #80]	; 0x50
   841bc:	e7b0      	b.n	84120 <__sflush_r+0x6c>
   841be:	2b1d      	cmp	r3, #29
   841c0:	d001      	beq.n	841c6 <__sflush_r+0x112>
   841c2:	2b16      	cmp	r3, #22
   841c4:	d113      	bne.n	841ee <__sflush_r+0x13a>
   841c6:	89a9      	ldrh	r1, [r5, #12]
   841c8:	692b      	ldr	r3, [r5, #16]
   841ca:	f421 6100 	bic.w	r1, r1, #2048	; 0x800
   841ce:	2200      	movs	r2, #0
   841d0:	81a9      	strh	r1, [r5, #12]
   841d2:	602b      	str	r3, [r5, #0]
   841d4:	606a      	str	r2, [r5, #4]
   841d6:	e7a3      	b.n	84120 <__sflush_r+0x6c>
   841d8:	f8d8 3000 	ldr.w	r3, [r8]
   841dc:	2b00      	cmp	r3, #0
   841de:	d0dc      	beq.n	8419a <__sflush_r+0xe6>
   841e0:	2b1d      	cmp	r3, #29
   841e2:	d001      	beq.n	841e8 <__sflush_r+0x134>
   841e4:	2b16      	cmp	r3, #22
   841e6:	d1c5      	bne.n	84174 <__sflush_r+0xc0>
   841e8:	f8c8 6000 	str.w	r6, [r8]
   841ec:	e7bf      	b.n	8416e <__sflush_r+0xba>
   841ee:	89ab      	ldrh	r3, [r5, #12]
   841f0:	f043 0340 	orr.w	r3, r3, #64	; 0x40
   841f4:	81ab      	strh	r3, [r5, #12]
   841f6:	e8bd 81f0 	ldmia.w	sp!, {r4, r5, r6, r7, r8, pc}
   841fa:	bf00      	nop

000841fc <_fflush_r>:
   841fc:	b510      	push	{r4, lr}
   841fe:	4604      	mov	r4, r0
   84200:	b082      	sub	sp, #8
   84202:	b108      	cbz	r0, 84208 <_fflush_r+0xc>
   84204:	6b83      	ldr	r3, [r0, #56]	; 0x38
   84206:	b153      	cbz	r3, 8421e <_fflush_r+0x22>
   84208:	f9b1 000c 	ldrsh.w	r0, [r1, #12]
   8420c:	b908      	cbnz	r0, 84212 <_fflush_r+0x16>
   8420e:	b002      	add	sp, #8
   84210:	bd10      	pop	{r4, pc}
   84212:	4620      	mov	r0, r4
   84214:	b002      	add	sp, #8
   84216:	e8bd 4010 	ldmia.w	sp!, {r4, lr}
   8421a:	f7ff bf4b 	b.w	840b4 <__sflush_r>
   8421e:	9101      	str	r1, [sp, #4]
   84220:	f000 f808 	bl	84234 <__sinit>
   84224:	9901      	ldr	r1, [sp, #4]
   84226:	e7ef      	b.n	84208 <_fflush_r+0xc>

00084228 <_cleanup_r>:
   84228:	4901      	ldr	r1, [pc, #4]	; (84230 <_cleanup_r+0x8>)
   8422a:	f000 bb9f 	b.w	8496c <_fwalk>
   8422e:	bf00      	nop
   84230:	000858ed 	.word	0x000858ed

00084234 <__sinit>:
   84234:	e92d 4ff0 	stmdb	sp!, {r4, r5, r6, r7, r8, r9, sl, fp, lr}
   84238:	6b84      	ldr	r4, [r0, #56]	; 0x38
   8423a:	b083      	sub	sp, #12
   8423c:	4607      	mov	r7, r0
   8423e:	2c00      	cmp	r4, #0
   84240:	d165      	bne.n	8430e <__sinit+0xda>
   84242:	687d      	ldr	r5, [r7, #4]
   84244:	4833      	ldr	r0, [pc, #204]	; (84314 <__sinit+0xe0>)
   84246:	2304      	movs	r3, #4
   84248:	2103      	movs	r1, #3
   8424a:	f507 723b 	add.w	r2, r7, #748	; 0x2ec
   8424e:	63f8      	str	r0, [r7, #60]	; 0x3c
   84250:	f8c7 12e4 	str.w	r1, [r7, #740]	; 0x2e4
   84254:	f8c7 22e8 	str.w	r2, [r7, #744]	; 0x2e8
   84258:	f8c7 42e0 	str.w	r4, [r7, #736]	; 0x2e0
   8425c:	f105 005c 	add.w	r0, r5, #92	; 0x5c
   84260:	81ab      	strh	r3, [r5, #12]
   84262:	602c      	str	r4, [r5, #0]
   84264:	606c      	str	r4, [r5, #4]
   84266:	60ac      	str	r4, [r5, #8]
   84268:	666c      	str	r4, [r5, #100]	; 0x64
   8426a:	81ec      	strh	r4, [r5, #14]
   8426c:	612c      	str	r4, [r5, #16]
   8426e:	616c      	str	r4, [r5, #20]
   84270:	61ac      	str	r4, [r5, #24]
   84272:	4621      	mov	r1, r4
   84274:	2208      	movs	r2, #8
   84276:	f7fe fed3 	bl	83020 <memset>
   8427a:	f8df b09c 	ldr.w	fp, [pc, #156]	; 84318 <__sinit+0xe4>
   8427e:	68be      	ldr	r6, [r7, #8]
   84280:	f8df a098 	ldr.w	sl, [pc, #152]	; 8431c <__sinit+0xe8>
   84284:	f8df 9098 	ldr.w	r9, [pc, #152]	; 84320 <__sinit+0xec>
   84288:	f8df 8098 	ldr.w	r8, [pc, #152]	; 84324 <__sinit+0xf0>
   8428c:	2301      	movs	r3, #1
   8428e:	2209      	movs	r2, #9
   84290:	61ed      	str	r5, [r5, #28]
   84292:	f8c5 b020 	str.w	fp, [r5, #32]
   84296:	f8c5 a024 	str.w	sl, [r5, #36]	; 0x24
   8429a:	f8c5 9028 	str.w	r9, [r5, #40]	; 0x28
   8429e:	f8c5 802c 	str.w	r8, [r5, #44]	; 0x2c
   842a2:	4621      	mov	r1, r4
   842a4:	81f3      	strh	r3, [r6, #14]
   842a6:	81b2      	strh	r2, [r6, #12]
   842a8:	6034      	str	r4, [r6, #0]
   842aa:	6074      	str	r4, [r6, #4]
   842ac:	60b4      	str	r4, [r6, #8]
   842ae:	6674      	str	r4, [r6, #100]	; 0x64
   842b0:	6134      	str	r4, [r6, #16]
   842b2:	6174      	str	r4, [r6, #20]
   842b4:	61b4      	str	r4, [r6, #24]
   842b6:	2208      	movs	r2, #8
   842b8:	f106 005c 	add.w	r0, r6, #92	; 0x5c
   842bc:	9301      	str	r3, [sp, #4]
   842be:	f7fe feaf 	bl	83020 <memset>
   842c2:	68fd      	ldr	r5, [r7, #12]
   842c4:	2012      	movs	r0, #18
   842c6:	2202      	movs	r2, #2
   842c8:	61f6      	str	r6, [r6, #28]
   842ca:	f8c6 b020 	str.w	fp, [r6, #32]
   842ce:	f8c6 a024 	str.w	sl, [r6, #36]	; 0x24
   842d2:	f8c6 9028 	str.w	r9, [r6, #40]	; 0x28
   842d6:	f8c6 802c 	str.w	r8, [r6, #44]	; 0x2c
   842da:	4621      	mov	r1, r4
   842dc:	81a8      	strh	r0, [r5, #12]
   842de:	81ea      	strh	r2, [r5, #14]
   842e0:	602c      	str	r4, [r5, #0]
   842e2:	606c      	str	r4, [r5, #4]
   842e4:	60ac      	str	r4, [r5, #8]
   842e6:	666c      	str	r4, [r5, #100]	; 0x64
   842e8:	612c      	str	r4, [r5, #16]
   842ea:	616c      	str	r4, [r5, #20]
   842ec:	61ac      	str	r4, [r5, #24]
   842ee:	f105 005c 	add.w	r0, r5, #92	; 0x5c
   842f2:	2208      	movs	r2, #8
   842f4:	f7fe fe94 	bl	83020 <memset>
   842f8:	9b01      	ldr	r3, [sp, #4]
   842fa:	61ed      	str	r5, [r5, #28]
   842fc:	f8c5 b020 	str.w	fp, [r5, #32]
   84300:	f8c5 a024 	str.w	sl, [r5, #36]	; 0x24
   84304:	f8c5 9028 	str.w	r9, [r5, #40]	; 0x28
   84308:	f8c5 802c 	str.w	r8, [r5, #44]	; 0x2c
   8430c:	63bb      	str	r3, [r7, #56]	; 0x38
   8430e:	b003      	add	sp, #12
   84310:	e8bd 8ff0 	ldmia.w	sp!, {r4, r5, r6, r7, r8, r9, sl, fp, pc}
   84314:	00084229 	.word	0x00084229
   84318:	00085629 	.word	0x00085629
   8431c:	0008564d 	.word	0x0008564d
   84320:	00085685 	.word	0x00085685
   84324:	000856a5 	.word	0x000856a5

00084328 <__sfp_lock_acquire>:
   84328:	4770      	bx	lr
   8432a:	bf00      	nop

0008432c <__sfp_lock_release>:
   8432c:	4770      	bx	lr
   8432e:	bf00      	nop

00084330 <__libc_fini_array>:
   84330:	b538      	push	{r3, r4, r5, lr}
   84332:	4d09      	ldr	r5, [pc, #36]	; (84358 <__libc_fini_array+0x28>)
   84334:	4c09      	ldr	r4, [pc, #36]	; (8435c <__libc_fini_array+0x2c>)
   84336:	1b64      	subs	r4, r4, r5
   84338:	10a4      	asrs	r4, r4, #2
   8433a:	bf18      	it	ne
   8433c:	eb05 0584 	addne.w	r5, r5, r4, lsl #2
   84340:	d005      	beq.n	8434e <__libc_fini_array+0x1e>
   84342:	3c01      	subs	r4, #1
   84344:	f855 3d04 	ldr.w	r3, [r5, #-4]!
   84348:	4798      	blx	r3
   8434a:	2c00      	cmp	r4, #0
   8434c:	d1f9      	bne.n	84342 <__libc_fini_array+0x12>
   8434e:	e8bd 4038 	ldmia.w	sp!, {r3, r4, r5, lr}
   84352:	f001 bee1 	b.w	86118 <_fini>
   84356:	bf00      	nop
   84358:	00086124 	.word	0x00086124
   8435c:	00086128 	.word	0x00086128

00084360 <_fputwc_r>:
   84360:	e92d 41f0 	stmdb	sp!, {r4, r5, r6, r7, r8, lr}
   84364:	8993      	ldrh	r3, [r2, #12]
   84366:	460f      	mov	r7, r1
   84368:	0499      	lsls	r1, r3, #18
   8436a:	b082      	sub	sp, #8
   8436c:	4614      	mov	r4, r2
   8436e:	4680      	mov	r8, r0
   84370:	d406      	bmi.n	84380 <_fputwc_r+0x20>
   84372:	6e52      	ldr	r2, [r2, #100]	; 0x64
   84374:	f443 5300 	orr.w	r3, r3, #8192	; 0x2000
   84378:	f442 5200 	orr.w	r2, r2, #8192	; 0x2000
   8437c:	81a3      	strh	r3, [r4, #12]
   8437e:	6662      	str	r2, [r4, #100]	; 0x64
   84380:	f000 fb1c 	bl	849bc <__locale_mb_cur_max>
   84384:	2801      	cmp	r0, #1
   84386:	d03e      	beq.n	84406 <_fputwc_r+0xa6>
   84388:	463a      	mov	r2, r7
   8438a:	4640      	mov	r0, r8
   8438c:	a901      	add	r1, sp, #4
   8438e:	f104 035c 	add.w	r3, r4, #92	; 0x5c
   84392:	f001 f9bb 	bl	8570c <_wcrtomb_r>
   84396:	1c42      	adds	r2, r0, #1
   84398:	4606      	mov	r6, r0
   8439a:	d02d      	beq.n	843f8 <_fputwc_r+0x98>
   8439c:	2800      	cmp	r0, #0
   8439e:	d03a      	beq.n	84416 <_fputwc_r+0xb6>
   843a0:	f89d 1004 	ldrb.w	r1, [sp, #4]
   843a4:	2500      	movs	r5, #0
   843a6:	e009      	b.n	843bc <_fputwc_r+0x5c>
   843a8:	6823      	ldr	r3, [r4, #0]
   843aa:	7019      	strb	r1, [r3, #0]
   843ac:	6823      	ldr	r3, [r4, #0]
   843ae:	3301      	adds	r3, #1
   843b0:	6023      	str	r3, [r4, #0]
   843b2:	3501      	adds	r5, #1
   843b4:	42b5      	cmp	r5, r6
   843b6:	d22e      	bcs.n	84416 <_fputwc_r+0xb6>
   843b8:	ab01      	add	r3, sp, #4
   843ba:	5ce9      	ldrb	r1, [r5, r3]
   843bc:	68a3      	ldr	r3, [r4, #8]
   843be:	3b01      	subs	r3, #1
   843c0:	2b00      	cmp	r3, #0
   843c2:	60a3      	str	r3, [r4, #8]
   843c4:	daf0      	bge.n	843a8 <_fputwc_r+0x48>
   843c6:	69a2      	ldr	r2, [r4, #24]
   843c8:	4293      	cmp	r3, r2
   843ca:	db06      	blt.n	843da <_fputwc_r+0x7a>
   843cc:	6823      	ldr	r3, [r4, #0]
   843ce:	7019      	strb	r1, [r3, #0]
   843d0:	6823      	ldr	r3, [r4, #0]
   843d2:	7819      	ldrb	r1, [r3, #0]
   843d4:	3301      	adds	r3, #1
   843d6:	290a      	cmp	r1, #10
   843d8:	d1ea      	bne.n	843b0 <_fputwc_r+0x50>
   843da:	4640      	mov	r0, r8
   843dc:	4622      	mov	r2, r4
   843de:	f7ff fda3 	bl	83f28 <__swbuf_r>
   843e2:	f1b0 33ff 	subs.w	r3, r0, #4294967295
   843e6:	4258      	negs	r0, r3
   843e8:	4158      	adcs	r0, r3
   843ea:	2800      	cmp	r0, #0
   843ec:	d0e1      	beq.n	843b2 <_fputwc_r+0x52>
   843ee:	f04f 30ff 	mov.w	r0, #4294967295
   843f2:	b002      	add	sp, #8
   843f4:	e8bd 81f0 	ldmia.w	sp!, {r4, r5, r6, r7, r8, pc}
   843f8:	89a3      	ldrh	r3, [r4, #12]
   843fa:	f043 0340 	orr.w	r3, r3, #64	; 0x40
   843fe:	81a3      	strh	r3, [r4, #12]
   84400:	b002      	add	sp, #8
   84402:	e8bd 81f0 	ldmia.w	sp!, {r4, r5, r6, r7, r8, pc}
   84406:	1e7b      	subs	r3, r7, #1
   84408:	2bfe      	cmp	r3, #254	; 0xfe
   8440a:	d8bd      	bhi.n	84388 <_fputwc_r+0x28>
   8440c:	b2f9      	uxtb	r1, r7
   8440e:	4606      	mov	r6, r0
   84410:	f88d 1004 	strb.w	r1, [sp, #4]
   84414:	e7c6      	b.n	843a4 <_fputwc_r+0x44>
   84416:	4638      	mov	r0, r7
   84418:	b002      	add	sp, #8
   8441a:	e8bd 81f0 	ldmia.w	sp!, {r4, r5, r6, r7, r8, pc}
   8441e:	bf00      	nop

00084420 <_malloc_trim_r>:
   84420:	b5f8      	push	{r3, r4, r5, r6, r7, lr}
   84422:	4d23      	ldr	r5, [pc, #140]	; (844b0 <_malloc_trim_r+0x90>)
   84424:	460f      	mov	r7, r1
   84426:	4604      	mov	r4, r0
   84428:	f000 ff08 	bl	8523c <__malloc_lock>
   8442c:	68ab      	ldr	r3, [r5, #8]
   8442e:	685e      	ldr	r6, [r3, #4]
   84430:	f026 0603 	bic.w	r6, r6, #3
   84434:	1bf1      	subs	r1, r6, r7
   84436:	f601 71ef 	addw	r1, r1, #4079	; 0xfef
   8443a:	f421 617f 	bic.w	r1, r1, #4080	; 0xff0
   8443e:	f021 010f 	bic.w	r1, r1, #15
   84442:	f5a1 5780 	sub.w	r7, r1, #4096	; 0x1000
   84446:	f5b7 5f80 	cmp.w	r7, #4096	; 0x1000
   8444a:	db07      	blt.n	8445c <_malloc_trim_r+0x3c>
   8444c:	4620      	mov	r0, r4
   8444e:	2100      	movs	r1, #0
   84450:	f001 f8d8 	bl	85604 <_sbrk_r>
   84454:	68ab      	ldr	r3, [r5, #8]
   84456:	4433      	add	r3, r6
   84458:	4298      	cmp	r0, r3
   8445a:	d004      	beq.n	84466 <_malloc_trim_r+0x46>
   8445c:	4620      	mov	r0, r4
   8445e:	f000 feef 	bl	85240 <__malloc_unlock>
   84462:	2000      	movs	r0, #0
   84464:	bdf8      	pop	{r3, r4, r5, r6, r7, pc}
   84466:	4620      	mov	r0, r4
   84468:	4279      	negs	r1, r7
   8446a:	f001 f8cb 	bl	85604 <_sbrk_r>
   8446e:	3001      	adds	r0, #1
   84470:	d00d      	beq.n	8448e <_malloc_trim_r+0x6e>
   84472:	4b10      	ldr	r3, [pc, #64]	; (844b4 <_malloc_trim_r+0x94>)
   84474:	68aa      	ldr	r2, [r5, #8]
   84476:	6819      	ldr	r1, [r3, #0]
   84478:	1bf6      	subs	r6, r6, r7
   8447a:	f046 0601 	orr.w	r6, r6, #1
   8447e:	4620      	mov	r0, r4
   84480:	1bc9      	subs	r1, r1, r7
   84482:	6056      	str	r6, [r2, #4]
   84484:	6019      	str	r1, [r3, #0]
   84486:	f000 fedb 	bl	85240 <__malloc_unlock>
   8448a:	2001      	movs	r0, #1
   8448c:	bdf8      	pop	{r3, r4, r5, r6, r7, pc}
   8448e:	4620      	mov	r0, r4
   84490:	2100      	movs	r1, #0
   84492:	f001 f8b7 	bl	85604 <_sbrk_r>
   84496:	68ab      	ldr	r3, [r5, #8]
   84498:	1ac2      	subs	r2, r0, r3
   8449a:	2a0f      	cmp	r2, #15
   8449c:	ddde      	ble.n	8445c <_malloc_trim_r+0x3c>
   8449e:	4d06      	ldr	r5, [pc, #24]	; (844b8 <_malloc_trim_r+0x98>)
   844a0:	4904      	ldr	r1, [pc, #16]	; (844b4 <_malloc_trim_r+0x94>)
   844a2:	682d      	ldr	r5, [r5, #0]
   844a4:	f042 0201 	orr.w	r2, r2, #1
   844a8:	1b40      	subs	r0, r0, r5
   844aa:	605a      	str	r2, [r3, #4]
   844ac:	6008      	str	r0, [r1, #0]
   844ae:	e7d5      	b.n	8445c <_malloc_trim_r+0x3c>
   844b0:	20070598 	.word	0x20070598
   844b4:	20070b08 	.word	0x20070b08
   844b8:	200709a4 	.word	0x200709a4

000844bc <_free_r>:
   844bc:	e92d 41f0 	stmdb	sp!, {r4, r5, r6, r7, r8, lr}
   844c0:	460d      	mov	r5, r1
   844c2:	4606      	mov	r6, r0
   844c4:	2900      	cmp	r1, #0
   844c6:	d055      	beq.n	84574 <_free_r+0xb8>
   844c8:	f000 feb8 	bl	8523c <__malloc_lock>
   844cc:	f855 1c04 	ldr.w	r1, [r5, #-4]
   844d0:	f8df c170 	ldr.w	ip, [pc, #368]	; 84644 <_free_r+0x188>
   844d4:	f1a5 0408 	sub.w	r4, r5, #8
   844d8:	f021 0301 	bic.w	r3, r1, #1
   844dc:	18e2      	adds	r2, r4, r3
   844de:	f8dc 0008 	ldr.w	r0, [ip, #8]
   844e2:	6857      	ldr	r7, [r2, #4]
   844e4:	4290      	cmp	r0, r2
   844e6:	f027 0703 	bic.w	r7, r7, #3
   844ea:	d068      	beq.n	845be <_free_r+0x102>
   844ec:	f011 0101 	ands.w	r1, r1, #1
   844f0:	6057      	str	r7, [r2, #4]
   844f2:	d032      	beq.n	8455a <_free_r+0x9e>
   844f4:	2100      	movs	r1, #0
   844f6:	19d0      	adds	r0, r2, r7
   844f8:	6840      	ldr	r0, [r0, #4]
   844fa:	07c0      	lsls	r0, r0, #31
   844fc:	d406      	bmi.n	8450c <_free_r+0x50>
   844fe:	443b      	add	r3, r7
   84500:	6890      	ldr	r0, [r2, #8]
   84502:	2900      	cmp	r1, #0
   84504:	d04d      	beq.n	845a2 <_free_r+0xe6>
   84506:	68d2      	ldr	r2, [r2, #12]
   84508:	60c2      	str	r2, [r0, #12]
   8450a:	6090      	str	r0, [r2, #8]
   8450c:	f043 0201 	orr.w	r2, r3, #1
   84510:	6062      	str	r2, [r4, #4]
   84512:	50e3      	str	r3, [r4, r3]
   84514:	b9e1      	cbnz	r1, 84550 <_free_r+0x94>
   84516:	f5b3 7f00 	cmp.w	r3, #512	; 0x200
   8451a:	d32d      	bcc.n	84578 <_free_r+0xbc>
   8451c:	0a5a      	lsrs	r2, r3, #9
   8451e:	2a04      	cmp	r2, #4
   84520:	d869      	bhi.n	845f6 <_free_r+0x13a>
   84522:	0998      	lsrs	r0, r3, #6
   84524:	3038      	adds	r0, #56	; 0x38
   84526:	0041      	lsls	r1, r0, #1
   84528:	eb0c 0c81 	add.w	ip, ip, r1, lsl #2
   8452c:	f8dc 2008 	ldr.w	r2, [ip, #8]
   84530:	4944      	ldr	r1, [pc, #272]	; (84644 <_free_r+0x188>)
   84532:	4562      	cmp	r2, ip
   84534:	d065      	beq.n	84602 <_free_r+0x146>
   84536:	6851      	ldr	r1, [r2, #4]
   84538:	f021 0103 	bic.w	r1, r1, #3
   8453c:	428b      	cmp	r3, r1
   8453e:	d202      	bcs.n	84546 <_free_r+0x8a>
   84540:	6892      	ldr	r2, [r2, #8]
   84542:	4594      	cmp	ip, r2
   84544:	d1f7      	bne.n	84536 <_free_r+0x7a>
   84546:	68d3      	ldr	r3, [r2, #12]
   84548:	60e3      	str	r3, [r4, #12]
   8454a:	60a2      	str	r2, [r4, #8]
   8454c:	609c      	str	r4, [r3, #8]
   8454e:	60d4      	str	r4, [r2, #12]
   84550:	4630      	mov	r0, r6
   84552:	e8bd 41f0 	ldmia.w	sp!, {r4, r5, r6, r7, r8, lr}
   84556:	f000 be73 	b.w	85240 <__malloc_unlock>
   8455a:	f855 5c08 	ldr.w	r5, [r5, #-8]
   8455e:	f10c 0808 	add.w	r8, ip, #8
   84562:	1b64      	subs	r4, r4, r5
   84564:	68a0      	ldr	r0, [r4, #8]
   84566:	442b      	add	r3, r5
   84568:	4540      	cmp	r0, r8
   8456a:	d042      	beq.n	845f2 <_free_r+0x136>
   8456c:	68e5      	ldr	r5, [r4, #12]
   8456e:	60c5      	str	r5, [r0, #12]
   84570:	60a8      	str	r0, [r5, #8]
   84572:	e7c0      	b.n	844f6 <_free_r+0x3a>
   84574:	e8bd 81f0 	ldmia.w	sp!, {r4, r5, r6, r7, r8, pc}
   84578:	08db      	lsrs	r3, r3, #3
   8457a:	109a      	asrs	r2, r3, #2
   8457c:	2001      	movs	r0, #1
   8457e:	4090      	lsls	r0, r2
   84580:	f8dc 1004 	ldr.w	r1, [ip, #4]
   84584:	eb0c 03c3 	add.w	r3, ip, r3, lsl #3
   84588:	689a      	ldr	r2, [r3, #8]
   8458a:	4301      	orrs	r1, r0
   8458c:	60a2      	str	r2, [r4, #8]
   8458e:	60e3      	str	r3, [r4, #12]
   84590:	f8cc 1004 	str.w	r1, [ip, #4]
   84594:	4630      	mov	r0, r6
   84596:	609c      	str	r4, [r3, #8]
   84598:	60d4      	str	r4, [r2, #12]
   8459a:	e8bd 41f0 	ldmia.w	sp!, {r4, r5, r6, r7, r8, lr}
   8459e:	f000 be4f 	b.w	85240 <__malloc_unlock>
   845a2:	4d29      	ldr	r5, [pc, #164]	; (84648 <_free_r+0x18c>)
   845a4:	42a8      	cmp	r0, r5
   845a6:	d1ae      	bne.n	84506 <_free_r+0x4a>
   845a8:	f043 0201 	orr.w	r2, r3, #1
   845ac:	f8cc 4014 	str.w	r4, [ip, #20]
   845b0:	f8cc 4010 	str.w	r4, [ip, #16]
   845b4:	60e0      	str	r0, [r4, #12]
   845b6:	60a0      	str	r0, [r4, #8]
   845b8:	6062      	str	r2, [r4, #4]
   845ba:	50e3      	str	r3, [r4, r3]
   845bc:	e7c8      	b.n	84550 <_free_r+0x94>
   845be:	441f      	add	r7, r3
   845c0:	07cb      	lsls	r3, r1, #31
   845c2:	d407      	bmi.n	845d4 <_free_r+0x118>
   845c4:	f855 1c08 	ldr.w	r1, [r5, #-8]
   845c8:	1a64      	subs	r4, r4, r1
   845ca:	68e3      	ldr	r3, [r4, #12]
   845cc:	68a2      	ldr	r2, [r4, #8]
   845ce:	440f      	add	r7, r1
   845d0:	60d3      	str	r3, [r2, #12]
   845d2:	609a      	str	r2, [r3, #8]
   845d4:	4b1d      	ldr	r3, [pc, #116]	; (8464c <_free_r+0x190>)
   845d6:	f047 0201 	orr.w	r2, r7, #1
   845da:	681b      	ldr	r3, [r3, #0]
   845dc:	6062      	str	r2, [r4, #4]
   845de:	429f      	cmp	r7, r3
   845e0:	f8cc 4008 	str.w	r4, [ip, #8]
   845e4:	d3b4      	bcc.n	84550 <_free_r+0x94>
   845e6:	4b1a      	ldr	r3, [pc, #104]	; (84650 <_free_r+0x194>)
   845e8:	4630      	mov	r0, r6
   845ea:	6819      	ldr	r1, [r3, #0]
   845ec:	f7ff ff18 	bl	84420 <_malloc_trim_r>
   845f0:	e7ae      	b.n	84550 <_free_r+0x94>
   845f2:	2101      	movs	r1, #1
   845f4:	e77f      	b.n	844f6 <_free_r+0x3a>
   845f6:	2a14      	cmp	r2, #20
   845f8:	d80b      	bhi.n	84612 <_free_r+0x156>
   845fa:	f102 005b 	add.w	r0, r2, #91	; 0x5b
   845fe:	0041      	lsls	r1, r0, #1
   84600:	e792      	b.n	84528 <_free_r+0x6c>
   84602:	1080      	asrs	r0, r0, #2
   84604:	2501      	movs	r5, #1
   84606:	4085      	lsls	r5, r0
   84608:	6848      	ldr	r0, [r1, #4]
   8460a:	4613      	mov	r3, r2
   8460c:	4328      	orrs	r0, r5
   8460e:	6048      	str	r0, [r1, #4]
   84610:	e79a      	b.n	84548 <_free_r+0x8c>
   84612:	2a54      	cmp	r2, #84	; 0x54
   84614:	d803      	bhi.n	8461e <_free_r+0x162>
   84616:	0b18      	lsrs	r0, r3, #12
   84618:	306e      	adds	r0, #110	; 0x6e
   8461a:	0041      	lsls	r1, r0, #1
   8461c:	e784      	b.n	84528 <_free_r+0x6c>
   8461e:	f5b2 7faa 	cmp.w	r2, #340	; 0x154
   84622:	d803      	bhi.n	8462c <_free_r+0x170>
   84624:	0bd8      	lsrs	r0, r3, #15
   84626:	3077      	adds	r0, #119	; 0x77
   84628:	0041      	lsls	r1, r0, #1
   8462a:	e77d      	b.n	84528 <_free_r+0x6c>
   8462c:	f240 5154 	movw	r1, #1364	; 0x554
   84630:	428a      	cmp	r2, r1
   84632:	d803      	bhi.n	8463c <_free_r+0x180>
   84634:	0c98      	lsrs	r0, r3, #18
   84636:	307c      	adds	r0, #124	; 0x7c
   84638:	0041      	lsls	r1, r0, #1
   8463a:	e775      	b.n	84528 <_free_r+0x6c>
   8463c:	21fc      	movs	r1, #252	; 0xfc
   8463e:	207e      	movs	r0, #126	; 0x7e
   84640:	e772      	b.n	84528 <_free_r+0x6c>
   84642:	bf00      	nop
   84644:	20070598 	.word	0x20070598
   84648:	200705a0 	.word	0x200705a0
   8464c:	200709a0 	.word	0x200709a0
   84650:	20070b04 	.word	0x20070b04

00084654 <__sfvwrite_r>:
   84654:	e92d 4ff0 	stmdb	sp!, {r4, r5, r6, r7, r8, r9, sl, fp, lr}
   84658:	6893      	ldr	r3, [r2, #8]
   8465a:	b083      	sub	sp, #12
   8465c:	4616      	mov	r6, r2
   8465e:	4681      	mov	r9, r0
   84660:	460c      	mov	r4, r1
   84662:	b32b      	cbz	r3, 846b0 <__sfvwrite_r+0x5c>
   84664:	898b      	ldrh	r3, [r1, #12]
   84666:	0719      	lsls	r1, r3, #28
   84668:	d526      	bpl.n	846b8 <__sfvwrite_r+0x64>
   8466a:	6922      	ldr	r2, [r4, #16]
   8466c:	b322      	cbz	r2, 846b8 <__sfvwrite_r+0x64>
   8466e:	f003 0202 	and.w	r2, r3, #2
   84672:	b292      	uxth	r2, r2
   84674:	6835      	ldr	r5, [r6, #0]
   84676:	2a00      	cmp	r2, #0
   84678:	d02c      	beq.n	846d4 <__sfvwrite_r+0x80>
   8467a:	f04f 0a00 	mov.w	sl, #0
   8467e:	f8df b2e8 	ldr.w	fp, [pc, #744]	; 84968 <__sfvwrite_r+0x314>
   84682:	46d0      	mov	r8, sl
   84684:	45d8      	cmp	r8, fp
   84686:	bf34      	ite	cc
   84688:	4643      	movcc	r3, r8
   8468a:	465b      	movcs	r3, fp
   8468c:	4652      	mov	r2, sl
   8468e:	4648      	mov	r0, r9
   84690:	f1b8 0f00 	cmp.w	r8, #0
   84694:	d04f      	beq.n	84736 <__sfvwrite_r+0xe2>
   84696:	69e1      	ldr	r1, [r4, #28]
   84698:	6a67      	ldr	r7, [r4, #36]	; 0x24
   8469a:	47b8      	blx	r7
   8469c:	2800      	cmp	r0, #0
   8469e:	dd56      	ble.n	8474e <__sfvwrite_r+0xfa>
   846a0:	68b3      	ldr	r3, [r6, #8]
   846a2:	4482      	add	sl, r0
   846a4:	1a1b      	subs	r3, r3, r0
   846a6:	ebc0 0808 	rsb	r8, r0, r8
   846aa:	60b3      	str	r3, [r6, #8]
   846ac:	2b00      	cmp	r3, #0
   846ae:	d1e9      	bne.n	84684 <__sfvwrite_r+0x30>
   846b0:	2000      	movs	r0, #0
   846b2:	b003      	add	sp, #12
   846b4:	e8bd 8ff0 	ldmia.w	sp!, {r4, r5, r6, r7, r8, r9, sl, fp, pc}
   846b8:	4648      	mov	r0, r9
   846ba:	4621      	mov	r1, r4
   846bc:	f7ff fc88 	bl	83fd0 <__swsetup_r>
   846c0:	2800      	cmp	r0, #0
   846c2:	f040 8148 	bne.w	84956 <__sfvwrite_r+0x302>
   846c6:	89a3      	ldrh	r3, [r4, #12]
   846c8:	6835      	ldr	r5, [r6, #0]
   846ca:	f003 0202 	and.w	r2, r3, #2
   846ce:	b292      	uxth	r2, r2
   846d0:	2a00      	cmp	r2, #0
   846d2:	d1d2      	bne.n	8467a <__sfvwrite_r+0x26>
   846d4:	f013 0a01 	ands.w	sl, r3, #1
   846d8:	d142      	bne.n	84760 <__sfvwrite_r+0x10c>
   846da:	46d0      	mov	r8, sl
   846dc:	f1b8 0f00 	cmp.w	r8, #0
   846e0:	d023      	beq.n	8472a <__sfvwrite_r+0xd6>
   846e2:	059a      	lsls	r2, r3, #22
   846e4:	68a7      	ldr	r7, [r4, #8]
   846e6:	d576      	bpl.n	847d6 <__sfvwrite_r+0x182>
   846e8:	45b8      	cmp	r8, r7
   846ea:	f0c0 80a4 	bcc.w	84836 <__sfvwrite_r+0x1e2>
   846ee:	f413 6f90 	tst.w	r3, #1152	; 0x480
   846f2:	f040 80b2 	bne.w	8485a <__sfvwrite_r+0x206>
   846f6:	6820      	ldr	r0, [r4, #0]
   846f8:	46bb      	mov	fp, r7
   846fa:	4651      	mov	r1, sl
   846fc:	465a      	mov	r2, fp
   846fe:	f000 fd37 	bl	85170 <memmove>
   84702:	68a2      	ldr	r2, [r4, #8]
   84704:	6821      	ldr	r1, [r4, #0]
   84706:	1bd2      	subs	r2, r2, r7
   84708:	eb01 030b 	add.w	r3, r1, fp
   8470c:	60a2      	str	r2, [r4, #8]
   8470e:	6023      	str	r3, [r4, #0]
   84710:	4642      	mov	r2, r8
   84712:	68b3      	ldr	r3, [r6, #8]
   84714:	4492      	add	sl, r2
   84716:	1a9b      	subs	r3, r3, r2
   84718:	ebc2 0808 	rsb	r8, r2, r8
   8471c:	60b3      	str	r3, [r6, #8]
   8471e:	2b00      	cmp	r3, #0
   84720:	d0c6      	beq.n	846b0 <__sfvwrite_r+0x5c>
   84722:	89a3      	ldrh	r3, [r4, #12]
   84724:	f1b8 0f00 	cmp.w	r8, #0
   84728:	d1db      	bne.n	846e2 <__sfvwrite_r+0x8e>
   8472a:	f8d5 a000 	ldr.w	sl, [r5]
   8472e:	f8d5 8004 	ldr.w	r8, [r5, #4]
   84732:	3508      	adds	r5, #8
   84734:	e7d2      	b.n	846dc <__sfvwrite_r+0x88>
   84736:	f8d5 a000 	ldr.w	sl, [r5]
   8473a:	f8d5 8004 	ldr.w	r8, [r5, #4]
   8473e:	3508      	adds	r5, #8
   84740:	e7a0      	b.n	84684 <__sfvwrite_r+0x30>
   84742:	4648      	mov	r0, r9
   84744:	4621      	mov	r1, r4
   84746:	f7ff fd59 	bl	841fc <_fflush_r>
   8474a:	2800      	cmp	r0, #0
   8474c:	d059      	beq.n	84802 <__sfvwrite_r+0x1ae>
   8474e:	89a3      	ldrh	r3, [r4, #12]
   84750:	f043 0340 	orr.w	r3, r3, #64	; 0x40
   84754:	f04f 30ff 	mov.w	r0, #4294967295
   84758:	81a3      	strh	r3, [r4, #12]
   8475a:	b003      	add	sp, #12
   8475c:	e8bd 8ff0 	ldmia.w	sp!, {r4, r5, r6, r7, r8, r9, sl, fp, pc}
   84760:	4692      	mov	sl, r2
   84762:	9201      	str	r2, [sp, #4]
   84764:	4693      	mov	fp, r2
   84766:	4690      	mov	r8, r2
   84768:	f1b8 0f00 	cmp.w	r8, #0
   8476c:	d02b      	beq.n	847c6 <__sfvwrite_r+0x172>
   8476e:	9f01      	ldr	r7, [sp, #4]
   84770:	2f00      	cmp	r7, #0
   84772:	d064      	beq.n	8483e <__sfvwrite_r+0x1ea>
   84774:	6820      	ldr	r0, [r4, #0]
   84776:	6921      	ldr	r1, [r4, #16]
   84778:	45c2      	cmp	sl, r8
   8477a:	bf34      	ite	cc
   8477c:	4653      	movcc	r3, sl
   8477e:	4643      	movcs	r3, r8
   84780:	4288      	cmp	r0, r1
   84782:	461f      	mov	r7, r3
   84784:	f8d4 c008 	ldr.w	ip, [r4, #8]
   84788:	6962      	ldr	r2, [r4, #20]
   8478a:	d903      	bls.n	84794 <__sfvwrite_r+0x140>
   8478c:	4494      	add	ip, r2
   8478e:	4563      	cmp	r3, ip
   84790:	f300 80ae 	bgt.w	848f0 <__sfvwrite_r+0x29c>
   84794:	4293      	cmp	r3, r2
   84796:	db36      	blt.n	84806 <__sfvwrite_r+0x1b2>
   84798:	4613      	mov	r3, r2
   8479a:	6a67      	ldr	r7, [r4, #36]	; 0x24
   8479c:	4648      	mov	r0, r9
   8479e:	69e1      	ldr	r1, [r4, #28]
   847a0:	465a      	mov	r2, fp
   847a2:	47b8      	blx	r7
   847a4:	1e07      	subs	r7, r0, #0
   847a6:	ddd2      	ble.n	8474e <__sfvwrite_r+0xfa>
   847a8:	ebba 0a07 	subs.w	sl, sl, r7
   847ac:	d03a      	beq.n	84824 <__sfvwrite_r+0x1d0>
   847ae:	68b3      	ldr	r3, [r6, #8]
   847b0:	44bb      	add	fp, r7
   847b2:	1bdb      	subs	r3, r3, r7
   847b4:	ebc7 0808 	rsb	r8, r7, r8
   847b8:	60b3      	str	r3, [r6, #8]
   847ba:	2b00      	cmp	r3, #0
   847bc:	f43f af78 	beq.w	846b0 <__sfvwrite_r+0x5c>
   847c0:	f1b8 0f00 	cmp.w	r8, #0
   847c4:	d1d3      	bne.n	8476e <__sfvwrite_r+0x11a>
   847c6:	2700      	movs	r7, #0
   847c8:	f8d5 b000 	ldr.w	fp, [r5]
   847cc:	f8d5 8004 	ldr.w	r8, [r5, #4]
   847d0:	9701      	str	r7, [sp, #4]
   847d2:	3508      	adds	r5, #8
   847d4:	e7c8      	b.n	84768 <__sfvwrite_r+0x114>
   847d6:	6820      	ldr	r0, [r4, #0]
   847d8:	6923      	ldr	r3, [r4, #16]
   847da:	4298      	cmp	r0, r3
   847dc:	d802      	bhi.n	847e4 <__sfvwrite_r+0x190>
   847de:	6963      	ldr	r3, [r4, #20]
   847e0:	4598      	cmp	r8, r3
   847e2:	d272      	bcs.n	848ca <__sfvwrite_r+0x276>
   847e4:	45b8      	cmp	r8, r7
   847e6:	bf38      	it	cc
   847e8:	4647      	movcc	r7, r8
   847ea:	463a      	mov	r2, r7
   847ec:	4651      	mov	r1, sl
   847ee:	f000 fcbf 	bl	85170 <memmove>
   847f2:	68a3      	ldr	r3, [r4, #8]
   847f4:	6822      	ldr	r2, [r4, #0]
   847f6:	1bdb      	subs	r3, r3, r7
   847f8:	443a      	add	r2, r7
   847fa:	60a3      	str	r3, [r4, #8]
   847fc:	6022      	str	r2, [r4, #0]
   847fe:	2b00      	cmp	r3, #0
   84800:	d09f      	beq.n	84742 <__sfvwrite_r+0xee>
   84802:	463a      	mov	r2, r7
   84804:	e785      	b.n	84712 <__sfvwrite_r+0xbe>
   84806:	461a      	mov	r2, r3
   84808:	4659      	mov	r1, fp
   8480a:	9300      	str	r3, [sp, #0]
   8480c:	f000 fcb0 	bl	85170 <memmove>
   84810:	9b00      	ldr	r3, [sp, #0]
   84812:	68a1      	ldr	r1, [r4, #8]
   84814:	6822      	ldr	r2, [r4, #0]
   84816:	1ac9      	subs	r1, r1, r3
   84818:	ebba 0a07 	subs.w	sl, sl, r7
   8481c:	4413      	add	r3, r2
   8481e:	60a1      	str	r1, [r4, #8]
   84820:	6023      	str	r3, [r4, #0]
   84822:	d1c4      	bne.n	847ae <__sfvwrite_r+0x15a>
   84824:	4648      	mov	r0, r9
   84826:	4621      	mov	r1, r4
   84828:	f7ff fce8 	bl	841fc <_fflush_r>
   8482c:	2800      	cmp	r0, #0
   8482e:	d18e      	bne.n	8474e <__sfvwrite_r+0xfa>
   84830:	f8cd a004 	str.w	sl, [sp, #4]
   84834:	e7bb      	b.n	847ae <__sfvwrite_r+0x15a>
   84836:	6820      	ldr	r0, [r4, #0]
   84838:	4647      	mov	r7, r8
   8483a:	46c3      	mov	fp, r8
   8483c:	e75d      	b.n	846fa <__sfvwrite_r+0xa6>
   8483e:	4658      	mov	r0, fp
   84840:	210a      	movs	r1, #10
   84842:	4642      	mov	r2, r8
   84844:	f000 fbd4 	bl	84ff0 <memchr>
   84848:	2800      	cmp	r0, #0
   8484a:	d07f      	beq.n	8494c <__sfvwrite_r+0x2f8>
   8484c:	f100 0a01 	add.w	sl, r0, #1
   84850:	2701      	movs	r7, #1
   84852:	ebcb 0a0a 	rsb	sl, fp, sl
   84856:	9701      	str	r7, [sp, #4]
   84858:	e78c      	b.n	84774 <__sfvwrite_r+0x120>
   8485a:	6822      	ldr	r2, [r4, #0]
   8485c:	6921      	ldr	r1, [r4, #16]
   8485e:	6967      	ldr	r7, [r4, #20]
   84860:	ebc1 0c02 	rsb	ip, r1, r2
   84864:	eb07 0747 	add.w	r7, r7, r7, lsl #1
   84868:	f10c 0201 	add.w	r2, ip, #1
   8486c:	eb07 77d7 	add.w	r7, r7, r7, lsr #31
   84870:	4442      	add	r2, r8
   84872:	107f      	asrs	r7, r7, #1
   84874:	4297      	cmp	r7, r2
   84876:	bf34      	ite	cc
   84878:	4617      	movcc	r7, r2
   8487a:	463a      	movcs	r2, r7
   8487c:	055b      	lsls	r3, r3, #21
   8487e:	d54f      	bpl.n	84920 <__sfvwrite_r+0x2cc>
   84880:	4611      	mov	r1, r2
   84882:	4648      	mov	r0, r9
   84884:	f8cd c000 	str.w	ip, [sp]
   84888:	f000 f916 	bl	84ab8 <_malloc_r>
   8488c:	f8dd c000 	ldr.w	ip, [sp]
   84890:	4683      	mov	fp, r0
   84892:	2800      	cmp	r0, #0
   84894:	d062      	beq.n	8495c <__sfvwrite_r+0x308>
   84896:	4662      	mov	r2, ip
   84898:	6921      	ldr	r1, [r4, #16]
   8489a:	f8cd c000 	str.w	ip, [sp]
   8489e:	f000 fbf1 	bl	85084 <memcpy>
   848a2:	89a2      	ldrh	r2, [r4, #12]
   848a4:	f8dd c000 	ldr.w	ip, [sp]
   848a8:	f422 6290 	bic.w	r2, r2, #1152	; 0x480
   848ac:	f042 0280 	orr.w	r2, r2, #128	; 0x80
   848b0:	81a2      	strh	r2, [r4, #12]
   848b2:	eb0b 000c 	add.w	r0, fp, ip
   848b6:	ebcc 0207 	rsb	r2, ip, r7
   848ba:	f8c4 b010 	str.w	fp, [r4, #16]
   848be:	6167      	str	r7, [r4, #20]
   848c0:	6020      	str	r0, [r4, #0]
   848c2:	60a2      	str	r2, [r4, #8]
   848c4:	4647      	mov	r7, r8
   848c6:	46c3      	mov	fp, r8
   848c8:	e717      	b.n	846fa <__sfvwrite_r+0xa6>
   848ca:	f06f 4200 	mvn.w	r2, #2147483648	; 0x80000000
   848ce:	4590      	cmp	r8, r2
   848d0:	bf38      	it	cc
   848d2:	4642      	movcc	r2, r8
   848d4:	fb92 f2f3 	sdiv	r2, r2, r3
   848d8:	fb02 f303 	mul.w	r3, r2, r3
   848dc:	6a67      	ldr	r7, [r4, #36]	; 0x24
   848de:	4648      	mov	r0, r9
   848e0:	69e1      	ldr	r1, [r4, #28]
   848e2:	4652      	mov	r2, sl
   848e4:	47b8      	blx	r7
   848e6:	2800      	cmp	r0, #0
   848e8:	f77f af31 	ble.w	8474e <__sfvwrite_r+0xfa>
   848ec:	4602      	mov	r2, r0
   848ee:	e710      	b.n	84712 <__sfvwrite_r+0xbe>
   848f0:	4662      	mov	r2, ip
   848f2:	4659      	mov	r1, fp
   848f4:	f8cd c000 	str.w	ip, [sp]
   848f8:	f000 fc3a 	bl	85170 <memmove>
   848fc:	f8dd c000 	ldr.w	ip, [sp]
   84900:	6823      	ldr	r3, [r4, #0]
   84902:	4648      	mov	r0, r9
   84904:	4463      	add	r3, ip
   84906:	6023      	str	r3, [r4, #0]
   84908:	4621      	mov	r1, r4
   8490a:	f8cd c000 	str.w	ip, [sp]
   8490e:	f7ff fc75 	bl	841fc <_fflush_r>
   84912:	f8dd c000 	ldr.w	ip, [sp]
   84916:	2800      	cmp	r0, #0
   84918:	f47f af19 	bne.w	8474e <__sfvwrite_r+0xfa>
   8491c:	4667      	mov	r7, ip
   8491e:	e743      	b.n	847a8 <__sfvwrite_r+0x154>
   84920:	4648      	mov	r0, r9
   84922:	f8cd c000 	str.w	ip, [sp]
   84926:	f000 fc8d 	bl	85244 <_realloc_r>
   8492a:	f8dd c000 	ldr.w	ip, [sp]
   8492e:	4683      	mov	fp, r0
   84930:	2800      	cmp	r0, #0
   84932:	d1be      	bne.n	848b2 <__sfvwrite_r+0x25e>
   84934:	4648      	mov	r0, r9
   84936:	6921      	ldr	r1, [r4, #16]
   84938:	f7ff fdc0 	bl	844bc <_free_r>
   8493c:	89a3      	ldrh	r3, [r4, #12]
   8493e:	220c      	movs	r2, #12
   84940:	f023 0380 	bic.w	r3, r3, #128	; 0x80
   84944:	b29b      	uxth	r3, r3
   84946:	f8c9 2000 	str.w	r2, [r9]
   8494a:	e701      	b.n	84750 <__sfvwrite_r+0xfc>
   8494c:	2701      	movs	r7, #1
   8494e:	f108 0a01 	add.w	sl, r8, #1
   84952:	9701      	str	r7, [sp, #4]
   84954:	e70e      	b.n	84774 <__sfvwrite_r+0x120>
   84956:	f04f 30ff 	mov.w	r0, #4294967295
   8495a:	e6aa      	b.n	846b2 <__sfvwrite_r+0x5e>
   8495c:	230c      	movs	r3, #12
   8495e:	f8c9 3000 	str.w	r3, [r9]
   84962:	89a3      	ldrh	r3, [r4, #12]
   84964:	e6f4      	b.n	84750 <__sfvwrite_r+0xfc>
   84966:	bf00      	nop
   84968:	7ffffc00 	.word	0x7ffffc00

0008496c <_fwalk>:
   8496c:	e92d 41f0 	stmdb	sp!, {r4, r5, r6, r7, r8, lr}
   84970:	f510 7738 	adds.w	r7, r0, #736	; 0x2e0
   84974:	4688      	mov	r8, r1
   84976:	d019      	beq.n	849ac <_fwalk+0x40>
   84978:	2600      	movs	r6, #0
   8497a:	687d      	ldr	r5, [r7, #4]
   8497c:	68bc      	ldr	r4, [r7, #8]
   8497e:	3d01      	subs	r5, #1
   84980:	d40e      	bmi.n	849a0 <_fwalk+0x34>
   84982:	89a3      	ldrh	r3, [r4, #12]
   84984:	3d01      	subs	r5, #1
   84986:	2b01      	cmp	r3, #1
   84988:	d906      	bls.n	84998 <_fwalk+0x2c>
   8498a:	f9b4 300e 	ldrsh.w	r3, [r4, #14]
   8498e:	4620      	mov	r0, r4
   84990:	3301      	adds	r3, #1
   84992:	d001      	beq.n	84998 <_fwalk+0x2c>
   84994:	47c0      	blx	r8
   84996:	4306      	orrs	r6, r0
   84998:	1c6b      	adds	r3, r5, #1
   8499a:	f104 0468 	add.w	r4, r4, #104	; 0x68
   8499e:	d1f0      	bne.n	84982 <_fwalk+0x16>
   849a0:	683f      	ldr	r7, [r7, #0]
   849a2:	2f00      	cmp	r7, #0
   849a4:	d1e9      	bne.n	8497a <_fwalk+0xe>
   849a6:	4630      	mov	r0, r6
   849a8:	e8bd 81f0 	ldmia.w	sp!, {r4, r5, r6, r7, r8, pc}
   849ac:	463e      	mov	r6, r7
   849ae:	4630      	mov	r0, r6
   849b0:	e8bd 81f0 	ldmia.w	sp!, {r4, r5, r6, r7, r8, pc}

000849b4 <__locale_charset>:
   849b4:	4800      	ldr	r0, [pc, #0]	; (849b8 <__locale_charset+0x4>)
   849b6:	4770      	bx	lr
   849b8:	20070574 	.word	0x20070574

000849bc <__locale_mb_cur_max>:
   849bc:	4b01      	ldr	r3, [pc, #4]	; (849c4 <__locale_mb_cur_max+0x8>)
   849be:	6818      	ldr	r0, [r3, #0]
   849c0:	4770      	bx	lr
   849c2:	bf00      	nop
   849c4:	20070594 	.word	0x20070594

000849c8 <__smakebuf_r>:
   849c8:	b5f0      	push	{r4, r5, r6, r7, lr}
   849ca:	898b      	ldrh	r3, [r1, #12]
   849cc:	b091      	sub	sp, #68	; 0x44
   849ce:	b29a      	uxth	r2, r3
   849d0:	0796      	lsls	r6, r2, #30
   849d2:	460c      	mov	r4, r1
   849d4:	4605      	mov	r5, r0
   849d6:	d437      	bmi.n	84a48 <__smakebuf_r+0x80>
   849d8:	f9b1 100e 	ldrsh.w	r1, [r1, #14]
   849dc:	2900      	cmp	r1, #0
   849de:	db17      	blt.n	84a10 <__smakebuf_r+0x48>
   849e0:	aa01      	add	r2, sp, #4
   849e2:	f000 ff8b 	bl	858fc <_fstat_r>
   849e6:	2800      	cmp	r0, #0
   849e8:	db10      	blt.n	84a0c <__smakebuf_r+0x44>
   849ea:	9b02      	ldr	r3, [sp, #8]
   849ec:	f403 4370 	and.w	r3, r3, #61440	; 0xf000
   849f0:	f5b3 5100 	subs.w	r1, r3, #8192	; 0x2000
   849f4:	424f      	negs	r7, r1
   849f6:	414f      	adcs	r7, r1
   849f8:	f5b3 4f00 	cmp.w	r3, #32768	; 0x8000
   849fc:	d02c      	beq.n	84a58 <__smakebuf_r+0x90>
   849fe:	89a3      	ldrh	r3, [r4, #12]
   84a00:	f44f 6680 	mov.w	r6, #1024	; 0x400
   84a04:	f443 6300 	orr.w	r3, r3, #2048	; 0x800
   84a08:	81a3      	strh	r3, [r4, #12]
   84a0a:	e00b      	b.n	84a24 <__smakebuf_r+0x5c>
   84a0c:	89a3      	ldrh	r3, [r4, #12]
   84a0e:	b29a      	uxth	r2, r3
   84a10:	f012 0f80 	tst.w	r2, #128	; 0x80
   84a14:	f443 6300 	orr.w	r3, r3, #2048	; 0x800
   84a18:	81a3      	strh	r3, [r4, #12]
   84a1a:	bf14      	ite	ne
   84a1c:	2640      	movne	r6, #64	; 0x40
   84a1e:	f44f 6680 	moveq.w	r6, #1024	; 0x400
   84a22:	2700      	movs	r7, #0
   84a24:	4628      	mov	r0, r5
   84a26:	4631      	mov	r1, r6
   84a28:	f000 f846 	bl	84ab8 <_malloc_r>
   84a2c:	89a3      	ldrh	r3, [r4, #12]
   84a2e:	2800      	cmp	r0, #0
   84a30:	d029      	beq.n	84a86 <__smakebuf_r+0xbe>
   84a32:	4a1b      	ldr	r2, [pc, #108]	; (84aa0 <__smakebuf_r+0xd8>)
   84a34:	f043 0380 	orr.w	r3, r3, #128	; 0x80
   84a38:	63ea      	str	r2, [r5, #60]	; 0x3c
   84a3a:	81a3      	strh	r3, [r4, #12]
   84a3c:	6020      	str	r0, [r4, #0]
   84a3e:	6120      	str	r0, [r4, #16]
   84a40:	6166      	str	r6, [r4, #20]
   84a42:	b9a7      	cbnz	r7, 84a6e <__smakebuf_r+0xa6>
   84a44:	b011      	add	sp, #68	; 0x44
   84a46:	bdf0      	pop	{r4, r5, r6, r7, pc}
   84a48:	f101 0343 	add.w	r3, r1, #67	; 0x43
   84a4c:	2201      	movs	r2, #1
   84a4e:	600b      	str	r3, [r1, #0]
   84a50:	610b      	str	r3, [r1, #16]
   84a52:	614a      	str	r2, [r1, #20]
   84a54:	b011      	add	sp, #68	; 0x44
   84a56:	bdf0      	pop	{r4, r5, r6, r7, pc}
   84a58:	4a12      	ldr	r2, [pc, #72]	; (84aa4 <__smakebuf_r+0xdc>)
   84a5a:	6aa3      	ldr	r3, [r4, #40]	; 0x28
   84a5c:	4293      	cmp	r3, r2
   84a5e:	d1ce      	bne.n	849fe <__smakebuf_r+0x36>
   84a60:	89a3      	ldrh	r3, [r4, #12]
   84a62:	f44f 6680 	mov.w	r6, #1024	; 0x400
   84a66:	4333      	orrs	r3, r6
   84a68:	81a3      	strh	r3, [r4, #12]
   84a6a:	64e6      	str	r6, [r4, #76]	; 0x4c
   84a6c:	e7da      	b.n	84a24 <__smakebuf_r+0x5c>
   84a6e:	4628      	mov	r0, r5
   84a70:	f9b4 100e 	ldrsh.w	r1, [r4, #14]
   84a74:	f000 ff56 	bl	85924 <_isatty_r>
   84a78:	2800      	cmp	r0, #0
   84a7a:	d0e3      	beq.n	84a44 <__smakebuf_r+0x7c>
   84a7c:	89a3      	ldrh	r3, [r4, #12]
   84a7e:	f043 0301 	orr.w	r3, r3, #1
   84a82:	81a3      	strh	r3, [r4, #12]
   84a84:	e7de      	b.n	84a44 <__smakebuf_r+0x7c>
   84a86:	059a      	lsls	r2, r3, #22
   84a88:	d4dc      	bmi.n	84a44 <__smakebuf_r+0x7c>
   84a8a:	f104 0243 	add.w	r2, r4, #67	; 0x43
   84a8e:	f043 0302 	orr.w	r3, r3, #2
   84a92:	2101      	movs	r1, #1
   84a94:	81a3      	strh	r3, [r4, #12]
   84a96:	6022      	str	r2, [r4, #0]
   84a98:	6122      	str	r2, [r4, #16]
   84a9a:	6161      	str	r1, [r4, #20]
   84a9c:	e7d2      	b.n	84a44 <__smakebuf_r+0x7c>
   84a9e:	bf00      	nop
   84aa0:	00084229 	.word	0x00084229
   84aa4:	00085685 	.word	0x00085685

00084aa8 <malloc>:
   84aa8:	4b02      	ldr	r3, [pc, #8]	; (84ab4 <malloc+0xc>)
   84aaa:	4601      	mov	r1, r0
   84aac:	6818      	ldr	r0, [r3, #0]
   84aae:	f000 b803 	b.w	84ab8 <_malloc_r>
   84ab2:	bf00      	nop
   84ab4:	20070570 	.word	0x20070570

00084ab8 <_malloc_r>:
   84ab8:	e92d 4ff0 	stmdb	sp!, {r4, r5, r6, r7, r8, r9, sl, fp, lr}
   84abc:	f101 050b 	add.w	r5, r1, #11
   84ac0:	2d16      	cmp	r5, #22
   84ac2:	b083      	sub	sp, #12
   84ac4:	4606      	mov	r6, r0
   84ac6:	d927      	bls.n	84b18 <_malloc_r+0x60>
   84ac8:	f035 0507 	bics.w	r5, r5, #7
   84acc:	d427      	bmi.n	84b1e <_malloc_r+0x66>
   84ace:	42a9      	cmp	r1, r5
   84ad0:	d825      	bhi.n	84b1e <_malloc_r+0x66>
   84ad2:	4630      	mov	r0, r6
   84ad4:	f000 fbb2 	bl	8523c <__malloc_lock>
   84ad8:	f5b5 7ffc 	cmp.w	r5, #504	; 0x1f8
   84adc:	d226      	bcs.n	84b2c <_malloc_r+0x74>
   84ade:	4fc1      	ldr	r7, [pc, #772]	; (84de4 <_malloc_r+0x32c>)
   84ae0:	ea4f 0cd5 	mov.w	ip, r5, lsr #3
   84ae4:	eb07 03cc 	add.w	r3, r7, ip, lsl #3
   84ae8:	68dc      	ldr	r4, [r3, #12]
   84aea:	429c      	cmp	r4, r3
   84aec:	f000 81d2 	beq.w	84e94 <_malloc_r+0x3dc>
   84af0:	6863      	ldr	r3, [r4, #4]
   84af2:	68e2      	ldr	r2, [r4, #12]
   84af4:	f023 0303 	bic.w	r3, r3, #3
   84af8:	4423      	add	r3, r4
   84afa:	6858      	ldr	r0, [r3, #4]
   84afc:	68a1      	ldr	r1, [r4, #8]
   84afe:	f040 0501 	orr.w	r5, r0, #1
   84b02:	60ca      	str	r2, [r1, #12]
   84b04:	4630      	mov	r0, r6
   84b06:	6091      	str	r1, [r2, #8]
   84b08:	605d      	str	r5, [r3, #4]
   84b0a:	f000 fb99 	bl	85240 <__malloc_unlock>
   84b0e:	3408      	adds	r4, #8
   84b10:	4620      	mov	r0, r4
   84b12:	b003      	add	sp, #12
   84b14:	e8bd 8ff0 	ldmia.w	sp!, {r4, r5, r6, r7, r8, r9, sl, fp, pc}
   84b18:	2510      	movs	r5, #16
   84b1a:	42a9      	cmp	r1, r5
   84b1c:	d9d9      	bls.n	84ad2 <_malloc_r+0x1a>
   84b1e:	2400      	movs	r4, #0
   84b20:	230c      	movs	r3, #12
   84b22:	4620      	mov	r0, r4
   84b24:	6033      	str	r3, [r6, #0]
   84b26:	b003      	add	sp, #12
   84b28:	e8bd 8ff0 	ldmia.w	sp!, {r4, r5, r6, r7, r8, r9, sl, fp, pc}
   84b2c:	ea5f 2c55 	movs.w	ip, r5, lsr #9
   84b30:	f000 8089 	beq.w	84c46 <_malloc_r+0x18e>
   84b34:	f1bc 0f04 	cmp.w	ip, #4
   84b38:	f200 8160 	bhi.w	84dfc <_malloc_r+0x344>
   84b3c:	ea4f 1c95 	mov.w	ip, r5, lsr #6
   84b40:	f10c 0c38 	add.w	ip, ip, #56	; 0x38
   84b44:	ea4f 014c 	mov.w	r1, ip, lsl #1
   84b48:	4fa6      	ldr	r7, [pc, #664]	; (84de4 <_malloc_r+0x32c>)
   84b4a:	eb07 0181 	add.w	r1, r7, r1, lsl #2
   84b4e:	68cc      	ldr	r4, [r1, #12]
   84b50:	42a1      	cmp	r1, r4
   84b52:	d105      	bne.n	84b60 <_malloc_r+0xa8>
   84b54:	e00c      	b.n	84b70 <_malloc_r+0xb8>
   84b56:	2b00      	cmp	r3, #0
   84b58:	da79      	bge.n	84c4e <_malloc_r+0x196>
   84b5a:	68e4      	ldr	r4, [r4, #12]
   84b5c:	42a1      	cmp	r1, r4
   84b5e:	d007      	beq.n	84b70 <_malloc_r+0xb8>
   84b60:	6862      	ldr	r2, [r4, #4]
   84b62:	f022 0203 	bic.w	r2, r2, #3
   84b66:	1b53      	subs	r3, r2, r5
   84b68:	2b0f      	cmp	r3, #15
   84b6a:	ddf4      	ble.n	84b56 <_malloc_r+0x9e>
   84b6c:	f10c 3cff 	add.w	ip, ip, #4294967295
   84b70:	f10c 0c01 	add.w	ip, ip, #1
   84b74:	4b9b      	ldr	r3, [pc, #620]	; (84de4 <_malloc_r+0x32c>)
   84b76:	693c      	ldr	r4, [r7, #16]
   84b78:	f103 0e08 	add.w	lr, r3, #8
   84b7c:	4574      	cmp	r4, lr
   84b7e:	f000 817e 	beq.w	84e7e <_malloc_r+0x3c6>
   84b82:	6861      	ldr	r1, [r4, #4]
   84b84:	f021 0103 	bic.w	r1, r1, #3
   84b88:	1b4a      	subs	r2, r1, r5
   84b8a:	2a0f      	cmp	r2, #15
   84b8c:	f300 8164 	bgt.w	84e58 <_malloc_r+0x3a0>
   84b90:	2a00      	cmp	r2, #0
   84b92:	f8c3 e014 	str.w	lr, [r3, #20]
   84b96:	f8c3 e010 	str.w	lr, [r3, #16]
   84b9a:	da69      	bge.n	84c70 <_malloc_r+0x1b8>
   84b9c:	f5b1 7f00 	cmp.w	r1, #512	; 0x200
   84ba0:	f080 813a 	bcs.w	84e18 <_malloc_r+0x360>
   84ba4:	08c9      	lsrs	r1, r1, #3
   84ba6:	108a      	asrs	r2, r1, #2
   84ba8:	f04f 0801 	mov.w	r8, #1
   84bac:	fa08 f802 	lsl.w	r8, r8, r2
   84bb0:	eb03 01c1 	add.w	r1, r3, r1, lsl #3
   84bb4:	685a      	ldr	r2, [r3, #4]
   84bb6:	6888      	ldr	r0, [r1, #8]
   84bb8:	ea48 0202 	orr.w	r2, r8, r2
   84bbc:	60a0      	str	r0, [r4, #8]
   84bbe:	60e1      	str	r1, [r4, #12]
   84bc0:	605a      	str	r2, [r3, #4]
   84bc2:	608c      	str	r4, [r1, #8]
   84bc4:	60c4      	str	r4, [r0, #12]
   84bc6:	ea4f 03ac 	mov.w	r3, ip, asr #2
   84bca:	2001      	movs	r0, #1
   84bcc:	4098      	lsls	r0, r3
   84bce:	4290      	cmp	r0, r2
   84bd0:	d85b      	bhi.n	84c8a <_malloc_r+0x1d2>
   84bd2:	4202      	tst	r2, r0
   84bd4:	d106      	bne.n	84be4 <_malloc_r+0x12c>
   84bd6:	f02c 0c03 	bic.w	ip, ip, #3
   84bda:	0040      	lsls	r0, r0, #1
   84bdc:	4202      	tst	r2, r0
   84bde:	f10c 0c04 	add.w	ip, ip, #4
   84be2:	d0fa      	beq.n	84bda <_malloc_r+0x122>
   84be4:	eb07 08cc 	add.w	r8, r7, ip, lsl #3
   84be8:	4644      	mov	r4, r8
   84bea:	46e1      	mov	r9, ip
   84bec:	68e3      	ldr	r3, [r4, #12]
   84bee:	429c      	cmp	r4, r3
   84bf0:	d107      	bne.n	84c02 <_malloc_r+0x14a>
   84bf2:	e146      	b.n	84e82 <_malloc_r+0x3ca>
   84bf4:	2a00      	cmp	r2, #0
   84bf6:	f280 8157 	bge.w	84ea8 <_malloc_r+0x3f0>
   84bfa:	68db      	ldr	r3, [r3, #12]
   84bfc:	429c      	cmp	r4, r3
   84bfe:	f000 8140 	beq.w	84e82 <_malloc_r+0x3ca>
   84c02:	6859      	ldr	r1, [r3, #4]
   84c04:	f021 0103 	bic.w	r1, r1, #3
   84c08:	1b4a      	subs	r2, r1, r5
   84c0a:	2a0f      	cmp	r2, #15
   84c0c:	ddf2      	ble.n	84bf4 <_malloc_r+0x13c>
   84c0e:	461c      	mov	r4, r3
   84c10:	f854 cf08 	ldr.w	ip, [r4, #8]!
   84c14:	68d9      	ldr	r1, [r3, #12]
   84c16:	f045 0901 	orr.w	r9, r5, #1
   84c1a:	f042 0801 	orr.w	r8, r2, #1
   84c1e:	441d      	add	r5, r3
   84c20:	f8c3 9004 	str.w	r9, [r3, #4]
   84c24:	4630      	mov	r0, r6
   84c26:	f8cc 100c 	str.w	r1, [ip, #12]
   84c2a:	f8c1 c008 	str.w	ip, [r1, #8]
   84c2e:	617d      	str	r5, [r7, #20]
   84c30:	613d      	str	r5, [r7, #16]
   84c32:	f8c5 e00c 	str.w	lr, [r5, #12]
   84c36:	f8c5 e008 	str.w	lr, [r5, #8]
   84c3a:	f8c5 8004 	str.w	r8, [r5, #4]
   84c3e:	50aa      	str	r2, [r5, r2]
   84c40:	f000 fafe 	bl	85240 <__malloc_unlock>
   84c44:	e764      	b.n	84b10 <_malloc_r+0x58>
   84c46:	217e      	movs	r1, #126	; 0x7e
   84c48:	f04f 0c3f 	mov.w	ip, #63	; 0x3f
   84c4c:	e77c      	b.n	84b48 <_malloc_r+0x90>
   84c4e:	4422      	add	r2, r4
   84c50:	6850      	ldr	r0, [r2, #4]
   84c52:	68e3      	ldr	r3, [r4, #12]
   84c54:	68a1      	ldr	r1, [r4, #8]
   84c56:	f040 0501 	orr.w	r5, r0, #1
   84c5a:	60cb      	str	r3, [r1, #12]
   84c5c:	4630      	mov	r0, r6
   84c5e:	6099      	str	r1, [r3, #8]
   84c60:	6055      	str	r5, [r2, #4]
   84c62:	f000 faed 	bl	85240 <__malloc_unlock>
   84c66:	3408      	adds	r4, #8
   84c68:	4620      	mov	r0, r4
   84c6a:	b003      	add	sp, #12
   84c6c:	e8bd 8ff0 	ldmia.w	sp!, {r4, r5, r6, r7, r8, r9, sl, fp, pc}
   84c70:	4421      	add	r1, r4
   84c72:	684b      	ldr	r3, [r1, #4]
   84c74:	4630      	mov	r0, r6
   84c76:	f043 0301 	orr.w	r3, r3, #1
   84c7a:	604b      	str	r3, [r1, #4]
   84c7c:	f000 fae0 	bl	85240 <__malloc_unlock>
   84c80:	3408      	adds	r4, #8
   84c82:	4620      	mov	r0, r4
   84c84:	b003      	add	sp, #12
   84c86:	e8bd 8ff0 	ldmia.w	sp!, {r4, r5, r6, r7, r8, r9, sl, fp, pc}
   84c8a:	68bc      	ldr	r4, [r7, #8]
   84c8c:	6863      	ldr	r3, [r4, #4]
   84c8e:	f023 0903 	bic.w	r9, r3, #3
   84c92:	45a9      	cmp	r9, r5
   84c94:	d304      	bcc.n	84ca0 <_malloc_r+0x1e8>
   84c96:	ebc5 0309 	rsb	r3, r5, r9
   84c9a:	2b0f      	cmp	r3, #15
   84c9c:	f300 8091 	bgt.w	84dc2 <_malloc_r+0x30a>
   84ca0:	4b51      	ldr	r3, [pc, #324]	; (84de8 <_malloc_r+0x330>)
   84ca2:	4a52      	ldr	r2, [pc, #328]	; (84dec <_malloc_r+0x334>)
   84ca4:	6819      	ldr	r1, [r3, #0]
   84ca6:	6813      	ldr	r3, [r2, #0]
   84ca8:	eb05 0a01 	add.w	sl, r5, r1
   84cac:	3301      	adds	r3, #1
   84cae:	eb04 0b09 	add.w	fp, r4, r9
   84cb2:	f000 8161 	beq.w	84f78 <_malloc_r+0x4c0>
   84cb6:	f50a 5a80 	add.w	sl, sl, #4096	; 0x1000
   84cba:	f10a 0a0f 	add.w	sl, sl, #15
   84cbe:	f42a 6a7f 	bic.w	sl, sl, #4080	; 0xff0
   84cc2:	f02a 0a0f 	bic.w	sl, sl, #15
   84cc6:	4630      	mov	r0, r6
   84cc8:	4651      	mov	r1, sl
   84cca:	9201      	str	r2, [sp, #4]
   84ccc:	f000 fc9a 	bl	85604 <_sbrk_r>
   84cd0:	f1b0 3fff 	cmp.w	r0, #4294967295
   84cd4:	4680      	mov	r8, r0
   84cd6:	9a01      	ldr	r2, [sp, #4]
   84cd8:	f000 8101 	beq.w	84ede <_malloc_r+0x426>
   84cdc:	4583      	cmp	fp, r0
   84cde:	f200 80fb 	bhi.w	84ed8 <_malloc_r+0x420>
   84ce2:	f8df c114 	ldr.w	ip, [pc, #276]	; 84df8 <_malloc_r+0x340>
   84ce6:	45c3      	cmp	fp, r8
   84ce8:	f8dc 3000 	ldr.w	r3, [ip]
   84cec:	4453      	add	r3, sl
   84cee:	f8cc 3000 	str.w	r3, [ip]
   84cf2:	f000 814a 	beq.w	84f8a <_malloc_r+0x4d2>
   84cf6:	6812      	ldr	r2, [r2, #0]
   84cf8:	493c      	ldr	r1, [pc, #240]	; (84dec <_malloc_r+0x334>)
   84cfa:	3201      	adds	r2, #1
   84cfc:	bf1b      	ittet	ne
   84cfe:	ebcb 0b08 	rsbne	fp, fp, r8
   84d02:	445b      	addne	r3, fp
   84d04:	f8c1 8000 	streq.w	r8, [r1]
   84d08:	f8cc 3000 	strne.w	r3, [ip]
   84d0c:	f018 0307 	ands.w	r3, r8, #7
   84d10:	f000 8114 	beq.w	84f3c <_malloc_r+0x484>
   84d14:	f1c3 0208 	rsb	r2, r3, #8
   84d18:	f5c3 5380 	rsb	r3, r3, #4096	; 0x1000
   84d1c:	4490      	add	r8, r2
   84d1e:	3308      	adds	r3, #8
   84d20:	44c2      	add	sl, r8
   84d22:	f3ca 0a0b 	ubfx	sl, sl, #0, #12
   84d26:	ebca 0a03 	rsb	sl, sl, r3
   84d2a:	4651      	mov	r1, sl
   84d2c:	4630      	mov	r0, r6
   84d2e:	f8cd c004 	str.w	ip, [sp, #4]
   84d32:	f000 fc67 	bl	85604 <_sbrk_r>
   84d36:	1c43      	adds	r3, r0, #1
   84d38:	f8dd c004 	ldr.w	ip, [sp, #4]
   84d3c:	f000 8135 	beq.w	84faa <_malloc_r+0x4f2>
   84d40:	ebc8 0200 	rsb	r2, r8, r0
   84d44:	4452      	add	r2, sl
   84d46:	f042 0201 	orr.w	r2, r2, #1
   84d4a:	f8dc 3000 	ldr.w	r3, [ip]
   84d4e:	42bc      	cmp	r4, r7
   84d50:	4453      	add	r3, sl
   84d52:	f8c7 8008 	str.w	r8, [r7, #8]
   84d56:	f8cc 3000 	str.w	r3, [ip]
   84d5a:	f8c8 2004 	str.w	r2, [r8, #4]
   84d5e:	f8df a098 	ldr.w	sl, [pc, #152]	; 84df8 <_malloc_r+0x340>
   84d62:	d015      	beq.n	84d90 <_malloc_r+0x2d8>
   84d64:	f1b9 0f0f 	cmp.w	r9, #15
   84d68:	f240 80eb 	bls.w	84f42 <_malloc_r+0x48a>
   84d6c:	6861      	ldr	r1, [r4, #4]
   84d6e:	f1a9 020c 	sub.w	r2, r9, #12
   84d72:	f022 0207 	bic.w	r2, r2, #7
   84d76:	f001 0101 	and.w	r1, r1, #1
   84d7a:	ea42 0e01 	orr.w	lr, r2, r1
   84d7e:	2005      	movs	r0, #5
   84d80:	18a1      	adds	r1, r4, r2
   84d82:	2a0f      	cmp	r2, #15
   84d84:	f8c4 e004 	str.w	lr, [r4, #4]
   84d88:	6048      	str	r0, [r1, #4]
   84d8a:	6088      	str	r0, [r1, #8]
   84d8c:	f200 8111 	bhi.w	84fb2 <_malloc_r+0x4fa>
   84d90:	4a17      	ldr	r2, [pc, #92]	; (84df0 <_malloc_r+0x338>)
   84d92:	68bc      	ldr	r4, [r7, #8]
   84d94:	6811      	ldr	r1, [r2, #0]
   84d96:	428b      	cmp	r3, r1
   84d98:	bf88      	it	hi
   84d9a:	6013      	strhi	r3, [r2, #0]
   84d9c:	4a15      	ldr	r2, [pc, #84]	; (84df4 <_malloc_r+0x33c>)
   84d9e:	6811      	ldr	r1, [r2, #0]
   84da0:	428b      	cmp	r3, r1
   84da2:	bf88      	it	hi
   84da4:	6013      	strhi	r3, [r2, #0]
   84da6:	6862      	ldr	r2, [r4, #4]
   84da8:	f022 0203 	bic.w	r2, r2, #3
   84dac:	4295      	cmp	r5, r2
   84dae:	ebc5 0302 	rsb	r3, r5, r2
   84db2:	d801      	bhi.n	84db8 <_malloc_r+0x300>
   84db4:	2b0f      	cmp	r3, #15
   84db6:	dc04      	bgt.n	84dc2 <_malloc_r+0x30a>
   84db8:	4630      	mov	r0, r6
   84dba:	f000 fa41 	bl	85240 <__malloc_unlock>
   84dbe:	2400      	movs	r4, #0
   84dc0:	e6a6      	b.n	84b10 <_malloc_r+0x58>
   84dc2:	f045 0201 	orr.w	r2, r5, #1
   84dc6:	f043 0301 	orr.w	r3, r3, #1
   84dca:	4425      	add	r5, r4
   84dcc:	6062      	str	r2, [r4, #4]
   84dce:	4630      	mov	r0, r6
   84dd0:	60bd      	str	r5, [r7, #8]
   84dd2:	606b      	str	r3, [r5, #4]
   84dd4:	f000 fa34 	bl	85240 <__malloc_unlock>
   84dd8:	3408      	adds	r4, #8
   84dda:	4620      	mov	r0, r4
   84ddc:	b003      	add	sp, #12
   84dde:	e8bd 8ff0 	ldmia.w	sp!, {r4, r5, r6, r7, r8, r9, sl, fp, pc}
   84de2:	bf00      	nop
   84de4:	20070598 	.word	0x20070598
   84de8:	20070b04 	.word	0x20070b04
   84dec:	200709a4 	.word	0x200709a4
   84df0:	20070b00 	.word	0x20070b00
   84df4:	20070afc 	.word	0x20070afc
   84df8:	20070b08 	.word	0x20070b08
   84dfc:	f1bc 0f14 	cmp.w	ip, #20
   84e00:	d961      	bls.n	84ec6 <_malloc_r+0x40e>
   84e02:	f1bc 0f54 	cmp.w	ip, #84	; 0x54
   84e06:	f200 808f 	bhi.w	84f28 <_malloc_r+0x470>
   84e0a:	ea4f 3c15 	mov.w	ip, r5, lsr #12
   84e0e:	f10c 0c6e 	add.w	ip, ip, #110	; 0x6e
   84e12:	ea4f 014c 	mov.w	r1, ip, lsl #1
   84e16:	e697      	b.n	84b48 <_malloc_r+0x90>
   84e18:	0a4b      	lsrs	r3, r1, #9
   84e1a:	2b04      	cmp	r3, #4
   84e1c:	d958      	bls.n	84ed0 <_malloc_r+0x418>
   84e1e:	2b14      	cmp	r3, #20
   84e20:	f200 80ad 	bhi.w	84f7e <_malloc_r+0x4c6>
   84e24:	f103 025b 	add.w	r2, r3, #91	; 0x5b
   84e28:	0050      	lsls	r0, r2, #1
   84e2a:	eb07 0080 	add.w	r0, r7, r0, lsl #2
   84e2e:	6883      	ldr	r3, [r0, #8]
   84e30:	f8df 81b8 	ldr.w	r8, [pc, #440]	; 84fec <_malloc_r+0x534>
   84e34:	4283      	cmp	r3, r0
   84e36:	f000 808a 	beq.w	84f4e <_malloc_r+0x496>
   84e3a:	685a      	ldr	r2, [r3, #4]
   84e3c:	f022 0203 	bic.w	r2, r2, #3
   84e40:	4291      	cmp	r1, r2
   84e42:	d202      	bcs.n	84e4a <_malloc_r+0x392>
   84e44:	689b      	ldr	r3, [r3, #8]
   84e46:	4298      	cmp	r0, r3
   84e48:	d1f7      	bne.n	84e3a <_malloc_r+0x382>
   84e4a:	68d9      	ldr	r1, [r3, #12]
   84e4c:	687a      	ldr	r2, [r7, #4]
   84e4e:	60e1      	str	r1, [r4, #12]
   84e50:	60a3      	str	r3, [r4, #8]
   84e52:	608c      	str	r4, [r1, #8]
   84e54:	60dc      	str	r4, [r3, #12]
   84e56:	e6b6      	b.n	84bc6 <_malloc_r+0x10e>
   84e58:	f045 0701 	orr.w	r7, r5, #1
   84e5c:	f042 0101 	orr.w	r1, r2, #1
   84e60:	4425      	add	r5, r4
   84e62:	6067      	str	r7, [r4, #4]
   84e64:	4630      	mov	r0, r6
   84e66:	615d      	str	r5, [r3, #20]
   84e68:	611d      	str	r5, [r3, #16]
   84e6a:	f8c5 e00c 	str.w	lr, [r5, #12]
   84e6e:	f8c5 e008 	str.w	lr, [r5, #8]
   84e72:	6069      	str	r1, [r5, #4]
   84e74:	50aa      	str	r2, [r5, r2]
   84e76:	3408      	adds	r4, #8
   84e78:	f000 f9e2 	bl	85240 <__malloc_unlock>
   84e7c:	e648      	b.n	84b10 <_malloc_r+0x58>
   84e7e:	685a      	ldr	r2, [r3, #4]
   84e80:	e6a1      	b.n	84bc6 <_malloc_r+0x10e>
   84e82:	f109 0901 	add.w	r9, r9, #1
   84e86:	f019 0f03 	tst.w	r9, #3
   84e8a:	f104 0408 	add.w	r4, r4, #8
   84e8e:	f47f aead 	bne.w	84bec <_malloc_r+0x134>
   84e92:	e02d      	b.n	84ef0 <_malloc_r+0x438>
   84e94:	f104 0308 	add.w	r3, r4, #8
   84e98:	6964      	ldr	r4, [r4, #20]
   84e9a:	42a3      	cmp	r3, r4
   84e9c:	bf08      	it	eq
   84e9e:	f10c 0c02 	addeq.w	ip, ip, #2
   84ea2:	f43f ae67 	beq.w	84b74 <_malloc_r+0xbc>
   84ea6:	e623      	b.n	84af0 <_malloc_r+0x38>
   84ea8:	4419      	add	r1, r3
   84eaa:	6848      	ldr	r0, [r1, #4]
   84eac:	461c      	mov	r4, r3
   84eae:	f854 2f08 	ldr.w	r2, [r4, #8]!
   84eb2:	68db      	ldr	r3, [r3, #12]
   84eb4:	f040 0501 	orr.w	r5, r0, #1
   84eb8:	604d      	str	r5, [r1, #4]
   84eba:	4630      	mov	r0, r6
   84ebc:	60d3      	str	r3, [r2, #12]
   84ebe:	609a      	str	r2, [r3, #8]
   84ec0:	f000 f9be 	bl	85240 <__malloc_unlock>
   84ec4:	e624      	b.n	84b10 <_malloc_r+0x58>
   84ec6:	f10c 0c5b 	add.w	ip, ip, #91	; 0x5b
   84eca:	ea4f 014c 	mov.w	r1, ip, lsl #1
   84ece:	e63b      	b.n	84b48 <_malloc_r+0x90>
   84ed0:	098a      	lsrs	r2, r1, #6
   84ed2:	3238      	adds	r2, #56	; 0x38
   84ed4:	0050      	lsls	r0, r2, #1
   84ed6:	e7a8      	b.n	84e2a <_malloc_r+0x372>
   84ed8:	42bc      	cmp	r4, r7
   84eda:	f43f af02 	beq.w	84ce2 <_malloc_r+0x22a>
   84ede:	68bc      	ldr	r4, [r7, #8]
   84ee0:	6862      	ldr	r2, [r4, #4]
   84ee2:	f022 0203 	bic.w	r2, r2, #3
   84ee6:	e761      	b.n	84dac <_malloc_r+0x2f4>
   84ee8:	f8d8 8000 	ldr.w	r8, [r8]
   84eec:	4598      	cmp	r8, r3
   84eee:	d17a      	bne.n	84fe6 <_malloc_r+0x52e>
   84ef0:	f01c 0f03 	tst.w	ip, #3
   84ef4:	f1a8 0308 	sub.w	r3, r8, #8
   84ef8:	f10c 3cff 	add.w	ip, ip, #4294967295
   84efc:	d1f4      	bne.n	84ee8 <_malloc_r+0x430>
   84efe:	687b      	ldr	r3, [r7, #4]
   84f00:	ea23 0300 	bic.w	r3, r3, r0
   84f04:	607b      	str	r3, [r7, #4]
   84f06:	0040      	lsls	r0, r0, #1
   84f08:	4298      	cmp	r0, r3
   84f0a:	f63f aebe 	bhi.w	84c8a <_malloc_r+0x1d2>
   84f0e:	2800      	cmp	r0, #0
   84f10:	f43f aebb 	beq.w	84c8a <_malloc_r+0x1d2>
   84f14:	4203      	tst	r3, r0
   84f16:	46cc      	mov	ip, r9
   84f18:	f47f ae64 	bne.w	84be4 <_malloc_r+0x12c>
   84f1c:	0040      	lsls	r0, r0, #1
   84f1e:	4203      	tst	r3, r0
   84f20:	f10c 0c04 	add.w	ip, ip, #4
   84f24:	d0fa      	beq.n	84f1c <_malloc_r+0x464>
   84f26:	e65d      	b.n	84be4 <_malloc_r+0x12c>
   84f28:	f5bc 7faa 	cmp.w	ip, #340	; 0x154
   84f2c:	d819      	bhi.n	84f62 <_malloc_r+0x4aa>
   84f2e:	ea4f 3cd5 	mov.w	ip, r5, lsr #15
   84f32:	f10c 0c77 	add.w	ip, ip, #119	; 0x77
   84f36:	ea4f 014c 	mov.w	r1, ip, lsl #1
   84f3a:	e605      	b.n	84b48 <_malloc_r+0x90>
   84f3c:	f44f 5380 	mov.w	r3, #4096	; 0x1000
   84f40:	e6ee      	b.n	84d20 <_malloc_r+0x268>
   84f42:	2301      	movs	r3, #1
   84f44:	f8c8 3004 	str.w	r3, [r8, #4]
   84f48:	4644      	mov	r4, r8
   84f4a:	2200      	movs	r2, #0
   84f4c:	e72e      	b.n	84dac <_malloc_r+0x2f4>
   84f4e:	1092      	asrs	r2, r2, #2
   84f50:	2001      	movs	r0, #1
   84f52:	4090      	lsls	r0, r2
   84f54:	f8d8 2004 	ldr.w	r2, [r8, #4]
   84f58:	4619      	mov	r1, r3
   84f5a:	4302      	orrs	r2, r0
   84f5c:	f8c8 2004 	str.w	r2, [r8, #4]
   84f60:	e775      	b.n	84e4e <_malloc_r+0x396>
   84f62:	f240 5354 	movw	r3, #1364	; 0x554
   84f66:	459c      	cmp	ip, r3
   84f68:	d81b      	bhi.n	84fa2 <_malloc_r+0x4ea>
   84f6a:	ea4f 4c95 	mov.w	ip, r5, lsr #18
   84f6e:	f10c 0c7c 	add.w	ip, ip, #124	; 0x7c
   84f72:	ea4f 014c 	mov.w	r1, ip, lsl #1
   84f76:	e5e7      	b.n	84b48 <_malloc_r+0x90>
   84f78:	f10a 0a10 	add.w	sl, sl, #16
   84f7c:	e6a3      	b.n	84cc6 <_malloc_r+0x20e>
   84f7e:	2b54      	cmp	r3, #84	; 0x54
   84f80:	d81f      	bhi.n	84fc2 <_malloc_r+0x50a>
   84f82:	0b0a      	lsrs	r2, r1, #12
   84f84:	326e      	adds	r2, #110	; 0x6e
   84f86:	0050      	lsls	r0, r2, #1
   84f88:	e74f      	b.n	84e2a <_malloc_r+0x372>
   84f8a:	f3cb 010b 	ubfx	r1, fp, #0, #12
   84f8e:	2900      	cmp	r1, #0
   84f90:	f47f aeb1 	bne.w	84cf6 <_malloc_r+0x23e>
   84f94:	eb0a 0109 	add.w	r1, sl, r9
   84f98:	68ba      	ldr	r2, [r7, #8]
   84f9a:	f041 0101 	orr.w	r1, r1, #1
   84f9e:	6051      	str	r1, [r2, #4]
   84fa0:	e6f6      	b.n	84d90 <_malloc_r+0x2d8>
   84fa2:	21fc      	movs	r1, #252	; 0xfc
   84fa4:	f04f 0c7e 	mov.w	ip, #126	; 0x7e
   84fa8:	e5ce      	b.n	84b48 <_malloc_r+0x90>
   84faa:	2201      	movs	r2, #1
   84fac:	f04f 0a00 	mov.w	sl, #0
   84fb0:	e6cb      	b.n	84d4a <_malloc_r+0x292>
   84fb2:	f104 0108 	add.w	r1, r4, #8
   84fb6:	4630      	mov	r0, r6
   84fb8:	f7ff fa80 	bl	844bc <_free_r>
   84fbc:	f8da 3000 	ldr.w	r3, [sl]
   84fc0:	e6e6      	b.n	84d90 <_malloc_r+0x2d8>
   84fc2:	f5b3 7faa 	cmp.w	r3, #340	; 0x154
   84fc6:	d803      	bhi.n	84fd0 <_malloc_r+0x518>
   84fc8:	0bca      	lsrs	r2, r1, #15
   84fca:	3277      	adds	r2, #119	; 0x77
   84fcc:	0050      	lsls	r0, r2, #1
   84fce:	e72c      	b.n	84e2a <_malloc_r+0x372>
   84fd0:	f240 5254 	movw	r2, #1364	; 0x554
   84fd4:	4293      	cmp	r3, r2
   84fd6:	d803      	bhi.n	84fe0 <_malloc_r+0x528>
   84fd8:	0c8a      	lsrs	r2, r1, #18
   84fda:	327c      	adds	r2, #124	; 0x7c
   84fdc:	0050      	lsls	r0, r2, #1
   84fde:	e724      	b.n	84e2a <_malloc_r+0x372>
   84fe0:	20fc      	movs	r0, #252	; 0xfc
   84fe2:	227e      	movs	r2, #126	; 0x7e
   84fe4:	e721      	b.n	84e2a <_malloc_r+0x372>
   84fe6:	687b      	ldr	r3, [r7, #4]
   84fe8:	e78d      	b.n	84f06 <_malloc_r+0x44e>
   84fea:	bf00      	nop
   84fec:	20070598 	.word	0x20070598

00084ff0 <memchr>:
   84ff0:	0783      	lsls	r3, r0, #30
   84ff2:	b470      	push	{r4, r5, r6}
   84ff4:	b2c9      	uxtb	r1, r1
   84ff6:	d040      	beq.n	8507a <memchr+0x8a>
   84ff8:	1e54      	subs	r4, r2, #1
   84ffa:	b32a      	cbz	r2, 85048 <memchr+0x58>
   84ffc:	7803      	ldrb	r3, [r0, #0]
   84ffe:	428b      	cmp	r3, r1
   85000:	d023      	beq.n	8504a <memchr+0x5a>
   85002:	1c43      	adds	r3, r0, #1
   85004:	e004      	b.n	85010 <memchr+0x20>
   85006:	b1fc      	cbz	r4, 85048 <memchr+0x58>
   85008:	7805      	ldrb	r5, [r0, #0]
   8500a:	4614      	mov	r4, r2
   8500c:	428d      	cmp	r5, r1
   8500e:	d01c      	beq.n	8504a <memchr+0x5a>
   85010:	f013 0f03 	tst.w	r3, #3
   85014:	4618      	mov	r0, r3
   85016:	f104 32ff 	add.w	r2, r4, #4294967295
   8501a:	f103 0301 	add.w	r3, r3, #1
   8501e:	d1f2      	bne.n	85006 <memchr+0x16>
   85020:	2c03      	cmp	r4, #3
   85022:	d814      	bhi.n	8504e <memchr+0x5e>
   85024:	1e65      	subs	r5, r4, #1
   85026:	b354      	cbz	r4, 8507e <memchr+0x8e>
   85028:	7803      	ldrb	r3, [r0, #0]
   8502a:	428b      	cmp	r3, r1
   8502c:	d00d      	beq.n	8504a <memchr+0x5a>
   8502e:	1c42      	adds	r2, r0, #1
   85030:	2300      	movs	r3, #0
   85032:	e002      	b.n	8503a <memchr+0x4a>
   85034:	7804      	ldrb	r4, [r0, #0]
   85036:	428c      	cmp	r4, r1
   85038:	d007      	beq.n	8504a <memchr+0x5a>
   8503a:	42ab      	cmp	r3, r5
   8503c:	4610      	mov	r0, r2
   8503e:	f103 0301 	add.w	r3, r3, #1
   85042:	f102 0201 	add.w	r2, r2, #1
   85046:	d1f5      	bne.n	85034 <memchr+0x44>
   85048:	2000      	movs	r0, #0
   8504a:	bc70      	pop	{r4, r5, r6}
   8504c:	4770      	bx	lr
   8504e:	ea41 2601 	orr.w	r6, r1, r1, lsl #8
   85052:	4603      	mov	r3, r0
   85054:	ea46 4606 	orr.w	r6, r6, r6, lsl #16
   85058:	681a      	ldr	r2, [r3, #0]
   8505a:	4618      	mov	r0, r3
   8505c:	4072      	eors	r2, r6
   8505e:	f1a2 3501 	sub.w	r5, r2, #16843009	; 0x1010101
   85062:	ea25 0202 	bic.w	r2, r5, r2
   85066:	f012 3f80 	tst.w	r2, #2155905152	; 0x80808080
   8506a:	f103 0304 	add.w	r3, r3, #4
   8506e:	d1d9      	bne.n	85024 <memchr+0x34>
   85070:	3c04      	subs	r4, #4
   85072:	2c03      	cmp	r4, #3
   85074:	4618      	mov	r0, r3
   85076:	d8ef      	bhi.n	85058 <memchr+0x68>
   85078:	e7d4      	b.n	85024 <memchr+0x34>
   8507a:	4614      	mov	r4, r2
   8507c:	e7d0      	b.n	85020 <memchr+0x30>
   8507e:	4620      	mov	r0, r4
   85080:	e7e3      	b.n	8504a <memchr+0x5a>
   85082:	bf00      	nop

00085084 <memcpy>:
   85084:	4684      	mov	ip, r0
   85086:	ea41 0300 	orr.w	r3, r1, r0
   8508a:	f013 0303 	ands.w	r3, r3, #3
   8508e:	d149      	bne.n	85124 <memcpy+0xa0>
   85090:	3a40      	subs	r2, #64	; 0x40
   85092:	d323      	bcc.n	850dc <memcpy+0x58>
   85094:	680b      	ldr	r3, [r1, #0]
   85096:	6003      	str	r3, [r0, #0]
   85098:	684b      	ldr	r3, [r1, #4]
   8509a:	6043      	str	r3, [r0, #4]
   8509c:	688b      	ldr	r3, [r1, #8]
   8509e:	6083      	str	r3, [r0, #8]
   850a0:	68cb      	ldr	r3, [r1, #12]
   850a2:	60c3      	str	r3, [r0, #12]
   850a4:	690b      	ldr	r3, [r1, #16]
   850a6:	6103      	str	r3, [r0, #16]
   850a8:	694b      	ldr	r3, [r1, #20]
   850aa:	6143      	str	r3, [r0, #20]
   850ac:	698b      	ldr	r3, [r1, #24]
   850ae:	6183      	str	r3, [r0, #24]
   850b0:	69cb      	ldr	r3, [r1, #28]
   850b2:	61c3      	str	r3, [r0, #28]
   850b4:	6a0b      	ldr	r3, [r1, #32]
   850b6:	6203      	str	r3, [r0, #32]
   850b8:	6a4b      	ldr	r3, [r1, #36]	; 0x24
   850ba:	6243      	str	r3, [r0, #36]	; 0x24
   850bc:	6a8b      	ldr	r3, [r1, #40]	; 0x28
   850be:	6283      	str	r3, [r0, #40]	; 0x28
   850c0:	6acb      	ldr	r3, [r1, #44]	; 0x2c
   850c2:	62c3      	str	r3, [r0, #44]	; 0x2c
   850c4:	6b0b      	ldr	r3, [r1, #48]	; 0x30
   850c6:	6303      	str	r3, [r0, #48]	; 0x30
   850c8:	6b4b      	ldr	r3, [r1, #52]	; 0x34
   850ca:	6343      	str	r3, [r0, #52]	; 0x34
   850cc:	6b8b      	ldr	r3, [r1, #56]	; 0x38
   850ce:	6383      	str	r3, [r0, #56]	; 0x38
   850d0:	6bcb      	ldr	r3, [r1, #60]	; 0x3c
   850d2:	63c3      	str	r3, [r0, #60]	; 0x3c
   850d4:	3040      	adds	r0, #64	; 0x40
   850d6:	3140      	adds	r1, #64	; 0x40
   850d8:	3a40      	subs	r2, #64	; 0x40
   850da:	d2db      	bcs.n	85094 <memcpy+0x10>
   850dc:	3230      	adds	r2, #48	; 0x30
   850de:	d30b      	bcc.n	850f8 <memcpy+0x74>
   850e0:	680b      	ldr	r3, [r1, #0]
   850e2:	6003      	str	r3, [r0, #0]
   850e4:	684b      	ldr	r3, [r1, #4]
   850e6:	6043      	str	r3, [r0, #4]
   850e8:	688b      	ldr	r3, [r1, #8]
   850ea:	6083      	str	r3, [r0, #8]
   850ec:	68cb      	ldr	r3, [r1, #12]
   850ee:	60c3      	str	r3, [r0, #12]
   850f0:	3010      	adds	r0, #16
   850f2:	3110      	adds	r1, #16
   850f4:	3a10      	subs	r2, #16
   850f6:	d2f3      	bcs.n	850e0 <memcpy+0x5c>
   850f8:	320c      	adds	r2, #12
   850fa:	d305      	bcc.n	85108 <memcpy+0x84>
   850fc:	f851 3b04 	ldr.w	r3, [r1], #4
   85100:	f840 3b04 	str.w	r3, [r0], #4
   85104:	3a04      	subs	r2, #4
   85106:	d2f9      	bcs.n	850fc <memcpy+0x78>
   85108:	3204      	adds	r2, #4
   8510a:	d008      	beq.n	8511e <memcpy+0x9a>
   8510c:	07d2      	lsls	r2, r2, #31
   8510e:	bf1c      	itt	ne
   85110:	f811 3b01 	ldrbne.w	r3, [r1], #1
   85114:	f800 3b01 	strbne.w	r3, [r0], #1
   85118:	d301      	bcc.n	8511e <memcpy+0x9a>
   8511a:	880b      	ldrh	r3, [r1, #0]
   8511c:	8003      	strh	r3, [r0, #0]
   8511e:	4660      	mov	r0, ip
   85120:	4770      	bx	lr
   85122:	bf00      	nop
   85124:	2a08      	cmp	r2, #8
   85126:	d313      	bcc.n	85150 <memcpy+0xcc>
   85128:	078b      	lsls	r3, r1, #30
   8512a:	d0b1      	beq.n	85090 <memcpy+0xc>
   8512c:	f010 0303 	ands.w	r3, r0, #3
   85130:	d0ae      	beq.n	85090 <memcpy+0xc>
   85132:	f1c3 0304 	rsb	r3, r3, #4
   85136:	1ad2      	subs	r2, r2, r3
   85138:	07db      	lsls	r3, r3, #31
   8513a:	bf1c      	itt	ne
   8513c:	f811 3b01 	ldrbne.w	r3, [r1], #1
   85140:	f800 3b01 	strbne.w	r3, [r0], #1
   85144:	d3a4      	bcc.n	85090 <memcpy+0xc>
   85146:	f831 3b02 	ldrh.w	r3, [r1], #2
   8514a:	f820 3b02 	strh.w	r3, [r0], #2
   8514e:	e79f      	b.n	85090 <memcpy+0xc>
   85150:	3a04      	subs	r2, #4
   85152:	d3d9      	bcc.n	85108 <memcpy+0x84>
   85154:	3a01      	subs	r2, #1
   85156:	f811 3b01 	ldrb.w	r3, [r1], #1
   8515a:	f800 3b01 	strb.w	r3, [r0], #1
   8515e:	d2f9      	bcs.n	85154 <memcpy+0xd0>
   85160:	780b      	ldrb	r3, [r1, #0]
   85162:	7003      	strb	r3, [r0, #0]
   85164:	784b      	ldrb	r3, [r1, #1]
   85166:	7043      	strb	r3, [r0, #1]
   85168:	788b      	ldrb	r3, [r1, #2]
   8516a:	7083      	strb	r3, [r0, #2]
   8516c:	4660      	mov	r0, ip
   8516e:	4770      	bx	lr

00085170 <memmove>:
   85170:	4288      	cmp	r0, r1
   85172:	b4f0      	push	{r4, r5, r6, r7}
   85174:	d910      	bls.n	85198 <memmove+0x28>
   85176:	188c      	adds	r4, r1, r2
   85178:	42a0      	cmp	r0, r4
   8517a:	d20d      	bcs.n	85198 <memmove+0x28>
   8517c:	1885      	adds	r5, r0, r2
   8517e:	1e53      	subs	r3, r2, #1
   85180:	b142      	cbz	r2, 85194 <memmove+0x24>
   85182:	4621      	mov	r1, r4
   85184:	462a      	mov	r2, r5
   85186:	f811 4d01 	ldrb.w	r4, [r1, #-1]!
   8518a:	3b01      	subs	r3, #1
   8518c:	f802 4d01 	strb.w	r4, [r2, #-1]!
   85190:	1c5c      	adds	r4, r3, #1
   85192:	d1f8      	bne.n	85186 <memmove+0x16>
   85194:	bcf0      	pop	{r4, r5, r6, r7}
   85196:	4770      	bx	lr
   85198:	2a0f      	cmp	r2, #15
   8519a:	d944      	bls.n	85226 <memmove+0xb6>
   8519c:	ea40 0301 	orr.w	r3, r0, r1
   851a0:	079b      	lsls	r3, r3, #30
   851a2:	d144      	bne.n	8522e <memmove+0xbe>
   851a4:	f1a2 0710 	sub.w	r7, r2, #16
   851a8:	093f      	lsrs	r7, r7, #4
   851aa:	eb00 1607 	add.w	r6, r0, r7, lsl #4
   851ae:	3610      	adds	r6, #16
   851b0:	460c      	mov	r4, r1
   851b2:	4603      	mov	r3, r0
   851b4:	6825      	ldr	r5, [r4, #0]
   851b6:	3310      	adds	r3, #16
   851b8:	f843 5c10 	str.w	r5, [r3, #-16]
   851bc:	6865      	ldr	r5, [r4, #4]
   851be:	3410      	adds	r4, #16
   851c0:	f843 5c0c 	str.w	r5, [r3, #-12]
   851c4:	f854 5c08 	ldr.w	r5, [r4, #-8]
   851c8:	f843 5c08 	str.w	r5, [r3, #-8]
   851cc:	f854 5c04 	ldr.w	r5, [r4, #-4]
   851d0:	f843 5c04 	str.w	r5, [r3, #-4]
   851d4:	42b3      	cmp	r3, r6
   851d6:	d1ed      	bne.n	851b4 <memmove+0x44>
   851d8:	1c7b      	adds	r3, r7, #1
   851da:	f002 0c0f 	and.w	ip, r2, #15
   851de:	011b      	lsls	r3, r3, #4
   851e0:	f1bc 0f03 	cmp.w	ip, #3
   851e4:	4419      	add	r1, r3
   851e6:	4403      	add	r3, r0
   851e8:	d923      	bls.n	85232 <memmove+0xc2>
   851ea:	460e      	mov	r6, r1
   851ec:	461d      	mov	r5, r3
   851ee:	4664      	mov	r4, ip
   851f0:	f856 7b04 	ldr.w	r7, [r6], #4
   851f4:	3c04      	subs	r4, #4
   851f6:	2c03      	cmp	r4, #3
   851f8:	f845 7b04 	str.w	r7, [r5], #4
   851fc:	d8f8      	bhi.n	851f0 <memmove+0x80>
   851fe:	f1ac 0404 	sub.w	r4, ip, #4
   85202:	f024 0403 	bic.w	r4, r4, #3
   85206:	3404      	adds	r4, #4
   85208:	f002 0203 	and.w	r2, r2, #3
   8520c:	4423      	add	r3, r4
   8520e:	4421      	add	r1, r4
   85210:	2a00      	cmp	r2, #0
   85212:	d0bf      	beq.n	85194 <memmove+0x24>
   85214:	441a      	add	r2, r3
   85216:	f811 4b01 	ldrb.w	r4, [r1], #1
   8521a:	f803 4b01 	strb.w	r4, [r3], #1
   8521e:	4293      	cmp	r3, r2
   85220:	d1f9      	bne.n	85216 <memmove+0xa6>
   85222:	bcf0      	pop	{r4, r5, r6, r7}
   85224:	4770      	bx	lr
   85226:	4603      	mov	r3, r0
   85228:	2a00      	cmp	r2, #0
   8522a:	d1f3      	bne.n	85214 <memmove+0xa4>
   8522c:	e7b2      	b.n	85194 <memmove+0x24>
   8522e:	4603      	mov	r3, r0
   85230:	e7f0      	b.n	85214 <memmove+0xa4>
   85232:	4662      	mov	r2, ip
   85234:	2a00      	cmp	r2, #0
   85236:	d1ed      	bne.n	85214 <memmove+0xa4>
   85238:	e7ac      	b.n	85194 <memmove+0x24>
   8523a:	bf00      	nop

0008523c <__malloc_lock>:
   8523c:	4770      	bx	lr
   8523e:	bf00      	nop

00085240 <__malloc_unlock>:
   85240:	4770      	bx	lr
   85242:	bf00      	nop

00085244 <_realloc_r>:
   85244:	e92d 4ff0 	stmdb	sp!, {r4, r5, r6, r7, r8, r9, sl, fp, lr}
   85248:	460c      	mov	r4, r1
   8524a:	b083      	sub	sp, #12
   8524c:	4690      	mov	r8, r2
   8524e:	4681      	mov	r9, r0
   85250:	2900      	cmp	r1, #0
   85252:	f000 80ba 	beq.w	853ca <_realloc_r+0x186>
   85256:	f7ff fff1 	bl	8523c <__malloc_lock>
   8525a:	f108 060b 	add.w	r6, r8, #11
   8525e:	f854 3c04 	ldr.w	r3, [r4, #-4]
   85262:	2e16      	cmp	r6, #22
   85264:	f023 0503 	bic.w	r5, r3, #3
   85268:	f1a4 0708 	sub.w	r7, r4, #8
   8526c:	d84b      	bhi.n	85306 <_realloc_r+0xc2>
   8526e:	2110      	movs	r1, #16
   85270:	460e      	mov	r6, r1
   85272:	45b0      	cmp	r8, r6
   85274:	d84c      	bhi.n	85310 <_realloc_r+0xcc>
   85276:	428d      	cmp	r5, r1
   85278:	da51      	bge.n	8531e <_realloc_r+0xda>
   8527a:	f8df b384 	ldr.w	fp, [pc, #900]	; 85600 <_realloc_r+0x3bc>
   8527e:	1978      	adds	r0, r7, r5
   85280:	f8db e008 	ldr.w	lr, [fp, #8]
   85284:	4586      	cmp	lr, r0
   85286:	f000 80a6 	beq.w	853d6 <_realloc_r+0x192>
   8528a:	6842      	ldr	r2, [r0, #4]
   8528c:	f022 0c01 	bic.w	ip, r2, #1
   85290:	4484      	add	ip, r0
   85292:	f8dc c004 	ldr.w	ip, [ip, #4]
   85296:	f01c 0f01 	tst.w	ip, #1
   8529a:	d054      	beq.n	85346 <_realloc_r+0x102>
   8529c:	2200      	movs	r2, #0
   8529e:	4610      	mov	r0, r2
   852a0:	07db      	lsls	r3, r3, #31
   852a2:	d46f      	bmi.n	85384 <_realloc_r+0x140>
   852a4:	f854 3c08 	ldr.w	r3, [r4, #-8]
   852a8:	ebc3 0a07 	rsb	sl, r3, r7
   852ac:	f8da 3004 	ldr.w	r3, [sl, #4]
   852b0:	f023 0303 	bic.w	r3, r3, #3
   852b4:	442b      	add	r3, r5
   852b6:	2800      	cmp	r0, #0
   852b8:	d062      	beq.n	85380 <_realloc_r+0x13c>
   852ba:	4570      	cmp	r0, lr
   852bc:	f000 80e9 	beq.w	85492 <_realloc_r+0x24e>
   852c0:	eb02 0e03 	add.w	lr, r2, r3
   852c4:	458e      	cmp	lr, r1
   852c6:	db5b      	blt.n	85380 <_realloc_r+0x13c>
   852c8:	68c3      	ldr	r3, [r0, #12]
   852ca:	6882      	ldr	r2, [r0, #8]
   852cc:	46d0      	mov	r8, sl
   852ce:	60d3      	str	r3, [r2, #12]
   852d0:	609a      	str	r2, [r3, #8]
   852d2:	f858 1f08 	ldr.w	r1, [r8, #8]!
   852d6:	f8da 300c 	ldr.w	r3, [sl, #12]
   852da:	1f2a      	subs	r2, r5, #4
   852dc:	2a24      	cmp	r2, #36	; 0x24
   852de:	60cb      	str	r3, [r1, #12]
   852e0:	6099      	str	r1, [r3, #8]
   852e2:	f200 8123 	bhi.w	8552c <_realloc_r+0x2e8>
   852e6:	2a13      	cmp	r2, #19
   852e8:	f240 80b0 	bls.w	8544c <_realloc_r+0x208>
   852ec:	6823      	ldr	r3, [r4, #0]
   852ee:	2a1b      	cmp	r2, #27
   852f0:	f8ca 3008 	str.w	r3, [sl, #8]
   852f4:	6863      	ldr	r3, [r4, #4]
   852f6:	f8ca 300c 	str.w	r3, [sl, #12]
   852fa:	f200 812b 	bhi.w	85554 <_realloc_r+0x310>
   852fe:	3408      	adds	r4, #8
   85300:	f10a 0310 	add.w	r3, sl, #16
   85304:	e0a3      	b.n	8544e <_realloc_r+0x20a>
   85306:	f026 0607 	bic.w	r6, r6, #7
   8530a:	2e00      	cmp	r6, #0
   8530c:	4631      	mov	r1, r6
   8530e:	dab0      	bge.n	85272 <_realloc_r+0x2e>
   85310:	230c      	movs	r3, #12
   85312:	2000      	movs	r0, #0
   85314:	f8c9 3000 	str.w	r3, [r9]
   85318:	b003      	add	sp, #12
   8531a:	e8bd 8ff0 	ldmia.w	sp!, {r4, r5, r6, r7, r8, r9, sl, fp, pc}
   8531e:	46a0      	mov	r8, r4
   85320:	1baa      	subs	r2, r5, r6
   85322:	2a0f      	cmp	r2, #15
   85324:	f003 0301 	and.w	r3, r3, #1
   85328:	d81a      	bhi.n	85360 <_realloc_r+0x11c>
   8532a:	432b      	orrs	r3, r5
   8532c:	607b      	str	r3, [r7, #4]
   8532e:	443d      	add	r5, r7
   85330:	686b      	ldr	r3, [r5, #4]
   85332:	f043 0301 	orr.w	r3, r3, #1
   85336:	606b      	str	r3, [r5, #4]
   85338:	4648      	mov	r0, r9
   8533a:	f7ff ff81 	bl	85240 <__malloc_unlock>
   8533e:	4640      	mov	r0, r8
   85340:	b003      	add	sp, #12
   85342:	e8bd 8ff0 	ldmia.w	sp!, {r4, r5, r6, r7, r8, r9, sl, fp, pc}
   85346:	f022 0203 	bic.w	r2, r2, #3
   8534a:	eb02 0c05 	add.w	ip, r2, r5
   8534e:	458c      	cmp	ip, r1
   85350:	dba6      	blt.n	852a0 <_realloc_r+0x5c>
   85352:	68c2      	ldr	r2, [r0, #12]
   85354:	6881      	ldr	r1, [r0, #8]
   85356:	46a0      	mov	r8, r4
   85358:	60ca      	str	r2, [r1, #12]
   8535a:	4665      	mov	r5, ip
   8535c:	6091      	str	r1, [r2, #8]
   8535e:	e7df      	b.n	85320 <_realloc_r+0xdc>
   85360:	19b9      	adds	r1, r7, r6
   85362:	4333      	orrs	r3, r6
   85364:	f042 0001 	orr.w	r0, r2, #1
   85368:	607b      	str	r3, [r7, #4]
   8536a:	440a      	add	r2, r1
   8536c:	6048      	str	r0, [r1, #4]
   8536e:	6853      	ldr	r3, [r2, #4]
   85370:	3108      	adds	r1, #8
   85372:	f043 0301 	orr.w	r3, r3, #1
   85376:	6053      	str	r3, [r2, #4]
   85378:	4648      	mov	r0, r9
   8537a:	f7ff f89f 	bl	844bc <_free_r>
   8537e:	e7db      	b.n	85338 <_realloc_r+0xf4>
   85380:	428b      	cmp	r3, r1
   85382:	da33      	bge.n	853ec <_realloc_r+0x1a8>
   85384:	4641      	mov	r1, r8
   85386:	4648      	mov	r0, r9
   85388:	f7ff fb96 	bl	84ab8 <_malloc_r>
   8538c:	4680      	mov	r8, r0
   8538e:	2800      	cmp	r0, #0
   85390:	d0d2      	beq.n	85338 <_realloc_r+0xf4>
   85392:	f854 3c04 	ldr.w	r3, [r4, #-4]
   85396:	f1a0 0108 	sub.w	r1, r0, #8
   8539a:	f023 0201 	bic.w	r2, r3, #1
   8539e:	443a      	add	r2, r7
   853a0:	4291      	cmp	r1, r2
   853a2:	f000 80bc 	beq.w	8551e <_realloc_r+0x2da>
   853a6:	1f2a      	subs	r2, r5, #4
   853a8:	2a24      	cmp	r2, #36	; 0x24
   853aa:	d86e      	bhi.n	8548a <_realloc_r+0x246>
   853ac:	2a13      	cmp	r2, #19
   853ae:	d842      	bhi.n	85436 <_realloc_r+0x1f2>
   853b0:	4603      	mov	r3, r0
   853b2:	4622      	mov	r2, r4
   853b4:	6811      	ldr	r1, [r2, #0]
   853b6:	6019      	str	r1, [r3, #0]
   853b8:	6851      	ldr	r1, [r2, #4]
   853ba:	6059      	str	r1, [r3, #4]
   853bc:	6892      	ldr	r2, [r2, #8]
   853be:	609a      	str	r2, [r3, #8]
   853c0:	4621      	mov	r1, r4
   853c2:	4648      	mov	r0, r9
   853c4:	f7ff f87a 	bl	844bc <_free_r>
   853c8:	e7b6      	b.n	85338 <_realloc_r+0xf4>
   853ca:	4611      	mov	r1, r2
   853cc:	b003      	add	sp, #12
   853ce:	e8bd 4ff0 	ldmia.w	sp!, {r4, r5, r6, r7, r8, r9, sl, fp, lr}
   853d2:	f7ff bb71 	b.w	84ab8 <_malloc_r>
   853d6:	f8de 2004 	ldr.w	r2, [lr, #4]
   853da:	f106 0c10 	add.w	ip, r6, #16
   853de:	f022 0203 	bic.w	r2, r2, #3
   853e2:	1950      	adds	r0, r2, r5
   853e4:	4560      	cmp	r0, ip
   853e6:	da3d      	bge.n	85464 <_realloc_r+0x220>
   853e8:	4670      	mov	r0, lr
   853ea:	e759      	b.n	852a0 <_realloc_r+0x5c>
   853ec:	46d0      	mov	r8, sl
   853ee:	f858 0f08 	ldr.w	r0, [r8, #8]!
   853f2:	f8da 100c 	ldr.w	r1, [sl, #12]
   853f6:	1f2a      	subs	r2, r5, #4
   853f8:	2a24      	cmp	r2, #36	; 0x24
   853fa:	60c1      	str	r1, [r0, #12]
   853fc:	6088      	str	r0, [r1, #8]
   853fe:	f200 80a0 	bhi.w	85542 <_realloc_r+0x2fe>
   85402:	2a13      	cmp	r2, #19
   85404:	f240 809b 	bls.w	8553e <_realloc_r+0x2fa>
   85408:	6821      	ldr	r1, [r4, #0]
   8540a:	2a1b      	cmp	r2, #27
   8540c:	f8ca 1008 	str.w	r1, [sl, #8]
   85410:	6861      	ldr	r1, [r4, #4]
   85412:	f8ca 100c 	str.w	r1, [sl, #12]
   85416:	f200 80b2 	bhi.w	8557e <_realloc_r+0x33a>
   8541a:	3408      	adds	r4, #8
   8541c:	f10a 0210 	add.w	r2, sl, #16
   85420:	6821      	ldr	r1, [r4, #0]
   85422:	461d      	mov	r5, r3
   85424:	6011      	str	r1, [r2, #0]
   85426:	6861      	ldr	r1, [r4, #4]
   85428:	4657      	mov	r7, sl
   8542a:	6051      	str	r1, [r2, #4]
   8542c:	68a3      	ldr	r3, [r4, #8]
   8542e:	6093      	str	r3, [r2, #8]
   85430:	f8da 3004 	ldr.w	r3, [sl, #4]
   85434:	e774      	b.n	85320 <_realloc_r+0xdc>
   85436:	6823      	ldr	r3, [r4, #0]
   85438:	2a1b      	cmp	r2, #27
   8543a:	6003      	str	r3, [r0, #0]
   8543c:	6863      	ldr	r3, [r4, #4]
   8543e:	6043      	str	r3, [r0, #4]
   85440:	d862      	bhi.n	85508 <_realloc_r+0x2c4>
   85442:	f100 0308 	add.w	r3, r0, #8
   85446:	f104 0208 	add.w	r2, r4, #8
   8544a:	e7b3      	b.n	853b4 <_realloc_r+0x170>
   8544c:	4643      	mov	r3, r8
   8544e:	6822      	ldr	r2, [r4, #0]
   85450:	4675      	mov	r5, lr
   85452:	601a      	str	r2, [r3, #0]
   85454:	6862      	ldr	r2, [r4, #4]
   85456:	4657      	mov	r7, sl
   85458:	605a      	str	r2, [r3, #4]
   8545a:	68a2      	ldr	r2, [r4, #8]
   8545c:	609a      	str	r2, [r3, #8]
   8545e:	f8da 3004 	ldr.w	r3, [sl, #4]
   85462:	e75d      	b.n	85320 <_realloc_r+0xdc>
   85464:	1b83      	subs	r3, r0, r6
   85466:	4437      	add	r7, r6
   85468:	f043 0301 	orr.w	r3, r3, #1
   8546c:	f8cb 7008 	str.w	r7, [fp, #8]
   85470:	607b      	str	r3, [r7, #4]
   85472:	f854 3c04 	ldr.w	r3, [r4, #-4]
   85476:	4648      	mov	r0, r9
   85478:	f003 0301 	and.w	r3, r3, #1
   8547c:	431e      	orrs	r6, r3
   8547e:	f844 6c04 	str.w	r6, [r4, #-4]
   85482:	f7ff fedd 	bl	85240 <__malloc_unlock>
   85486:	4620      	mov	r0, r4
   85488:	e75a      	b.n	85340 <_realloc_r+0xfc>
   8548a:	4621      	mov	r1, r4
   8548c:	f7ff fe70 	bl	85170 <memmove>
   85490:	e796      	b.n	853c0 <_realloc_r+0x17c>
   85492:	eb02 0c03 	add.w	ip, r2, r3
   85496:	f106 0210 	add.w	r2, r6, #16
   8549a:	4594      	cmp	ip, r2
   8549c:	f6ff af70 	blt.w	85380 <_realloc_r+0x13c>
   854a0:	4657      	mov	r7, sl
   854a2:	f857 1f08 	ldr.w	r1, [r7, #8]!
   854a6:	f8da 300c 	ldr.w	r3, [sl, #12]
   854aa:	1f2a      	subs	r2, r5, #4
   854ac:	2a24      	cmp	r2, #36	; 0x24
   854ae:	60cb      	str	r3, [r1, #12]
   854b0:	6099      	str	r1, [r3, #8]
   854b2:	f200 8086 	bhi.w	855c2 <_realloc_r+0x37e>
   854b6:	2a13      	cmp	r2, #19
   854b8:	d977      	bls.n	855aa <_realloc_r+0x366>
   854ba:	6823      	ldr	r3, [r4, #0]
   854bc:	2a1b      	cmp	r2, #27
   854be:	f8ca 3008 	str.w	r3, [sl, #8]
   854c2:	6863      	ldr	r3, [r4, #4]
   854c4:	f8ca 300c 	str.w	r3, [sl, #12]
   854c8:	f200 8084 	bhi.w	855d4 <_realloc_r+0x390>
   854cc:	3408      	adds	r4, #8
   854ce:	f10a 0310 	add.w	r3, sl, #16
   854d2:	6822      	ldr	r2, [r4, #0]
   854d4:	601a      	str	r2, [r3, #0]
   854d6:	6862      	ldr	r2, [r4, #4]
   854d8:	605a      	str	r2, [r3, #4]
   854da:	68a2      	ldr	r2, [r4, #8]
   854dc:	609a      	str	r2, [r3, #8]
   854de:	ebc6 020c 	rsb	r2, r6, ip
   854e2:	eb0a 0306 	add.w	r3, sl, r6
   854e6:	f042 0201 	orr.w	r2, r2, #1
   854ea:	f8cb 3008 	str.w	r3, [fp, #8]
   854ee:	605a      	str	r2, [r3, #4]
   854f0:	f8da 3004 	ldr.w	r3, [sl, #4]
   854f4:	4648      	mov	r0, r9
   854f6:	f003 0301 	and.w	r3, r3, #1
   854fa:	431e      	orrs	r6, r3
   854fc:	f8ca 6004 	str.w	r6, [sl, #4]
   85500:	f7ff fe9e 	bl	85240 <__malloc_unlock>
   85504:	4638      	mov	r0, r7
   85506:	e71b      	b.n	85340 <_realloc_r+0xfc>
   85508:	68a3      	ldr	r3, [r4, #8]
   8550a:	2a24      	cmp	r2, #36	; 0x24
   8550c:	6083      	str	r3, [r0, #8]
   8550e:	68e3      	ldr	r3, [r4, #12]
   85510:	60c3      	str	r3, [r0, #12]
   85512:	d02b      	beq.n	8556c <_realloc_r+0x328>
   85514:	f100 0310 	add.w	r3, r0, #16
   85518:	f104 0210 	add.w	r2, r4, #16
   8551c:	e74a      	b.n	853b4 <_realloc_r+0x170>
   8551e:	f850 2c04 	ldr.w	r2, [r0, #-4]
   85522:	46a0      	mov	r8, r4
   85524:	f022 0203 	bic.w	r2, r2, #3
   85528:	4415      	add	r5, r2
   8552a:	e6f9      	b.n	85320 <_realloc_r+0xdc>
   8552c:	4621      	mov	r1, r4
   8552e:	4640      	mov	r0, r8
   85530:	4675      	mov	r5, lr
   85532:	4657      	mov	r7, sl
   85534:	f7ff fe1c 	bl	85170 <memmove>
   85538:	f8da 3004 	ldr.w	r3, [sl, #4]
   8553c:	e6f0      	b.n	85320 <_realloc_r+0xdc>
   8553e:	4642      	mov	r2, r8
   85540:	e76e      	b.n	85420 <_realloc_r+0x1dc>
   85542:	4621      	mov	r1, r4
   85544:	4640      	mov	r0, r8
   85546:	461d      	mov	r5, r3
   85548:	4657      	mov	r7, sl
   8554a:	f7ff fe11 	bl	85170 <memmove>
   8554e:	f8da 3004 	ldr.w	r3, [sl, #4]
   85552:	e6e5      	b.n	85320 <_realloc_r+0xdc>
   85554:	68a3      	ldr	r3, [r4, #8]
   85556:	2a24      	cmp	r2, #36	; 0x24
   85558:	f8ca 3010 	str.w	r3, [sl, #16]
   8555c:	68e3      	ldr	r3, [r4, #12]
   8555e:	f8ca 3014 	str.w	r3, [sl, #20]
   85562:	d018      	beq.n	85596 <_realloc_r+0x352>
   85564:	3410      	adds	r4, #16
   85566:	f10a 0318 	add.w	r3, sl, #24
   8556a:	e770      	b.n	8544e <_realloc_r+0x20a>
   8556c:	6922      	ldr	r2, [r4, #16]
   8556e:	f100 0318 	add.w	r3, r0, #24
   85572:	6102      	str	r2, [r0, #16]
   85574:	6961      	ldr	r1, [r4, #20]
   85576:	f104 0218 	add.w	r2, r4, #24
   8557a:	6141      	str	r1, [r0, #20]
   8557c:	e71a      	b.n	853b4 <_realloc_r+0x170>
   8557e:	68a1      	ldr	r1, [r4, #8]
   85580:	2a24      	cmp	r2, #36	; 0x24
   85582:	f8ca 1010 	str.w	r1, [sl, #16]
   85586:	68e1      	ldr	r1, [r4, #12]
   85588:	f8ca 1014 	str.w	r1, [sl, #20]
   8558c:	d00f      	beq.n	855ae <_realloc_r+0x36a>
   8558e:	3410      	adds	r4, #16
   85590:	f10a 0218 	add.w	r2, sl, #24
   85594:	e744      	b.n	85420 <_realloc_r+0x1dc>
   85596:	6922      	ldr	r2, [r4, #16]
   85598:	f10a 0320 	add.w	r3, sl, #32
   8559c:	f8ca 2018 	str.w	r2, [sl, #24]
   855a0:	6962      	ldr	r2, [r4, #20]
   855a2:	3418      	adds	r4, #24
   855a4:	f8ca 201c 	str.w	r2, [sl, #28]
   855a8:	e751      	b.n	8544e <_realloc_r+0x20a>
   855aa:	463b      	mov	r3, r7
   855ac:	e791      	b.n	854d2 <_realloc_r+0x28e>
   855ae:	6921      	ldr	r1, [r4, #16]
   855b0:	f10a 0220 	add.w	r2, sl, #32
   855b4:	f8ca 1018 	str.w	r1, [sl, #24]
   855b8:	6961      	ldr	r1, [r4, #20]
   855ba:	3418      	adds	r4, #24
   855bc:	f8ca 101c 	str.w	r1, [sl, #28]
   855c0:	e72e      	b.n	85420 <_realloc_r+0x1dc>
   855c2:	4621      	mov	r1, r4
   855c4:	4638      	mov	r0, r7
   855c6:	f8cd c004 	str.w	ip, [sp, #4]
   855ca:	f7ff fdd1 	bl	85170 <memmove>
   855ce:	f8dd c004 	ldr.w	ip, [sp, #4]
   855d2:	e784      	b.n	854de <_realloc_r+0x29a>
   855d4:	68a3      	ldr	r3, [r4, #8]
   855d6:	2a24      	cmp	r2, #36	; 0x24
   855d8:	f8ca 3010 	str.w	r3, [sl, #16]
   855dc:	68e3      	ldr	r3, [r4, #12]
   855de:	f8ca 3014 	str.w	r3, [sl, #20]
   855e2:	d003      	beq.n	855ec <_realloc_r+0x3a8>
   855e4:	3410      	adds	r4, #16
   855e6:	f10a 0318 	add.w	r3, sl, #24
   855ea:	e772      	b.n	854d2 <_realloc_r+0x28e>
   855ec:	6922      	ldr	r2, [r4, #16]
   855ee:	f10a 0320 	add.w	r3, sl, #32
   855f2:	f8ca 2018 	str.w	r2, [sl, #24]
   855f6:	6962      	ldr	r2, [r4, #20]
   855f8:	3418      	adds	r4, #24
   855fa:	f8ca 201c 	str.w	r2, [sl, #28]
   855fe:	e768      	b.n	854d2 <_realloc_r+0x28e>
   85600:	20070598 	.word	0x20070598

00085604 <_sbrk_r>:
   85604:	b538      	push	{r3, r4, r5, lr}
   85606:	4c07      	ldr	r4, [pc, #28]	; (85624 <_sbrk_r+0x20>)
   85608:	2300      	movs	r3, #0
   8560a:	4605      	mov	r5, r0
   8560c:	4608      	mov	r0, r1
   8560e:	6023      	str	r3, [r4, #0]
   85610:	f7fc fa7c 	bl	81b0c <_sbrk>
   85614:	1c43      	adds	r3, r0, #1
   85616:	d000      	beq.n	8561a <_sbrk_r+0x16>
   85618:	bd38      	pop	{r3, r4, r5, pc}
   8561a:	6823      	ldr	r3, [r4, #0]
   8561c:	2b00      	cmp	r3, #0
   8561e:	d0fb      	beq.n	85618 <_sbrk_r+0x14>
   85620:	602b      	str	r3, [r5, #0]
   85622:	bd38      	pop	{r3, r4, r5, pc}
   85624:	20070bb8 	.word	0x20070bb8

00085628 <__sread>:
   85628:	b510      	push	{r4, lr}
   8562a:	460c      	mov	r4, r1
   8562c:	f9b1 100e 	ldrsh.w	r1, [r1, #14]
   85630:	f000 f99e 	bl	85970 <_read_r>
   85634:	2800      	cmp	r0, #0
   85636:	db03      	blt.n	85640 <__sread+0x18>
   85638:	6d23      	ldr	r3, [r4, #80]	; 0x50
   8563a:	4403      	add	r3, r0
   8563c:	6523      	str	r3, [r4, #80]	; 0x50
   8563e:	bd10      	pop	{r4, pc}
   85640:	89a3      	ldrh	r3, [r4, #12]
   85642:	f423 5380 	bic.w	r3, r3, #4096	; 0x1000
   85646:	81a3      	strh	r3, [r4, #12]
   85648:	bd10      	pop	{r4, pc}
   8564a:	bf00      	nop

0008564c <__swrite>:
   8564c:	e92d 41f0 	stmdb	sp!, {r4, r5, r6, r7, r8, lr}
   85650:	460c      	mov	r4, r1
   85652:	8989      	ldrh	r1, [r1, #12]
   85654:	461d      	mov	r5, r3
   85656:	05cb      	lsls	r3, r1, #23
   85658:	4616      	mov	r6, r2
   8565a:	4607      	mov	r7, r0
   8565c:	d506      	bpl.n	8566c <__swrite+0x20>
   8565e:	f9b4 100e 	ldrsh.w	r1, [r4, #14]
   85662:	2200      	movs	r2, #0
   85664:	2302      	movs	r3, #2
   85666:	f000 f96f 	bl	85948 <_lseek_r>
   8566a:	89a1      	ldrh	r1, [r4, #12]
   8566c:	f421 5180 	bic.w	r1, r1, #4096	; 0x1000
   85670:	81a1      	strh	r1, [r4, #12]
   85672:	4638      	mov	r0, r7
   85674:	f9b4 100e 	ldrsh.w	r1, [r4, #14]
   85678:	4632      	mov	r2, r6
   8567a:	462b      	mov	r3, r5
   8567c:	e8bd 41f0 	ldmia.w	sp!, {r4, r5, r6, r7, r8, lr}
   85680:	f000 b87a 	b.w	85778 <_write_r>

00085684 <__sseek>:
   85684:	b510      	push	{r4, lr}
   85686:	460c      	mov	r4, r1
   85688:	f9b1 100e 	ldrsh.w	r1, [r1, #14]
   8568c:	f000 f95c 	bl	85948 <_lseek_r>
   85690:	89a3      	ldrh	r3, [r4, #12]
   85692:	1c42      	adds	r2, r0, #1
   85694:	bf0e      	itee	eq
   85696:	f423 5380 	biceq.w	r3, r3, #4096	; 0x1000
   8569a:	f443 5380 	orrne.w	r3, r3, #4096	; 0x1000
   8569e:	6520      	strne	r0, [r4, #80]	; 0x50
   856a0:	81a3      	strh	r3, [r4, #12]
   856a2:	bd10      	pop	{r4, pc}

000856a4 <__sclose>:
   856a4:	f9b1 100e 	ldrsh.w	r1, [r1, #14]
   856a8:	f000 b8ce 	b.w	85848 <_close_r>

000856ac <strlen>:
   856ac:	f020 0103 	bic.w	r1, r0, #3
   856b0:	f010 0003 	ands.w	r0, r0, #3
   856b4:	f1c0 0000 	rsb	r0, r0, #0
   856b8:	f851 3b04 	ldr.w	r3, [r1], #4
   856bc:	f100 0c04 	add.w	ip, r0, #4
   856c0:	ea4f 0ccc 	mov.w	ip, ip, lsl #3
   856c4:	f06f 0200 	mvn.w	r2, #0
   856c8:	bf1c      	itt	ne
   856ca:	fa22 f20c 	lsrne.w	r2, r2, ip
   856ce:	4313      	orrne	r3, r2
   856d0:	f04f 0c01 	mov.w	ip, #1
   856d4:	ea4c 2c0c 	orr.w	ip, ip, ip, lsl #8
   856d8:	ea4c 4c0c 	orr.w	ip, ip, ip, lsl #16
   856dc:	eba3 020c 	sub.w	r2, r3, ip
   856e0:	ea22 0203 	bic.w	r2, r2, r3
   856e4:	ea12 12cc 	ands.w	r2, r2, ip, lsl #7
   856e8:	bf04      	itt	eq
   856ea:	f851 3b04 	ldreq.w	r3, [r1], #4
   856ee:	3004      	addeq	r0, #4
   856f0:	d0f4      	beq.n	856dc <strlen+0x30>
   856f2:	f013 0fff 	tst.w	r3, #255	; 0xff
   856f6:	bf1f      	itttt	ne
   856f8:	3001      	addne	r0, #1
   856fa:	f413 4f7f 	tstne.w	r3, #65280	; 0xff00
   856fe:	3001      	addne	r0, #1
   85700:	f413 0f7f 	tstne.w	r3, #16711680	; 0xff0000
   85704:	bf18      	it	ne
   85706:	3001      	addne	r0, #1
   85708:	4770      	bx	lr
   8570a:	bf00      	nop

0008570c <_wcrtomb_r>:
   8570c:	e92d 41f0 	stmdb	sp!, {r4, r5, r6, r7, r8, lr}
   85710:	461e      	mov	r6, r3
   85712:	b086      	sub	sp, #24
   85714:	460c      	mov	r4, r1
   85716:	4605      	mov	r5, r0
   85718:	4617      	mov	r7, r2
   8571a:	4b0f      	ldr	r3, [pc, #60]	; (85758 <_wcrtomb_r+0x4c>)
   8571c:	b191      	cbz	r1, 85744 <_wcrtomb_r+0x38>
   8571e:	f8d3 8000 	ldr.w	r8, [r3]
   85722:	f7ff f947 	bl	849b4 <__locale_charset>
   85726:	9600      	str	r6, [sp, #0]
   85728:	4603      	mov	r3, r0
   8572a:	4621      	mov	r1, r4
   8572c:	463a      	mov	r2, r7
   8572e:	4628      	mov	r0, r5
   85730:	47c0      	blx	r8
   85732:	1c43      	adds	r3, r0, #1
   85734:	d103      	bne.n	8573e <_wcrtomb_r+0x32>
   85736:	2200      	movs	r2, #0
   85738:	238a      	movs	r3, #138	; 0x8a
   8573a:	6032      	str	r2, [r6, #0]
   8573c:	602b      	str	r3, [r5, #0]
   8573e:	b006      	add	sp, #24
   85740:	e8bd 81f0 	ldmia.w	sp!, {r4, r5, r6, r7, r8, pc}
   85744:	681f      	ldr	r7, [r3, #0]
   85746:	f7ff f935 	bl	849b4 <__locale_charset>
   8574a:	9600      	str	r6, [sp, #0]
   8574c:	4603      	mov	r3, r0
   8574e:	4622      	mov	r2, r4
   85750:	4628      	mov	r0, r5
   85752:	a903      	add	r1, sp, #12
   85754:	47b8      	blx	r7
   85756:	e7ec      	b.n	85732 <_wcrtomb_r+0x26>
   85758:	200709a8 	.word	0x200709a8

0008575c <__ascii_wctomb>:
   8575c:	b121      	cbz	r1, 85768 <__ascii_wctomb+0xc>
   8575e:	2aff      	cmp	r2, #255	; 0xff
   85760:	d804      	bhi.n	8576c <__ascii_wctomb+0x10>
   85762:	700a      	strb	r2, [r1, #0]
   85764:	2001      	movs	r0, #1
   85766:	4770      	bx	lr
   85768:	4608      	mov	r0, r1
   8576a:	4770      	bx	lr
   8576c:	238a      	movs	r3, #138	; 0x8a
   8576e:	6003      	str	r3, [r0, #0]
   85770:	f04f 30ff 	mov.w	r0, #4294967295
   85774:	4770      	bx	lr
   85776:	bf00      	nop

00085778 <_write_r>:
   85778:	b570      	push	{r4, r5, r6, lr}
   8577a:	4c08      	ldr	r4, [pc, #32]	; (8579c <_write_r+0x24>)
   8577c:	4606      	mov	r6, r0
   8577e:	2500      	movs	r5, #0
   85780:	4608      	mov	r0, r1
   85782:	4611      	mov	r1, r2
   85784:	461a      	mov	r2, r3
   85786:	6025      	str	r5, [r4, #0]
   85788:	f7fb fa22 	bl	80bd0 <_write>
   8578c:	1c43      	adds	r3, r0, #1
   8578e:	d000      	beq.n	85792 <_write_r+0x1a>
   85790:	bd70      	pop	{r4, r5, r6, pc}
   85792:	6823      	ldr	r3, [r4, #0]
   85794:	2b00      	cmp	r3, #0
   85796:	d0fb      	beq.n	85790 <_write_r+0x18>
   85798:	6033      	str	r3, [r6, #0]
   8579a:	bd70      	pop	{r4, r5, r6, pc}
   8579c:	20070bb8 	.word	0x20070bb8

000857a0 <__register_exitproc>:
   857a0:	b5f0      	push	{r4, r5, r6, r7, lr}
   857a2:	4c27      	ldr	r4, [pc, #156]	; (85840 <__register_exitproc+0xa0>)
   857a4:	b085      	sub	sp, #20
   857a6:	6826      	ldr	r6, [r4, #0]
   857a8:	4607      	mov	r7, r0
   857aa:	f8d6 4148 	ldr.w	r4, [r6, #328]	; 0x148
   857ae:	2c00      	cmp	r4, #0
   857b0:	d040      	beq.n	85834 <__register_exitproc+0x94>
   857b2:	6865      	ldr	r5, [r4, #4]
   857b4:	2d1f      	cmp	r5, #31
   857b6:	dd1e      	ble.n	857f6 <__register_exitproc+0x56>
   857b8:	4822      	ldr	r0, [pc, #136]	; (85844 <__register_exitproc+0xa4>)
   857ba:	b918      	cbnz	r0, 857c4 <__register_exitproc+0x24>
   857bc:	f04f 30ff 	mov.w	r0, #4294967295
   857c0:	b005      	add	sp, #20
   857c2:	bdf0      	pop	{r4, r5, r6, r7, pc}
   857c4:	f44f 70c8 	mov.w	r0, #400	; 0x190
   857c8:	9103      	str	r1, [sp, #12]
   857ca:	9202      	str	r2, [sp, #8]
   857cc:	9301      	str	r3, [sp, #4]
   857ce:	f7ff f96b 	bl	84aa8 <malloc>
   857d2:	9903      	ldr	r1, [sp, #12]
   857d4:	4604      	mov	r4, r0
   857d6:	9a02      	ldr	r2, [sp, #8]
   857d8:	9b01      	ldr	r3, [sp, #4]
   857da:	2800      	cmp	r0, #0
   857dc:	d0ee      	beq.n	857bc <__register_exitproc+0x1c>
   857de:	f8d6 5148 	ldr.w	r5, [r6, #328]	; 0x148
   857e2:	2000      	movs	r0, #0
   857e4:	6025      	str	r5, [r4, #0]
   857e6:	6060      	str	r0, [r4, #4]
   857e8:	4605      	mov	r5, r0
   857ea:	f8c6 4148 	str.w	r4, [r6, #328]	; 0x148
   857ee:	f8c4 0188 	str.w	r0, [r4, #392]	; 0x188
   857f2:	f8c4 018c 	str.w	r0, [r4, #396]	; 0x18c
   857f6:	b93f      	cbnz	r7, 85808 <__register_exitproc+0x68>
   857f8:	1c6b      	adds	r3, r5, #1
   857fa:	2000      	movs	r0, #0
   857fc:	3502      	adds	r5, #2
   857fe:	6063      	str	r3, [r4, #4]
   85800:	f844 1025 	str.w	r1, [r4, r5, lsl #2]
   85804:	b005      	add	sp, #20
   85806:	bdf0      	pop	{r4, r5, r6, r7, pc}
   85808:	2601      	movs	r6, #1
   8580a:	40ae      	lsls	r6, r5
   8580c:	eb04 0085 	add.w	r0, r4, r5, lsl #2
   85810:	f8c0 2088 	str.w	r2, [r0, #136]	; 0x88
   85814:	f8d4 2188 	ldr.w	r2, [r4, #392]	; 0x188
   85818:	2f02      	cmp	r7, #2
   8581a:	ea42 0206 	orr.w	r2, r2, r6
   8581e:	f8c4 2188 	str.w	r2, [r4, #392]	; 0x188
   85822:	f8c0 3108 	str.w	r3, [r0, #264]	; 0x108
   85826:	d1e7      	bne.n	857f8 <__register_exitproc+0x58>
   85828:	f8d4 318c 	ldr.w	r3, [r4, #396]	; 0x18c
   8582c:	431e      	orrs	r6, r3
   8582e:	f8c4 618c 	str.w	r6, [r4, #396]	; 0x18c
   85832:	e7e1      	b.n	857f8 <__register_exitproc+0x58>
   85834:	f506 74a6 	add.w	r4, r6, #332	; 0x14c
   85838:	f8c6 4148 	str.w	r4, [r6, #328]	; 0x148
   8583c:	e7b9      	b.n	857b2 <__register_exitproc+0x12>
   8583e:	bf00      	nop
   85840:	000860b0 	.word	0x000860b0
   85844:	00084aa9 	.word	0x00084aa9

00085848 <_close_r>:
   85848:	b538      	push	{r3, r4, r5, lr}
   8584a:	4c07      	ldr	r4, [pc, #28]	; (85868 <_close_r+0x20>)
   8584c:	2300      	movs	r3, #0
   8584e:	4605      	mov	r5, r0
   85850:	4608      	mov	r0, r1
   85852:	6023      	str	r3, [r4, #0]
   85854:	f7fc f974 	bl	81b40 <_close>
   85858:	1c43      	adds	r3, r0, #1
   8585a:	d000      	beq.n	8585e <_close_r+0x16>
   8585c:	bd38      	pop	{r3, r4, r5, pc}
   8585e:	6823      	ldr	r3, [r4, #0]
   85860:	2b00      	cmp	r3, #0
   85862:	d0fb      	beq.n	8585c <_close_r+0x14>
   85864:	602b      	str	r3, [r5, #0]
   85866:	bd38      	pop	{r3, r4, r5, pc}
   85868:	20070bb8 	.word	0x20070bb8

0008586c <_fclose_r>:
   8586c:	b570      	push	{r4, r5, r6, lr}
   8586e:	460c      	mov	r4, r1
   85870:	4605      	mov	r5, r0
   85872:	b131      	cbz	r1, 85882 <_fclose_r+0x16>
   85874:	b110      	cbz	r0, 8587c <_fclose_r+0x10>
   85876:	6b83      	ldr	r3, [r0, #56]	; 0x38
   85878:	2b00      	cmp	r3, #0
   8587a:	d02f      	beq.n	858dc <_fclose_r+0x70>
   8587c:	f9b4 300c 	ldrsh.w	r3, [r4, #12]
   85880:	b90b      	cbnz	r3, 85886 <_fclose_r+0x1a>
   85882:	2000      	movs	r0, #0
   85884:	bd70      	pop	{r4, r5, r6, pc}
   85886:	4628      	mov	r0, r5
   85888:	4621      	mov	r1, r4
   8588a:	f7fe fcb7 	bl	841fc <_fflush_r>
   8588e:	6ae3      	ldr	r3, [r4, #44]	; 0x2c
   85890:	4606      	mov	r6, r0
   85892:	b133      	cbz	r3, 858a2 <_fclose_r+0x36>
   85894:	4628      	mov	r0, r5
   85896:	69e1      	ldr	r1, [r4, #28]
   85898:	4798      	blx	r3
   8589a:	2800      	cmp	r0, #0
   8589c:	bfb8      	it	lt
   8589e:	f04f 36ff 	movlt.w	r6, #4294967295
   858a2:	89a3      	ldrh	r3, [r4, #12]
   858a4:	061b      	lsls	r3, r3, #24
   858a6:	d41c      	bmi.n	858e2 <_fclose_r+0x76>
   858a8:	6b21      	ldr	r1, [r4, #48]	; 0x30
   858aa:	b141      	cbz	r1, 858be <_fclose_r+0x52>
   858ac:	f104 0340 	add.w	r3, r4, #64	; 0x40
   858b0:	4299      	cmp	r1, r3
   858b2:	d002      	beq.n	858ba <_fclose_r+0x4e>
   858b4:	4628      	mov	r0, r5
   858b6:	f7fe fe01 	bl	844bc <_free_r>
   858ba:	2300      	movs	r3, #0
   858bc:	6323      	str	r3, [r4, #48]	; 0x30
   858be:	6c61      	ldr	r1, [r4, #68]	; 0x44
   858c0:	b121      	cbz	r1, 858cc <_fclose_r+0x60>
   858c2:	4628      	mov	r0, r5
   858c4:	f7fe fdfa 	bl	844bc <_free_r>
   858c8:	2300      	movs	r3, #0
   858ca:	6463      	str	r3, [r4, #68]	; 0x44
   858cc:	f7fe fd2c 	bl	84328 <__sfp_lock_acquire>
   858d0:	2300      	movs	r3, #0
   858d2:	81a3      	strh	r3, [r4, #12]
   858d4:	f7fe fd2a 	bl	8432c <__sfp_lock_release>
   858d8:	4630      	mov	r0, r6
   858da:	bd70      	pop	{r4, r5, r6, pc}
   858dc:	f7fe fcaa 	bl	84234 <__sinit>
   858e0:	e7cc      	b.n	8587c <_fclose_r+0x10>
   858e2:	4628      	mov	r0, r5
   858e4:	6921      	ldr	r1, [r4, #16]
   858e6:	f7fe fde9 	bl	844bc <_free_r>
   858ea:	e7dd      	b.n	858a8 <_fclose_r+0x3c>

000858ec <fclose>:
   858ec:	4b02      	ldr	r3, [pc, #8]	; (858f8 <fclose+0xc>)
   858ee:	4601      	mov	r1, r0
   858f0:	6818      	ldr	r0, [r3, #0]
   858f2:	f7ff bfbb 	b.w	8586c <_fclose_r>
   858f6:	bf00      	nop
   858f8:	20070570 	.word	0x20070570

000858fc <_fstat_r>:
   858fc:	b538      	push	{r3, r4, r5, lr}
   858fe:	4c08      	ldr	r4, [pc, #32]	; (85920 <_fstat_r+0x24>)
   85900:	2300      	movs	r3, #0
   85902:	4605      	mov	r5, r0
   85904:	4608      	mov	r0, r1
   85906:	4611      	mov	r1, r2
   85908:	6023      	str	r3, [r4, #0]
   8590a:	f7fc f91d 	bl	81b48 <_fstat>
   8590e:	1c43      	adds	r3, r0, #1
   85910:	d000      	beq.n	85914 <_fstat_r+0x18>
   85912:	bd38      	pop	{r3, r4, r5, pc}
   85914:	6823      	ldr	r3, [r4, #0]
   85916:	2b00      	cmp	r3, #0
   85918:	d0fb      	beq.n	85912 <_fstat_r+0x16>
   8591a:	602b      	str	r3, [r5, #0]
   8591c:	bd38      	pop	{r3, r4, r5, pc}
   8591e:	bf00      	nop
   85920:	20070bb8 	.word	0x20070bb8

00085924 <_isatty_r>:
   85924:	b538      	push	{r3, r4, r5, lr}
   85926:	4c07      	ldr	r4, [pc, #28]	; (85944 <_isatty_r+0x20>)
   85928:	2300      	movs	r3, #0
   8592a:	4605      	mov	r5, r0
   8592c:	4608      	mov	r0, r1
   8592e:	6023      	str	r3, [r4, #0]
   85930:	f7fc f910 	bl	81b54 <_isatty>
   85934:	1c43      	adds	r3, r0, #1
   85936:	d000      	beq.n	8593a <_isatty_r+0x16>
   85938:	bd38      	pop	{r3, r4, r5, pc}
   8593a:	6823      	ldr	r3, [r4, #0]
   8593c:	2b00      	cmp	r3, #0
   8593e:	d0fb      	beq.n	85938 <_isatty_r+0x14>
   85940:	602b      	str	r3, [r5, #0]
   85942:	bd38      	pop	{r3, r4, r5, pc}
   85944:	20070bb8 	.word	0x20070bb8

00085948 <_lseek_r>:
   85948:	b570      	push	{r4, r5, r6, lr}
   8594a:	4c08      	ldr	r4, [pc, #32]	; (8596c <_lseek_r+0x24>)
   8594c:	4606      	mov	r6, r0
   8594e:	2500      	movs	r5, #0
   85950:	4608      	mov	r0, r1
   85952:	4611      	mov	r1, r2
   85954:	461a      	mov	r2, r3
   85956:	6025      	str	r5, [r4, #0]
   85958:	f7fc f8fe 	bl	81b58 <_lseek>
   8595c:	1c43      	adds	r3, r0, #1
   8595e:	d000      	beq.n	85962 <_lseek_r+0x1a>
   85960:	bd70      	pop	{r4, r5, r6, pc}
   85962:	6823      	ldr	r3, [r4, #0]
   85964:	2b00      	cmp	r3, #0
   85966:	d0fb      	beq.n	85960 <_lseek_r+0x18>
   85968:	6033      	str	r3, [r6, #0]
   8596a:	bd70      	pop	{r4, r5, r6, pc}
   8596c:	20070bb8 	.word	0x20070bb8

00085970 <_read_r>:
   85970:	b570      	push	{r4, r5, r6, lr}
   85972:	4c08      	ldr	r4, [pc, #32]	; (85994 <_read_r+0x24>)
   85974:	4606      	mov	r6, r0
   85976:	2500      	movs	r5, #0
   85978:	4608      	mov	r0, r1
   8597a:	4611      	mov	r1, r2
   8597c:	461a      	mov	r2, r3
   8597e:	6025      	str	r5, [r4, #0]
   85980:	f7fb f906 	bl	80b90 <_read>
   85984:	1c43      	adds	r3, r0, #1
   85986:	d000      	beq.n	8598a <_read_r+0x1a>
   85988:	bd70      	pop	{r4, r5, r6, pc}
   8598a:	6823      	ldr	r3, [r4, #0]
   8598c:	2b00      	cmp	r3, #0
   8598e:	d0fb      	beq.n	85988 <_read_r+0x18>
   85990:	6033      	str	r3, [r6, #0]
   85992:	bd70      	pop	{r4, r5, r6, pc}
   85994:	20070bb8 	.word	0x20070bb8

00085998 <__aeabi_uldivmod>:
   85998:	b94b      	cbnz	r3, 859ae <__aeabi_uldivmod+0x16>
   8599a:	b942      	cbnz	r2, 859ae <__aeabi_uldivmod+0x16>
   8599c:	2900      	cmp	r1, #0
   8599e:	bf08      	it	eq
   859a0:	2800      	cmpeq	r0, #0
   859a2:	d002      	beq.n	859aa <__aeabi_uldivmod+0x12>
   859a4:	f04f 31ff 	mov.w	r1, #4294967295
   859a8:	4608      	mov	r0, r1
   859aa:	f000 b83b 	b.w	85a24 <__aeabi_idiv0>
   859ae:	b082      	sub	sp, #8
   859b0:	46ec      	mov	ip, sp
   859b2:	e92d 5000 	stmdb	sp!, {ip, lr}
   859b6:	f000 f81d 	bl	859f4 <__gnu_uldivmod_helper>
   859ba:	f8dd e004 	ldr.w	lr, [sp, #4]
   859be:	b002      	add	sp, #8
   859c0:	bc0c      	pop	{r2, r3}
   859c2:	4770      	bx	lr

000859c4 <__gnu_ldivmod_helper>:
   859c4:	e92d 4f70 	stmdb	sp!, {r4, r5, r6, r8, r9, sl, fp, lr}
   859c8:	9e08      	ldr	r6, [sp, #32]
   859ca:	4614      	mov	r4, r2
   859cc:	461d      	mov	r5, r3
   859ce:	4680      	mov	r8, r0
   859d0:	4689      	mov	r9, r1
   859d2:	f000 f829 	bl	85a28 <__divdi3>
   859d6:	fb04 f301 	mul.w	r3, r4, r1
   859da:	fba4 ab00 	umull	sl, fp, r4, r0
   859de:	fb00 3205 	mla	r2, r0, r5, r3
   859e2:	4493      	add	fp, r2
   859e4:	ebb8 080a 	subs.w	r8, r8, sl
   859e8:	eb69 090b 	sbc.w	r9, r9, fp
   859ec:	e9c6 8900 	strd	r8, r9, [r6]
   859f0:	e8bd 8f70 	ldmia.w	sp!, {r4, r5, r6, r8, r9, sl, fp, pc}

000859f4 <__gnu_uldivmod_helper>:
   859f4:	e92d 4f70 	stmdb	sp!, {r4, r5, r6, r8, r9, sl, fp, lr}
   859f8:	9e08      	ldr	r6, [sp, #32]
   859fa:	4614      	mov	r4, r2
   859fc:	461d      	mov	r5, r3
   859fe:	4680      	mov	r8, r0
   85a00:	4689      	mov	r9, r1
   85a02:	f000 f961 	bl	85cc8 <__udivdi3>
   85a06:	fb00 f505 	mul.w	r5, r0, r5
   85a0a:	fba0 ab04 	umull	sl, fp, r0, r4
   85a0e:	fb04 5401 	mla	r4, r4, r1, r5
   85a12:	44a3      	add	fp, r4
   85a14:	ebb8 080a 	subs.w	r8, r8, sl
   85a18:	eb69 090b 	sbc.w	r9, r9, fp
   85a1c:	e9c6 8900 	strd	r8, r9, [r6]
   85a20:	e8bd 8f70 	ldmia.w	sp!, {r4, r5, r6, r8, r9, sl, fp, pc}

00085a24 <__aeabi_idiv0>:
   85a24:	4770      	bx	lr
   85a26:	bf00      	nop

00085a28 <__divdi3>:
   85a28:	2900      	cmp	r1, #0
   85a2a:	e92d 0ff0 	stmdb	sp!, {r4, r5, r6, r7, r8, r9, sl, fp}
   85a2e:	f2c0 80a1 	blt.w	85b74 <__divdi3+0x14c>
   85a32:	2400      	movs	r4, #0
   85a34:	2b00      	cmp	r3, #0
   85a36:	f2c0 8098 	blt.w	85b6a <__divdi3+0x142>
   85a3a:	4615      	mov	r5, r2
   85a3c:	4606      	mov	r6, r0
   85a3e:	460f      	mov	r7, r1
   85a40:	2b00      	cmp	r3, #0
   85a42:	d13f      	bne.n	85ac4 <__divdi3+0x9c>
   85a44:	428a      	cmp	r2, r1
   85a46:	d958      	bls.n	85afa <__divdi3+0xd2>
   85a48:	fab2 f382 	clz	r3, r2
   85a4c:	b14b      	cbz	r3, 85a62 <__divdi3+0x3a>
   85a4e:	f1c3 0220 	rsb	r2, r3, #32
   85a52:	fa01 f703 	lsl.w	r7, r1, r3
   85a56:	fa20 f202 	lsr.w	r2, r0, r2
   85a5a:	409d      	lsls	r5, r3
   85a5c:	fa00 f603 	lsl.w	r6, r0, r3
   85a60:	4317      	orrs	r7, r2
   85a62:	0c29      	lsrs	r1, r5, #16
   85a64:	fbb7 f2f1 	udiv	r2, r7, r1
   85a68:	fb01 7712 	mls	r7, r1, r2, r7
   85a6c:	b2a8      	uxth	r0, r5
   85a6e:	fb00 f302 	mul.w	r3, r0, r2
   85a72:	ea4f 4c16 	mov.w	ip, r6, lsr #16
   85a76:	ea4c 4707 	orr.w	r7, ip, r7, lsl #16
   85a7a:	42bb      	cmp	r3, r7
   85a7c:	d909      	bls.n	85a92 <__divdi3+0x6a>
   85a7e:	197f      	adds	r7, r7, r5
   85a80:	f102 3cff 	add.w	ip, r2, #4294967295
   85a84:	f080 8105 	bcs.w	85c92 <__divdi3+0x26a>
   85a88:	42bb      	cmp	r3, r7
   85a8a:	f240 8102 	bls.w	85c92 <__divdi3+0x26a>
   85a8e:	3a02      	subs	r2, #2
   85a90:	442f      	add	r7, r5
   85a92:	1aff      	subs	r7, r7, r3
   85a94:	fbb7 f3f1 	udiv	r3, r7, r1
   85a98:	fb01 7113 	mls	r1, r1, r3, r7
   85a9c:	fb00 f003 	mul.w	r0, r0, r3
   85aa0:	b2b6      	uxth	r6, r6
   85aa2:	ea46 4101 	orr.w	r1, r6, r1, lsl #16
   85aa6:	4288      	cmp	r0, r1
   85aa8:	d908      	bls.n	85abc <__divdi3+0x94>
   85aaa:	1949      	adds	r1, r1, r5
   85aac:	f103 37ff 	add.w	r7, r3, #4294967295
   85ab0:	f080 80f1 	bcs.w	85c96 <__divdi3+0x26e>
   85ab4:	4288      	cmp	r0, r1
   85ab6:	f240 80ee 	bls.w	85c96 <__divdi3+0x26e>
   85aba:	3b02      	subs	r3, #2
   85abc:	ea43 4202 	orr.w	r2, r3, r2, lsl #16
   85ac0:	2300      	movs	r3, #0
   85ac2:	e003      	b.n	85acc <__divdi3+0xa4>
   85ac4:	428b      	cmp	r3, r1
   85ac6:	d90a      	bls.n	85ade <__divdi3+0xb6>
   85ac8:	2300      	movs	r3, #0
   85aca:	461a      	mov	r2, r3
   85acc:	4610      	mov	r0, r2
   85ace:	4619      	mov	r1, r3
   85ad0:	b114      	cbz	r4, 85ad8 <__divdi3+0xb0>
   85ad2:	4240      	negs	r0, r0
   85ad4:	eb61 0141 	sbc.w	r1, r1, r1, lsl #1
   85ad8:	e8bd 0ff0 	ldmia.w	sp!, {r4, r5, r6, r7, r8, r9, sl, fp}
   85adc:	4770      	bx	lr
   85ade:	fab3 f883 	clz	r8, r3
   85ae2:	f1b8 0f00 	cmp.w	r8, #0
   85ae6:	f040 8088 	bne.w	85bfa <__divdi3+0x1d2>
   85aea:	428b      	cmp	r3, r1
   85aec:	d302      	bcc.n	85af4 <__divdi3+0xcc>
   85aee:	4282      	cmp	r2, r0
   85af0:	f200 80e2 	bhi.w	85cb8 <__divdi3+0x290>
   85af4:	2300      	movs	r3, #0
   85af6:	2201      	movs	r2, #1
   85af8:	e7e8      	b.n	85acc <__divdi3+0xa4>
   85afa:	b912      	cbnz	r2, 85b02 <__divdi3+0xda>
   85afc:	2301      	movs	r3, #1
   85afe:	fbb3 f5f2 	udiv	r5, r3, r2
   85b02:	fab5 f285 	clz	r2, r5
   85b06:	2a00      	cmp	r2, #0
   85b08:	d13a      	bne.n	85b80 <__divdi3+0x158>
   85b0a:	1b7f      	subs	r7, r7, r5
   85b0c:	0c28      	lsrs	r0, r5, #16
   85b0e:	fa1f fc85 	uxth.w	ip, r5
   85b12:	2301      	movs	r3, #1
   85b14:	fbb7 f1f0 	udiv	r1, r7, r0
   85b18:	fb00 7711 	mls	r7, r0, r1, r7
   85b1c:	fb0c f201 	mul.w	r2, ip, r1
   85b20:	ea4f 4816 	mov.w	r8, r6, lsr #16
   85b24:	ea48 4707 	orr.w	r7, r8, r7, lsl #16
   85b28:	42ba      	cmp	r2, r7
   85b2a:	d907      	bls.n	85b3c <__divdi3+0x114>
   85b2c:	197f      	adds	r7, r7, r5
   85b2e:	f101 38ff 	add.w	r8, r1, #4294967295
   85b32:	d202      	bcs.n	85b3a <__divdi3+0x112>
   85b34:	42ba      	cmp	r2, r7
   85b36:	f200 80c4 	bhi.w	85cc2 <__divdi3+0x29a>
   85b3a:	4641      	mov	r1, r8
   85b3c:	1abf      	subs	r7, r7, r2
   85b3e:	fbb7 f2f0 	udiv	r2, r7, r0
   85b42:	fb00 7012 	mls	r0, r0, r2, r7
   85b46:	fb0c fc02 	mul.w	ip, ip, r2
   85b4a:	b2b6      	uxth	r6, r6
   85b4c:	ea46 4000 	orr.w	r0, r6, r0, lsl #16
   85b50:	4584      	cmp	ip, r0
   85b52:	d907      	bls.n	85b64 <__divdi3+0x13c>
   85b54:	1940      	adds	r0, r0, r5
   85b56:	f102 37ff 	add.w	r7, r2, #4294967295
   85b5a:	d202      	bcs.n	85b62 <__divdi3+0x13a>
   85b5c:	4584      	cmp	ip, r0
   85b5e:	f200 80ae 	bhi.w	85cbe <__divdi3+0x296>
   85b62:	463a      	mov	r2, r7
   85b64:	ea42 4201 	orr.w	r2, r2, r1, lsl #16
   85b68:	e7b0      	b.n	85acc <__divdi3+0xa4>
   85b6a:	43e4      	mvns	r4, r4
   85b6c:	4252      	negs	r2, r2
   85b6e:	eb63 0343 	sbc.w	r3, r3, r3, lsl #1
   85b72:	e762      	b.n	85a3a <__divdi3+0x12>
   85b74:	4240      	negs	r0, r0
   85b76:	eb61 0141 	sbc.w	r1, r1, r1, lsl #1
   85b7a:	f04f 34ff 	mov.w	r4, #4294967295
   85b7e:	e759      	b.n	85a34 <__divdi3+0xc>
   85b80:	4095      	lsls	r5, r2
   85b82:	f1c2 0920 	rsb	r9, r2, #32
   85b86:	fa27 f109 	lsr.w	r1, r7, r9
   85b8a:	fa26 f909 	lsr.w	r9, r6, r9
   85b8e:	4097      	lsls	r7, r2
   85b90:	0c28      	lsrs	r0, r5, #16
   85b92:	fbb1 f8f0 	udiv	r8, r1, r0
   85b96:	fb00 1118 	mls	r1, r0, r8, r1
   85b9a:	fa1f fc85 	uxth.w	ip, r5
   85b9e:	fb0c f308 	mul.w	r3, ip, r8
   85ba2:	ea49 0907 	orr.w	r9, r9, r7
   85ba6:	ea4f 4719 	mov.w	r7, r9, lsr #16
   85baa:	ea47 4101 	orr.w	r1, r7, r1, lsl #16
   85bae:	428b      	cmp	r3, r1
   85bb0:	fa06 f602 	lsl.w	r6, r6, r2
   85bb4:	d908      	bls.n	85bc8 <__divdi3+0x1a0>
   85bb6:	1949      	adds	r1, r1, r5
   85bb8:	f108 32ff 	add.w	r2, r8, #4294967295
   85bbc:	d27a      	bcs.n	85cb4 <__divdi3+0x28c>
   85bbe:	428b      	cmp	r3, r1
   85bc0:	d978      	bls.n	85cb4 <__divdi3+0x28c>
   85bc2:	f1a8 0802 	sub.w	r8, r8, #2
   85bc6:	4429      	add	r1, r5
   85bc8:	1ac9      	subs	r1, r1, r3
   85bca:	fbb1 f3f0 	udiv	r3, r1, r0
   85bce:	fb00 1713 	mls	r7, r0, r3, r1
   85bd2:	fb0c f203 	mul.w	r2, ip, r3
   85bd6:	fa1f f989 	uxth.w	r9, r9
   85bda:	ea49 4707 	orr.w	r7, r9, r7, lsl #16
   85bde:	42ba      	cmp	r2, r7
   85be0:	d907      	bls.n	85bf2 <__divdi3+0x1ca>
   85be2:	197f      	adds	r7, r7, r5
   85be4:	f103 31ff 	add.w	r1, r3, #4294967295
   85be8:	d260      	bcs.n	85cac <__divdi3+0x284>
   85bea:	42ba      	cmp	r2, r7
   85bec:	d95e      	bls.n	85cac <__divdi3+0x284>
   85bee:	3b02      	subs	r3, #2
   85bf0:	442f      	add	r7, r5
   85bf2:	1abf      	subs	r7, r7, r2
   85bf4:	ea43 4308 	orr.w	r3, r3, r8, lsl #16
   85bf8:	e78c      	b.n	85b14 <__divdi3+0xec>
   85bfa:	f1c8 0220 	rsb	r2, r8, #32
   85bfe:	fa25 f102 	lsr.w	r1, r5, r2
   85c02:	fa03 fc08 	lsl.w	ip, r3, r8
   85c06:	fa27 f302 	lsr.w	r3, r7, r2
   85c0a:	fa20 f202 	lsr.w	r2, r0, r2
   85c0e:	fa07 f708 	lsl.w	r7, r7, r8
   85c12:	ea41 0c0c 	orr.w	ip, r1, ip
   85c16:	ea4f 491c 	mov.w	r9, ip, lsr #16
   85c1a:	fbb3 f1f9 	udiv	r1, r3, r9
   85c1e:	fb09 3311 	mls	r3, r9, r1, r3
   85c22:	fa1f fa8c 	uxth.w	sl, ip
   85c26:	fb0a fb01 	mul.w	fp, sl, r1
   85c2a:	4317      	orrs	r7, r2
   85c2c:	0c3a      	lsrs	r2, r7, #16
   85c2e:	ea42 4303 	orr.w	r3, r2, r3, lsl #16
   85c32:	459b      	cmp	fp, r3
   85c34:	fa05 f008 	lsl.w	r0, r5, r8
   85c38:	d908      	bls.n	85c4c <__divdi3+0x224>
   85c3a:	eb13 030c 	adds.w	r3, r3, ip
   85c3e:	f101 32ff 	add.w	r2, r1, #4294967295
   85c42:	d235      	bcs.n	85cb0 <__divdi3+0x288>
   85c44:	459b      	cmp	fp, r3
   85c46:	d933      	bls.n	85cb0 <__divdi3+0x288>
   85c48:	3902      	subs	r1, #2
   85c4a:	4463      	add	r3, ip
   85c4c:	ebcb 0303 	rsb	r3, fp, r3
   85c50:	fbb3 f2f9 	udiv	r2, r3, r9
   85c54:	fb09 3312 	mls	r3, r9, r2, r3
   85c58:	fb0a fa02 	mul.w	sl, sl, r2
   85c5c:	b2bf      	uxth	r7, r7
   85c5e:	ea47 4703 	orr.w	r7, r7, r3, lsl #16
   85c62:	45ba      	cmp	sl, r7
   85c64:	d908      	bls.n	85c78 <__divdi3+0x250>
   85c66:	eb17 070c 	adds.w	r7, r7, ip
   85c6a:	f102 33ff 	add.w	r3, r2, #4294967295
   85c6e:	d21b      	bcs.n	85ca8 <__divdi3+0x280>
   85c70:	45ba      	cmp	sl, r7
   85c72:	d919      	bls.n	85ca8 <__divdi3+0x280>
   85c74:	3a02      	subs	r2, #2
   85c76:	4467      	add	r7, ip
   85c78:	ea42 4501 	orr.w	r5, r2, r1, lsl #16
   85c7c:	fba5 0100 	umull	r0, r1, r5, r0
   85c80:	ebca 0707 	rsb	r7, sl, r7
   85c84:	428f      	cmp	r7, r1
   85c86:	f04f 0300 	mov.w	r3, #0
   85c8a:	d30a      	bcc.n	85ca2 <__divdi3+0x27a>
   85c8c:	d005      	beq.n	85c9a <__divdi3+0x272>
   85c8e:	462a      	mov	r2, r5
   85c90:	e71c      	b.n	85acc <__divdi3+0xa4>
   85c92:	4662      	mov	r2, ip
   85c94:	e6fd      	b.n	85a92 <__divdi3+0x6a>
   85c96:	463b      	mov	r3, r7
   85c98:	e710      	b.n	85abc <__divdi3+0x94>
   85c9a:	fa06 f608 	lsl.w	r6, r6, r8
   85c9e:	4286      	cmp	r6, r0
   85ca0:	d2f5      	bcs.n	85c8e <__divdi3+0x266>
   85ca2:	1e6a      	subs	r2, r5, #1
   85ca4:	2300      	movs	r3, #0
   85ca6:	e711      	b.n	85acc <__divdi3+0xa4>
   85ca8:	461a      	mov	r2, r3
   85caa:	e7e5      	b.n	85c78 <__divdi3+0x250>
   85cac:	460b      	mov	r3, r1
   85cae:	e7a0      	b.n	85bf2 <__divdi3+0x1ca>
   85cb0:	4611      	mov	r1, r2
   85cb2:	e7cb      	b.n	85c4c <__divdi3+0x224>
   85cb4:	4690      	mov	r8, r2
   85cb6:	e787      	b.n	85bc8 <__divdi3+0x1a0>
   85cb8:	4643      	mov	r3, r8
   85cba:	4642      	mov	r2, r8
   85cbc:	e706      	b.n	85acc <__divdi3+0xa4>
   85cbe:	3a02      	subs	r2, #2
   85cc0:	e750      	b.n	85b64 <__divdi3+0x13c>
   85cc2:	3902      	subs	r1, #2
   85cc4:	442f      	add	r7, r5
   85cc6:	e739      	b.n	85b3c <__divdi3+0x114>

00085cc8 <__udivdi3>:
   85cc8:	e92d 0ff0 	stmdb	sp!, {r4, r5, r6, r7, r8, r9, sl, fp}
   85ccc:	4614      	mov	r4, r2
   85cce:	4605      	mov	r5, r0
   85cd0:	460e      	mov	r6, r1
   85cd2:	2b00      	cmp	r3, #0
   85cd4:	d143      	bne.n	85d5e <__udivdi3+0x96>
   85cd6:	428a      	cmp	r2, r1
   85cd8:	d953      	bls.n	85d82 <__udivdi3+0xba>
   85cda:	fab2 f782 	clz	r7, r2
   85cde:	b157      	cbz	r7, 85cf6 <__udivdi3+0x2e>
   85ce0:	f1c7 0620 	rsb	r6, r7, #32
   85ce4:	fa20 f606 	lsr.w	r6, r0, r6
   85ce8:	fa01 f307 	lsl.w	r3, r1, r7
   85cec:	fa02 f407 	lsl.w	r4, r2, r7
   85cf0:	fa00 f507 	lsl.w	r5, r0, r7
   85cf4:	431e      	orrs	r6, r3
   85cf6:	0c21      	lsrs	r1, r4, #16
   85cf8:	fbb6 f2f1 	udiv	r2, r6, r1
   85cfc:	fb01 6612 	mls	r6, r1, r2, r6
   85d00:	b2a0      	uxth	r0, r4
   85d02:	fb00 f302 	mul.w	r3, r0, r2
   85d06:	0c2f      	lsrs	r7, r5, #16
   85d08:	ea47 4606 	orr.w	r6, r7, r6, lsl #16
   85d0c:	42b3      	cmp	r3, r6
   85d0e:	d909      	bls.n	85d24 <__udivdi3+0x5c>
   85d10:	1936      	adds	r6, r6, r4
   85d12:	f102 37ff 	add.w	r7, r2, #4294967295
   85d16:	f080 80fd 	bcs.w	85f14 <__udivdi3+0x24c>
   85d1a:	42b3      	cmp	r3, r6
   85d1c:	f240 80fa 	bls.w	85f14 <__udivdi3+0x24c>
   85d20:	3a02      	subs	r2, #2
   85d22:	4426      	add	r6, r4
   85d24:	1af6      	subs	r6, r6, r3
   85d26:	fbb6 f3f1 	udiv	r3, r6, r1
   85d2a:	fb01 6113 	mls	r1, r1, r3, r6
   85d2e:	fb00 f003 	mul.w	r0, r0, r3
   85d32:	b2ad      	uxth	r5, r5
   85d34:	ea45 4101 	orr.w	r1, r5, r1, lsl #16
   85d38:	4288      	cmp	r0, r1
   85d3a:	d908      	bls.n	85d4e <__udivdi3+0x86>
   85d3c:	1909      	adds	r1, r1, r4
   85d3e:	f103 36ff 	add.w	r6, r3, #4294967295
   85d42:	f080 80e9 	bcs.w	85f18 <__udivdi3+0x250>
   85d46:	4288      	cmp	r0, r1
   85d48:	f240 80e6 	bls.w	85f18 <__udivdi3+0x250>
   85d4c:	3b02      	subs	r3, #2
   85d4e:	ea43 4202 	orr.w	r2, r3, r2, lsl #16
   85d52:	2300      	movs	r3, #0
   85d54:	4610      	mov	r0, r2
   85d56:	4619      	mov	r1, r3
   85d58:	e8bd 0ff0 	ldmia.w	sp!, {r4, r5, r6, r7, r8, r9, sl, fp}
   85d5c:	4770      	bx	lr
   85d5e:	428b      	cmp	r3, r1
   85d60:	d84c      	bhi.n	85dfc <__udivdi3+0x134>
   85d62:	fab3 f683 	clz	r6, r3
   85d66:	2e00      	cmp	r6, #0
   85d68:	d14f      	bne.n	85e0a <__udivdi3+0x142>
   85d6a:	428b      	cmp	r3, r1
   85d6c:	d302      	bcc.n	85d74 <__udivdi3+0xac>
   85d6e:	4282      	cmp	r2, r0
   85d70:	f200 80dd 	bhi.w	85f2e <__udivdi3+0x266>
   85d74:	e8bd 0ff0 	ldmia.w	sp!, {r4, r5, r6, r7, r8, r9, sl, fp}
   85d78:	2300      	movs	r3, #0
   85d7a:	2201      	movs	r2, #1
   85d7c:	4610      	mov	r0, r2
   85d7e:	4619      	mov	r1, r3
   85d80:	4770      	bx	lr
   85d82:	b912      	cbnz	r2, 85d8a <__udivdi3+0xc2>
   85d84:	2401      	movs	r4, #1
   85d86:	fbb4 f4f2 	udiv	r4, r4, r2
   85d8a:	fab4 f284 	clz	r2, r4
   85d8e:	2a00      	cmp	r2, #0
   85d90:	f040 8082 	bne.w	85e98 <__udivdi3+0x1d0>
   85d94:	1b09      	subs	r1, r1, r4
   85d96:	0c26      	lsrs	r6, r4, #16
   85d98:	b2a7      	uxth	r7, r4
   85d9a:	2301      	movs	r3, #1
   85d9c:	fbb1 f0f6 	udiv	r0, r1, r6
   85da0:	fb06 1110 	mls	r1, r6, r0, r1
   85da4:	fb07 f200 	mul.w	r2, r7, r0
   85da8:	ea4f 4c15 	mov.w	ip, r5, lsr #16
   85dac:	ea4c 4101 	orr.w	r1, ip, r1, lsl #16
   85db0:	428a      	cmp	r2, r1
   85db2:	d907      	bls.n	85dc4 <__udivdi3+0xfc>
   85db4:	1909      	adds	r1, r1, r4
   85db6:	f100 3cff 	add.w	ip, r0, #4294967295
   85dba:	d202      	bcs.n	85dc2 <__udivdi3+0xfa>
   85dbc:	428a      	cmp	r2, r1
   85dbe:	f200 80c8 	bhi.w	85f52 <__udivdi3+0x28a>
   85dc2:	4660      	mov	r0, ip
   85dc4:	1a89      	subs	r1, r1, r2
   85dc6:	fbb1 f2f6 	udiv	r2, r1, r6
   85dca:	fb06 1112 	mls	r1, r6, r2, r1
   85dce:	fb07 f702 	mul.w	r7, r7, r2
   85dd2:	b2ad      	uxth	r5, r5
   85dd4:	ea45 4501 	orr.w	r5, r5, r1, lsl #16
   85dd8:	42af      	cmp	r7, r5
   85dda:	d908      	bls.n	85dee <__udivdi3+0x126>
   85ddc:	192c      	adds	r4, r5, r4
   85dde:	f102 31ff 	add.w	r1, r2, #4294967295
   85de2:	f080 809b 	bcs.w	85f1c <__udivdi3+0x254>
   85de6:	42a7      	cmp	r7, r4
   85de8:	f240 8098 	bls.w	85f1c <__udivdi3+0x254>
   85dec:	3a02      	subs	r2, #2
   85dee:	ea42 4200 	orr.w	r2, r2, r0, lsl #16
   85df2:	4610      	mov	r0, r2
   85df4:	4619      	mov	r1, r3
   85df6:	e8bd 0ff0 	ldmia.w	sp!, {r4, r5, r6, r7, r8, r9, sl, fp}
   85dfa:	4770      	bx	lr
   85dfc:	2300      	movs	r3, #0
   85dfe:	461a      	mov	r2, r3
   85e00:	4610      	mov	r0, r2
   85e02:	4619      	mov	r1, r3
   85e04:	e8bd 0ff0 	ldmia.w	sp!, {r4, r5, r6, r7, r8, r9, sl, fp}
   85e08:	4770      	bx	lr
   85e0a:	f1c6 0520 	rsb	r5, r6, #32
   85e0e:	fa22 f705 	lsr.w	r7, r2, r5
   85e12:	fa03 f406 	lsl.w	r4, r3, r6
   85e16:	fa21 f305 	lsr.w	r3, r1, r5
   85e1a:	fa01 fb06 	lsl.w	fp, r1, r6
   85e1e:	fa20 f505 	lsr.w	r5, r0, r5
   85e22:	433c      	orrs	r4, r7
   85e24:	ea4f 4814 	mov.w	r8, r4, lsr #16
   85e28:	fbb3 fcf8 	udiv	ip, r3, r8
   85e2c:	fb08 331c 	mls	r3, r8, ip, r3
   85e30:	fa1f f984 	uxth.w	r9, r4
   85e34:	fb09 fa0c 	mul.w	sl, r9, ip
   85e38:	ea45 0b0b 	orr.w	fp, r5, fp
   85e3c:	ea4f 451b 	mov.w	r5, fp, lsr #16
   85e40:	ea45 4303 	orr.w	r3, r5, r3, lsl #16
   85e44:	459a      	cmp	sl, r3
   85e46:	fa02 f206 	lsl.w	r2, r2, r6
   85e4a:	d904      	bls.n	85e56 <__udivdi3+0x18e>
   85e4c:	191b      	adds	r3, r3, r4
   85e4e:	f10c 35ff 	add.w	r5, ip, #4294967295
   85e52:	d36f      	bcc.n	85f34 <__udivdi3+0x26c>
   85e54:	46ac      	mov	ip, r5
   85e56:	ebca 0303 	rsb	r3, sl, r3
   85e5a:	fbb3 f5f8 	udiv	r5, r3, r8
   85e5e:	fb08 3315 	mls	r3, r8, r5, r3
   85e62:	fb09 f905 	mul.w	r9, r9, r5
   85e66:	fa1f fb8b 	uxth.w	fp, fp
   85e6a:	ea4b 4703 	orr.w	r7, fp, r3, lsl #16
   85e6e:	45b9      	cmp	r9, r7
   85e70:	d904      	bls.n	85e7c <__udivdi3+0x1b4>
   85e72:	193f      	adds	r7, r7, r4
   85e74:	f105 33ff 	add.w	r3, r5, #4294967295
   85e78:	d362      	bcc.n	85f40 <__udivdi3+0x278>
   85e7a:	461d      	mov	r5, r3
   85e7c:	ea45 4c0c 	orr.w	ip, r5, ip, lsl #16
   85e80:	fbac 2302 	umull	r2, r3, ip, r2
   85e84:	ebc9 0707 	rsb	r7, r9, r7
   85e88:	429f      	cmp	r7, r3
   85e8a:	f04f 0500 	mov.w	r5, #0
   85e8e:	d34a      	bcc.n	85f26 <__udivdi3+0x25e>
   85e90:	d046      	beq.n	85f20 <__udivdi3+0x258>
   85e92:	4662      	mov	r2, ip
   85e94:	462b      	mov	r3, r5
   85e96:	e75d      	b.n	85d54 <__udivdi3+0x8c>
   85e98:	4094      	lsls	r4, r2
   85e9a:	f1c2 0920 	rsb	r9, r2, #32
   85e9e:	fa21 fc09 	lsr.w	ip, r1, r9
   85ea2:	4091      	lsls	r1, r2
   85ea4:	fa20 f909 	lsr.w	r9, r0, r9
   85ea8:	0c26      	lsrs	r6, r4, #16
   85eaa:	fbbc f8f6 	udiv	r8, ip, r6
   85eae:	fb06 cc18 	mls	ip, r6, r8, ip
   85eb2:	b2a7      	uxth	r7, r4
   85eb4:	fb07 f308 	mul.w	r3, r7, r8
   85eb8:	ea49 0901 	orr.w	r9, r9, r1
   85ebc:	ea4f 4119 	mov.w	r1, r9, lsr #16
   85ec0:	ea41 4c0c 	orr.w	ip, r1, ip, lsl #16
   85ec4:	4563      	cmp	r3, ip
   85ec6:	fa00 f502 	lsl.w	r5, r0, r2
   85eca:	d909      	bls.n	85ee0 <__udivdi3+0x218>
   85ecc:	eb1c 0c04 	adds.w	ip, ip, r4
   85ed0:	f108 32ff 	add.w	r2, r8, #4294967295
   85ed4:	d23b      	bcs.n	85f4e <__udivdi3+0x286>
   85ed6:	4563      	cmp	r3, ip
   85ed8:	d939      	bls.n	85f4e <__udivdi3+0x286>
   85eda:	f1a8 0802 	sub.w	r8, r8, #2
   85ede:	44a4      	add	ip, r4
   85ee0:	ebc3 0c0c 	rsb	ip, r3, ip
   85ee4:	fbbc f3f6 	udiv	r3, ip, r6
   85ee8:	fb06 c113 	mls	r1, r6, r3, ip
   85eec:	fb07 f203 	mul.w	r2, r7, r3
   85ef0:	fa1f f989 	uxth.w	r9, r9
   85ef4:	ea49 4101 	orr.w	r1, r9, r1, lsl #16
   85ef8:	428a      	cmp	r2, r1
   85efa:	d907      	bls.n	85f0c <__udivdi3+0x244>
   85efc:	1909      	adds	r1, r1, r4
   85efe:	f103 30ff 	add.w	r0, r3, #4294967295
   85f02:	d222      	bcs.n	85f4a <__udivdi3+0x282>
   85f04:	428a      	cmp	r2, r1
   85f06:	d920      	bls.n	85f4a <__udivdi3+0x282>
   85f08:	3b02      	subs	r3, #2
   85f0a:	4421      	add	r1, r4
   85f0c:	1a89      	subs	r1, r1, r2
   85f0e:	ea43 4308 	orr.w	r3, r3, r8, lsl #16
   85f12:	e743      	b.n	85d9c <__udivdi3+0xd4>
   85f14:	463a      	mov	r2, r7
   85f16:	e705      	b.n	85d24 <__udivdi3+0x5c>
   85f18:	4633      	mov	r3, r6
   85f1a:	e718      	b.n	85d4e <__udivdi3+0x86>
   85f1c:	460a      	mov	r2, r1
   85f1e:	e766      	b.n	85dee <__udivdi3+0x126>
   85f20:	40b0      	lsls	r0, r6
   85f22:	4290      	cmp	r0, r2
   85f24:	d2b5      	bcs.n	85e92 <__udivdi3+0x1ca>
   85f26:	f10c 32ff 	add.w	r2, ip, #4294967295
   85f2a:	2300      	movs	r3, #0
   85f2c:	e712      	b.n	85d54 <__udivdi3+0x8c>
   85f2e:	4633      	mov	r3, r6
   85f30:	4632      	mov	r2, r6
   85f32:	e70f      	b.n	85d54 <__udivdi3+0x8c>
   85f34:	459a      	cmp	sl, r3
   85f36:	d98d      	bls.n	85e54 <__udivdi3+0x18c>
   85f38:	f1ac 0c02 	sub.w	ip, ip, #2
   85f3c:	4423      	add	r3, r4
   85f3e:	e78a      	b.n	85e56 <__udivdi3+0x18e>
   85f40:	45b9      	cmp	r9, r7
   85f42:	d99a      	bls.n	85e7a <__udivdi3+0x1b2>
   85f44:	3d02      	subs	r5, #2
   85f46:	4427      	add	r7, r4
   85f48:	e798      	b.n	85e7c <__udivdi3+0x1b4>
   85f4a:	4603      	mov	r3, r0
   85f4c:	e7de      	b.n	85f0c <__udivdi3+0x244>
   85f4e:	4690      	mov	r8, r2
   85f50:	e7c6      	b.n	85ee0 <__udivdi3+0x218>
   85f52:	3802      	subs	r0, #2
   85f54:	4421      	add	r1, r4
   85f56:	e735      	b.n	85dc4 <__udivdi3+0xfc>
   85f58:	70784520 	.word	0x70784520
   85f5c:	65746365 	.word	0x65746365
   85f60:	52542064 	.word	0x52542064
   85f64:	57204555 	.word	0x57204555
   85f68:	46207361 	.word	0x46207361
   85f6c:	45534c41 	.word	0x45534c41
   85f70:	00000000 	.word	0x00000000
   85f74:	70784520 	.word	0x70784520
   85f78:	65746365 	.word	0x65746365
   85f7c:	41462064 	.word	0x41462064
   85f80:	2045534c 	.word	0x2045534c
   85f84:	20736157 	.word	0x20736157
   85f88:	45555254 	.word	0x45555254
   85f8c:	00000000 	.word	0x00000000

00085f90 <UnityStrFail>:
   85f90:	4c494146 00000000                       FAIL....

00085f98 <UnityStrPass>:
   85f98:	53534150 00000000 736e6f4b 6e656c6f     PASS....Konsolen
   85fa8:	61657220 000a6f64 3d3d3d3d 3d3d3d3d      reado..========
   85fb8:	3d3d3d3d 0a3d3d3d 00000000 25202d2d     =======.....-- %
   85fc8:	000d0a73 75647241 206f6e69 2f657544     s...Arduino Due/
   85fd8:	00000058 43202d2d 69706d6f 3a64656c     X...-- Compiled:
   85fe8:	20732520 2d207325 000d0a2d 2079614d      %s %s --...May 
   85ff8:	32203231 00373130 353a3030 39353a34     12 2017.00:54:59
   86008:	00000000 6c696857 74617365 006e6573     ....Whilesatsen.
   86018:	542f2e2e 2f747365 74736574 6c61435f     ../Test/test_Cal
   86028:	616c7563 6e416574 2e656c67 00000063     culateAngle.c...
   86038:	74736574 7465675f 69645f58 00006666     test_getX_diff..
   86048:	74736574 7465675f 69645f59 00006666     test_getY_diff..
   86058:	74736574 6c61435f 616c7563 6e416574     test_CalculateAn
   86068:	00656c67 74736574 6c61435f 616c7563     gle.test_Calcula
   86078:	65736574 696f5074 0000746e 74736574     tesetPoint..test
   86088:	6c61435f 616c7563 69446574 6e617473     _CalculateDistan
   86098:	00006563 736f6361 00000000 74727173     ce..acos....sqrt
   860a8:	00000000 00000043                       ....C...

000860b0 <_global_impure_ptr>:
   860b0:	20070148 33323130 37363534 42413938     H.. 0123456789AB
   860c0:	46454443 00000000 33323130 37363534     CDEF....01234567
   860d0:	62613938 66656463 00000000 6c756e28     89abcdef....(nul
   860e0:	0000296c                                l)..

000860e4 <zeroes.6721>:
   860e4:	30303030 30303030 30303030 30303030     0000000000000000

000860f4 <blanks.6720>:
   860f4:	20202020 20202020 20202020 20202020                     

00086104 <_init>:
   86104:	b5f8      	push	{r3, r4, r5, r6, r7, lr}
   86106:	bf00      	nop
   86108:	bcf8      	pop	{r3, r4, r5, r6, r7}
   8610a:	bc08      	pop	{r3}
   8610c:	469e      	mov	lr, r3
   8610e:	4770      	bx	lr

00086110 <__init_array_start>:
   86110:	00084095 	.word	0x00084095

00086114 <__frame_dummy_init_array_entry>:
   86114:	00080119                                ....

00086118 <_fini>:
   86118:	b5f8      	push	{r3, r4, r5, r6, r7, lr}
   8611a:	bf00      	nop
   8611c:	bcf8      	pop	{r3, r4, r5, r6, r7}
   8611e:	bc08      	pop	{r3}
   86120:	469e      	mov	lr, r3
   86122:	4770      	bx	lr

00086124 <__fini_array_start>:
   86124:	000800f5 	.word	0x000800f5

Disassembly of section .relocate:

20070000 <SystemInit>:
20070000:	f44f 6380 	mov.w	r3, #1024	; 0x400
20070004:	4a20      	ldr	r2, [pc, #128]	; (20070088 <SystemInit+0x88>)
20070006:	6013      	str	r3, [r2, #0]
20070008:	f502 7200 	add.w	r2, r2, #512	; 0x200
2007000c:	6013      	str	r3, [r2, #0]
2007000e:	4b1f      	ldr	r3, [pc, #124]	; (2007008c <SystemInit+0x8c>)
20070010:	6a1b      	ldr	r3, [r3, #32]
20070012:	f013 7f80 	tst.w	r3, #16777216	; 0x1000000
20070016:	d107      	bne.n	20070028 <SystemInit+0x28>
20070018:	4a1d      	ldr	r2, [pc, #116]	; (20070090 <SystemInit+0x90>)
2007001a:	4b1c      	ldr	r3, [pc, #112]	; (2007008c <SystemInit+0x8c>)
2007001c:	621a      	str	r2, [r3, #32]
2007001e:	461a      	mov	r2, r3
20070020:	6e93      	ldr	r3, [r2, #104]	; 0x68
20070022:	f013 0f01 	tst.w	r3, #1
20070026:	d0fb      	beq.n	20070020 <SystemInit+0x20>
20070028:	4a1a      	ldr	r2, [pc, #104]	; (20070094 <SystemInit+0x94>)
2007002a:	4b18      	ldr	r3, [pc, #96]	; (2007008c <SystemInit+0x8c>)
2007002c:	621a      	str	r2, [r3, #32]
2007002e:	461a      	mov	r2, r3
20070030:	6e93      	ldr	r3, [r2, #104]	; 0x68
20070032:	f413 3f80 	tst.w	r3, #65536	; 0x10000
20070036:	d0fb      	beq.n	20070030 <SystemInit+0x30>
20070038:	4b14      	ldr	r3, [pc, #80]	; (2007008c <SystemInit+0x8c>)
2007003a:	6b1a      	ldr	r2, [r3, #48]	; 0x30
2007003c:	f022 0203 	bic.w	r2, r2, #3
20070040:	f042 0201 	orr.w	r2, r2, #1
20070044:	631a      	str	r2, [r3, #48]	; 0x30
20070046:	461a      	mov	r2, r3
20070048:	6e93      	ldr	r3, [r2, #104]	; 0x68
2007004a:	f013 0f08 	tst.w	r3, #8
2007004e:	d0fb      	beq.n	20070048 <SystemInit+0x48>
20070050:	4a11      	ldr	r2, [pc, #68]	; (20070098 <SystemInit+0x98>)
20070052:	4b0e      	ldr	r3, [pc, #56]	; (2007008c <SystemInit+0x8c>)
20070054:	629a      	str	r2, [r3, #40]	; 0x28
20070056:	461a      	mov	r2, r3
20070058:	6e93      	ldr	r3, [r2, #104]	; 0x68
2007005a:	f013 0f02 	tst.w	r3, #2
2007005e:	d0fb      	beq.n	20070058 <SystemInit+0x58>
20070060:	2211      	movs	r2, #17
20070062:	4b0a      	ldr	r3, [pc, #40]	; (2007008c <SystemInit+0x8c>)
20070064:	631a      	str	r2, [r3, #48]	; 0x30
20070066:	461a      	mov	r2, r3
20070068:	6e93      	ldr	r3, [r2, #104]	; 0x68
2007006a:	f013 0f08 	tst.w	r3, #8
2007006e:	d0fb      	beq.n	20070068 <SystemInit+0x68>
20070070:	2212      	movs	r2, #18
20070072:	4b06      	ldr	r3, [pc, #24]	; (2007008c <SystemInit+0x8c>)
20070074:	631a      	str	r2, [r3, #48]	; 0x30
20070076:	461a      	mov	r2, r3
20070078:	6e93      	ldr	r3, [r2, #104]	; 0x68
2007007a:	f013 0f08 	tst.w	r3, #8
2007007e:	d0fb      	beq.n	20070078 <SystemInit+0x78>
20070080:	4a06      	ldr	r2, [pc, #24]	; (2007009c <SystemInit+0x9c>)
20070082:	4b07      	ldr	r3, [pc, #28]	; (200700a0 <SystemInit+0xa0>)
20070084:	601a      	str	r2, [r3, #0]
20070086:	4770      	bx	lr
20070088:	400e0a00 	.word	0x400e0a00
2007008c:	400e0600 	.word	0x400e0600
20070090:	00370809 	.word	0x00370809
20070094:	01370809 	.word	0x01370809
20070098:	200d3f01 	.word	0x200d3f01
2007009c:	0501bd00 	.word	0x0501bd00
200700a0:	20070138 	.word	0x20070138

200700a4 <system_init_flash>:
200700a4:	4b1b      	ldr	r3, [pc, #108]	; (20070114 <system_init_flash+0x70>)
200700a6:	4298      	cmp	r0, r3
200700a8:	d806      	bhi.n	200700b8 <system_init_flash+0x14>
200700aa:	2300      	movs	r3, #0
200700ac:	4a1a      	ldr	r2, [pc, #104]	; (20070118 <system_init_flash+0x74>)
200700ae:	6013      	str	r3, [r2, #0]
200700b0:	f502 7200 	add.w	r2, r2, #512	; 0x200
200700b4:	6013      	str	r3, [r2, #0]
200700b6:	4770      	bx	lr
200700b8:	4b18      	ldr	r3, [pc, #96]	; (2007011c <system_init_flash+0x78>)
200700ba:	4298      	cmp	r0, r3
200700bc:	d807      	bhi.n	200700ce <system_init_flash+0x2a>
200700be:	f44f 7380 	mov.w	r3, #256	; 0x100
200700c2:	4a15      	ldr	r2, [pc, #84]	; (20070118 <system_init_flash+0x74>)
200700c4:	6013      	str	r3, [r2, #0]
200700c6:	f502 7200 	add.w	r2, r2, #512	; 0x200
200700ca:	6013      	str	r3, [r2, #0]
200700cc:	4770      	bx	lr
200700ce:	4b14      	ldr	r3, [pc, #80]	; (20070120 <system_init_flash+0x7c>)
200700d0:	4298      	cmp	r0, r3
200700d2:	d807      	bhi.n	200700e4 <system_init_flash+0x40>
200700d4:	f44f 7300 	mov.w	r3, #512	; 0x200
200700d8:	4a0f      	ldr	r2, [pc, #60]	; (20070118 <system_init_flash+0x74>)
200700da:	6013      	str	r3, [r2, #0]
200700dc:	f502 7200 	add.w	r2, r2, #512	; 0x200
200700e0:	6013      	str	r3, [r2, #0]
200700e2:	4770      	bx	lr
200700e4:	4b0f      	ldr	r3, [pc, #60]	; (20070124 <system_init_flash+0x80>)
200700e6:	4298      	cmp	r0, r3
200700e8:	d807      	bhi.n	200700fa <system_init_flash+0x56>
200700ea:	f44f 7340 	mov.w	r3, #768	; 0x300
200700ee:	4a0a      	ldr	r2, [pc, #40]	; (20070118 <system_init_flash+0x74>)
200700f0:	6013      	str	r3, [r2, #0]
200700f2:	f502 7200 	add.w	r2, r2, #512	; 0x200
200700f6:	6013      	str	r3, [r2, #0]
200700f8:	4770      	bx	lr
200700fa:	4b0b      	ldr	r3, [pc, #44]	; (20070128 <system_init_flash+0x84>)
200700fc:	4298      	cmp	r0, r3
200700fe:	bf94      	ite	ls
20070100:	f44f 6380 	movls.w	r3, #1024	; 0x400
20070104:	f44f 63a0 	movhi.w	r3, #1280	; 0x500
20070108:	4a03      	ldr	r2, [pc, #12]	; (20070118 <system_init_flash+0x74>)
2007010a:	6013      	str	r3, [r2, #0]
2007010c:	f502 7200 	add.w	r2, r2, #512	; 0x200
20070110:	6013      	str	r3, [r2, #0]
20070112:	4770      	bx	lr
20070114:	0121eabf 	.word	0x0121eabf
20070118:	400e0a00 	.word	0x400e0a00
2007011c:	02faf07f 	.word	0x02faf07f
20070120:	03d08fff 	.word	0x03d08fff
20070124:	04c4b3ff 	.word	0x04c4b3ff
20070128:	055d4a7f 	.word	0x055d4a7f

2007012c <Kp>:
2007012c:	00000004                                ....

20070130 <speed>:
20070130:	00000672                                r...

20070134 <g_interrupt_enabled>:
20070134:	00000001                                ....

20070138 <SystemCoreClock>:
20070138:	003d0900                                ..=.

2007013c <OB1x>:
2007013c:	00000014                                ....

20070140 <OB1y>:
20070140:	0000001e                                ....

20070144 <__fdlib_version>:
20070144:	00000001                                ....

20070148 <impure_data>:
20070148:	00000000 20070434 2007049c 20070504     ....4.. ... ... 
	...
2007017c:	000860ac 00000000 00000000 00000000     .`..............
	...
200701f0:	00000001 00000000 abcd330e e66d1234     .........3..4.m.
20070200:	0005deec 0000000b 00000000 00000000     ................
	...

20070570 <_impure_ptr>:
20070570:	20070148                                H.. 

20070574 <lc_ctype_charset>:
20070574:	49435341 00000049 00000000 00000000     ASCII...........
	...

20070594 <__mb_cur_max>:
20070594:	00000001                                ....

20070598 <__malloc_av_>:
	...
200705a0:	20070598 20070598 200705a0 200705a0     ... ... ... ... 
200705b0:	200705a8 200705a8 200705b0 200705b0     ... ... ... ... 
200705c0:	200705b8 200705b8 200705c0 200705c0     ... ... ... ... 
200705d0:	200705c8 200705c8 200705d0 200705d0     ... ... ... ... 
200705e0:	200705d8 200705d8 200705e0 200705e0     ... ... ... ... 
200705f0:	200705e8 200705e8 200705f0 200705f0     ... ... ... ... 
20070600:	200705f8 200705f8 20070600 20070600     ... ... ... ... 
20070610:	20070608 20070608 20070610 20070610     ... ... ... ... 
20070620:	20070618 20070618 20070620 20070620     ... ...  ..  .. 
20070630:	20070628 20070628 20070630 20070630     (.. (.. 0.. 0.. 
20070640:	20070638 20070638 20070640 20070640     8.. 8.. @.. @.. 
20070650:	20070648 20070648 20070650 20070650     H.. H.. P.. P.. 
20070660:	20070658 20070658 20070660 20070660     X.. X.. `.. `.. 
20070670:	20070668 20070668 20070670 20070670     h.. h.. p.. p.. 
20070680:	20070678 20070678 20070680 20070680     x.. x.. ... ... 
20070690:	20070688 20070688 20070690 20070690     ... ... ... ... 
200706a0:	20070698 20070698 200706a0 200706a0     ... ... ... ... 
200706b0:	200706a8 200706a8 200706b0 200706b0     ... ... ... ... 
200706c0:	200706b8 200706b8 200706c0 200706c0     ... ... ... ... 
200706d0:	200706c8 200706c8 200706d0 200706d0     ... ... ... ... 
200706e0:	200706d8 200706d8 200706e0 200706e0     ... ... ... ... 
200706f0:	200706e8 200706e8 200706f0 200706f0     ... ... ... ... 
20070700:	200706f8 200706f8 20070700 20070700     ... ... ... ... 
20070710:	20070708 20070708 20070710 20070710     ... ... ... ... 
20070720:	20070718 20070718 20070720 20070720     ... ...  ..  .. 
20070730:	20070728 20070728 20070730 20070730     (.. (.. 0.. 0.. 
20070740:	20070738 20070738 20070740 20070740     8.. 8.. @.. @.. 
20070750:	20070748 20070748 20070750 20070750     H.. H.. P.. P.. 
20070760:	20070758 20070758 20070760 20070760     X.. X.. `.. `.. 
20070770:	20070768 20070768 20070770 20070770     h.. h.. p.. p.. 
20070780:	20070778 20070778 20070780 20070780     x.. x.. ... ... 
20070790:	20070788 20070788 20070790 20070790     ... ... ... ... 
200707a0:	20070798 20070798 200707a0 200707a0     ... ... ... ... 
200707b0:	200707a8 200707a8 200707b0 200707b0     ... ... ... ... 
200707c0:	200707b8 200707b8 200707c0 200707c0     ... ... ... ... 
200707d0:	200707c8 200707c8 200707d0 200707d0     ... ... ... ... 
200707e0:	200707d8 200707d8 200707e0 200707e0     ... ... ... ... 
200707f0:	200707e8 200707e8 200707f0 200707f0     ... ... ... ... 
20070800:	200707f8 200707f8 20070800 20070800     ... ... ... ... 
20070810:	20070808 20070808 20070810 20070810     ... ... ... ... 
20070820:	20070818 20070818 20070820 20070820     ... ...  ..  .. 
20070830:	20070828 20070828 20070830 20070830     (.. (.. 0.. 0.. 
20070840:	20070838 20070838 20070840 20070840     8.. 8.. @.. @.. 
20070850:	20070848 20070848 20070850 20070850     H.. H.. P.. P.. 
20070860:	20070858 20070858 20070860 20070860     X.. X.. `.. `.. 
20070870:	20070868 20070868 20070870 20070870     h.. h.. p.. p.. 
20070880:	20070878 20070878 20070880 20070880     x.. x.. ... ... 
20070890:	20070888 20070888 20070890 20070890     ... ... ... ... 
200708a0:	20070898 20070898 200708a0 200708a0     ... ... ... ... 
200708b0:	200708a8 200708a8 200708b0 200708b0     ... ... ... ... 
200708c0:	200708b8 200708b8 200708c0 200708c0     ... ... ... ... 
200708d0:	200708c8 200708c8 200708d0 200708d0     ... ... ... ... 
200708e0:	200708d8 200708d8 200708e0 200708e0     ... ... ... ... 
200708f0:	200708e8 200708e8 200708f0 200708f0     ... ... ... ... 
20070900:	200708f8 200708f8 20070900 20070900     ... ... ... ... 
20070910:	20070908 20070908 20070910 20070910     ... ... ... ... 
20070920:	20070918 20070918 20070920 20070920     ... ...  ..  .. 
20070930:	20070928 20070928 20070930 20070930     (.. (.. 0.. 0.. 
20070940:	20070938 20070938 20070940 20070940     8.. 8.. @.. @.. 
20070950:	20070948 20070948 20070950 20070950     H.. H.. P.. P.. 
20070960:	20070958 20070958 20070960 20070960     X.. X.. `.. `.. 
20070970:	20070968 20070968 20070970 20070970     h.. h.. p.. p.. 
20070980:	20070978 20070978 20070980 20070980     x.. x.. ... ... 
20070990:	20070988 20070988 20070990 20070990     ... ... ... ... 

200709a0 <__malloc_trim_threshold>:
200709a0:	00020000                                ....

200709a4 <__malloc_sbrk_base>:
200709a4:	ffffffff                                ....

200709a8 <__wctomb>:
200709a8:	0008575d                                ]W..
